(dp1
S'PRP$'
p2
(dp3
g2
I1
sS'VBG'
p4
I22
sS'FW'
p5
I1
sS'VBN'
p6
I8
sS','
I9
sS'VBP'
p7
I7
sS'WDT'
p8
I1
sS'JJ'
p9
I2
sS'WP'
p10
I1
sS'VBZ'
p11
I10
sS'DT'
p12
I8
sS'#'
I1
sS'"'
I8
sS'RP'
p13
I5
sS'$'
I1
sS'NN'
p14
I3
sS'start'
p15
I17
sS')'
I1
sS'('
I2
sS'VBD'
p16
I42
sS'POS'
p17
I1
sS'.'
I1
sS'TO'
p18
I17
sS'PRP'
p19
I1
sS'RB'
p20
I9
sS':'
I2
sS'NNS'
p21
I1
sS'NNP'
p22
I1
sS'VB'
p23
I67
sS'WRB'
p24
I4
sS'`'
I1
sS'CC'
p25
I27
sS'LS'
p26
I1
sS'PDT'
p27
I1
sS'RBS'
p28
I1
sS'RBR'
p29
I1
sS'CD'
p30
I1
sS'EX'
p31
I1
sS'IN'
p32
I185
sS'WP$'
p33
I1
sS'MD'
p34
I2
sS'NNPS'
p35
I1
sS"'"
I1
sS'JJS'
p36
I1
sS'JJR'
p37
I1
sS'SYM'
p38
I1
sS'UH'
p39
I1
ssg4
(dp40
g2
I6
sg4
I5
sg5
I1
sg6
I24
sS','
I101
sg7
I49
sg8
I1
sg9
I16
sg10
I1
sg11
I52
sg12
I34
sS'#'
I1
sS'"'
I10
sg13
I1
sS'$'
I1
sg14
I56
sg15
I20
sS')'
I2
sS'('
I1
sg16
I21
sg17
I4
sS'.'
I1
sg18
I4
sg19
I4
sg20
I35
sS':'
I2
sg21
I54
sg22
I10
sg23
I19
sg24
I1
sS'`'
I1
sg25
I19
sg26
I1
sg27
I1
sg28
I1
sg29
I1
sg30
I3
sg31
I1
sg32
I149
sg33
I1
sg34
I1
sg35
I2
sS"'"
I1
sg36
I1
sg37
I1
sg38
I1
sg39
I1
ssg5
(dp41
g2
I2
sg4
I1
sg5
I5
sg6
I1
sS','
I2
sg7
I1
sg8
I1
sg9
I1
sg10
I1
sg11
I1
sg12
I1
sS'#'
I1
sS'"'
I3
sg13
I1
sS'$'
I1
sg14
I1
sg15
I2
sS')'
I1
sS'('
I1
sg16
I1
sg17
I1
sS'.'
I1
sg18
I1
sg19
I1
sg20
I2
sS':'
I1
sg21
I1
sg22
I7
sg23
I1
sg24
I1
sS'`'
I1
sg25
I1
sg26
I1
sg27
I1
sg28
I1
sg29
I1
sg30
I2
sg31
I1
sg32
I2
sg33
I1
sg34
I1
sg35
I1
sS"'"
I1
sg36
I1
sg37
I1
sg38
I1
sg39
I1
ssg6
(dp42
g2
I1
sg4
I20
sg5
I1
sg6
I27
sS','
I34
sg7
I108
sg8
I1
sg9
I3
sg10
I1
sg11
I140
sg12
I24
sS'#'
I1
sS'"'
I7
sg13
I1
sS'$'
I1
sg14
I86
sg15
I12
sS')'
I1
sS'('
I2
sg16
I138
sg17
I2
sS'.'
I1
sg18
I2
sg19
I1
sg20
I108
sS':'
I5
sg21
I62
sg22
I2
sg23
I104
sg24
I2
sS'`'
I1
sg25
I13
sg26
I1
sg27
I1
sg28
I1
sg29
I2
sg30
I6
sg31
I1
sg32
I22
sg33
I1
sg34
I2
sg35
I2
sS"'"
I1
sg36
I1
sg37
I2
sg38
I1
sg39
I1
ssS','
(dp43
g2
I1
sg4
I5
sg5
I1
sg6
I27
sS','
I1
sg7
I18
sg8
I2
sg9
I90
sg10
I4
sg11
I13
sg12
I6
sS'#'
I1
sS'"'
I1
sg13
I4
sS'$'
I1
sg14
I704
sg15
I1
sS')'
I21
sS'('
I1
sg16
I36
sg17
I1
sS'.'
I1
sg18
I3
sg19
I17
sg20
I142
sS':'
I1
sg21
I366
sg22
I543
sg23
I22
sg24
I1
sS'`'
I1
sg25
I7
sg26
I7
sg27
I1
sg28
I1
sg29
I3
sg30
I118
sg31
I1
sg32
I8
sg33
I1
sg34
I1
sg35
I23
sS"'"
I1
sg36
I4
sg37
I12
sg38
I1
sg39
I4
ssg7
(dp44
g2
I1
sg4
I2
sg5
I1
sg6
I3
sS','
I24
sg7
I1
sg8
I30
sg9
I3
sg10
I21
sg11
I1
sg12
I14
sS'#'
I1
sS'"'
I6
sg13
I1
sS'$'
I1
sg14
I28
sg15
I2
sS')'
I1
sS'('
I1
sg16
I2
sg17
I1
sS'.'
I1
sg18
I1
sg19
I143
sg20
I43
sS':'
I3
sg21
I206
sg22
I24
sg23
I3
sg24
I2
sS'`'
I1
sg25
I16
sg26
I1
sg27
I1
sg28
I1
sg29
I1
sg30
I9
sg31
I5
sg32
I3
sg33
I1
sg34
I1
sg35
I15
sS"'"
I1
sg36
I4
sg37
I1
sg38
I1
sg39
I1
ssg8
(dp45
g2
I1
sg4
I1
sg5
I1
sg6
I1
sS','
I86
sg7
I1
sg8
I1
sg9
I1
sg10
I1
sg11
I1
sg12
I1
sS'#'
I1
sS'"'
I4
sg13
I1
sS'$'
I1
sg14
I71
sg15
I4
sS')'
I1
sS'('
I1
sg16
I1
sg17
I1
sS'.'
I1
sg18
I3
sg19
I2
sg20
I1
sS':'
I4
sg21
I32
sg22
I6
sg23
I1
sg24
I1
sS'`'
I1
sg25
I3
sg26
I1
sg27
I1
sg28
I1
sg29
I1
sg30
I1
sg31
I1
sg32
I16
sg33
I1
sg34
I1
sg35
I1
sS"'"
I1
sg36
I1
sg37
I1
sg38
I1
sg39
I1
ssg9
(dp46
g2
I97
sg4
I42
sg5
I1
sg6
I49
sS','
I119
sg7
I65
sg8
I2
sg9
I274
sg10
I2
sg11
I87
sg12
I897
sS'#'
I1
sS'"'
I62
sg13
I7
sS'$'
I1
sg14
I53
sg15
I69
sS')'
I1
sS'('
I7
sg16
I66
sg17
I75
sS'.'
I1
sg18
I46
sg19
I6
sg20
I157
sS':'
I9
sg21
I47
sg22
I31
sg23
I125
sg24
I17
sS'`'
I1
sg25
I143
sg26
I1
sg27
I1
sg28
I16
sg29
I37
sg30
I51
sg31
I1
sg32
I428
sg33
I2
sg34
I1
sg35
I1
sS"'"
I1
sg36
I8
sg37
I11
sg38
I1
sg39
I1
ssg10
(dp47
g2
I1
sg4
I2
sg5
I1
sg6
I1
sS','
I42
sg7
I2
sg8
I1
sg9
I1
sg10
I1
sg11
I5
sg12
I7
sS'#'
I1
sS'"'
I10
sg13
I1
sS'$'
I1
sg14
I18
sg15
I3
sS')'
I1
sS'('
I1
sg16
I2
sg17
I1
sS'.'
I2
sg18
I2
sg19
I1
sg20
I4
sS':'
I2
sg21
I21
sg22
I2
sg23
I3
sg24
I1
sS'`'
I1
sg25
I1
sg26
I1
sg27
I1
sg28
I1
sg29
I1
sg30
I1
sg31
I1
sg32
I7
sg33
I1
sg34
I1
sg35
I4
sS"'"
I1
sg36
I1
sg37
I1
sg38
I1
sg39
I1
ssg11
(dp48
g2
I1
sg4
I2
sg5
I1
sg6
I2
sS','
I73
sg7
I1
sg8
I65
sg9
I6
sg10
I26
sg11
I1
sg12
I23
sS'#'
I1
sS'"'
I40
sg13
I1
sS'$'
I1
sg14
I234
sg15
I5
sS')'
I2
sS'('
I1
sg16
I1
sg17
I2
sS'.'
I1
sg18
I1
sg19
I155
sg20
I52
sS':'
I4
sg21
I19
sg22
I142
sg23
I3
sg24
I3
sS'`'
I1
sg25
I30
sg26
I1
sg27
I1
sg28
I2
sg29
I2
sg30
I5
sg31
I16
sg32
I6
sg33
I1
sg34
I1
sg35
I5
sS"'"
I1
sg36
I1
sg37
I1
sg38
I1
sg39
I1
ssg12
(dp49
g2
I1
sg4
I135
sg5
I1
sg6
I66
sS','
I291
sg7
I70
sg8
I11
sg9
I14
sg10
I6
sg11
I169
sg12
I10
sS'#'
I1
sS'"'
I61
sg13
I38
sS'$'
I1
sg14
I24
sg15
I420
sS')'
I4
sS'('
I8
sg16
I243
sg17
I1
sS'.'
I2
sg18
I123
sg19
I8
sg20
I76
sS':'
I31
sg21
I41
sg22
I10
sg23
I286
sg24
I19
sS'`'
I1
sg25
I133
sg26
I1
sg27
I14
sg28
I1
sg29
I10
sg30
I23
sg31
I1
sg32
I1516
sg33
I1
sg34
I2
sg35
I1
sS"'"
I1
sg36
I1
sg37
I1
sg38
I1
sg39
I1
ssS'#'
(dp50
g2
I1
sg4
I1
sg5
I1
sg6
I1
sS','
I1
sg7
I1
sg8
I1
sg9
I1
sg10
I1
sg11
I1
sg12
I1
sS'#'
I1
sS'"'
I1
sg13
I1
sS'$'
I1
sg14
I1
sg15
I1
sS')'
I1
sS'('
I1
sg16
I1
sg17
I1
sS'.'
I1
sg18
I1
sg19
I1
sg20
I1
sS':'
I1
sg21
I1
sg22
I1
sg23
I1
sg24
I1
sS'`'
I1
sg25
I1
sg26
I1
sg27
I1
sg28
I1
sg29
I1
sg30
I1
sg31
I1
sg32
I2
sg33
I1
sg34
I1
sg35
I1
sS"'"
I1
sg36
I1
sg37
I1
sg38
I1
sg39
I1
ssS'"'
(dp51
g2
I5
sg4
I4
sg5
I2
sg6
I8
sS','
I145
sg7
I3
sg8
I1
sg9
I26
sg10
I1
sg11
I11
sg12
I21
sS'#'
I1
sS'"'
I7
sg13
I1
sS'$'
I1
sg14
I52
sg15
I161
sS')'
I1
sS'('
I3
sg16
I9
sg17
I8
sS'.'
I10
sg18
I6
sg19
I9
sg20
I7
sS':'
I19
sg21
I22
sg22
I7
sg23
I8
sg24
I2
sS'`'
I1
sg25
I9
sg26
I1
sg27
I1
sg28
I1
sg29
I2
sg30
I3
sg31
I1
sg32
I28
sg33
I1
sg34
I4
sg35
I3
sS"'"
I1
sg36
I1
sg37
I1
sg38
I1
sg39
I1
ssg13
(dp52
g2
I1
sg4
I15
sg5
I1
sg6
I9
sS','
I1
sg7
I4
sg8
I1
sg9
I1
sg10
I1
sg11
I6
sg12
I1
sS'#'
I1
sS'"'
I1
sg13
I1
sS'$'
I1
sg14
I9
sg15
I1
sS')'
I1
sS'('
I1
sg16
I15
sg17
I1
sS'.'
I1
sg18
I1
sg19
I6
sg20
I2
sS':'
I1
sg21
I4
sg22
I1
sg23
I31
sg24
I1
sS'`'
I1
sg25
I1
sg26
I1
sg27
I1
sg28
I1
sg29
I1
sg30
I1
sg31
I1
sg32
I1
sg33
I1
sg34
I1
sg35
I1
sS"'"
I1
sg36
I1
sg37
I1
sg38
I1
sg39
I1
ssS'$'
(dp53
g2
I3
sg4
I8
sg5
I1
sg6
I8
sS','
I6
sg7
I1
sg8
I1
sg9
I7
sg10
I1
sg11
I6
sg12
I16
sS'#'
I1
sS'"'
I1
sg13
I3
sS'$'
I1
sg14
I2
sg15
I1
sS')'
I1
sS'('
I14
sg16
I8
sg17
I3
sS'.'
I1
sg18
I22
sg19
I1
sg20
I8
sS':'
I11
sg21
I1
sg22
I5
sg23
I6
sg24
I1
sS'`'
I1
sg25
I6
sg26
I1
sg27
I1
sg28
I1
sg29
I1
sg30
I2
sg31
I1
sg32
I67
sg33
I1
sg34
I1
sg35
I1
sS"'"
I1
sg36
I2
sg37
I1
sg38
I1
sg39
I1
ssg14
(dp54
g2
I191
sg4
I96
sg5
I1
sg6
I32
sS','
I99
sg7
I13
sg8
I4
sg9
I1312
sg10
I1
sg11
I40
sg12
I1753
sS'#'
I1
sS'"'
I46
sg13
I6
sS'$'
I1
sg14
I708
sg15
I51
sS')'
I4
sS'('
I4
sg16
I42
sg17
I177
sS'.'
I1
sg18
I31
sg19
I3
sg20
I16
sS':'
I8
sg21
I46
sg22
I194
sg23
I78
sg24
I7
sS'`'
I1
sg25
I123
sg26
I1
sg27
I1
sg28
I1
sg29
I1
sg30
I319
sg31
I1
sg32
I454
sg33
I7
sg34
I1
sg35
I11
sS"'"
I1
sg36
I29
sg37
I36
sg38
I1
sg39
I1
ssS')'
(dp55
g2
I2
sg4
I1
sg5
I1
sg6
I1
sS','
I1
sg7
I1
sg8
I1
sg9
I3
sg10
I1
sg11
I2
sg12
I1
sS'#'
I1
sS'"'
I1
sg13
I1
sS'$'
I1
sg14
I13
sg15
I7
sS')'
I1
sS'('
I1
sg16
I1
sg17
I2
sS'.'
I1
sg18
I1
sg19
I1
sg20
I1
sS':'
I1
sg21
I9
sg22
I30
sg23
I2
sg24
I1
sS'`'
I1
sg25
I1
sg26
I1
sg27
I1
sg28
I1
sg29
I1
sg30
I18
sg31
I1
sg32
I1
sg33
I1
sg34
I1
sg35
I1
sS"'"
I1
sg36
I1
sg37
I1
sg38
I1
sg39
I1
ssS'('
(dp56
g2
I1
sg4
I2
sg5
I1
sg6
I1
sS','
I2
sg7
I1
sg8
I1
sg9
I2
sg10
I1
sg11
I1
sg12
I6
sS'#'
I1
sS'"'
I4
sg13
I1
sS'$'
I1
sg14
I16
sg15
I13
sS')'
I1
sS'('
I1
sg16
I1
sg17
I1
sS'.'
I1
sg18
I2
sg19
I3
sg20
I3
sS':'
I1
sg21
I12
sg22
I20
sg23
I3
sg24
I1
sS'`'
I1
sg25
I2
sg26
I1
sg27
I1
sg28
I1
sg29
I1
sg30
I2
sg31
I1
sg32
I5
sg33
I1
sg34
I1
sg35
I2
sS"'"
I1
sg36
I1
sg37
I1
sg38
I1
sg39
I1
ssg16
(dp57
g2
I1
sg4
I3
sg5
I1
sg6
I1
sS','
I114
sg7
I2
sg8
I44
sg9
I3
sg10
I40
sg11
I1
sg12
I8
sS'#'
I1
sS'"'
I34
sg13
I1
sS'$'
I1
sg14
I256
sg15
I2
sS')'
I3
sS'('
I1
sg16
I1
sg17
I5
sS'.'
I1
sg18
I1
sg19
I242
sg20
I86
sS':'
I3
sg21
I141
sg22
I254
sg23
I2
sg24
I1
sS'`'
I1
sg25
I53
sg26
I1
sg27
I1
sg28
I1
sg29
I1
sg30
I8
sg31
I7
sg32
I2
sg33
I1
sg34
I1
sg35
I22
sS"'"
I1
sg36
I2
sg37
I2
sg38
I1
sg39
I1
ssg17
(dp58
g2
I1
sg4
I1
sg5
I1
sg6
I1
sS','
I1
sg7
I2
sg8
I1
sg9
I3
sg10
I1
sg11
I1
sg12
I1
sS'#'
I1
sS'"'
I1
sg13
I1
sS'$'
I1
sg14
I129
sg15
I1
sS')'
I1
sS'('
I1
sg16
I1
sg17
I1
sS'.'
I1
sg18
I1
sg19
I4
sg20
I2
sS':'
I1
sg21
I30
sg22
I221
sg23
I1
sg24
I1
sS'`'
I1
sg25
I1
sg26
I1
sg27
I1
sg28
I1
sg29
I1
sg30
I1
sg31
I1
sg32
I1
sg33
I1
sg34
I1
sg35
I8
sS"'"
I1
sg36
I1
sg37
I1
sg38
I1
sg39
I1
ssS'.'
(dp59
g2
I1
sg4
I8
sg5
I3
sg6
I43
sS','
I1
sg7
I13
sg8
I1
sg9
I74
sg10
I1
sg11
I22
sg12
I7
sS'#'
I1
sS'"'
I1
sg13
I10
sS'$'
I1
sg14
I635
sg15
I1
sS')'
I9
sS'('
I1
sg16
I74
sg17
I1
sS'.'
I1
sg18
I2
sg19
I29
sg20
I79
sS':'
I11
sg21
I374
sg22
I269
sg23
I24
sg24
I1
sS'`'
I1
sg25
I1
sg26
I1
sg27
I1
sg28
I1
sg29
I4
sg30
I74
sg31
I1
sg32
I3
sg33
I1
sg34
I1
sg35
I16
sS"'"
I1
sg36
I3
sg37
I7
sg38
I1
sg39
I1
ssg18
(dp60
g2
I1
sg4
I57
sg5
I1
sg6
I87
sS','
I22
sg7
I23
sg8
I1
sg9
I102
sg10
I1
sg11
I30
sg12
I2
sS'#'
I1
sS'"'
I5
sg13
I4
sS'$'
I1
sg14
I232
sg15
I6
sS')'
I2
sS'('
I1
sg16
I62
sg17
I1
sS'.'
I2
sg18
I1
sg19
I23
sg20
I53
sS':'
I2
sg21
I137
sg22
I43
sg23
I57
sg24
I9
sS'`'
I1
sg25
I9
sg26
I1
sg27
I1
sg28
I1
sg29
I2
sg30
I34
sg31
I1
sg32
I11
sg33
I1
sg34
I6
sg35
I7
sS"'"
I1
sg36
I1
sg37
I3
sg38
I1
sg39
I1
ssg19
(dp61
g2
I1
sg4
I23
sg5
I1
sg6
I5
sS','
I134
sg7
I20
sg8
I8
sg9
I5
sg10
I8
sg11
I24
sg12
I2
sS'#'
I1
sS'"'
I84
sg13
I1
sS'$'
I1
sg14
I24
sg15
I119
sS')'
I2
sS'('
I1
sg16
I98
sg17
I1
sS'.'
I3
sg18
I11
sg19
I2
sg20
I16
sS':'
I12
sg21
I16
sg22
I1
sg23
I58
sg24
I26
sS'`'
I1
sg25
I57
sg26
I1
sg27
I1
sg28
I1
sg29
I1
sg30
I2
sg31
I1
sg32
I130
sg33
I1
sg34
I2
sg35
I1
sS"'"
I1
sg36
I1
sg37
I1
sg38
I1
sg39
I1
ssg20
(dp62
g2
I3
sg4
I40
sg5
I1
sg6
I55
sS','
I111
sg7
I104
sg8
I15
sg9
I14
sg10
I6
sg11
I106
sg12
I44
sS'#'
I1
sS'"'
I23
sg13
I3
sS'$'
I1
sg14
I105
sg15
I111
sS')'
I3
sS'('
I3
sg16
I140
sg17
I1
sS'.'
I2
sg18
I15
sg19
I48
sg20
I105
sS':'
I13
sg21
I97
sg22
I41
sg23
I68
sg24
I3
sS'`'
I1
sg25
I65
sg26
I1
sg27
I1
sg28
I2
sg29
I9
sg30
I5
sg31
I4
sg32
I53
sg33
I1
sg34
I70
sg35
I5
sS"'"
I1
sg36
I2
sg37
I2
sg38
I1
sg39
I1
ssS':'
(dp63
g2
I1
sg4
I2
sg5
I2
sg6
I3
sS','
I1
sg7
I6
sg8
I1
sg9
I13
sg10
I1
sg11
I3
sg12
I1
sS'#'
I1
sS'"'
I6
sg13
I1
sS'$'
I1
sg14
I81
sg15
I1
sS')'
I12
sS'('
I1
sg16
I6
sg17
I1
sS'.'
I1
sg18
I1
sg19
I6
sg20
I5
sS':'
I1
sg21
I72
sg22
I29
sg23
I6
sg24
I1
sS'`'
I1
sg25
I1
sg26
I1
sg27
I1
sg28
I1
sg29
I1
sg30
I6
sg31
I1
sg32
I2
sg33
I1
sg34
I1
sg35
I2
sS"'"
I1
sg36
I1
sg37
I3
sg38
I1
sg39
I1
ssg21
(dp64
g2
I110
sg4
I64
sg5
I2
sg6
I35
sS','
I56
sg7
I23
sg8
I3
sg9
I725
sg10
I2
sg11
I18
sg12
I328
sS'#'
I1
sS'"'
I19
sg13
I7
sS'$'
I1
sg14
I398
sg15
I69
sS')'
I1
sS'('
I2
sg16
I29
sg17
I47
sS'.'
I3
sg18
I19
sg19
I1
sg20
I6
sS':'
I8
sg21
I26
sg22
I112
sg23
I70
sg24
I9
sS'`'
I1
sg25
I72
sg26
I1
sg27
I1
sg28
I1
sg29
I1
sg30
I242
sg31
I1
sg32
I255
sg33
I5
sg34
I2
sg35
I5
sS"'"
I1
sg36
I15
sg37
I16
sg38
I1
sg39
I1
ssg22
(dp65
g2
I16
sg4
I34
sg5
I7
sg6
I28
sS','
I246
sg7
I7
sg8
I5
sg9
I120
sg10
I2
sg11
I48
sg12
I410
sS'#'
I1
sS'"'
I37
sg13
I4
sS'$'
I1
sg14
I62
sg15
I336
sS')'
I6
sS'('
I35
sg16
I73
sg17
I40
sS'.'
I1
sg18
I51
sg19
I1
sg20
I11
sS':'
I26
sg21
I14
sg22
I1422
sg23
I41
sg24
I10
sS'`'
I1
sg25
I178
sg26
I1
sg27
I1
sg28
I1
sg29
I1
sg30
I25
sg31
I1
sg32
I704
sg33
I1
sg34
I2
sg35
I55
sS"'"
I1
sg36
I1
sg37
I2
sg38
I2
sg39
I1
ssg23
(dp66
g2
I1
sg4
I3
sg5
I1
sg6
I1
sS','
I13
sg7
I3
sg8
I1
sg9
I1
sg10
I1
sg11
I4
sg12
I2
sS'#'
I1
sS'"'
I11
sg13
I1
sS'$'
I1
sg14
I10
sg15
I11
sS')'
I1
sS'('
I3
sg16
I5
sg17
I1
sS'.'
I1
sg18
I591
sg19
I17
sg20
I153
sS':'
I3
sg21
I11
sg22
I10
sg23
I12
sg24
I1
sS'`'
I1
sg25
I46
sg26
I1
sg27
I1
sg28
I1
sg29
I1
sg30
I1
sg31
I1
sg32
I6
sg33
I1
sg34
I404
sg35
I1
sS"'"
I1
sg36
I2
sg37
I1
sg38
I1
sg39
I1
ssg24
(dp67
g2
I1
sg4
I1
sg5
I1
sg6
I5
sS','
I10
sg7
I4
sg8
I1
sg9
I5
sg10
I1
sg11
I2
sg12
I2
sS'#'
I1
sS'"'
I5
sg13
I2
sS'$'
I1
sg14
I18
sg15
I11
sS')'
I1
sS'('
I1
sg16
I4
sg17
I2
sS'.'
I1
sg18
I1
sg19
I3
sg20
I7
sS':'
I3
sg21
I4
sg22
I3
sg23
I8
sg24
I1
sS'`'
I1
sg25
I9
sg26
I1
sg27
I1
sg28
I1
sg29
I1
sg30
I2
sg31
I1
sg32
I13
sg33
I1
sg34
I1
sg35
I1
sS"'"
I1
sg36
I1
sg37
I1
sg38
I1
sg39
I1
ssS'`'
(dp68
g2
I1
sg4
I1
sg5
I1
sg6
I1
sS','
I1
sg7
I1
sg8
I1
sg9
I1
sg10
I1
sg11
I1
sg12
I1
sS'#'
I1
sS'"'
I1
sg13
I1
sS'$'
I1
sg14
I1
sg15
I1
sS')'
I1
sS'('
I1
sg16
I1
sg17
I1
sS'.'
I1
sg18
I1
sg19
I1
sg20
I1
sS':'
I1
sg21
I1
sg22
I1
sg23
I1
sg24
I1
sS'`'
I1
sg25
I1
sg26
I1
sg27
I1
sg28
I1
sg29
I1
sg30
I1
sg31
I1
sg32
I1
sg33
I1
sg34
I1
sg35
I1
sS"'"
I1
sg36
I1
sg37
I1
sg38
I1
sg39
I1
ssg25
(dp69
g2
I2
sg4
I6
sg5
I2
sg6
I9
sS','
I182
sg7
I2
sg8
I1
sg9
I62
sg10
I1
sg11
I5
sg12
I2
sS'#'
I1
sS'"'
I25
sg13
I2
sS'$'
I1
sg14
I246
sg15
I95
sS')'
I8
sS'('
I2
sg16
I5
sg17
I7
sS'.'
I3
sg18
I2
sg19
I10
sg20
I19
sS':'
I16
sg21
I163
sg22
I203
sg23
I18
sg24
I2
sS'`'
I1
sg25
I1
sg26
I1
sg27
I1
sg28
I1
sg29
I3
sg30
I31
sg31
I1
sg32
I6
sg33
I1
sg34
I1
sg35
I15
sS"'"
I1
sg36
I1
sg37
I2
sg38
I1
sg39
I1
ssg26
(dp70
g2
I1
sg4
I1
sg5
I1
sg6
I1
sS','
I1
sg7
I1
sg8
I1
sg9
I1
sg10
I1
sg11
I1
sg12
I1
sS'#'
I1
sS'"'
I1
sg13
I1
sS'$'
I1
sg14
I1
sg15
I7
sS')'
I1
sS'('
I1
sg16
I1
sg17
I1
sS'.'
I1
sg18
I1
sg19
I1
sg20
I1
sS':'
I1
sg21
I1
sg22
I1
sg23
I1
sg24
I1
sS'`'
I1
sg25
I1
sg26
I1
sg27
I1
sg28
I1
sg29
I1
sg30
I1
sg31
I1
sg32
I1
sg33
I1
sg34
I1
sg35
I1
sS"'"
I1
sg36
I1
sg37
I1
sg38
I1
sg39
I1
ssg27
(dp71
g2
I1
sg4
I3
sg5
I1
sg6
I1
sS','
I2
sg7
I1
sg8
I1
sg9
I1
sg10
I1
sg11
I2
sg12
I1
sS'#'
I1
sS'"'
I1
sg13
I1
sS'$'
I1
sg14
I1
sg15
I3
sS')'
I1
sS'('
I1
sg16
I2
sg17
I1
sS'.'
I1
sg18
I1
sg19
I1
sg20
I2
sS':'
I1
sg21
I1
sg22
I1
sg23
I2
sg24
I1
sS'`'
I1
sg25
I2
sg26
I1
sg27
I1
sg28
I1
sg29
I1
sg30
I1
sg31
I1
sg32
I4
sg33
I1
sg34
I1
sg35
I1
sS"'"
I1
sg36
I1
sg37
I1
sg38
I1
sg39
I1
ssg28
(dp72
g2
I1
sg4
I1
sg5
I1
sg6
I1
sS','
I1
sg7
I1
sg8
I1
sg9
I1
sg10
I1
sg11
I3
sg12
I9
sS'#'
I1
sS'"'
I1
sg13
I1
sS'$'
I1
sg14
I1
sg15
I1
sS')'
I1
sS'('
I1
sg16
I2
sg17
I4
sS'.'
I1
sg18
I2
sg19
I1
sg20
I2
sS':'
I1
sg21
I1
sg22
I1
sg23
I1
sg24
I1
sS'`'
I1
sg25
I1
sg26
I1
sg27
I1
sg28
I1
sg29
I1
sg30
I2
sg31
I1
sg32
I2
sg33
I1
sg34
I1
sg35
I1
sS"'"
I1
sg36
I1
sg37
I1
sg38
I1
sg39
I1
ssg29
(dp73
g2
I1
sg4
I3
sg5
I1
sg6
I8
sS','
I3
sg7
I6
sg8
I1
sg9
I2
sg10
I2
sg11
I6
sg12
I7
sS'#'
I1
sS'"'
I3
sg13
I1
sS'$'
I1
sg14
I3
sg15
I8
sS')'
I1
sS'('
I1
sg16
I8
sg17
I1
sS'.'
I1
sg18
I3
sg19
I2
sg20
I8
sS':'
I1
sg21
I5
sg22
I3
sg23
I10
sg24
I1
sS'`'
I1
sg25
I5
sg26
I1
sg27
I1
sg28
I1
sg29
I1
sg30
I1
sg31
I1
sg32
I4
sg33
I1
sg34
I2
sg35
I1
sS"'"
I1
sg36
I1
sg37
I1
sg38
I1
sg39
I1
ssg30
(dp74
g2
I7
sg4
I10
sg5
I1
sg6
I10
sS','
I63
sg7
I7
sg8
I1
sg9
I28
sg10
I1
sg11
I39
sg12
I80
sS'#'
I2
sS'"'
I7
sg13
I3
sS'$'
I193
sg14
I53
sg15
I22
sS')'
I3
sS'('
I1
sg16
I45
sg17
I13
sS'.'
I1
sg18
I60
sg19
I1
sg20
I36
sS':'
I50
sg21
I5
sg22
I77
sg23
I21
sg24
I1
sS'`'
I1
sg25
I33
sg26
I1
sg27
I1
sg28
I1
sg29
I1
sg30
I215
sg31
I1
sg32
I254
sg33
I1
sg34
I1
sg35
I2
sS"'"
I1
sg36
I3
sg37
I1
sg38
I1
sg39
I1
ssg31
(dp75
g2
I1
sg4
I1
sg5
I1
sg6
I1
sS','
I11
sg7
I2
sg8
I1
sg9
I1
sg10
I1
sg11
I1
sg12
I1
sS'#'
I1
sS'"'
I7
sg13
I1
sS'$'
I1
sg14
I2
sg15
I4
sS')'
I1
sS'('
I1
sg16
I1
sg17
I1
sS'.'
I1
sg18
I1
sg19
I1
sg20
I1
sS':'
I1
sg21
I1
sg22
I1
sg23
I1
sg24
I1
sS'`'
I1
sg25
I9
sg26
I1
sg27
I1
sg28
I1
sg29
I1
sg30
I1
sg31
I1
sg32
I5
sg33
I1
sg34
I1
sg35
I1
sS"'"
I1
sg36
I1
sg37
I1
sg38
I1
sg39
I1
ssg32
(dp76
g2
I1
sg4
I84
sg5
I2
sg6
I376
sS','
I171
sg7
I42
sg8
I5
sg9
I183
sg10
I4
sg11
I67
sg12
I33
sS'#'
I1
sS'"'
I58
sg13
I7
sS'$'
I1
sg14
I1485
sg15
I194
sS')'
I8
sS'('
I10
sg16
I151
sg17
I1
sS'.'
I1
sg18
I4
sg19
I31
sg20
I201
sS':'
I20
sg21
I686
sg22
I157
sg23
I156
sg24
I1
sS'`'
I1
sg25
I50
sg26
I1
sg27
I1
sg28
I2
sg29
I17
sg30
I116
sg31
I1
sg32
I65
sg33
I1
sg34
I1
sg35
I11
sS"'"
I1
sg36
I12
sg37
I58
sg38
I1
sg39
I1
ssg33
(dp77
g2
I1
sg4
I1
sg5
I1
sg6
I1
sS','
I7
sg7
I1
sg8
I1
sg9
I1
sg10
I1
sg11
I1
sg12
I1
sS'#'
I1
sS'"'
I1
sg13
I1
sS'$'
I1
sg14
I2
sg15
I1
sS')'
I1
sS'('
I1
sg16
I1
sg17
I1
sS'.'
I1
sg18
I1
sg19
I1
sg20
I1
sS':'
I1
sg21
I1
sg22
I1
sg23
I2
sg24
I1
sS'`'
I1
sg25
I4
sg26
I1
sg27
I1
sg28
I1
sg29
I1
sg30
I1
sg31
I1
sg32
I1
sg33
I1
sg34
I1
sg35
I1
sS"'"
I1
sg36
I1
sg37
I1
sg38
I1
sg39
I1
ssg34
(dp78
g2
I1
sg4
I1
sg5
I2
sg6
I4
sS','
I24
sg7
I1
sg8
I39
sg9
I2
sg10
I9
sg11
I2
sg12
I7
sS'#'
I1
sS'"'
I9
sg13
I1
sS'$'
I1
sg14
I111
sg15
I1
sS')'
I3
sS'('
I1
sg16
I2
sg17
I1
sS'.'
I2
sg18
I1
sg19
I111
sg20
I21
sS':'
I2
sg21
I69
sg22
I66
sg23
I1
sg24
I1
sS'`'
I1
sg25
I9
sg26
I1
sg27
I1
sg28
I1
sg29
I1
sg30
I3
sg31
I6
sg32
I1
sg33
I1
sg34
I1
sg35
I6
sS"'"
I1
sg36
I1
sg37
I1
sg38
I1
sg39
I1
ssg35
(dp79
g2
I2
sg4
I2
sg5
I1
sg6
I1
sS','
I6
sg7
I1
sg8
I1
sg9
I4
sg10
I1
sg11
I2
sg12
I54
sS'#'
I1
sS'"'
I2
sg13
I1
sS'$'
I1
sg14
I1
sg15
I9
sS')'
I1
sS'('
I1
sg16
I2
sg17
I7
sS'.'
I1
sg18
I3
sg19
I1
sg20
I1
sS':'
I1
sg21
I1
sg22
I103
sg23
I1
sg24
I1
sS'`'
I1
sg25
I4
sg26
I1
sg27
I1
sg28
I1
sg29
I1
sg30
I4
sg31
I1
sg32
I11
sg33
I1
sg34
I1
sg35
I4
sS"'"
I1
sg36
I2
sg37
I1
sg38
I1
sg39
I1
ssS"'"
(dp80
g2
I1
sg4
I1
sg5
I1
sg6
I1
sS','
I1
sg7
I1
sg8
I1
sg9
I1
sg10
I1
sg11
I1
sg12
I1
sS'#'
I1
sS'"'
I1
sg13
I1
sS'$'
I1
sg14
I1
sg15
I1
sS')'
I1
sS'('
I1
sg16
I1
sg17
I1
sS'.'
I1
sg18
I1
sg19
I1
sg20
I1
sS':'
I1
sg21
I1
sg22
I1
sg23
I1
sg24
I1
sS'`'
I1
sg25
I1
sg26
I1
sg27
I1
sg28
I1
sg29
I1
sg30
I1
sg31
I1
sg32
I1
sg33
I1
sg34
I1
sg35
I1
sS"'"
I1
sg36
I1
sg37
I1
sg38
I1
sg39
I1
ssg36
(dp81
g2
I3
sg4
I1
sg5
I1
sg6
I1
sS','
I2
sg7
I3
sg8
I1
sg9
I1
sg10
I2
sg11
I1
sg12
I29
sS'#'
I1
sS'"'
I1
sg13
I2
sS'$'
I1
sg14
I1
sg15
I8
sS')'
I1
sS'('
I1
sg16
I5
sg17
I10
sS'.'
I1
sg18
I1
sg19
I2
sg20
I2
sS':'
I2
sg21
I1
sg22
I1
sg23
I1
sg24
I1
sS'`'
I1
sg25
I4
sg26
I1
sg27
I1
sg28
I1
sg29
I1
sg30
I1
sg31
I1
sg32
I15
sg33
I1
sg34
I1
sg35
I1
sS"'"
I1
sg36
I1
sg37
I1
sg38
I1
sg39
I1
ssg37
(dp82
g2
I1
sg4
I5
sg5
I1
sg6
I5
sS','
I2
sg7
I6
sg8
I1
sg9
I1
sg10
I1
sg11
I5
sg12
I18
sS'#'
I1
sS'"'
I1
sg13
I1
sS'$'
I1
sg14
I9
sg15
I4
sS')'
I1
sS'('
I1
sg16
I7
sg17
I1
sS'.'
I1
sg18
I5
sg19
I5
sg20
I16
sS':'
I1
sg21
I3
sg22
I1
sg23
I16
sg24
I1
sS'`'
I1
sg25
I15
sg26
I1
sg27
I1
sg28
I1
sg29
I1
sg30
I10
sg31
I1
sg32
I28
sg33
I1
sg34
I1
sg35
I1
sS"'"
I1
sg36
I1
sg37
I1
sg38
I1
sg39
I1
ssg38
(dp83
g2
I1
sg4
I1
sg5
I1
sg6
I1
sS','
I1
sg7
I1
sg8
I1
sg9
I1
sg10
I1
sg11
I1
sg12
I1
sS'#'
I1
sS'"'
I1
sg13
I1
sS'$'
I1
sg14
I1
sg15
I1
sS')'
I1
sS'('
I1
sg16
I1
sg17
I1
sS'.'
I1
sg18
I1
sg19
I1
sg20
I1
sS':'
I1
sg21
I1
sg22
I2
sg23
I1
sg24
I1
sS'`'
I1
sg25
I1
sg26
I1
sg27
I1
sg28
I1
sg29
I1
sg30
I1
sg31
I1
sg32
I1
sg33
I1
sg34
I1
sg35
I1
sS"'"
I1
sg36
I1
sg37
I1
sg38
I1
sg39
I1
ssg39
(dp84
g2
I1
sg4
I1
sg5
I1
sg6
I1
sS','
I4
sg7
I1
sg8
I1
sg9
I1
sg10
I1
sg11
I1
sg12
I1
sS'#'
I1
sS'"'
I1
sg13
I1
sS'$'
I1
sg14
I1
sg15
I1
sS')'
I1
sS'('
I1
sg16
I1
sg17
I1
sS'.'
I1
sg18
I1
sg19
I1
sg20
I1
sS':'
I1
sg21
I1
sg22
I1
sg23
I1
sg24
I1
sS'`'
I1
sg25
I1
sg26
I1
sg27
I1
sg28
I1
sg29
I1
sg30
I1
sg31
I1
sg32
I1
sg33
I1
sg34
I1
sg35
I1
sS"'"
I1
sg36
I1
sg37
I1
sg38
I1
sg39
I1
ss.