(dp1
S'PRP$'
p2
I436
sS'VBG'
p3
I677
sS'FW'
p4
I19
sS'VBN'
p5
I911
sS','
I2183
sS'VBP'
p6
I588
sS'WDT'
p7
I221
sS'JJ'
p8
I3075
sS'WP'
p9
I121
sS'VBZ'
p10
I899
sS'DT'
p11
I3833
sS'#'
I2
sS'"'
I575
sS'RP'
p12
I92
sS'$'
I193
sS'NN'
p13
I5907
sS'start'
p14
I1774
sS')'
I79
sS'('
I83
sS'VBD'
p15
I1314
sS'POS'
p16
I392
sS'.'
I1770
sS'TO'
p17
I1005
sS'PRP'
p18
I866
sS'RB'
p19
I1460
sS':'
I247
sS'NNS'
p20
I2767
sS'NNP'
p21
I4027
sS'VB'
p22
I1300
sS'WRB'
p23
I102
sS'`'
I1
sS'CC'
p24
I1125
sS'LS'
p25
I7
sS'PDT'
p26
I14
sS'RBS'
p27
I19
sS'RBR'
p28
I81
sS'CD'
p29
I1314
sS'EX'
p30
I34
sS'IN'
p31
I4435
sS'WP$'
p32
I12
sS'MD'
p33
I488
sS'NNPS'
p34
I205
sS"'"
I1
sS'JJS'
p35
I76
sS'JJR'
p36
I143
sS'SYM'
p37
I2
sS'UH'
p38
I4
s.