(dp1
S'PRP$'
p2
(dp3
g2
F0.002269117313365101
sS'VBG'
p4
F0.032272260525157692
sS'FW'
p5
F0.042194092827004218
sS'VBN'
p6
F0.0087364857486076225
sS','
F0.0041139095854093345
sS'VBP'
p7
F0.011810359372363757
sS'WDT'
p8
F0.004430660168365087
sS'JJ'
p9
F0.00064941390395168363
sS'WP'
p10
F0.007955449482895784
sS'VBZ'
p11
F0.011065619121389841
sS'DT'
p12
F0.0020845819110404669
sS'#'
F0.14925373134328357
sS'"'
F0.013800241504226323
sS'RP'
p13
F0.05170630816959669
sS'$'
F0.0050581689428426911
sS'NN'
p14
F0.00050746824094592084
sS'start'
p15
F0.0095575420250744916
sS')'
F0.011947431302270011
sS'('
F0.022805017103762829
sS'VBD'
p16
F0.031849548798058694
sS'POS'
p17
F0.0025207965717166624
sS'.'
F0.00056347551698878687
sS'TO'
p18
F0.016836684163612954
sS'PRP'
p19
F0.0011485012059262662
sS'RB'
p20
F0.006144602990373455
sS':'
F0.0079459674215335719
sS'NNS'
p21
F0.00036078940722300394
sS'NNP'
p22
F0.00024803432795098842
sS'VB'
p23
F0.051352801410285885
sS'WRB'
p24
F0.037488284910965321
sS'`'
F0.17543859649122806
sS'CC'
p25
F0.023900150482428963
sS'LS'
p26
F0.085470085470085472
sS'PDT'
p27
F0.053475935828877004
sS'RBS'
p28
F0.042194092827004218
sS'RBR'
p29
F0.011668611435239206
sS'CD'
p30
F0.00075832259042996888
sS'EX'
p31
F0.025839793281653745
sS'IN'
p32
F0.041669482172218844
sS'WP$'
p33
F0.059880239520958084
sS'MD'
p34
F0.0040592652729855901
sS'NNPS'
p35
F0.004768717215069147
sS"'"
F0.17543859649122806
sS'JJS'
p36
F0.012391573729863692
sS'JJR'
p37
F0.0067704807041299936
sS'SYM'
p38
F0.14925373134328357
sS'UH'
p39
F0.1149425287356322
ssg4
(dp40
g2
F0.013614703880190607
sg4
F0.0073346046648085665
sg5
F0.042194092827004218
sg6
F0.026209457245822868
sS','
F0.046167207569593638
sg7
F0.082672515606546301
sg8
F0.004430660168365087
sg9
F0.0051953112316134691
sg10
F0.007955449482895784
sg11
F0.057541219431227177
sg12
F0.0088594731219219843
sS'#'
F0.14925373134328357
sS'"'
F0.017250301880282905
sg13
F0.010341261633919338
sS'$'
F0.0050581689428426911
sg14
F0.0094727404976571884
sg15
F0.011244167088322932
sS')'
F0.023894862604540022
sS'('
F0.011402508551881414
sg16
F0.015924774399029347
sg17
F0.010083186286866649
sS'.'
F0.00056347551698878687
sg18
F0.0039615727443795181
sg19
F0.0045940048237050647
sg20
F0.023895678295896769
sS':'
F0.0079459674215335719
sg21
F0.019482627990042214
sg22
F0.0024803432795098843
sg23
F0.014562734728290028
sg24
F0.0093720712277413302
sS'`'
F0.17543859649122806
sg25
F0.01681862441356112
sg26
F0.085470085470085472
sg27
F0.053475935828877004
sg28
F0.042194092827004218
sg29
F0.011668611435239206
sg30
F0.0022749677712899066
sg31
F0.025839793281653745
sg32
F0.033560826181949235
sg33
F0.059880239520958084
sg34
F0.0020296326364927951
sg35
F0.0095374344301382939
sS"'"
F0.17543859649122806
sg36
F0.012391573729863692
sg37
F0.0067704807041299936
sg38
F0.14925373134328357
sg39
F0.1149425287356322
ssg5
(dp41
g2
F0.004538234626730202
sg4
F0.0014669209329617133
sg5
F0.2109704641350211
sg6
F0.0010920607185759528
sS','
F0.0009142021300909632
sg7
F0.0016871941960519654
sg8
F0.004430660168365087
sg9
F0.00032470695197584182
sg10
F0.007955449482895784
sg11
F0.0011065619121389842
sg12
F0.00026057273888005836
sS'#'
F0.14925373134328357
sS'"'
F0.0051750905640848711
sg13
F0.010341261633919338
sS'$'
F0.0050581689428426911
sg14
F0.00016915608031530693
sg15
F0.0011244167088322933
sS')'
F0.011947431302270011
sS'('
F0.011402508551881414
sg16
F0.00075832259042996888
sg17
F0.0025207965717166624
sS'.'
F0.00056347551698878687
sg18
F0.00099039318609487953
sg19
F0.0011485012059262662
sg20
F0.0013654673311941012
sS':'
F0.0039729837107667859
sg21
F0.00036078940722300394
sg22
F0.0017362402956569191
sg23
F0.00076645972254158043
sg24
F0.0093720712277413302
sS'`'
F0.17543859649122806
sg25
F0.00088519075860848007
sg26
F0.085470085470085472
sg27
F0.053475935828877004
sg28
F0.042194092827004218
sg29
F0.011668611435239206
sg30
F0.0015166451808599378
sg31
F0.025839793281653745
sg32
F0.00045048088834831186
sg33
F0.059880239520958084
sg34
F0.0020296326364927951
sg35
F0.004768717215069147
sS"'"
F0.17543859649122806
sg36
F0.012391573729863692
sg37
F0.0067704807041299936
sg38
F0.14925373134328357
sg39
F0.1149425287356322
ssg6
(dp42
g2
F0.002269117313365101
sg4
F0.029338418659234266
sg5
F0.042194092827004218
sg6
F0.029485639401550724
sS','
F0.015541436211546375
sg7
F0.18221697317361227
sg8
F0.004430660168365087
sg9
F0.00097412085592752545
sg10
F0.007955449482895784
sg11
F0.15491866769945778
sg12
F0.0062537457331214011
sS'#'
F0.14925373134328357
sS'"'
F0.012075211316198032
sg13
F0.010341261633919338
sS'$'
F0.0050581689428426911
sg14
F0.014547422907116397
sg15
F0.0067465002529937595
sS')'
F0.011947431302270011
sS'('
F0.022805017103762829
sg16
F0.10464851747933571
sg17
F0.0050415931434333247
sS'.'
F0.00056347551698878687
sg18
F0.0019807863721897591
sg19
F0.0011485012059262662
sg20
F0.073735235884481456
sS':'
F0.019864918553833929
sg21
F0.022368943247826244
sg22
F0.00049606865590197684
sg23
F0.079711811144324365
sg24
F0.01874414245548266
sS'`'
F0.17543859649122806
sg25
F0.01150747986191024
sg26
F0.085470085470085472
sg27
F0.053475935828877004
sg28
F0.042194092827004218
sg29
F0.023337222870478413
sg30
F0.0045499355425798133
sg31
F0.025839793281653745
sg32
F0.0049552897718314302
sg33
F0.059880239520958084
sg34
F0.0040592652729855901
sg35
F0.0095374344301382939
sS"'"
F0.17543859649122806
sg36
F0.012391573729863692
sg37
F0.013540961408259987
sg38
F0.14925373134328357
sg39
F0.1149425287356322
ssS','
(dp43
g2
F0.002269117313365101
sg4
F0.0073346046648085665
sg5
F0.042194092827004218
sg6
F0.029485639401550724
sS','
F0.0004571010650454816
sg7
F0.030369495528935378
sg8
F0.0088613203367301739
sg9
F0.029223625677825764
sg10
F0.031821797931583136
sg11
F0.014385304857806794
sg12
F0.0015634364332803503
sS'#'
F0.14925373134328357
sS'"'
F0.0017250301880282904
sg13
F0.041365046535677352
sS'$'
F0.0050581689428426911
sg14
F0.11908588054197608
sg15
F0.00056220835441614663
sS')'
F0.25089605734767023
sS'('
F0.011402508551881414
sg16
F0.027299613255478881
sg17
F0.0025207965717166624
sS'.'
F0.00056347551698878687
sg18
F0.002971179558284639
sg19
F0.019524520500746524
sg20
F0.096948180514781185
sS':'
F0.0039729837107667859
sg21
F0.13204892304361945
sg22
F0.13468264007738673
sg23
F0.016862113895914767
sg24
F0.0093720712277413302
sS'`'
F0.17543859649122806
sg25
F0.0061963353102593606
sg26
F0.59829059829059827
sg27
F0.053475935828877004
sg28
F0.042194092827004218
sg29
F0.035005834305717617
sg30
F0.089482065670736327
sg31
F0.025839793281653745
sg32
F0.0018019235533932474
sg33
F0.059880239520958084
sg34
F0.0020296326364927951
sg35
F0.10968049594659038
sS"'"
F0.17543859649122806
sg36
F0.049566294919454766
sg37
F0.081245768449559927
sg38
F0.14925373134328357
sg39
F0.45977011494252878
ssg7
(dp44
g2
F0.002269117313365101
sg4
F0.0029338418659234267
sg5
F0.042194092827004218
sg6
F0.0032761821557278584
sS','
F0.010970425561091558
sg7
F0.0016871941960519654
sg8
F0.13291980505095261
sg9
F0.00097412085592752545
sg10
F0.16706443914081145
sg11
F0.0011065619121389842
sg12
F0.0036480183443208174
sS'#'
F0.14925373134328357
sS'"'
F0.010350181128169742
sg13
F0.010341261633919338
sS'$'
F0.0050581689428426911
sg14
F0.0047363702488285942
sg15
F0.0011244167088322933
sS')'
F0.011947431302270011
sS'('
F0.011402508551881414
sg16
F0.0015166451808599378
sg17
F0.0025207965717166624
sS'.'
F0.00056347551698878687
sg18
F0.00099039318609487953
sg19
F0.16423567244745607
sg20
F0.029357547620673174
sS':'
F0.011918951132300359
sg21
F0.074322617887938813
sg22
F0.0059528238708237225
sg23
F0.0022993791676247412
sg24
F0.01874414245548266
sS'`'
F0.17543859649122806
sg25
F0.014163052137735681
sg26
F0.085470085470085472
sg27
F0.053475935828877004
sg28
F0.042194092827004218
sg29
F0.011668611435239206
sg30
F0.0068249033138697204
sg31
F0.12919896640826872
sg32
F0.00067572133252246779
sg33
F0.059880239520958084
sg34
F0.0020296326364927951
sg35
F0.071530758226037203
sS"'"
F0.17543859649122806
sg36
F0.049566294919454766
sg37
F0.0067704807041299936
sg38
F0.14925373134328357
sg39
F0.1149425287356322
ssg8
(dp45
g2
F0.002269117313365101
sg4
F0.0014669209329617133
sg5
F0.042194092827004218
sg6
F0.0010920607185759528
sS','
F0.039310691593911415
sg7
F0.0016871941960519654
sg8
F0.004430660168365087
sg9
F0.00032470695197584182
sg10
F0.007955449482895784
sg11
F0.0011065619121389842
sg12
F0.00026057273888005836
sS'#'
F0.14925373134328357
sS'"'
F0.0069001207521131617
sg13
F0.010341261633919338
sS'$'
F0.0050581689428426911
sg14
F0.012010081702386793
sg15
F0.0022488334176645865
sS')'
F0.011947431302270011
sS'('
F0.011402508551881414
sg16
F0.00075832259042996888
sg17
F0.0025207965717166624
sS'.'
F0.00056347551698878687
sg18
F0.002971179558284639
sg19
F0.0022970024118525324
sg20
F0.0006827336655970506
sS':'
F0.015891934843067144
sg21
F0.011545261031136126
sg22
F0.0014882059677059306
sg23
F0.00076645972254158043
sg24
F0.0093720712277413302
sS'`'
F0.17543859649122806
sg25
F0.0026555722758254403
sg26
F0.085470085470085472
sg27
F0.053475935828877004
sg28
F0.042194092827004218
sg29
F0.011668611435239206
sg30
F0.00075832259042996888
sg31
F0.025839793281653745
sg32
F0.0036038471067864949
sg33
F0.059880239520958084
sg34
F0.0020296326364927951
sg35
F0.004768717215069147
sS"'"
F0.17543859649122806
sg36
F0.012391573729863692
sg37
F0.0067704807041299936
sg38
F0.14925373134328357
sg39
F0.1149425287356322
ssg9
(dp46
g2
F0.22010437939641481
sg4
F0.061610679184391955
sg5
F0.042194092827004218
sg6
F0.053510975210221683
sS','
F0.054395026740412307
sg7
F0.10966762274337775
sg8
F0.0088613203367301739
sg9
F0.088969704841380656
sg10
F0.015910898965791568
sg11
F0.096270886356091614
sg12
F0.23373374677541237
sS'#'
F0.14925373134328357
sS'"'
F0.10695187165775401
sg13
F0.072388831437435366
sS'$'
F0.0050581689428426911
sg14
F0.0089652722567112684
sg15
F0.038792376454714117
sS')'
F0.011947431302270011
sS'('
F0.079817559863169893
sg16
F0.050049290968377944
sg17
F0.18905974287874969
sS'.'
F0.00056347551698878687
sg18
F0.045558086560364461
sg19
F0.0068910072355575971
sg20
F0.10718918549873693
sS':'
F0.035756853396901073
sg21
F0.016957102139481185
sg22
F0.0076890641664806416
sg23
F0.095807465317697557
sg24
F0.15932521087160262
sS'`'
F0.17543859649122806
sg25
F0.12658227848101267
sg26
F0.085470085470085472
sg27
F0.053475935828877004
sg28
F0.67510548523206748
sg29
F0.43173862310385064
sg30
F0.038674452111928416
sg31
F0.025839793281653745
sg32
F0.096402910106538731
sg33
F0.11976047904191617
sg34
F0.0020296326364927951
sg35
F0.004768717215069147
sS"'"
F0.17543859649122806
sg36
F0.099132589838909532
sg37
F0.074475287745429927
sg38
F0.14925373134328357
sg39
F0.1149425287356322
ssg10
(dp47
g2
F0.002269117313365101
sg4
F0.0029338418659234267
sg5
F0.042194092827004218
sg6
F0.0010920607185759528
sS','
F0.019198244731910227
sg7
F0.0033743883921039308
sg8
F0.004430660168365087
sg9
F0.00032470695197584182
sg10
F0.007955449482895784
sg11
F0.0055328095606949207
sg12
F0.0018240091721604087
sS'#'
F0.14925373134328357
sS'"'
F0.017250301880282905
sg13
F0.010341261633919338
sS'$'
F0.0050581689428426911
sg14
F0.003044809445675525
sg15
F0.0016866250632484399
sS')'
F0.011947431302270011
sS'('
F0.011402508551881414
sg16
F0.0015166451808599378
sg17
F0.0025207965717166624
sS'.'
F0.0011269510339775737
sg18
F0.0019807863721897591
sg19
F0.0011485012059262662
sg20
F0.0027309346623882024
sS':'
F0.0079459674215335719
sg21
F0.007576577551683083
sg22
F0.00049606865590197684
sg23
F0.0022993791676247412
sg24
F0.0093720712277413302
sS'`'
F0.17543859649122806
sg25
F0.00088519075860848007
sg26
F0.085470085470085472
sg27
F0.053475935828877004
sg28
F0.042194092827004218
sg29
F0.011668611435239206
sg30
F0.00075832259042996888
sg31
F0.025839793281653745
sg32
F0.0015766831092190914
sg33
F0.059880239520958084
sg34
F0.0020296326364927951
sg35
F0.019074868860276588
sS"'"
F0.17543859649122806
sg36
F0.012391573729863692
sg37
F0.0067704807041299936
sg38
F0.14925373134328357
sg39
F0.1149425287356322
ssg11
(dp48
g2
F0.002269117313365101
sg4
F0.0029338418659234267
sg5
F0.042194092827004218
sg6
F0.0021841214371519056
sS','
F0.033368377748320154
sg7
F0.0016871941960519654
sg8
F0.28799291094373064
sg9
F0.0019482417118550509
sg10
F0.20684168655529037
sg11
F0.0011065619121389842
sg12
F0.0059931729942413426
sS'#'
F0.14925373134328357
sS'"'
F0.069001207521131619
sg13
F0.010341261633919338
sS'$'
F0.0050581689428426911
sg14
F0.039582522793781827
sg15
F0.0028110417720807329
sS')'
F0.023894862604540022
sS'('
F0.011402508551881414
sg16
F0.00075832259042996888
sg17
F0.0050415931434333247
sS'.'
F0.00056347551698878687
sg18
F0.00099039318609487953
sg19
F0.17801768691857126
sg20
F0.035502150611046626
sS':'
F0.015891934843067144
sg21
F0.0068549987372370754
sg22
F0.035220874569040356
sg23
F0.0022993791676247412
sg24
F0.028116213683223992
sS'`'
F0.17543859649122806
sg25
F0.026555722758254404
sg26
F0.085470085470085472
sg27
F0.053475935828877004
sg28
F0.084388185654008435
sg29
F0.023337222870478413
sg30
F0.0037916129521498444
sg31
F0.41343669250645992
sg32
F0.0013514426650449356
sg33
F0.059880239520958084
sg34
F0.0020296326364927951
sg35
F0.023843586075345733
sS"'"
F0.17543859649122806
sg36
F0.012391573729863692
sg37
F0.0067704807041299936
sg38
F0.14925373134328357
sg39
F0.1149425287356322
ssg12
(dp49
g2
F0.002269117313365101
sg4
F0.19803432594983128
sg5
F0.042194092827004218
sg6
F0.072076007426012889
sS','
F0.13301640992823516
sg7
F0.11810359372363759
sg8
F0.048737261852015955
sg9
F0.0045458973276617859
sg10
F0.0477326968973747
sg11
F0.18700896315148832
sg12
F0.0026057273888005837
sS'#'
F0.14925373134328357
sS'"'
F0.10522684146972572
sg13
F0.39296794208893482
sS'$'
F0.0050581689428426911
sg14
F0.0040597459275673667
sg15
F0.23612750885478156
sS')'
F0.047789725209080043
sS'('
F0.091220068415051314
sg16
F0.18427238947448243
sg17
F0.0025207965717166624
sS'.'
F0.0011269510339775737
sg18
F0.1218183618896702
sg19
F0.0091880096474101294
sg20
F0.051887758585375844
sS':'
F0.12316249503377037
sg21
F0.014792365696143162
sg22
F0.0024803432795098843
sg23
F0.21920748064689199
sg24
F0.17806935332708529
sS'`'
F0.17543859649122806
sg25
F0.11773037089492785
sg26
F0.085470085470085472
sg27
F0.74866310160427807
sg28
F0.042194092827004218
sg29
F0.11668611435239207
sg30
F0.017441419579889286
sg31
F0.025839793281653745
sg32
F0.34146451336802036
sg33
F0.059880239520958084
sg34
F0.0040592652729855901
sg35
F0.004768717215069147
sS"'"
F0.17543859649122806
sg36
F0.012391573729863692
sg37
F0.0067704807041299936
sg38
F0.14925373134328357
sg39
F0.1149425287356322
ssS'#'
(dp50
g2
F0.002269117313365101
sg4
F0.0014669209329617133
sg5
F0.042194092827004218
sg6
F0.0010920607185759528
sS','
F0.0004571010650454816
sg7
F0.0016871941960519654
sg8
F0.004430660168365087
sg9
F0.00032470695197584182
sg10
F0.007955449482895784
sg11
F0.0011065619121389842
sg12
F0.00026057273888005836
sS'#'
F0.14925373134328357
sS'"'
F0.0017250301880282904
sg13
F0.010341261633919338
sS'$'
F0.0050581689428426911
sg14
F0.00016915608031530693
sg15
F0.00056220835441614663
sS')'
F0.011947431302270011
sS'('
F0.011402508551881414
sg16
F0.00075832259042996888
sg17
F0.0025207965717166624
sS'.'
F0.00056347551698878687
sg18
F0.00099039318609487953
sg19
F0.0011485012059262662
sg20
F0.0006827336655970506
sS':'
F0.0039729837107667859
sg21
F0.00036078940722300394
sg22
F0.00024803432795098842
sg23
F0.00076645972254158043
sg24
F0.0093720712277413302
sS'`'
F0.17543859649122806
sg25
F0.00088519075860848007
sg26
F0.085470085470085472
sg27
F0.053475935828877004
sg28
F0.042194092827004218
sg29
F0.011668611435239206
sg30
F0.00075832259042996888
sg31
F0.025839793281653745
sg32
F0.00045048088834831186
sg33
F0.059880239520958084
sg34
F0.0020296326364927951
sg35
F0.004768717215069147
sS"'"
F0.17543859649122806
sg36
F0.012391573729863692
sg37
F0.0067704807041299936
sg38
F0.14925373134328357
sg39
F0.1149425287356322
ssS'"'
(dp51
g2
F0.011345586566825504
sg4
F0.0058676837318468534
sg5
F0.084388185654008435
sg6
F0.0087364857486076225
sS','
F0.066279654431594837
sg7
F0.0050615825881558966
sg8
F0.004430660168365087
sg9
F0.0084423807513718876
sg10
F0.007955449482895784
sg11
F0.012172181033528824
sg12
F0.0054720275164812258
sS'#'
F0.14925373134328357
sS'"'
F0.012075211316198032
sg13
F0.010341261633919338
sS'$'
F0.0050581689428426911
sg14
F0.00879611617639596
sg15
F0.090515545060999611
sS')'
F0.011947431302270011
sS'('
F0.034207525655644243
sg16
F0.0068249033138697204
sg17
F0.020166372573733299
sS'.'
F0.0056347551698878685
sg18
F0.005942359116569278
sg19
F0.010336510853336395
sg20
F0.0047791356591793538
sS':'
F0.075486690504568937
sg21
F0.0079373669589060877
sg22
F0.0017362402956569191
sg23
F0.0061316777803326434
sg24
F0.01874414245548266
sS'`'
F0.17543859649122806
sg25
F0.0079667168274763205
sg26
F0.085470085470085472
sg27
F0.053475935828877004
sg28
F0.042194092827004218
sg29
F0.023337222870478413
sg30
F0.0022749677712899066
sg31
F0.025839793281653745
sg32
F0.0063067324368763656
sg33
F0.059880239520958084
sg34
F0.0081185305459711803
sg35
F0.014306151645207439
sS"'"
F0.17543859649122806
sg36
F0.012391573729863692
sg37
F0.0067704807041299936
sg38
F0.14925373134328357
sg39
F0.1149425287356322
ssg13
(dp52
g2
F0.002269117313365101
sg4
F0.022003813994425699
sg5
F0.042194092827004218
sg6
F0.0098285464671835753
sS','
F0.0004571010650454816
sg7
F0.0067487767842078616
sg8
F0.004430660168365087
sg9
F0.00032470695197584182
sg10
F0.007955449482895784
sg11
F0.0066393714728339047
sg12
F0.00026057273888005836
sS'#'
F0.14925373134328357
sS'"'
F0.0017250301880282904
sg13
F0.010341261633919338
sS'$'
F0.0050581689428426911
sg14
F0.0015224047228377625
sg15
F0.00056220835441614663
sS')'
F0.011947431302270011
sS'('
F0.011402508551881414
sg16
F0.011374838856449533
sg17
F0.0025207965717166624
sS'.'
F0.00056347551698878687
sg18
F0.00099039318609487953
sg19
F0.0068910072355575971
sg20
F0.0013654673311941012
sS':'
F0.0039729837107667859
sg21
F0.0014431576288920158
sg22
F0.00024803432795098842
sg23
F0.023760251398788994
sg24
F0.0093720712277413302
sS'`'
F0.17543859649122806
sg25
F0.00088519075860848007
sg26
F0.085470085470085472
sg27
F0.053475935828877004
sg28
F0.042194092827004218
sg29
F0.011668611435239206
sg30
F0.00075832259042996888
sg31
F0.025839793281653745
sg32
F0.00022524044417415593
sg33
F0.059880239520958084
sg34
F0.0020296326364927951
sg35
F0.004768717215069147
sS"'"
F0.17543859649122806
sg36
F0.012391573729863692
sg37
F0.0067704807041299936
sg38
F0.14925373134328357
sg39
F0.1149425287356322
ssS'$'
(dp53
g2
F0.0068073519400953034
sg4
F0.011735367463693707
sg5
F0.042194092827004218
sg6
F0.0087364857486076225
sS','
F0.0027426063902728894
sg7
F0.0016871941960519654
sg8
F0.004430660168365087
sg9
F0.0022729486638308929
sg10
F0.007955449482895784
sg11
F0.0066393714728339047
sg12
F0.0041691638220809337
sS'#'
F0.14925373134328357
sS'"'
F0.0017250301880282904
sg13
F0.031023784901758014
sS'$'
F0.0050581689428426911
sg14
F0.00033831216063061385
sg15
F0.00056220835441614663
sS')'
F0.011947431302270011
sS'('
F0.15963511972633979
sg16
F0.006066580723439751
sg17
F0.0075623897151499879
sS'.'
F0.00056347551698878687
sg18
F0.021788650094087352
sg19
F0.0011485012059262662
sg20
F0.0054618693247764048
sS':'
F0.04370282081843465
sg21
F0.00036078940722300394
sg22
F0.0012401716397549421
sg23
F0.0045987583352494824
sg24
F0.0093720712277413302
sS'`'
F0.17543859649122806
sg25
F0.0053111445516508806
sg26
F0.085470085470085472
sg27
F0.053475935828877004
sg28
F0.042194092827004218
sg29
F0.011668611435239206
sg30
F0.0015166451808599378
sg31
F0.025839793281653745
sg32
F0.015091109759668446
sg33
F0.059880239520958084
sg34
F0.0020296326364927951
sg35
F0.004768717215069147
sS"'"
F0.17543859649122806
sg36
F0.024783147459727383
sg37
F0.0067704807041299936
sg38
F0.14925373134328357
sg39
F0.1149425287356322
ssg14
(dp54
g2
F0.43340140685273432
sg4
F0.14082440956432446
sg5
F0.042194092827004218
sg6
F0.03494594299443049
sS','
F0.045253005439502676
sg7
F0.021933524548675552
sg8
F0.017722640673460348
sg9
F0.4260155209923045
sg10
F0.007955449482895784
sg11
F0.044262476485559366
sg12
F0.45678401125674234
sS'#'
F0.14925373134328357
sS'"'
F0.079351388649301358
sg13
F0.062047569803516028
sS'$'
F0.0050581689428426911
sg14
F0.11976250486323731
sg15
F0.028672626075223476
sS')'
F0.047789725209080043
sS'('
F0.045610034207525657
sg16
F0.031849548798058694
sg17
F0.4461809931938493
sS'.'
F0.00056347551698878687
sg18
F0.030702188768941267
sg19
F0.0034455036177787985
sg20
F0.01092373864955281
sS':'
F0.031783869686134288
sg21
F0.016596312732258183
sg22
F0.048118659622491754
sg23
F0.059783858358243271
sg24
F0.06560449859418932
sS'`'
F0.17543859649122806
sg25
F0.10887846330884306
sg26
F0.085470085470085472
sg27
F0.053475935828877004
sg28
F0.042194092827004218
sg29
F0.011668611435239206
sg30
F0.24190490634716008
sg31
F0.025839793281653745
sg32
F0.10225916165506679
sg33
F0.41916167664670662
sg34
F0.0020296326364927951
sg35
F0.052455889365760615
sS"'"
F0.17543859649122806
sg36
F0.3593556381660471
sg37
F0.24373730534867977
sg38
F0.14925373134328357
sg39
F0.1149425287356322
ssS')'
(dp55
g2
F0.004538234626730202
sg4
F0.0014669209329617133
sg5
F0.042194092827004218
sg6
F0.0010920607185759528
sS','
F0.0004571010650454816
sg7
F0.0016871941960519654
sg8
F0.004430660168365087
sg9
F0.00097412085592752545
sg10
F0.007955449482895784
sg11
F0.0022131238242779684
sg12
F0.00026057273888005836
sS'#'
F0.14925373134328357
sS'"'
F0.0017250301880282904
sg13
F0.010341261633919338
sS'$'
F0.0050581689428426911
sg14
F0.00219902904409899
sg15
F0.0039354584809130266
sS')'
F0.011947431302270011
sS'('
F0.011402508551881414
sg16
F0.00075832259042996888
sg17
F0.0050415931434333247
sS'.'
F0.00056347551698878687
sg18
F0.00099039318609487953
sg19
F0.0011485012059262662
sg20
F0.0006827336655970506
sS':'
F0.0039729837107667859
sg21
F0.0032471046650070358
sg22
F0.0074410298385296529
sg23
F0.0015329194450831609
sg24
F0.0093720712277413302
sS'`'
F0.17543859649122806
sg25
F0.00088519075860848007
sg26
F0.085470085470085472
sg27
F0.053475935828877004
sg28
F0.042194092827004218
sg29
F0.011668611435239206
sg30
F0.013649806627739441
sg31
F0.025839793281653745
sg32
F0.00022524044417415593
sg33
F0.059880239520958084
sg34
F0.0020296326364927951
sg35
F0.004768717215069147
sS"'"
F0.17543859649122806
sg36
F0.012391573729863692
sg37
F0.0067704807041299936
sg38
F0.14925373134328357
sg39
F0.1149425287356322
ssS'('
(dp56
g2
F0.002269117313365101
sg4
F0.0029338418659234267
sg5
F0.042194092827004218
sg6
F0.0010920607185759528
sS','
F0.0009142021300909632
sg7
F0.0016871941960519654
sg8
F0.004430660168365087
sg9
F0.00064941390395168363
sg10
F0.007955449482895784
sg11
F0.0011065619121389842
sg12
F0.0015634364332803503
sS'#'
F0.14925373134328357
sS'"'
F0.0069001207521131617
sg13
F0.010341261633919338
sS'$'
F0.0050581689428426911
sg14
F0.0027064972850449108
sg15
F0.0073087086074099059
sS')'
F0.011947431302270011
sS'('
F0.011402508551881414
sg16
F0.00075832259042996888
sg17
F0.0025207965717166624
sS'.'
F0.00056347551698878687
sg18
F0.0019807863721897591
sg19
F0.0034455036177787985
sg20
F0.0020482009967911518
sS':'
F0.0039729837107667859
sg21
F0.0043294728866760477
sg22
F0.0049606865590197686
sg23
F0.0022993791676247412
sg24
F0.0093720712277413302
sS'`'
F0.17543859649122806
sg25
F0.0017703815172169601
sg26
F0.085470085470085472
sg27
F0.053475935828877004
sg28
F0.042194092827004218
sg29
F0.011668611435239206
sg30
F0.0015166451808599378
sg31
F0.025839793281653745
sg32
F0.0011262022208707795
sg33
F0.059880239520958084
sg34
F0.0020296326364927951
sg35
F0.0095374344301382939
sS"'"
F0.17543859649122806
sg36
F0.012391573729863692
sg37
F0.0067704807041299936
sg38
F0.14925373134328357
sg39
F0.1149425287356322
ssg16
(dp57
g2
F0.002269117313365101
sg4
F0.0044007627988851394
sg5
F0.042194092827004218
sg6
F0.0010920607185759528
sS','
F0.052109521415184899
sg7
F0.0033743883921039308
sg8
F0.19494904740806382
sg9
F0.00097412085592752545
sg10
F0.31821797931583135
sg11
F0.0011065619121389842
sg12
F0.0020845819110404669
sS'#'
F0.14925373134328357
sS'"'
F0.058651026392961873
sg13
F0.010341261633919338
sS'$'
F0.0050581689428426911
sg14
F0.043303956560718573
sg15
F0.0011244167088322933
sS')'
F0.035842293906810034
sS'('
F0.011402508551881414
sg16
F0.00075832259042996888
sg17
F0.012603982858583314
sS'.'
F0.00056347551698878687
sg18
F0.00099039318609487953
sg19
F0.27793729183415639
sg20
F0.058715095241346348
sS':'
F0.011918951132300359
sg21
F0.050871306418443556
sg22
F0.063000719299551061
sg23
F0.0015329194450831609
sg24
F0.0093720712277413302
sS'`'
F0.17543859649122806
sg25
F0.046915110206249444
sg26
F0.085470085470085472
sg27
F0.053475935828877004
sg28
F0.042194092827004218
sg29
F0.011668611435239206
sg30
F0.006066580723439751
sg31
F0.18087855297157621
sg32
F0.00045048088834831186
sg33
F0.059880239520958084
sg34
F0.0020296326364927951
sg35
F0.10491177873152123
sS"'"
F0.17543859649122806
sg36
F0.024783147459727383
sg37
F0.013540961408259987
sg38
F0.14925373134328357
sg39
F0.1149425287356322
ssg17
(dp58
g2
F0.002269117313365101
sg4
F0.0014669209329617133
sg5
F0.042194092827004218
sg6
F0.0010920607185759528
sS','
F0.0004571010650454816
sg7
F0.0033743883921039308
sg8
F0.004430660168365087
sg9
F0.00097412085592752545
sg10
F0.007955449482895784
sg11
F0.0011065619121389842
sg12
F0.00026057273888005836
sS'#'
F0.14925373134328357
sS'"'
F0.0017250301880282904
sg13
F0.010341261633919338
sS'$'
F0.0050581689428426911
sg14
F0.021821134360674597
sg15
F0.00056220835441614663
sS')'
F0.011947431302270011
sS'('
F0.011402508551881414
sg16
F0.00075832259042996888
sg17
F0.0025207965717166624
sS'.'
F0.00056347551698878687
sg18
F0.00099039318609487953
sg19
F0.0045940048237050647
sg20
F0.0013654673311941012
sS':'
F0.0039729837107667859
sg21
F0.010823682216690118
sg22
F0.054815586477168443
sg23
F0.00076645972254158043
sg24
F0.0093720712277413302
sS'`'
F0.17543859649122806
sg25
F0.00088519075860848007
sg26
F0.085470085470085472
sg27
F0.053475935828877004
sg28
F0.042194092827004218
sg29
F0.011668611435239206
sg30
F0.00075832259042996888
sg31
F0.025839793281653745
sg32
F0.00022524044417415593
sg33
F0.059880239520958084
sg34
F0.0020296326364927951
sg35
F0.038149737720553176
sS"'"
F0.17543859649122806
sg36
F0.012391573729863692
sg37
F0.0067704807041299936
sg38
F0.14925373134328357
sg39
F0.1149425287356322
ssS'.'
(dp59
g2
F0.002269117313365101
sg4
F0.011735367463693707
sg5
F0.12658227848101267
sg6
F0.046958610898765969
sS','
F0.0004571010650454816
sg7
F0.021933524548675552
sg8
F0.004430660168365087
sg9
F0.024028314446212295
sg10
F0.007955449482895784
sg11
F0.024344362067057649
sg12
F0.0018240091721604087
sS'#'
F0.14925373134328357
sS'"'
F0.0017250301880282904
sg13
F0.10341261633919338
sS'$'
F0.0050581689428426911
sg14
F0.1074141110002199
sg15
F0.00056220835441614663
sS')'
F0.10752688172043011
sS'('
F0.011402508551881414
sg16
F0.056115871691817698
sg17
F0.0025207965717166624
sS'.'
F0.00056347551698878687
sg18
F0.0019807863721897591
sg19
F0.033306534971861722
sg20
F0.053935959582166994
sS':'
F0.04370282081843465
sg21
F0.13493523830140347
sg22
F0.066721234218815886
sg23
F0.018395033340997929
sg24
F0.0093720712277413302
sS'`'
F0.17543859649122806
sg25
F0.00088519075860848007
sg26
F0.085470085470085472
sg27
F0.053475935828877004
sg28
F0.042194092827004218
sg29
F0.046674445740956826
sg30
F0.056115871691817698
sg31
F0.025839793281653745
sg32
F0.00067572133252246779
sg33
F0.059880239520958084
sg34
F0.0020296326364927951
sg35
F0.076299475441106351
sS"'"
F0.17543859649122806
sg36
F0.03717472118959108
sg37
F0.047393364928909956
sg38
F0.14925373134328357
sg39
F0.1149425287356322
ssg18
(dp60
g2
F0.002269117313365101
sg4
F0.083614493178817653
sg5
F0.042194092827004218
sg6
F0.095009282516107893
sS','
F0.010056223431000596
sg7
F0.038805466509195204
sg8
F0.004430660168365087
sg9
F0.033120109101535865
sg10
F0.007955449482895784
sg11
F0.033196857364169524
sg12
F0.00052114547776011672
sS'#'
F0.14925373134328357
sS'"'
F0.0086251509401414524
sg13
F0.041365046535677352
sS'$'
F0.0050581689428426911
sg14
F0.039244210633151207
sg15
F0.0033732501264968798
sS')'
F0.023894862604540022
sS'('
F0.011402508551881414
sg16
F0.047016000606658073
sg17
F0.0025207965717166624
sS'.'
F0.0011269510339775737
sg18
F0.00099039318609487953
sg19
F0.026415527736304123
sg20
F0.036184884276643681
sS':'
F0.0079459674215335719
sg21
F0.04942814878955154
sg22
F0.010665476101892503
sg23
F0.043688204184870086
sg24
F0.084348641049671977
sS'`'
F0.17543859649122806
sg25
F0.0079667168274763205
sg26
F0.085470085470085472
sg27
F0.053475935828877004
sg28
F0.042194092827004218
sg29
F0.023337222870478413
sg30
F0.025782968074618943
sg31
F0.025839793281653745
sg32
F0.0024776448859157151
sg33
F0.059880239520958084
sg34
F0.012177795818956769
sg35
F0.033381020505484027
sS"'"
F0.17543859649122806
sg36
F0.012391573729863692
sg37
F0.020311442112389982
sg38
F0.14925373134328357
sg39
F0.1149425287356322
ssg19
(dp61
g2
F0.002269117313365101
sg4
F0.033739181458119404
sg5
F0.042194092827004218
sg6
F0.0054603035928797641
sS','
F0.061251542716094537
sg7
F0.03374388392103931
sg8
F0.035445281346920696
sg9
F0.0016235347598792091
sg10
F0.063643595863166272
sg11
F0.026557485891335619
sg12
F0.00052114547776011672
sS'#'
F0.14925373134328357
sS'"'
F0.1449025357943764
sg13
F0.010341261633919338
sS'$'
F0.0050581689428426911
sg14
F0.0040597459275673667
sg15
F0.066902794175521446
sS')'
F0.023894862604540022
sS'('
F0.011402508551881414
sg16
F0.074315613862136948
sg17
F0.0025207965717166624
sS'.'
F0.0016904265509663605
sg18
F0.010894325047043676
sg19
F0.0022970024118525324
sg20
F0.01092373864955281
sS':'
F0.047675804529201435
sg21
F0.005772630515568063
sg22
F0.00024803432795098842
sg23
F0.044454663907411665
sg24
F0.24367385192127461
sS'`'
F0.17543859649122806
sg25
F0.050455873240683367
sg26
F0.085470085470085472
sg27
F0.053475935828877004
sg28
F0.042194092827004218
sg29
F0.011668611435239206
sg30
F0.0015166451808599378
sg31
F0.025839793281653745
sg32
F0.02928125774264027
sg33
F0.059880239520958084
sg34
F0.0040592652729855901
sg35
F0.004768717215069147
sS"'"
F0.17543859649122806
sg36
F0.012391573729863692
sg37
F0.0067704807041299936
sg38
F0.14925373134328357
sg39
F0.1149425287356322
ssg20
(dp62
g2
F0.0068073519400953034
sg4
F0.058676837318468532
sg5
F0.042194092827004218
sg6
F0.060063339521677403
sS','
F0.05073821822004846
sg7
F0.17546819638940442
sg8
F0.066459902525476303
sg9
F0.0045458973276617859
sg10
F0.0477326968973747
sg11
F0.11729556268673232
sg12
F0.011465200510722568
sS'#'
F0.14925373134328357
sS'"'
F0.039675694324650679
sg13
F0.031023784901758014
sS'$'
F0.0050581689428426911
sg14
F0.01776138843310723
sg15
F0.062405127340192275
sS')'
F0.035842293906810034
sS'('
F0.034207525655644243
sg16
F0.10616516266019564
sg17
F0.0025207965717166624
sS'.'
F0.0011269510339775737
sg18
F0.014855897791423194
sg19
F0.055128057884460777
sg20
F0.071687034887690307
sS':'
F0.05164878823996822
sg21
F0.034996572500631387
sg22
F0.010169407445990526
sg23
F0.052119261132827471
sg24
F0.028116213683223992
sS'`'
F0.17543859649122806
sg25
F0.057537399309551207
sg26
F0.085470085470085472
sg27
F0.053475935828877004
sg28
F0.084388185654008435
sg29
F0.10501750291715285
sg30
F0.0037916129521498444
sg31
F0.10335917312661498
sg32
F0.011937743541230264
sg33
F0.059880239520958084
sg34
F0.14207428455449564
sg35
F0.023843586075345733
sS"'"
F0.17543859649122806
sg36
F0.024783147459727383
sg37
F0.013540961408259987
sg38
F0.14925373134328357
sg39
F0.1149425287356322
ssS':'
(dp63
g2
F0.002269117313365101
sg4
F0.0029338418659234267
sg5
F0.084388185654008435
sg6
F0.0032761821557278584
sS','
F0.0004571010650454816
sg7
F0.010123165176311793
sg8
F0.004430660168365087
sg9
F0.0042211903756859438
sg10
F0.007955449482895784
sg11
F0.0033196857364169523
sg12
F0.00026057273888005836
sS'#'
F0.14925373134328357
sS'"'
F0.010350181128169742
sg13
F0.010341261633919338
sS'$'
F0.0050581689428426911
sg14
F0.013701642505539862
sg15
F0.00056220835441614663
sS')'
F0.14336917562724014
sS'('
F0.011402508551881414
sg16
F0.0045499355425798133
sg17
F0.0025207965717166624
sS'.'
F0.00056347551698878687
sg18
F0.00099039318609487953
sg19
F0.0068910072355575971
sg20
F0.003413668327985253
sS':'
F0.0039729837107667859
sg21
F0.025976837320056286
sg22
F0.0071929955105786642
sg23
F0.0045987583352494824
sg24
F0.0093720712277413302
sS'`'
F0.17543859649122806
sg25
F0.00088519075860848007
sg26
F0.085470085470085472
sg27
F0.053475935828877004
sg28
F0.042194092827004218
sg29
F0.011668611435239206
sg30
F0.0045499355425798133
sg31
F0.025839793281653745
sg32
F0.00045048088834831186
sg33
F0.059880239520958084
sg34
F0.0020296326364927951
sg35
F0.0095374344301382939
sS"'"
F0.17543859649122806
sg36
F0.012391573729863692
sg37
F0.020311442112389982
sg38
F0.14925373134328357
sg39
F0.1149425287356322
ssg21
(dp64
g2
F0.24960290447016112
sg4
F0.093882939709549654
sg5
F0.084388185654008435
sg6
F0.038222125150158347
sS','
F0.025597659642546969
sg7
F0.038805466509195204
sg8
F0.013291980505095259
sg9
F0.23541254018248531
sg10
F0.015910898965791568
sg11
F0.019918114418501713
sg12
F0.085467858352659146
sS'#'
F0.14925373134328357
sS'"'
F0.03277557357253752
sg13
F0.072388831437435366
sS'$'
F0.0050581689428426911
sg14
F0.06732411996549216
sg15
F0.038792376454714117
sS')'
F0.011947431302270011
sS'('
F0.022805017103762829
sg16
F0.021991355122469098
sg17
F0.11847743887068314
sS'.'
F0.0016904265509663605
sg18
F0.018817470535802714
sg19
F0.0011485012059262662
sg20
F0.0040964019935823036
sS':'
F0.031783869686134288
sg21
F0.0093805245877981031
sg22
F0.027779844730510705
sg23
F0.05365218057791063
sg24
F0.084348641049671977
sS'`'
F0.17543859649122806
sg25
F0.063733734619810564
sg26
F0.085470085470085472
sg27
F0.053475935828877004
sg28
F0.042194092827004218
sg29
F0.011668611435239206
sg30
F0.18351406688405247
sg31
F0.025839793281653745
sg32
F0.057436313264409761
sg33
F0.29940119760479045
sg34
F0.0040592652729855901
sg35
F0.023843586075345733
sS"'"
F0.17543859649122806
sg36
F0.18587360594795538
sg37
F0.1083276912660799
sg38
F0.14925373134328357
sg39
F0.1149425287356322
ssg22
(dp65
g2
F0.036305877013841616
sg4
F0.04987531172069825
sg5
F0.29535864978902954
sg6
F0.030577700120126679
sS','
F0.11244686200118847
sg7
F0.011810359372363757
sg8
F0.022153300841825433
sg9
F0.038964834237101016
sg10
F0.015910898965791568
sg11
F0.053114971782671237
sg12
F0.10683482294082394
sS'#'
F0.14925373134328357
sS'"'
F0.06382611695704675
sg13
F0.041365046535677352
sS'$'
F0.0050581689428426911
sg14
F0.01048767697954903
sg15
F0.18890200708382526
sS')'
F0.071684587813620068
sS'('
F0.39908779931584948
sg16
F0.05535754910138773
sg17
F0.10083186286866651
sS'.'
F0.00056347551698878687
sg18
F0.050510052490838862
sg19
F0.0011485012059262662
sg20
F0.0075100703215675562
sS':'
F0.10329757647993644
sg21
F0.0050510517011220554
sg22
F0.35270481434630552
sg23
F0.031424848624204797
sg24
F0.093720712277413312
sS'`'
F0.17543859649122806
sg25
F0.15756395503230947
sg26
F0.085470085470085472
sg27
F0.053475935828877004
sg28
F0.042194092827004218
sg29
F0.011668611435239206
sg30
F0.018958064760749221
sg31
F0.025839793281653745
sg32
F0.15856927269860577
sg33
F0.059880239520958084
sg34
F0.0040592652729855901
sg35
F0.26227944682880305
sS"'"
F0.17543859649122806
sg36
F0.012391573729863692
sg37
F0.013540961408259987
sg38
F0.29850746268656714
sg39
F0.1149425287356322
ssg23
(dp66
g2
F0.002269117313365101
sg4
F0.0044007627988851394
sg5
F0.042194092827004218
sg6
F0.0010920607185759528
sS','
F0.0059423138455912605
sg7
F0.0050615825881558966
sg8
F0.004430660168365087
sg9
F0.00032470695197584182
sg10
F0.007955449482895784
sg11
F0.0044262476485559367
sg12
F0.00052114547776011672
sS'#'
F0.14925373134328357
sS'"'
F0.018975332068311195
sg13
F0.010341261633919338
sS'$'
F0.0050581689428426911
sg14
F0.0016915608031530694
sg15
F0.0061842918985776131
sS')'
F0.011947431302270011
sS'('
F0.034207525655644243
sg16
F0.0037916129521498444
sg17
F0.0025207965717166624
sS'.'
F0.00056347551698878687
sg18
F0.5853223729820739
sg19
F0.019524520500746524
sg20
F0.10445825083634874
sS':'
F0.011918951132300359
sg21
F0.0039686834794530439
sg22
F0.0024803432795098843
sg23
F0.0091975166704989647
sg24
F0.0093720712277413302
sS'`'
F0.17543859649122806
sg25
F0.040718774895990087
sg26
F0.085470085470085472
sg27
F0.053475935828877004
sg28
F0.042194092827004218
sg29
F0.011668611435239206
sg30
F0.00075832259042996888
sg31
F0.025839793281653745
sg32
F0.0013514426650449356
sg33
F0.059880239520958084
sg34
F0.8199715851430891
sg35
F0.004768717215069147
sS"'"
F0.17543859649122806
sg36
F0.024783147459727383
sg37
F0.0067704807041299936
sg38
F0.14925373134328357
sg39
F0.1149425287356322
ssg24
(dp67
g2
F0.002269117313365101
sg4
F0.0014669209329617133
sg5
F0.042194092827004218
sg6
F0.0054603035928797641
sS','
F0.0045710106504548162
sg7
F0.0067487767842078616
sg8
F0.004430660168365087
sg9
F0.0016235347598792091
sg10
F0.007955449482895784
sg11
F0.0022131238242779684
sg12
F0.00052114547776011672
sS'#'
F0.14925373134328357
sS'"'
F0.0086251509401414524
sg13
F0.020682523267838676
sS'$'
F0.0050581689428426911
sg14
F0.003044809445675525
sg15
F0.0061842918985776131
sS')'
F0.011947431302270011
sS'('
F0.011402508551881414
sg16
F0.0030332903617198755
sg17
F0.0050415931434333247
sS'.'
F0.00056347551698878687
sg18
F0.00099039318609487953
sg19
F0.0034455036177787985
sg20
F0.0047791356591793538
sS':'
F0.011918951132300359
sg21
F0.0014431576288920158
sg22
F0.00074410298385296531
sg23
F0.0061316777803326434
sg24
F0.0093720712277413302
sS'`'
F0.17543859649122806
sg25
F0.0079667168274763205
sg26
F0.085470085470085472
sg27
F0.053475935828877004
sg28
F0.042194092827004218
sg29
F0.011668611435239206
sg30
F0.0015166451808599378
sg31
F0.025839793281653745
sg32
F0.0029281257742640268
sg33
F0.059880239520958084
sg34
F0.0020296326364927951
sg35
F0.004768717215069147
sS"'"
F0.17543859649122806
sg36
F0.012391573729863692
sg37
F0.0067704807041299936
sg38
F0.14925373134328357
sg39
F0.1149425287356322
ssS'`'
(dp68
g2
F0.002269117313365101
sg4
F0.0014669209329617133
sg5
F0.042194092827004218
sg6
F0.0010920607185759528
sS','
F0.0004571010650454816
sg7
F0.0016871941960519654
sg8
F0.004430660168365087
sg9
F0.00032470695197584182
sg10
F0.007955449482895784
sg11
F0.0011065619121389842
sg12
F0.00026057273888005836
sS'#'
F0.14925373134328357
sS'"'
F0.0017250301880282904
sg13
F0.010341261633919338
sS'$'
F0.0050581689428426911
sg14
F0.00016915608031530693
sg15
F0.00056220835441614663
sS')'
F0.011947431302270011
sS'('
F0.011402508551881414
sg16
F0.00075832259042996888
sg17
F0.0025207965717166624
sS'.'
F0.00056347551698878687
sg18
F0.00099039318609487953
sg19
F0.0011485012059262662
sg20
F0.0006827336655970506
sS':'
F0.0039729837107667859
sg21
F0.00036078940722300394
sg22
F0.00024803432795098842
sg23
F0.00076645972254158043
sg24
F0.0093720712277413302
sS'`'
F0.17543859649122806
sg25
F0.00088519075860848007
sg26
F0.085470085470085472
sg27
F0.053475935828877004
sg28
F0.042194092827004218
sg29
F0.011668611435239206
sg30
F0.00075832259042996888
sg31
F0.025839793281653745
sg32
F0.00022524044417415593
sg33
F0.059880239520958084
sg34
F0.0020296326364927951
sg35
F0.004768717215069147
sS"'"
F0.17543859649122806
sg36
F0.012391573729863692
sg37
F0.0067704807041299936
sg38
F0.14925373134328357
sg39
F0.1149425287356322
ssg25
(dp69
g2
F0.004538234626730202
sg4
F0.0088015255977702787
sg5
F0.084388185654008435
sg6
F0.0098285464671835753
sS','
F0.083192393838277645
sg7
F0.0033743883921039308
sg8
F0.004430660168365087
sg9
F0.020131831022502194
sg10
F0.007955449482895784
sg11
F0.0055328095606949207
sg12
F0.00052114547776011672
sS'#'
F0.14925373134328357
sS'"'
F0.043125754700707258
sg13
F0.020682523267838676
sS'$'
F0.0050581689428426911
sg14
F0.041612395757565507
sg15
F0.053409793669533925
sS')'
F0.095579450418160086
sS'('
F0.022805017103762829
sg16
F0.0037916129521498444
sg17
F0.017645576002016636
sS'.'
F0.0016904265509663605
sg18
F0.0019807863721897591
sg19
F0.011485012059262662
sg20
F0.012971939646343961
sS':'
F0.063567739372268575
sg21
F0.058808673377349643
sg22
F0.05035096857405065
sg23
F0.013796275005748447
sg24
F0.01874414245548266
sS'`'
F0.17543859649122806
sg25
F0.00088519075860848007
sg26
F0.085470085470085472
sg27
F0.053475935828877004
sg28
F0.042194092827004218
sg29
F0.035005834305717617
sg30
F0.023508000303329037
sg31
F0.025839793281653745
sg32
F0.0013514426650449356
sg33
F0.059880239520958084
sg34
F0.0020296326364927951
sg35
F0.071530758226037203
sS"'"
F0.17543859649122806
sg36
F0.012391573729863692
sg37
F0.013540961408259987
sg38
F0.14925373134328357
sg39
F0.1149425287356322
ssg26
(dp70
g2
F0.002269117313365101
sg4
F0.0014669209329617133
sg5
F0.042194092827004218
sg6
F0.0010920607185759528
sS','
F0.0004571010650454816
sg7
F0.0016871941960519654
sg8
F0.004430660168365087
sg9
F0.00032470695197584182
sg10
F0.007955449482895784
sg11
F0.0011065619121389842
sg12
F0.00026057273888005836
sS'#'
F0.14925373134328357
sS'"'
F0.0017250301880282904
sg13
F0.010341261633919338
sS'$'
F0.0050581689428426911
sg14
F0.00016915608031530693
sg15
F0.0039354584809130266
sS')'
F0.011947431302270011
sS'('
F0.011402508551881414
sg16
F0.00075832259042996888
sg17
F0.0025207965717166624
sS'.'
F0.00056347551698878687
sg18
F0.00099039318609487953
sg19
F0.0011485012059262662
sg20
F0.0006827336655970506
sS':'
F0.0039729837107667859
sg21
F0.00036078940722300394
sg22
F0.00024803432795098842
sg23
F0.00076645972254158043
sg24
F0.0093720712277413302
sS'`'
F0.17543859649122806
sg25
F0.00088519075860848007
sg26
F0.085470085470085472
sg27
F0.053475935828877004
sg28
F0.042194092827004218
sg29
F0.011668611435239206
sg30
F0.00075832259042996888
sg31
F0.025839793281653745
sg32
F0.00022524044417415593
sg33
F0.059880239520958084
sg34
F0.0020296326364927951
sg35
F0.004768717215069147
sS"'"
F0.17543859649122806
sg36
F0.012391573729863692
sg37
F0.0067704807041299936
sg38
F0.14925373134328357
sg39
F0.1149425287356322
ssg27
(dp71
g2
F0.002269117313365101
sg4
F0.0044007627988851394
sg5
F0.042194092827004218
sg6
F0.0010920607185759528
sS','
F0.0009142021300909632
sg7
F0.0016871941960519654
sg8
F0.004430660168365087
sg9
F0.00032470695197584182
sg10
F0.007955449482895784
sg11
F0.0022131238242779684
sg12
F0.00026057273888005836
sS'#'
F0.14925373134328357
sS'"'
F0.0017250301880282904
sg13
F0.010341261633919338
sS'$'
F0.0050581689428426911
sg14
F0.00016915608031530693
sg15
F0.0016866250632484399
sS')'
F0.011947431302270011
sS'('
F0.011402508551881414
sg16
F0.0015166451808599378
sg17
F0.0025207965717166624
sS'.'
F0.00056347551698878687
sg18
F0.00099039318609487953
sg19
F0.0011485012059262662
sg20
F0.0013654673311941012
sS':'
F0.0039729837107667859
sg21
F0.00036078940722300394
sg22
F0.00024803432795098842
sg23
F0.0015329194450831609
sg24
F0.0093720712277413302
sS'`'
F0.17543859649122806
sg25
F0.0017703815172169601
sg26
F0.085470085470085472
sg27
F0.053475935828877004
sg28
F0.042194092827004218
sg29
F0.011668611435239206
sg30
F0.00075832259042996888
sg31
F0.025839793281653745
sg32
F0.00090096177669662372
sg33
F0.059880239520958084
sg34
F0.0020296326364927951
sg35
F0.004768717215069147
sS"'"
F0.17543859649122806
sg36
F0.012391573729863692
sg37
F0.0067704807041299936
sg38
F0.14925373134328357
sg39
F0.1149425287356322
ssg28
(dp72
g2
F0.002269117313365101
sg4
F0.0014669209329617133
sg5
F0.042194092827004218
sg6
F0.0010920607185759528
sS','
F0.0004571010650454816
sg7
F0.0016871941960519654
sg8
F0.004430660168365087
sg9
F0.00032470695197584182
sg10
F0.007955449482895784
sg11
F0.0033196857364169523
sg12
F0.0023451546499205253
sS'#'
F0.14925373134328357
sS'"'
F0.0017250301880282904
sg13
F0.010341261633919338
sS'$'
F0.0050581689428426911
sg14
F0.00016915608031530693
sg15
F0.00056220835441614663
sS')'
F0.011947431302270011
sS'('
F0.011402508551881414
sg16
F0.0015166451808599378
sg17
F0.010083186286866649
sS'.'
F0.00056347551698878687
sg18
F0.0019807863721897591
sg19
F0.0011485012059262662
sg20
F0.0013654673311941012
sS':'
F0.0039729837107667859
sg21
F0.00036078940722300394
sg22
F0.00024803432795098842
sg23
F0.00076645972254158043
sg24
F0.0093720712277413302
sS'`'
F0.17543859649122806
sg25
F0.00088519075860848007
sg26
F0.085470085470085472
sg27
F0.053475935828877004
sg28
F0.042194092827004218
sg29
F0.011668611435239206
sg30
F0.0015166451808599378
sg31
F0.025839793281653745
sg32
F0.00045048088834831186
sg33
F0.059880239520958084
sg34
F0.0020296326364927951
sg35
F0.004768717215069147
sS"'"
F0.17543859649122806
sg36
F0.012391573729863692
sg37
F0.0067704807041299936
sg38
F0.14925373134328357
sg39
F0.1149425287356322
ssg29
(dp73
g2
F0.002269117313365101
sg4
F0.0044007627988851394
sg5
F0.042194092827004218
sg6
F0.0087364857486076225
sS','
F0.0013713031951364447
sg7
F0.010123165176311793
sg8
F0.004430660168365087
sg9
F0.00064941390395168363
sg10
F0.015910898965791568
sg11
F0.0066393714728339047
sg12
F0.0018240091721604087
sS'#'
F0.14925373134328357
sS'"'
F0.0051750905640848711
sg13
F0.010341261633919338
sS'$'
F0.0050581689428426911
sg14
F0.00050746824094592084
sg15
F0.004497666835329173
sS')'
F0.011947431302270011
sS'('
F0.011402508551881414
sg16
F0.006066580723439751
sg17
F0.0025207965717166624
sS'.'
F0.00056347551698878687
sg18
F0.002971179558284639
sg19
F0.0022970024118525324
sg20
F0.0054618693247764048
sS':'
F0.0039729837107667859
sg21
F0.0018039470361150198
sg22
F0.00074410298385296531
sg23
F0.0076645972254158045
sg24
F0.0093720712277413302
sS'`'
F0.17543859649122806
sg25
F0.0044259537930424007
sg26
F0.085470085470085472
sg27
F0.053475935828877004
sg28
F0.042194092827004218
sg29
F0.011668611435239206
sg30
F0.00075832259042996888
sg31
F0.025839793281653745
sg32
F0.00090096177669662372
sg33
F0.059880239520958084
sg34
F0.0040592652729855901
sg35
F0.004768717215069147
sS"'"
F0.17543859649122806
sg36
F0.012391573729863692
sg37
F0.0067704807041299936
sg38
F0.14925373134328357
sg39
F0.1149425287356322
ssg30
(dp74
g2
F0.015883821193555706
sg4
F0.014669209329617133
sg5
F0.042194092827004218
sg6
F0.010920607185759528
sS','
F0.028797367097865342
sg7
F0.011810359372363757
sg8
F0.004430660168365087
sg9
F0.0090917946553235717
sg10
F0.007955449482895784
sg11
F0.043155914573420377
sg12
F0.02084581911040467
sS'#'
F0.29850746268656714
sS'"'
F0.012075211316198032
sg13
F0.031023784901758014
sS'$'
F0.97622660596863942
sg14
F0.0089652722567112684
sg15
F0.012368583797155226
sS')'
F0.035842293906810034
sS'('
F0.011402508551881414
sg16
F0.034124516569348597
sg17
F0.032770355432316614
sS'.'
F0.00056347551698878687
sg18
F0.059423591165692777
sg19
F0.0011485012059262662
sg20
F0.02457841196149382
sS':'
F0.1986491855383393
sg21
F0.0018039470361150198
sg22
F0.01909864325222611
sg23
F0.016095654173373188
sg24
F0.0093720712277413302
sS'`'
F0.17543859649122806
sg25
F0.029211295034079841
sg26
F0.085470085470085472
sg27
F0.053475935828877004
sg28
F0.042194092827004218
sg29
F0.011668611435239206
sg30
F0.16303935694244331
sg31
F0.025839793281653745
sg32
F0.057211072820235603
sg33
F0.059880239520958084
sg34
F0.0020296326364927951
sg35
F0.0095374344301382939
sS"'"
F0.17543859649122806
sg36
F0.03717472118959108
sg37
F0.0067704807041299936
sg38
F0.14925373134328357
sg39
F0.1149425287356322
ssg31
(dp75
g2
F0.002269117313365101
sg4
F0.0014669209329617133
sg5
F0.042194092827004218
sg6
F0.0010920607185759528
sS','
F0.0050281117155002979
sg7
F0.0033743883921039308
sg8
F0.004430660168365087
sg9
F0.00032470695197584182
sg10
F0.007955449482895784
sg11
F0.0011065619121389842
sg12
F0.00026057273888005836
sS'#'
F0.14925373134328357
sS'"'
F0.012075211316198032
sg13
F0.010341261633919338
sS'$'
F0.0050581689428426911
sg14
F0.00033831216063061385
sg15
F0.0022488334176645865
sS')'
F0.011947431302270011
sS'('
F0.011402508551881414
sg16
F0.00075832259042996888
sg17
F0.0025207965717166624
sS'.'
F0.00056347551698878687
sg18
F0.00099039318609487953
sg19
F0.0011485012059262662
sg20
F0.0006827336655970506
sS':'
F0.0039729837107667859
sg21
F0.00036078940722300394
sg22
F0.00024803432795098842
sg23
F0.00076645972254158043
sg24
F0.0093720712277413302
sS'`'
F0.17543859649122806
sg25
F0.0079667168274763205
sg26
F0.085470085470085472
sg27
F0.053475935828877004
sg28
F0.042194092827004218
sg29
F0.011668611435239206
sg30
F0.00075832259042996888
sg31
F0.025839793281653745
sg32
F0.0011262022208707795
sg33
F0.059880239520958084
sg34
F0.0020296326364927951
sg35
F0.004768717215069147
sS"'"
F0.17543859649122806
sg36
F0.012391573729863692
sg37
F0.0067704807041299936
sg38
F0.14925373134328357
sg39
F0.1149425287356322
ssg32
(dp76
g2
F0.002269117313365101
sg4
F0.12322135836878391
sg5
F0.084388185654008435
sg6
F0.41061483018455824
sS','
F0.078164282122777359
sg7
F0.070862156234182544
sg8
F0.022153300841825433
sg9
F0.059421372211579053
sg10
F0.031821797931583136
sg11
F0.074139648113311932
sg12
F0.0085989003830419259
sS'#'
F0.14925373134328357
sS'"'
F0.10005175090564083
sg13
F0.072388831437435366
sS'$'
F0.0050581689428426911
sg14
F0.25119677926823081
sg15
F0.10906842075673244
sS')'
F0.095579450418160086
sS'('
F0.11402508551881413
sg16
F0.11450671115492531
sg17
F0.0025207965717166624
sS'.'
F0.00056347551698878687
sg18
F0.0039615727443795181
sg19
F0.035603537383714252
sg20
F0.13722946678500716
sS':'
F0.079459674215335716
sg21
F0.24750153335498071
sg22
F0.038941389488305181
sg23
F0.11956771671648654
sg24
F0.0093720712277413302
sS'`'
F0.17543859649122806
sg25
F0.044259537930424003
sg26
F0.085470085470085472
sg27
F0.053475935828877004
sg28
F0.084388185654008435
sg29
F0.1983663943990665
sg30
F0.087965420489876392
sg31
F0.025839793281653745
sg32
F0.014640628871320135
sg33
F0.059880239520958084
sg34
F0.0020296326364927951
sg35
F0.052455889365760615
sS"'"
F0.17543859649122806
sg36
F0.14869888475836432
sg37
F0.39268788083953965
sg38
F0.14925373134328357
sg39
F0.1149425287356322
ssg33
(dp77
g2
F0.002269117313365101
sg4
F0.0014669209329617133
sg5
F0.042194092827004218
sg6
F0.0010920607185759528
sS','
F0.0031997074553183711
sg7
F0.0016871941960519654
sg8
F0.004430660168365087
sg9
F0.00032470695197584182
sg10
F0.007955449482895784
sg11
F0.0011065619121389842
sg12
F0.00026057273888005836
sS'#'
F0.14925373134328357
sS'"'
F0.0017250301880282904
sg13
F0.010341261633919338
sS'$'
F0.0050581689428426911
sg14
F0.00033831216063061385
sg15
F0.00056220835441614663
sS')'
F0.011947431302270011
sS'('
F0.011402508551881414
sg16
F0.00075832259042996888
sg17
F0.0025207965717166624
sS'.'
F0.00056347551698878687
sg18
F0.00099039318609487953
sg19
F0.0011485012059262662
sg20
F0.0006827336655970506
sS':'
F0.0039729837107667859
sg21
F0.00036078940722300394
sg22
F0.00024803432795098842
sg23
F0.0015329194450831609
sg24
F0.0093720712277413302
sS'`'
F0.17543859649122806
sg25
F0.0035407630344339203
sg26
F0.085470085470085472
sg27
F0.053475935828877004
sg28
F0.042194092827004218
sg29
F0.011668611435239206
sg30
F0.00075832259042996888
sg31
F0.025839793281653745
sg32
F0.00022524044417415593
sg33
F0.059880239520958084
sg34
F0.0020296326364927951
sg35
F0.004768717215069147
sS"'"
F0.17543859649122806
sg36
F0.012391573729863692
sg37
F0.0067704807041299936
sg38
F0.14925373134328357
sg39
F0.1149425287356322
ssg34
(dp78
g2
F0.002269117313365101
sg4
F0.0014669209329617133
sg5
F0.084388185654008435
sg6
F0.0043682428743038113
sS','
F0.010970425561091558
sg7
F0.0016871941960519654
sg8
F0.17279574656623839
sg9
F0.00064941390395168363
sg10
F0.071599045346062054
sg11
F0.0022131238242779684
sg12
F0.0018240091721604087
sS'#'
F0.14925373134328357
sS'"'
F0.015525271692254613
sg13
F0.010341261633919338
sS'$'
F0.0050581689428426911
sg14
F0.01877632491499907
sg15
F0.00056220835441614663
sS')'
F0.035842293906810034
sS'('
F0.011402508551881414
sg16
F0.0015166451808599378
sg17
F0.0025207965717166624
sS'.'
F0.0011269510339775737
sg18
F0.00099039318609487953
sg19
F0.12748363385781555
sg20
F0.014337406977538061
sS':'
F0.0079459674215335719
sg21
F0.024894469098387273
sg22
F0.016370265644765236
sg23
F0.00076645972254158043
sg24
F0.0093720712277413302
sS'`'
F0.17543859649122806
sg25
F0.0079667168274763205
sg26
F0.085470085470085472
sg27
F0.053475935828877004
sg28
F0.042194092827004218
sg29
F0.011668611435239206
sg30
F0.0022749677712899066
sg31
F0.15503875968992248
sg32
F0.00022524044417415593
sg33
F0.059880239520958084
sg34
F0.0020296326364927951
sg35
F0.028612303290414878
sS"'"
F0.17543859649122806
sg36
F0.012391573729863692
sg37
F0.0067704807041299936
sg38
F0.14925373134328357
sg39
F0.1149425287356322
ssg35
(dp79
g2
F0.004538234626730202
sg4
F0.0029338418659234267
sg5
F0.042194092827004218
sg6
F0.0010920607185759528
sS','
F0.0027426063902728894
sg7
F0.0016871941960519654
sg8
F0.004430660168365087
sg9
F0.0012988278079033673
sg10
F0.007955449482895784
sg11
F0.0022131238242779684
sg12
F0.014070927899523153
sS'#'
F0.14925373134328357
sS'"'
F0.0034500603760565809
sg13
F0.010341261633919338
sS'$'
F0.0050581689428426911
sg14
F0.00016915608031530693
sg15
F0.0050598751897453194
sS')'
F0.011947431302270011
sS'('
F0.011402508551881414
sg16
F0.0015166451808599378
sg17
F0.017645576002016636
sS'.'
F0.00056347551698878687
sg18
F0.002971179558284639
sg19
F0.0011485012059262662
sg20
F0.0006827336655970506
sS':'
F0.0039729837107667859
sg21
F0.00036078940722300394
sg22
F0.025547535778951809
sg23
F0.00076645972254158043
sg24
F0.0093720712277413302
sS'`'
F0.17543859649122806
sg25
F0.0035407630344339203
sg26
F0.085470085470085472
sg27
F0.053475935828877004
sg28
F0.042194092827004218
sg29
F0.011668611435239206
sg30
F0.0030332903617198755
sg31
F0.025839793281653745
sg32
F0.0024776448859157151
sg33
F0.059880239520958084
sg34
F0.0020296326364927951
sg35
F0.019074868860276588
sS"'"
F0.17543859649122806
sg36
F0.024783147459727383
sg37
F0.0067704807041299936
sg38
F0.14925373134328357
sg39
F0.1149425287356322
ssS"'"
(dp80
g2
F0.002269117313365101
sg4
F0.0014669209329617133
sg5
F0.042194092827004218
sg6
F0.0010920607185759528
sS','
F0.0004571010650454816
sg7
F0.0016871941960519654
sg8
F0.004430660168365087
sg9
F0.00032470695197584182
sg10
F0.007955449482895784
sg11
F0.0011065619121389842
sg12
F0.00026057273888005836
sS'#'
F0.14925373134328357
sS'"'
F0.0017250301880282904
sg13
F0.010341261633919338
sS'$'
F0.0050581689428426911
sg14
F0.00016915608031530693
sg15
F0.00056220835441614663
sS')'
F0.011947431302270011
sS'('
F0.011402508551881414
sg16
F0.00075832259042996888
sg17
F0.0025207965717166624
sS'.'
F0.00056347551698878687
sg18
F0.00099039318609487953
sg19
F0.0011485012059262662
sg20
F0.0006827336655970506
sS':'
F0.0039729837107667859
sg21
F0.00036078940722300394
sg22
F0.00024803432795098842
sg23
F0.00076645972254158043
sg24
F0.0093720712277413302
sS'`'
F0.17543859649122806
sg25
F0.00088519075860848007
sg26
F0.085470085470085472
sg27
F0.053475935828877004
sg28
F0.042194092827004218
sg29
F0.011668611435239206
sg30
F0.00075832259042996888
sg31
F0.025839793281653745
sg32
F0.00022524044417415593
sg33
F0.059880239520958084
sg34
F0.0020296326364927951
sg35
F0.004768717215069147
sS"'"
F0.17543859649122806
sg36
F0.012391573729863692
sg37
F0.0067704807041299936
sg38
F0.14925373134328357
sg39
F0.1149425287356322
ssg36
(dp81
g2
F0.0068073519400953034
sg4
F0.0014669209329617133
sg5
F0.042194092827004218
sg6
F0.0010920607185759528
sS','
F0.0009142021300909632
sg7
F0.0050615825881558966
sg8
F0.004430660168365087
sg9
F0.00032470695197584182
sg10
F0.015910898965791568
sg11
F0.0011065619121389842
sg12
F0.0075566094275216931
sS'#'
F0.14925373134328357
sS'"'
F0.0017250301880282904
sg13
F0.020682523267838676
sS'$'
F0.0050581689428426911
sg14
F0.00016915608031530693
sg15
F0.004497666835329173
sS')'
F0.011947431302270011
sS'('
F0.011402508551881414
sg16
F0.0037916129521498444
sg17
F0.025207965717166627
sS'.'
F0.00056347551698878687
sg18
F0.00099039318609487953
sg19
F0.0022970024118525324
sg20
F0.0013654673311941012
sS':'
F0.0079459674215335719
sg21
F0.00036078940722300394
sg22
F0.00024803432795098842
sg23
F0.00076645972254158043
sg24
F0.0093720712277413302
sS'`'
F0.17543859649122806
sg25
F0.0035407630344339203
sg26
F0.085470085470085472
sg27
F0.053475935828877004
sg28
F0.042194092827004218
sg29
F0.011668611435239206
sg30
F0.00075832259042996888
sg31
F0.025839793281653745
sg32
F0.0033786066626123388
sg33
F0.059880239520958084
sg34
F0.0020296326364927951
sg35
F0.004768717215069147
sS"'"
F0.17543859649122806
sg36
F0.012391573729863692
sg37
F0.0067704807041299936
sg38
F0.14925373134328357
sg39
F0.1149425287356322
ssg37
(dp82
g2
F0.002269117313365101
sg4
F0.0073346046648085665
sg5
F0.042194092827004218
sg6
F0.0054603035928797641
sS','
F0.0009142021300909632
sg7
F0.010123165176311793
sg8
F0.004430660168365087
sg9
F0.00032470695197584182
sg10
F0.007955449482895784
sg11
F0.0055328095606949207
sg12
F0.0046903092998410506
sS'#'
F0.14925373134328357
sS'"'
F0.0017250301880282904
sg13
F0.010341261633919338
sS'$'
F0.0050581689428426911
sg14
F0.0015224047228377625
sg15
F0.0022488334176645865
sS')'
F0.011947431302270011
sS'('
F0.011402508551881414
sg16
F0.0053082581330097826
sg17
F0.0025207965717166624
sS'.'
F0.00056347551698878687
sg18
F0.0049519659304743981
sg19
F0.0057425060296313309
sg20
F0.01092373864955281
sS':'
F0.0039729837107667859
sg21
F0.0010823682216690119
sg22
F0.00024803432795098842
sg23
F0.012263355560665287
sg24
F0.0093720712277413302
sS'`'
F0.17543859649122806
sg25
F0.013277861379127202
sg26
F0.085470085470085472
sg27
F0.053475935828877004
sg28
F0.042194092827004218
sg29
F0.011668611435239206
sg30
F0.0075832259042996888
sg31
F0.025839793281653745
sg32
F0.0063067324368763656
sg33
F0.059880239520958084
sg34
F0.0020296326364927951
sg35
F0.004768717215069147
sS"'"
F0.17543859649122806
sg36
F0.012391573729863692
sg37
F0.0067704807041299936
sg38
F0.14925373134328357
sg39
F0.1149425287356322
ssg38
(dp83
g2
F0.002269117313365101
sg4
F0.0014669209329617133
sg5
F0.042194092827004218
sg6
F0.0010920607185759528
sS','
F0.0004571010650454816
sg7
F0.0016871941960519654
sg8
F0.004430660168365087
sg9
F0.00032470695197584182
sg10
F0.007955449482895784
sg11
F0.0011065619121389842
sg12
F0.00026057273888005836
sS'#'
F0.14925373134328357
sS'"'
F0.0017250301880282904
sg13
F0.010341261633919338
sS'$'
F0.0050581689428426911
sg14
F0.00016915608031530693
sg15
F0.00056220835441614663
sS')'
F0.011947431302270011
sS'('
F0.011402508551881414
sg16
F0.00075832259042996888
sg17
F0.0025207965717166624
sS'.'
F0.00056347551698878687
sg18
F0.00099039318609487953
sg19
F0.0011485012059262662
sg20
F0.0006827336655970506
sS':'
F0.0039729837107667859
sg21
F0.00036078940722300394
sg22
F0.00049606865590197684
sg23
F0.00076645972254158043
sg24
F0.0093720712277413302
sS'`'
F0.17543859649122806
sg25
F0.00088519075860848007
sg26
F0.085470085470085472
sg27
F0.053475935828877004
sg28
F0.042194092827004218
sg29
F0.011668611435239206
sg30
F0.00075832259042996888
sg31
F0.025839793281653745
sg32
F0.00022524044417415593
sg33
F0.059880239520958084
sg34
F0.0020296326364927951
sg35
F0.004768717215069147
sS"'"
F0.17543859649122806
sg36
F0.012391573729863692
sg37
F0.0067704807041299936
sg38
F0.14925373134328357
sg39
F0.1149425287356322
ssg39
(dp84
g2
F0.002269117313365101
sg4
F0.0014669209329617133
sg5
F0.042194092827004218
sg6
F0.0010920607185759528
sS','
F0.0018284042601819264
sg7
F0.0016871941960519654
sg8
F0.004430660168365087
sg9
F0.00032470695197584182
sg10
F0.007955449482895784
sg11
F0.0011065619121389842
sg12
F0.00026057273888005836
sS'#'
F0.14925373134328357
sS'"'
F0.0017250301880282904
sg13
F0.010341261633919338
sS'$'
F0.0050581689428426911
sg14
F0.00016915608031530693
sg15
F0.00056220835441614663
sS')'
F0.011947431302270011
sS'('
F0.011402508551881414
sg16
F0.00075832259042996888
sg17
F0.0025207965717166624
sS'.'
F0.00056347551698878687
sg18
F0.00099039318609487953
sg19
F0.0011485012059262662
sg20
F0.0006827336655970506
sS':'
F0.0039729837107667859
sg21
F0.00036078940722300394
sg22
F0.00024803432795098842
sg23
F0.00076645972254158043
sg24
F0.0093720712277413302
sS'`'
F0.17543859649122806
sg25
F0.00088519075860848007
sg26
F0.085470085470085472
sg27
F0.053475935828877004
sg28
F0.042194092827004218
sg29
F0.011668611435239206
sg30
F0.00075832259042996888
sg31
F0.025839793281653745
sg32
F0.00022524044417415593
sg33
F0.059880239520958084
sg34
F0.0020296326364927951
sg35
F0.004768717215069147
sS"'"
F0.17543859649122806
sg36
F0.012391573729863692
sg37
F0.0067704807041299936
sg38
F0.14925373134328357
sg39
F0.1149425287356322
ss.