(dp1
S'1,800'
p2
I2
sS'four'
p3
I13
sS'looking'
p4
I2
sS'eligible'
p5
I3
sS'electricity'
p6
I3
sS'herbicide'
p7
I5
sS'hormone'
p8
I2
sS'propane'
p9
I3
sS'regional'
p10
I2
sS'sideline-business'
p11
I2
sS'leisurely'
p12
I2
sS'stertz'
p13
I2
sS'bringing'
p14
I2
sS'disturb'
p15
I3
sS'specialties'
p16
I3
sS'reliable'
p17
I2
sS'non-violent'
p18
I14
sS'charter'
p19
I3
sS'specially'
p20
I2
sS'miller'
p21
I3
sS'270'
p22
I2
sS'elegant'
p23
I3
sS'second'
p24
I25
sS'high-performing'
p25
I2
sS'single-b'
p26
I2
sS'sterile'
p27
I3
sS'errors'
p28
I2
sS'cooking'
p29
I2
sS'contributed'
p30
I6
sS'fingers'
p31
I5
sS'increasing'
p32
I3
sS'shocks'
p33
I4
sS'specialist'
p34
I2
sS'off-again'
p35
I2
sS'here'
p36
I12
sS'reported'
p37
I16
sS'china'
p38
I15
sS'pittsburgh-based'
p39
I2
sS'eg&g'
p40
I6
sS'buddy'
p41
I2
sS'substance'
p42
I2
sS'elaborate'
p43
I2
sS'climbed'
p44
I2
sS'reports'
p45
I10
sS'karim'
p46
I2
sS'neurologist'
p47
I4
sS'military'
p48
I9
sS'criticism'
p49
I2
sS'golden'
p50
I10
sS'replace'
p51
I3
sS'brought'
p52
I10
sS'unix'
p53
I4
sS'stern'
p54
I2
sS'2008-2009'
p55
I2
sS'unit'
p56
I16
sS'opponents'
p57
I2
sS'marketers'
p58
I4
sS'music'
p59
I7
sS'bedrock'
p60
I2
sS'strike'
p61
I3
sS'heralded'
p62
I2
sS'2680'
p63
I2
sS'until'
p64
I15
sS'populations'
p65
I2
sS'successful'
p66
I5
sS'brings'
p67
I2
sS'hurt'
p68
I3
sS'99'
p69
I2
sS'98'
p70
I2
sS'5.16'
p71
I2
sS'hurl'
p72
I2
sS'90'
p73
I9
sS'hole'
p74
I3
sS'hold'
p75
I9
sS'94'
p76
I2
sS'circumstances'
p77
I4
sS'morally'
p78
I2
sS'pursue'
p79
I4
sS'self-styled'
p80
I2
sS'plunged'
p81
I4
sS'rulings'
p82
I2
sS'13*slashhere*16'
p83
I2
sS'concepts'
p84
I2
sS'revenues'
p85
I2
sS'example'
p86
I13
sS'vanities'
p87
I2
sS'unjust'
p88
I2
sS'household'
p89
I2
sS'turkmenia'
p90
I2
sS'organized'
p91
I2
sS'currency'
p92
I3
sS'caution'
p93
I2
sS'want'
p94
I14
sS'automobile-parts'
p95
I2
sS'complaining'
p96
I2
sS'travel'
p97
I2
sS'damage'
p98
I7
sS'leaguers'
p99
I2
sS'machine'
p100
I15
sS'how'
p101
I31
sS'hot'
p102
I2
sS'casualty-loss'
p103
I2
sS'719,000'
p104
I2
sS'wrong'
p105
I3
sS'gottesman'
p106
I2
sS'types'
p107
I2
sS'effective'
p108
I8
sS'wins'
p109
I3
sS'youths'
p110
I2
sS'deutsche'
p111
I2
sS'presiding'
p112
I2
sS'first-mortgage'
p113
I2
sS'18th'
p114
I2
sS'democratic'
p115
I4
sS'wing'
p116
I2
sS'wind'
p117
I2
sS'senators'
p118
I2
sS'welcomed'
p119
I2
sS'misdemeanor'
p120
I2
sS'vary'
p121
I3
sS'fidelity'
p122
I2
sS'ex-dividend'
p123
I2
sS'fit'
p124
I3
sS'72-game'
p125
I2
sS'fix'
p126
I2
sS'wales'
p127
I2
sS'hidden'
p128
I2
sS'easier'
p129
I4
sS'lambert'
p130
I2
sS'slate'
p131
I3
sS'educating'
p132
I3
sS'effects'
p133
I2
sS'yourself'
p134
I2
sS'slats'
p135
I3
sS'silver'
p136
I2
sS'represents'
p137
I3
sS'debut'
p138
I2
sS'pleasantries'
p139
I2
sS'financial'
p140
I19
sS'garment'
p141
I2
sS'solution'
p142
I3
sS'raw-materials'
p143
I2
sS'substantially'
p144
I2
sS'laboratory'
p145
I3
sS'bnl'
p146
I7
sS'waive'
p147
I2
sS'mason'
p148
I4
sS'assured'
p149
I2
sS'threatened'
p150
I2
sS'7.962'
p151
I2
sS'sensory'
p152
I3
sS'estimate'
p153
I2
sS'enormous'
p154
I2
sS'bates'
p155
I2
sS'nondeductible'
p156
I2
sS'scruff'
p157
I2
sS'lorimar'
p158
I2
sS'r.'
p159
I6
sS'greenhouse-produced'
p160
I2
sS'108.8'
p161
I2
sS'speeds'
p162
I2
sS'mingo'
p163
I6
sS'wash'
p164
I2
sS'179'
p165
I2
sS'seizures'
p166
I2
sS'exchequer'
p167
I2
sS'service'
p168
I12
sS'similarly'
p169
I2
sS'lawsuits'
p170
I5
sS'needed'
p171
I2
sS'master'
p172
I7
sS'listed'
p173
I5
sS'nz$'
p174
I2
sS'legs'
p175
I2
sS'bitter'
p176
I2
sS'ranging'
p177
I2
sS'rewards'
p178
I2
sS'collapse'
p179
I2
sS'geneva'
p180
I2
sS'satisfaction'
p181
I2
sS'predictable'
p182
I2
sS'showed'
p183
I7
sS'tree'
p184
I2
sS'nations'
p185
I5
sS'project'
p186
I4
sS'273'
p187
I2
sS'feeling'
p188
I2
sS'acquisition'
p189
I8
sS'goya'
p190
I6
sS'willingness'
p191
I3
sS'boston'
p192
I7
sS'antagonistic'
p193
I2
sS'on-again'
p194
I2
sS'dozen'
p195
I2
sS'affairs'
p196
I4
sS'person'
p197
I5
sS'responsible'
p198
I5
sS'floating-rate'
p199
I3
sS'283-132'
p200
I2
sS'elanco'
p201
I3
sS'concedes'
p202
I3
sS'sidley'
p203
I6
sS'shall'
p204
I2
sS'object'
p205
I2
sS'wells'
p206
I3
sS'simplify'
p207
I2
sS'affirmation'
p208
I2
sS'blackmailed'
p209
I2
sS'letter'
p210
I8
sS'drought'
p211
I2
sS'thriller'
p212
I2
sS'dummy'
p213
I2
sS'singer'
p214
I3
sS'stupid'
p215
I2
sS'professor'
p216
I2
sS'camp'
p217
I3
sS'scream'
p218
I2
sS'came'
p219
I14
sS'saying'
p220
I7
sS'reactor'
p221
I4
sS'insects'
p222
I3
sS'meetings'
p223
I6
sS'echoing'
p224
I2
sS'gauge'
p225
I2
sS'participate'
p226
I4
sS'hungary'
p227
I3
sS'hounded'
p228
I2
sS'die-hard'
p229
I2
sS'menu'
p230
I2
sS'than'
p231
I89
sS'bush'
p232
I35
sS'rich'
p233
I2
sS'rice'
p234
I5
sS'capel'
p235
I2
sS'lady'
p236
I2
sS'plate'
p237
I3
sS'klein'
p238
I2
sS'higher-fat'
p239
I2
sS'pocket'
p240
I2
sS'kinji'
p241
I2
sS'altogether'
p242
I3
sS'tips'
p243
I2
sS'looting'
p244
I2
sS'jaguar'
p245
I34
sS'patch'
p246
I2
sS'greene'
p247
I2
sS'three-year'
p248
I4
sS'release'
p249
I2
sS'saul'
p250
I2
sS'respond'
p251
I2
sS'programmatic'
p252
I2
sS'mandatory'
p253
I5
sS'disaster'
p254
I2
sS'unexpectedly'
p255
I2
sS'result'
p256
I17
sS'fail'
p257
I3
sS'resigned'
p258
I7
sS'best'
p259
I9
sS'shupe'
p260
I2
sS'lots'
p261
I4
sS'irs'
p262
I16
sS'ira'
p263
I2
sS'pirate'
p264
I2
sS'entrekin'
p265
I2
sS'preserve'
p266
I2
sS'wage'
p267
I16
sS'40.9'
p268
I2
sS'extend'
p269
I5
sS'nature'
p270
I4
sS'superficial'
p271
I2
sS'agnelli-related'
p272
I2
sS'debt'
p273
I12
sS'pity'
p274
I2
sS'accident'
p275
I2
sS'country'
p276
I15
sS'heating'
p277
I2
sS'demanded'
p278
I2
sS'sublime'
p279
I2
sS'argue'
p280
I6
sS'asked'
p281
I12
sS'irresponsible'
p282
I4
sS'102'
p283
I2
sS'250'
p284
I3
sS'251'
p285
I3
sS'five-by-eight-inch'
p286
I2
sS'contestants'
p287
I2
sS'billing'
p288
I2
sS'holdings'
p289
I2
sS'3.89'
p290
I2
sS'.'
I1748
sS'much'
p291
I36
sS'stadium'
p292
I3
sS'privilege'
p293
I6
sS'renk'
p294
I3
sS'life'
p295
I6
sS'sydney'
p296
I2
sS'eastern'
p297
I27
sS'hospitalized'
p298
I2
sS'worker'
p299
I2
sS'irving'
p300
I2
sS'dave'
p301
I2
sS'lift'
p302
I4
sS'worked'
p303
I4
sS'excorciate'
p304
I2
sS'1466.29'
p305
I2
sS'commerce'
p306
I6
sS'castro'
p307
I3
sS'bognato'
p308
I3
sS'played'
p309
I5
sS'player'
p310
I4
sS'electromagnets'
p311
I2
sS'upscale'
p312
I2
sS'trustee'
p313
I2
sS'hong'
p314
I8
sS'things'
p315
I10
sS'feuding'
p316
I3
sS'achenbaum'
p317
I20
sS'babies'
p318
I2
sS'european'
p319
I9
sS'fairly'
p320
I4
sS'effortlessly'
p321
I2
sS'pontiac'
p322
I2
sS'middle-aged'
p323
I2
sS'marched'
p324
I2
sS'ownership'
p325
I3
sS'pioneers'
p326
I2
sS'tune'
p327
I3
sS'midsized'
p328
I2
sS'matters'
p329
I6
sS'academic'
p330
I3
sS'academia'
p331
I2
sS'corporate'
p332
I10
sS'spurred'
p333
I2
sS'financially'
p334
I2
sS'uncombed'
p335
I2
sS'plight'
p336
I2
sS'succeeding'
p337
I7
sS'previous'
p338
I7
sS'ease'
p339
I5
sS'had'
p340
I77
sS'nuances'
p341
I2
sS'innocent'
p342
I2
sS'prison'
p343
I2
sS'manfred'
p344
I2
sS'east'
p345
I5
sS'municipal'
p346
I2
sS'posed'
p347
I2
sS'possible'
p348
I13
sS'possibly'
p349
I3
sS'imposed'
p350
I2
sS'unique'
p351
I2
sS'desire'
p352
I3
sS'alice'
p353
I2
sS'misdemeanors'
p354
I2
sS'attorney'
p355
I13
sS'right'
p356
I13
sS'old'
p357
I16
sS'crowd'
p358
I3
sS'people'
p359
I25
sS'topping'
p360
I2
sS'consultants'
p361
I3
sS'insistence'
p362
I2
sS'fiduciary'
p363
I2
sS'enemies'
p364
I2
sS'for'
p365
I390
sS'bottom'
p366
I2
sS'myung'
p367
I2
sS'creative'
p368
I4
sS'contributing'
p369
I3
sS'continue'
p370
I9
sS'summoned'
p371
I2
sS'eduard'
p372
I3
sS'6,000'
p373
I2
sS'binder'
p374
I2
sS'defensive'
p375
I2
sS'losing'
p376
I2
sS'brokerage'
p377
I3
sS'manufacturing'
p378
I4
sS'shaken'
p379
I2
sS'filipino'
p380
I2
sS'dollars'
p381
I6
sS'citizens'
p382
I2
sS'bicentennial'
p383
I2
sS'annualized'
p384
I2
sS'reps.'
p385
I2
sS'slightly'
p386
I3
sS'lifland'
p387
I2
sS'nixon'
p388
I3
sS'barred'
p389
I2
sS'consulting'
p390
I9
sS'statements'
p391
I3
sS'facility'
p392
I2
sS'maxwell'
p393
I2
sS'son'
p394
I3
sS'administer'
p395
I3
sS'presenters'
p396
I2
sS'rome-based'
p397
I2
sS'magazines'
p398
I4
sS'sow'
p399
I2
sS'consumer-products'
p400
I2
sS'sox'
p401
I4
sS'defendants'
p402
I3
sS'cleared'
p403
I3
sS'fabric'
p404
I3
sS'altitude'
p405
I2
sS'solicitors'
p406
I2
sS'one-time'
p407
I3
sS'joseph'
p408
I2
sS'british-owned'
p409
I2
sS'authorized'
p410
I3
sS'resulted'
p411
I4
sS'halls'
p412
I2
sS'launching'
p413
I2
sS'therefore'
p414
I2
sS'offer'
p415
I13
sS'nonvoting'
p416
I2
sS'grass-roots'
p417
I2
sS'talents'
p418
I2
sS'unamended'
p419
I2
sS'robertson'
p420
I2
sS'2,750'
p421
I2
sS'nov.'
p422
I18
sS'inside'
p423
I2
sS'devices'
p424
I12
sS'stolzman'
p425
I2
sS'jan.'
p426
I3
sS'refillable'
p427
I3
sS'151'
p428
I2
sS'150'
p429
I9
sS'proud'
p430
I2
sS'proved'
p431
I2
sS'157'
p432
I2
sS'156'
p433
I3
sS'steady'
p434
I4
sS"''"
p435
I241
sS'proves'
p436
I2
sS'accounting'
p437
I4
sS'dealer'
p438
I3
sS'negotiations'
p439
I4
sS'lees'
p440
I2
sS'eventual'
p441
I2
sS'floor'
p442
I4
sS'relax'
p443
I2
sS'cambodia'
p444
I3
sS'flood'
p445
I2
sS'role'
p446
I7
sS'overturning'
p447
I2
sS'developers'
p448
I3
sS'roll'
p449
I3
sS'greenery'
p450
I3
sS"'s"
p451
I411
sS'palms'
p452
I2
sS'get-together'
p453
I3
sS'models'
p454
I2
sS'pitcher-coach'
p455
I2
sS"'d"
p456
I5
sS'intent'
p457
I2
sS'rolling'
p458
I2
sS"'m"
p459
I6
sS'shootout'
p460
I2
sS'reorganization'
p461
I4
sS'kgb'
p462
I4
sS'time'
p463
I46
sS'push'
p464
I3
sS'overturned'
p465
I2
sS'cincinnati'
p466
I3
sS'chain'
p467
I4
sS'chair'
p468
I2
sS'93'
p469
I2
sS'92'
p470
I3
sS'oversight'
p471
I2
sS'bogus'
p472
I2
sS'prepaid'
p473
I3
sS'choice'
p474
I3
sS'drexel'
p475
I2
sS'remora'
p476
I2
sS'stays'
p477
I2
sS'corp.'
p478
I39
sS'short-range'
p479
I2
sS'unificationism'
p480
I2
sS'leave'
p481
I6
sS'settle'
p482
I2
sS'team'
p483
I14
sS'depository'
p484
I2
sS'speculation'
p485
I2
sS'bonfire'
p486
I2
sS'prevent'
p487
I4
sS'findings'
p488
I2
sS'soft-spoken'
p489
I2
sS'sign'
p490
I5
sS'sino-british'
p491
I2
sS'hewlett-packard'
p492
I2
sS'current'
p493
I13
sS'falling'
p494
I2
sS'boost'
p495
I7
sS'drafted'
p496
I2
sS'jury'
p497
I10
sS'exceptions'
p498
I3
sS'address'
p499
I2
sS'alone'
p500
I3
sS'along'
p501
I8
sS'passengers'
p502
I3
sS'financiers'
p503
I2
sS'brilliant'
p504
I2
sS'studied'
p505
I2
sS'brazilian'
p506
I3
sS'accomplished'
p507
I2
sS'studies'
p508
I6
sS'reclaim'
p509
I2
sS'love'
p510
I2
sS'prefer'
p511
I3
sS'bloody'
p512
I2
sS'fake'
p513
I3
sS'sky'
p514
I2
sS'working'
p515
I11
sS'wicker'
p516
I2
sS'angry'
p517
I2
sS'tightly'
p518
I2
sS'opposed'
p519
I3
sS'scope'
p520
I3
sS'``'
p521
I322
sS'subsistence'
p522
I2
sS'apparent'
p523
I2
sS'oregon'
p524
I2
sS'honed'
p525
I2
sS'non-family'
p526
I2
sS'sierra'
p527
I2
sS'visual'
p528
I2
sS'virtue'
p529
I3
sS'behalf'
p530
I4
sS'honey'
p531
I2
sS'valued'
p532
I4
sS'md-80'
p533
I2
sS'originally'
p534
I5
sS'pretend'
p535
I2
sS'believes'
p536
I5
sS'impasse'
p537
I2
sS'zhao'
p538
I2
sS'printing'
p539
I3
sS'values'
p540
I3
sS'stature'
p541
I2
sS'believed'
p542
I3
sS'1*slashhere*4'
p543
I4
sS'1*slashhere*2'
p544
I8
sS'awesome'
p545
I2
sS'french-speaking'
p546
I2
sS'mrs.'
p547
I14
sS'allowed'
p548
I6
sS'230'
p549
I2
sS'gimmickry'
p550
I2
sS'savor'
p551
I2
sS's.'
p552
I3
sS'coleman'
p553
I2
sS'five-year'
p554
I3
sS'rigors'
p555
I2
sS'spot'
p556
I2
sS'kalison'
p557
I2
sS'applications'
p558
I2
sS'date'
p559
I4
sS'such'
p560
I61
sS'acceptances'
p561
I2
sS'data'
p562
I10
sS'natural'
p563
I4
sS'sectors'
p564
I3
sS'biographical'
p565
I2
sS'sclerosis'
p566
I2
sS'so'
p567
I46
sS'skirmish'
p568
I2
sS'pulled'
p569
I3
sS'12.75'
p570
I2
sS'seven-bedroom'
p571
I2
sS'flips'
p572
I2
sS'years'
p573
I66
sS'hiring'
p574
I3
sS'bucking'
p575
I2
sS'tendency'
p576
I2
sS'middle-management'
p577
I2
sS'limbs'
p578
I2
sS'overhaul'
p579
I2
sS'thumb'
p580
I3
sS'jim'
p581
I2
sS'troubles'
p582
I3
sS'aviv'
p583
I2
sS'suspicion'
p584
I2
sS'suspension'
p585
I2
sS'troubled'
p586
I4
sS'decades'
p587
I2
sS'petition'
p588
I2
sS'militant'
p589
I2
sS'thereby'
p590
I4
sS'm.w.'
p591
I2
sS'nation'
p592
I9
sS'records'
p593
I10
sS'concocts'
p594
I2
sS'compelled'
p595
I3
sS'non-brain'
p596
I2
sS'subordinated'
p597
I4
sS'establishing'
p598
I2
sS'quarter'
p599
I12
sS'repaired'
p600
I2
sS'quartet'
p601
I3
sS'square'
p602
I3
sS'retrieve'
p603
I2
sS'178.5'
p604
I2
sS'178.9'
p605
I2
sS'revised'
p606
I2
sS'bovine'
p607
I2
sS'beauty'
p608
I2
sS'seriously'
p609
I3
sS'investigation'
p610
I2
sS'suggesting'
p611
I3
sS'formula'
p612
I3
sS'uptempo'
p613
I2
sS'sheffield'
p614
I2
sS'million'
p615
I130
sS'possibility'
p616
I4
sS'loyalty'
p617
I2
sS'ontario'
p618
I3
sS'complicated'
p619
I2
sS'plea'
p620
I2
sS'cahoon'
p621
I2
sS'training'
p622
I16
sS'distilled'
p623
I2
sS'modest'
p624
I3
sS'chevy'
p625
I3
sS'undesirable'
p626
I3
sS'neglect'
p627
I2
sS'spoken'
p628
I2
sS'clause'
p629
I3
sS'one'
p630
I90
sS'submit'
p631
I3
sS'spanish'
p632
I2
sS'vote'
p633
I6
sS'potted'
p634
I2
sS'open'
p635
I10
sS'kuan'
p636
I2
sS'city'
p637
I6
sS'wrath'
p638
I2
sS'bite'
p639
I2
sS'structured'
p640
I3
sS'36-year-old'
p641
I2
sS'indicate'
p642
I2
sS'2'
I10
sS'draft'
p643
I2
sS'cite'
p644
I2
sS'suit'
p645
I6
sS'12,275'
p646
I2
sS'forward'
p647
I2
sS'ridiculous'
p648
I2
sS'slashed'
p649
I2
sS'specialists'
p650
I2
sS'surged'
p651
I2
sS'inventor'
p652
I2
sS'quake-relief'
p653
I2
sS'conn.'
p654
I4
sS'depressed'
p655
I3
sS'favors'
p656
I2
sS'future'
p657
I11
sS'anti-western'
p658
I2
sS'cavalier'
p659
I2
sS'dutifully'
p660
I2
sS'sao'
p661
I2
sS'san'
p662
I4
sS'sam'
p663
I2
sS'royalties'
p664
I2
sS'drogoul'
p665
I2
sS'turned'
p666
I4
sS'argument'
p667
I3
sS'notebook'
p668
I2
sS'sad'
p669
I2
sS'picketing'
p670
I2
sS'say'
p671
I30
sS'financier'
p672
I2
sS'borough'
p673
I2
sS'sat'
p674
I3
sS'serials'
p675
I2
sS'fashionable'
p676
I3
sS'aside'
p677
I7
sS'zoo'
p678
I2
sS'note'
p679
I6
sS'goodman'
p680
I2
sS'283.9'
p681
I2
sS'take'
p682
I19
sS'destroy'
p683
I2
sS'concern'
p684
I18
sS'high-technology'
p685
I2
sS'ironically'
p686
I2
sS'altered'
p687
I2
sS'opposite'
p688
I2
sS'staffed'
p689
I2
sS'backlogs'
p690
I2
sS'airing'
p691
I3
sS'printed'
p692
I2
sS'remarks'
p693
I3
sS'knee'
p694
I2
sS'inserted'
p695
I3
sS'pages'
p696
I3
sS'lawn'
p697
I2
sS'average'
p698
I25
sS'phil'
p699
I2
sS'trifari'
p700
I4
sS'sale'
p701
I16
sS'sodas'
p702
I2
sS'managing'
p703
I6
sS'9.192'
p704
I2
sS'mass.'
p705
I5
sS'liquidity'
p706
I3
sS'laws'
p707
I4
sS'walking'
p708
I2
sS'surplus'
p709
I2
sS'sales-tax'
p710
I2
sS'bright'
p711
I2
sS'aggressive'
p712
I6
sS'slow'
p713
I4
sS'cloak'
p714
I2
sS'tears'
p715
I2
sS'going'
p716
I18
sS'outrage'
p717
I2
sS'robe'
p718
I2
sS'azoff'
p719
I5
sS'congressional'
p720
I12
sS'carolina'
p721
I3
sS'assistant'
p722
I5
sS'outlet'
p723
I2
sS'prime'
p724
I6
sS'borrow'
p725
I2
sS'worried'
p726
I4
sS'roger'
p727
I3
sS'where'
p728
I17
sS'surgery'
p729
I7
sS'individual-retirement-account'
p730
I2
sS'untapped'
p731
I2
sS'representatives'
p732
I2
sS'affecting'
p733
I2
sS'enjoys'
p734
I2
sS'jobs'
p735
I7
sS'screen'
p736
I2
sS'concentrate'
p737
I3
sS'jets'
p738
I2
sS'spark'
p739
I2
sS'abramson'
p740
I2
sS'undermine'
p741
I2
sS'many'
p742
I31
sS'paring'
p743
I2
sS'concentrates'
p744
I2
sS'now-defunct'
p745
I2
sS'guts'
p746
I2
sS'sprays'
p747
I3
sS'testimonial'
p748
I2
sS'stretch'
p749
I2
sS'west'
p750
I18
sS'locally'
p751
I2
sS'airlines'
p752
I8
sS'combined'
p753
I3
sS'motives'
p754
I3
sS'prototype'
p755
I2
sS'wants'
p756
I6
sS'enable'
p757
I3
sS'accusatory'
p758
I2
sS'formed'
p759
I3
sS'centerpiece'
p760
I2
sS'photos'
p761
I2
sS'former'
p762
I23
sS'consultant'
p763
I7
sS'consulted'
p764
I2
sS'rancor'
p765
I2
sS'policies'
p766
I4
sS'pennzoil'
p767
I3
sS'newspaper'
p768
I5
sS'situation'
p769
I5
sS'spotlight'
p770
I2
sS'brow'
p771
I2
sS'non-japanese'
p772
I2
sS'engaged'
p773
I2
sS'bros'
p774
I2
sS'engages'
p775
I2
sS'13.2'
p776
I2
sS'13.3'
p777
I2
sS'13.1'
p778
I2
sS'research-based'
p779
I2
sS'550,000'
p780
I2
sS'otto'
p781
I2
sS'workout'
p782
I2
sS'cramming'
p783
I2
sS'breakdown'
p784
I2
sS'oceanographic'
p785
I2
sS'singapore'
p786
I16
sS'boosted'
p787
I3
sS'reverts'
p788
I2
sS'wpp'
p789
I3
sS'domineering'
p790
I2
sS'barber'
p791
I2
sS'recapture'
p792
I2
sS'tracking'
p793
I2
sS'bailiff'
p794
I2
sS'peculiarities'
p795
I2
sS'costs'
p796
I11
sS'779.8'
p797
I2
sS'sunnyvale'
p798
I2
sS'trains'
p799
I3
sS'minpeco'
p800
I3
sS'216'
p801
I2
sS'summer'
p802
I7
sS'koreagate'
p803
I2
sS'being'
p804
I27
sS'rest'
p805
I8
sS'safeguards'
p806
I2
sS'recycled'
p807
I4
sS'weekly'
p808
I2
sS'instrument'
p809
I2
sS'brezinski'
p810
I2
sS'dicks'
p811
I2
sS'tadzhikistan'
p812
I2
sS'aspects'
p813
I4
sS'around'
p814
I8
sS'rejoin'
p815
I3
sS'unveil'
p816
I2
sS'gestures'
p817
I2
sS'spokespersons'
p818
I2
sS'traffic'
p819
I4
sS'preference'
p820
I3
sS'world'
p821
I26
sS'postal'
p822
I3
sS'dare'
p823
I2
sS'okobank'
p824
I2
sS'intel'
p825
I2
sS'amputation'
p826
I2
sS'clad'
p827
I2
sS'discarded'
p828
I2
sS'tsunami'
p829
I2
sS'superiority'
p830
I3
sS'offenders'
p831
I2
sS'seating'
p832
I2
sS'superintendent'
p833
I2
sS'100-share'
p834
I2
sS'368.3'
p835
I2
sS'13.50'
p836
I2
sS'memories'
p837
I2
sS'lucid'
p838
I2
sS'unsuccessfully'
p839
I2
sS'scientific'
p840
I4
sS'power'
p841
I17
sS'retains'
p842
I3
sS'windfalls'
p843
I2
sS'leadership'
p844
I4
sS'inflation-adjusted'
p845
I2
sS'ducking'
p846
I2
sS'stone'
p847
I2
sS'industry'
p848
I16
sS'favorite'
p849
I4
sS'meal'
p850
I2
sS'tumor'
p851
I2
sS'act'
p852
I5
sS'johnston'
p853
I2
sS'bond'
p854
I9
sS'image'
p855
I4
sS'parties'
p856
I2
sS'legacy'
p857
I2
sS'her'
p858
I21
sS'philadelphia'
p859
I3
sS'sealed'
p860
I3
sS'series'
p861
I13
sS'capital-raising'
p862
I2
sS'innovated'
p863
I2
sS'survives'
p864
I2
sS'complete'
p865
I6
sS'saatchi'
p866
I3
sS'tailored'
p867
I2
sS'survived'
p868
I2
sS'elimination'
p869
I3
sS'technologies'
p870
I5
sS'aide'
p871
I2
sS'with'
p872
I227
sS'buying'
p873
I7
sS'abused'
p874
I2
sS'pull'
p875
I3
sS'miss.'
p876
I2
sS'rage'
p877
I2
sS'31.1'
p878
I2
sS'8.019'
p879
I2
sS'dependents'
p880
I2
sS'politically'
p881
I3
sS'agree'
p882
I8
sS'kirgizia'
p883
I3
sS'detailed'
p884
I3
sS'gone'
p885
I3
sS'ad'
p886
I12
sS'ag'
p887
I2
sS'pinpointed'
p888
I2
sS'certain'
p889
I14
sS'am'
p890
I9
sS'al'
p891
I3
sS'mundo'
p892
I2
sS'an'
p893
I156
sS'as'
p894
I215
sS'ensuing'
p895
I2
sS'at'
p896
I209
sS'aids'
p897
I2
sS'watched'
p898
I4
sS'appalling'
p899
I2
sS'cream'
p900
I2
sS'yogi'
p901
I2
sS'abolish'
p902
I2
sS'tight'
p903
I2
sS'summit'
p904
I7
sS'deterrant'
p905
I2
sS'congress'
p906
I11
sS'forgettable'
p907
I2
sS'a.'
p908
I13
sS'planners'
p909
I2
sS'tricky'
p910
I2
sS'eight-time'
p911
I2
sS'waived'
p912
I2
sS'tricks'
p913
I3
sS'mass'
p914
I3
sS'nelson'
p915
I2
sS'dyes'
p916
I2
sS'wastewater'
p917
I4
sS'7.14'
p918
I2
sS'neige'
p919
I2
sS'consider'
p920
I6
sS'caused'
p921
I7
sS'daignault'
p922
I2
sS'ceramic'
p923
I2
sS'tours'
p924
I3
sS'improperly'
p925
I2
sS'tv'
p926
I7
sS'riots'
p927
I2
sS'to'
p928
I1005
sS'case'
p929
I26
sS'khmer'
p930
I4
sS'calif.'
p931
I9
sS'returned'
p932
I2
sS'candid'
p933
I2
sS'existing'
p934
I2
sS'condition'
p935
I2
sS'`'
I7
sS'long-simmering'
p936
I2
sS'cable'
p937
I3
sS'venezuela'
p938
I3
sS'laying'
p939
I2
sS'large'
p940
I14
sS'sang'
p941
I2
sS'sand'
p942
I3
sS'harry'
p943
I2
sS'small'
p944
I17
sS'pozen'
p945
I2
sS'j.p.'
p946
I3
sS'penalties'
p947
I4
sS'paso'
p948
I2
sS'past'
p949
I20
sS'displays'
p950
I2
sS'pass'
p951
I3
sS'investment'
p952
I21
sS'richard'
p953
I11
sS'section'
p954
I6
sS'neave'
p955
I4
sS'scientists'
p956
I6
sS'super-user'
p957
I2
sS'contrast'
p958
I2
sS'full'
p959
I10
sS'leaping'
p960
I2
sS'timberlands'
p961
I2
sS'hours'
p962
I4
sS'smartest'
p963
I2
sS'november'
p964
I5
sS'compliance'
p965
I3
sS'experience'
p966
I5
sS'prior'
p967
I3
sS'social'
p968
I4
sS'action'
p969
I8
sS'via'
p970
I8
sS'followed'
p971
I6
sS'enactment'
p972
I2
sS'mohandas'
p973
I2
sS'pulls'
p974
I2
sS'coercion'
p975
I2
sS'montgoris'
p976
I2
sS'objectives'
p977
I2
sS'pitching'
p978
I2
sS'6'
I7
sS'more'
p979
I106
sS'befitting'
p980
I2
sS'initiated'
p981
I2
sS'company'
p982
I82
sS'big-name'
p983
I2
sS'tested'
p984
I3
sS'objections'
p985
I2
sS'cult'
p986
I3
sS'keeping'
p987
I5
sS'science'
p988
I2
sS'indicating'
p989
I4
sS'morgan'
p990
I8
sS'male'
p991
I10
sS'mehl'
p992
I3
sS'prompt'
p993
I2
sS'stated'
p994
I2
sS'suggestions'
p995
I2
sS'accept'
p996
I3
sS'states'
p997
I10
sS'fiercely'
p998
I2
sS'sense'
p999
I3
sS'tapestry'
p1000
I2
sS'information'
p1001
I9
sS'imminent'
p1002
I2
sS'hugo'
p1003
I3
sS'earnings'
p1004
I14
sS'hugs'
p1005
I2
sS'plant'
p1006
I25
sS'534,000'
p1007
I2
sS'seoul'
p1008
I4
sS'1970s'
p1009
I4
sS'mapping'
p1010
I2
sS'plane'
p1011
I4
sS'director'
p1012
I21
sS'ethics'
p1013
I2
sS'acquisitions'
p1014
I6
sS'refuse'
p1015
I2
sS'register'
p1016
I2
sS'broadcasting'
p1017
I4
sS'fundamental'
p1018
I3
sS'functionaries'
p1019
I2
sS'greats'
p1020
I3
sS'adorned'
p1021
I2
sS'fraser'
p1022
I4
sS'trade'
p1023
I12
sS'redefinition'
p1024
I2
sS'attitude'
p1025
I3
sS'embassy'
p1026
I2
sS'scott'
p1027
I4
sS'signs'
p1028
I3
sS'itt'
p1029
I2
sS'its'
p1030
I125
sS'rapidly'
p1031
I3
sS'sumitomo'
p1032
I2
sS'gerald'
p1033
I2
sS'novametrix'
p1034
I2
sS'inquiry'
p1035
I4
sS'ally'
p1036
I3
sS'tentatively'
p1037
I2
sS'subtitled'
p1038
I2
sS'anti-hooligan'
p1039
I2
sS'stewed'
p1040
I2
sS'purdue'
p1041
I2
sS'always'
p1042
I4
sS'assemblies'
p1043
I2
sS'loosely'
p1044
I2
sS'courses'
p1045
I2
sS'found'
p1046
I5
sS'chipping'
p1047
I2
sS'investigators'
p1048
I3
sS'status'
p1049
I4
sS'england'
p1050
I3
sS'8.337'
p1051
I2
sS'reduce'
p1052
I4
sS'police'
p1053
I5
sS'measurement'
p1054
I2
sS'advertisers'
p1055
I3
sS'operation'
p1056
I9
sS'really'
p1057
I9
sS'anxious'
p1058
I2
sS'scoops'
p1059
I2
sS'research'
p1060
I10
sS'ministerial'
p1061
I2
sS'discounting'
p1062
I2
sS'non-callable'
p1063
I2
sS'stock-margin'
p1064
I2
sS'risen'
p1065
I3
sS'drifting'
p1066
I2
sS'sparked'
p1067
I2
sS'cockpit'
p1068
I2
sS'qualify'
p1069
I2
sS'proxy'
p1070
I2
sS'rises'
p1071
I2
sS'producers'
p1072
I9
sS'positioning'
p1073
I2
sS'major'
p1074
I26
sS'kirkendall'
p1075
I2
sS'thereafter'
p1076
I2
sS'number'
p1077
I16
sS'heads'
p1078
I3
sS'frankel'
p1079
I2
sS'threatening'
p1080
I2
sS'calculations'
p1081
I2
sS'dfc'
p1082
I2
sS'relationship'
p1083
I10
sS'seagram'
p1084
I8
sS'interviewed'
p1085
I2
sS'appreciation'
p1086
I3
sS'satirical'
p1087
I2
sS'demonstrations'
p1088
I7
sS'focusing'
p1089
I2
sS'grace'
p1090
I2
sS'observatory'
p1091
I2
sS'aaa'
p1092
I2
sS'yetnikoff'
p1093
I5
sS'pennsylvania'
p1094
I9
sS'determined'
p1095
I2
sS'marriage'
p1096
I3
sS'defect'
p1097
I2
sS'guarding'
p1098
I2
sS'vitally'
p1099
I2
sS'sell'
p1100
I17
sS'destabilizing'
p1101
I2
sS'extorted'
p1102
I2
sS'jeopardize'
p1103
I2
sS'also'
p1104
I65
sS'internal'
p1105
I5
sS'play'
p1106
I7
sS'monastery'
p1107
I2
sS'edison'
p1108
I2
sS'anti-takeover'
p1109
I2
sS'virus'
p1110
I2
sS'shake-up'
p1111
I2
sS'plan'
p1112
I21
sS'defections'
p1113
I3
sS'toronto-based'
p1114
I2
sS'arson'
p1115
I2
sS'sometimes'
p1116
I4
sS'cover'
p1117
I4
sS'three-month'
p1118
I5
sS'dragged'
p1119
I2
sS'golf'
p1120
I4
sS'gold'
p1121
I5
sS'defended'
p1122
I2
sS'session'
p1123
I7
sS'occupation'
p1124
I2
sS'impact'
p1125
I4
sS'indicator'
p1126
I2
sS'keychain'
p1127
I2
sS'writer'
p1128
I4
sS'189.8'
p1129
I2
sS'failed'
p1130
I10
sS'equity'
p1131
I4
sS'indifference'
p1132
I2
sS'giants'
p1133
I3
sS'banned'
p1134
I2
sS'closely'
p1135
I8
sS'reporters'
p1136
I4
sS'enemy'
p1137
I2
sS'railbikes'
p1138
I2
sS'debt-equity'
p1139
I4
sS'banking'
p1140
I6
sS'weaver'
p1141
I4
sS'river'
p1142
I3
sS'manger'
p1143
I2
sS'set'
p1144
I15
sS'activists'
p1145
I2
sS'potent'
p1146
I2
sS'sex'
p1147
I2
sS'see'
p1148
I12
sS'sec'
p1149
I13
sS'gas-turbine'
p1150
I2
sS'sen'
p1151
I3
sS'institutes'
p1152
I4
sS'aberdeen'
p1153
I2
sS'seminars'
p1154
I2
sS'#'
I2
sS'spirits'
p1155
I2
sS'movie'
p1156
I2
sS'currently'
p1157
I8
sS'pickup'
p1158
I2
sS'europe'
p1159
I20
sS'targeted'
p1160
I5
sS'brewing'
p1161
I3
sS'incident'
p1162
I2
sS'dividend'
p1163
I6
sS'legislature'
p1164
I2
sS'prospects'
p1165
I2
sS'rennie'
p1166
I2
sS'last'
p1167
I33
sS'barely'
p1168
I3
sS'slogans'
p1169
I2
sS'timorous'
p1170
I2
sS'long-term'
p1171
I6
sS'toxicology'
p1172
I2
sS'whole'
p1173
I9
sS'messiah'
p1174
I2
sS'soundings'
p1175
I2
sS'electrician'
p1176
I2
sS'bell'
p1177
I3
sS'loan'
p1178
I15
sS'community'
p1179
I6
sS'rosa'
p1180
I2
sS'agents'
p1181
I3
sS'church'
p1182
I16
sS'publishing'
p1183
I2
sS'monthly'
p1184
I8
sS'12-inches'
p1185
I2
sS'incentive-backed'
p1186
I2
sS'firm'
p1187
I12
sS'sweetheart'
p1188
I2
sS'fire'
p1189
I4
sS'then-21'
p1190
I2
sS'mine'
p1191
I3
sS'fund'
p1192
I25
sS'awake'
p1193
I2
sS'representative'
p1194
I4
sS'insiders'
p1195
I9
sS'handling'
p1196
I2
sS'judicial'
p1197
I6
sS'straight'
p1198
I4
sS'expanded'
p1199
I2
sS'budget'
p1200
I12
sS'error'
p1201
I2
sS'projecting'
p1202
I2
sS'budged'
p1203
I2
sS'owed'
p1204
I4
sS'backing'
p1205
I2
sS'dotting'
p1206
I2
sS'motors'
p1207
I7
sS'dabney'
p1208
I2
sS'centennial'
p1209
I2
sS'owes'
p1210
I2
sS'34'
p1211
I2
sS'coca-cola'
p1212
I5
sS'chase'
p1213
I5
sS'cuisine'
p1214
I2
sS'caygill'
p1215
I2
sS'pacemakers'
p1216
I2
sS'savings-and-loan'
p1217
I2
sS'872'
p1218
I2
sS'shorter'
p1219
I2
sS'rules'
p1220
I8
sS'virtually'
p1221
I4
sS'survey'
p1222
I3
sS'cardholders'
p1223
I2
sS'alert'
p1224
I4
sS'mosbacher'
p1225
I2
sS'levels'
p1226
I6
sS'{'
I19
sS'infamous'
p1227
I2
sS'recent'
p1228
I17
sS'then-president'
p1229
I2
sS'surrogate'
p1230
I2
sS'alleging'
p1231
I4
sS'reginald'
p1232
I2
sS'concrete'
p1233
I2
sS'ltd.'
p1234
I5
sS'hypothesized'
p1235
I2
sS'50.1'
p1236
I2
sS'readers'
p1237
I3
sS'surprises'
p1238
I3
sS'signals'
p1239
I2
sS'rangers'
p1240
I2
sS'parents'
p1241
I4
sS'location'
p1242
I2
sS'homeland'
p1243
I2
sS'waleson'
p1244
I2
sS'out-and-out'
p1245
I2
sS'disobey'
p1246
I2
sS'surprised'
p1247
I5
sS'australia'
p1248
I5
sS'victims'
p1249
I5
sS'emergency'
p1250
I3
sS'demands'
p1251
I3
sS'1099'
p1252
I2
sS'7.55'
p1253
I2
sS'high-ranking'
p1254
I2
sS'baskets'
p1255
I3
sS'projects'
p1256
I8
sS'formal'
p1257
I6
sS'sorting'
p1258
I2
sS'anthers'
p1259
I5
sS'spine'
p1260
I2
sS'ex-accountant'
p1261
I2
sS'consensus'
p1262
I2
sS'communications'
p1263
I9
sS'individuals'
p1264
I3
sS'yields'
p1265
I13
sS'nissan'
p1266
I3
sS'spins'
p1267
I2
sS'privately'
p1268
I4
sS'senate'
p1269
I8
sS'spring'
p1270
I5
sS'b.'
p1271
I4
sS'palm'
p1272
I2
sS'hard-line'
p1273
I2
sS'transactions'
p1274
I8
sS'religion'
p1275
I4
sS'lerman'
p1276
I2
sS'fortney'
p1277
I2
sS'durables'
p1278
I2
sS'be'
p1279
I191
sS'performed'
p1280
I2
sS'agreement'
p1281
I19
sS'concealed'
p1282
I2
sS'santa'
p1283
I2
sS'tidal'
p1284
I2
sS'by'
p1285
I229
sS'1,200'
p1286
I2
sS'zip'
p1287
I3
sS'anything'
p1288
I10
sS'exaggerated'
p1289
I4
sS'weatherbeaten'
p1290
I2
sS'biennial'
p1291
I2
sS'johanson'
p1292
I2
sS'cockburn'
p1293
I4
sS'repair'
p1294
I2
sS'colorado'
p1295
I4
sS'garbage'
p1296
I2
sS'into'
p1297
I42
sS'montpelier'
p1298
I2
sS'150-member'
p1299
I3
sS'primarily'
p1300
I2
sS'repaid'
p1301
I3
sS'traduce'
p1302
I2
sS'spending'
p1303
I3
sS'bargaining'
p1304
I3
sS'minor-leaguer'
p1305
I2
sS'crackdown'
p1306
I3
sS'pixie-like'
p1307
I2
sS'fund-raisers'
p1308
I2
sS'conrail'
p1309
I2
sS'considerably'
p1310
I3
sS'elsewhere'
p1311
I3
sS'stock-price'
p1312
I2
sS'atop'
p1313
I2
sS'metromedia'
p1314
I6
sS'deductions'
p1315
I4
sS'atlantic'
p1316
I3
sS'competition'
p1317
I2
sS'line'
p1318
I10
sS'considerable'
p1319
I2
sS'posted'
p1320
I4
sS'cia'
p1321
I5
sS'redeemed'
p1322
I2
sS'testaments'
p1323
I2
sS'up'
p1324
I91
sS'us'
p1325
I11
sS'maturity'
p1326
I6
sS'customers'
p1327
I9
sS'mature'
p1328
I2
sS'mortgage-securities'
p1329
I2
sS'75-cent'
p1330
I2
sS'consumed'
p1331
I2
sS'yelled'
p1332
I3
sS'39-year-old'
p1333
I2
sS'genial'
p1334
I2
sS'armstrong'
p1335
I14
sS'defined'
p1336
I4
sS'likewise'
p1337
I2
sS'start-up'
p1338
I3
sS'squinted'
p1339
I2
sS'influence'
p1340
I4
sS'u.s.a'
p1341
I2
sS'arms-reduction'
p1342
I2
sS'jcp'
p1343
I3
sS'occasional'
p1344
I2
sS'elements'
p1345
I3
sS'o.'
p1346
I3
sS'sided'
p1347
I2
sS'robots'
p1348
I2
sS'hazardous-waste-site'
p1349
I2
sS'sider'
p1350
I3
sS'sides'
p1351
I11
sS'mood'
p1352
I3
sS'ago'
p1353
I19
sS'worsened'
p1354
I2
sS'lane'
p1355
I7
sS'land'
p1356
I5
sS'finery'
p1357
I2
sS'vries'
p1358
I2
sS'age'
p1359
I6
sS'walked'
p1360
I3
sS'purged'
p1361
I2
sS'norwegians'
p1362
I2
sS'6.25'
p1363
I2
sS'walker'
p1364
I2
sS'having'
p1365
I6
sS'code'
p1366
I3
sS'partial'
p1367
I2
sS'scratch'
p1368
I2
sS'results'
p1369
I6
sS'soften'
p1370
I2
sS'illustrated'
p1371
I2
sS'amiss'
p1372
I2
sS'maccabee'
p1373
I2
sS'seemed'
p1374
I5
sS'longstanding'
p1375
I2
sS'concerned'
p1376
I4
sS'young'
p1377
I9
sS'send'
p1378
I2
sS'magisterially'
p1379
I2
sS'dislike'
p1380
I2
sS'resources'
p1381
I5
sS'probe'
p1382
I4
sS'continues'
p1383
I3
sS'abduction'
p1384
I2
sS'animals'
p1385
I4
sS'continued'
p1386
I6
sS'minerals'
p1387
I2
sS'categories'
p1388
I2
sS'timely'
p1389
I2
sS'sen.'
p1390
I2
sS'real-estate'
p1391
I2
sS'transmission'
p1392
I3
sS'fewer'
p1393
I3
sS'try'
p1394
I4
sS'threat'
p1395
I3
sS'race'
p1396
I2
sS'reich'
p1397
I5
sS'visuals'
p1398
I2
sS'mediterranean'
p1399
I2
sS'noticias'
p1400
I2
sS'recruitment'
p1401
I2
sS'licenses'
p1402
I5
sS'omnicom'
p1403
I2
sS'index'
p1404
I25
sS'shivers'
p1405
I2
sS'expressed'
p1406
I3
sS'consistently'
p1407
I2
sS'indian'
p1408
I2
sS'flowing'
p1409
I3
sS'firms'
p1410
I6
sS'equivalent'
p1411
I2
sS'thin'
p1412
I2
sS'led'
p1413
I9
sS'lee'
p1414
I11
sS'leg'
p1415
I2
sS'respectively'
p1416
I2
sS'puckish'
p1417
I2
sS'trade-off'
p1418
I2
sS'let'
p1419
I14
sS'great'
p1420
I14
sS'engage'
p1421
I2
sS'mid-to-late'
p1422
I2
sS'receive'
p1423
I5
sS'involved'
p1424
I7
sS'resulting'
p1425
I3
sS'defeat'
p1426
I2
sS'opinion'
p1427
I4
sS'residents'
p1428
I3
sS'makes'
p1429
I6
sS'maker'
p1430
I15
sS'involves'
p1431
I3
sS'kennewick'
p1432
I2
sS'330'
p1433
I2
sS'333'
p1434
I2
sS'foreign-exchange'
p1435
I2
sS'standing'
p1436
I3
sS'confidence'
p1437
I2
sS'certificate'
p1438
I3
sS'illegal'
p1439
I3
sS'theme'
p1440
I2
sS'next'
p1441
I26
sS'doubt'
p1442
I2
sS'face-to-face'
p1443
I3
sS'midday'
p1444
I2
sS'givens'
p1445
I4
sS'heiwa'
p1446
I2
sS'infamy'
p1447
I2
sS'gendarme'
p1448
I2
sS'dealings'
p1449
I5
sS'federally'
p1450
I2
sS'sharply'
p1451
I2
sS'payrolls'
p1452
I2
sS'practicing'
p1453
I2
sS'63.6'
p1454
I2
sS'this'
p1455
I106
sS'challenge'
p1456
I2
sS'clients'
p1457
I20
sS'unknowns'
p1458
I2
sS'publications'
p1459
I3
sS'1.45'
p1460
I2
sS'fulfill'
p1461
I2
sS'coffin'
p1462
I2
sS'wedge'
p1463
I2
sS'process'
p1464
I8
sS'rode'
p1465
I2
sS'purposes'
p1466
I3
sS'pieces'
p1467
I5
sS'high'
p1468
I16
sS'slip'
p1469
I2
sS'reynolds'
p1470
I2
sS'chop'
p1471
I2
sS'trumpet'
p1472
I2
sS'delay'
p1473
I2
sS'animal'
p1474
I3
sS'abrasive'
p1475
I2
sS'blocks'
p1476
I2
sS'await'
p1477
I2
sS'tied'
p1478
I6
sS'most-favored'
p1479
I2
sS'pigs'
p1480
I3
sS'ties'
p1481
I4
sS'boeing'
p1482
I2
sS'counter'
p1483
I3
sS'allow'
p1484
I8
sS'intellectuals'
p1485
I2
sS'christopher'
p1486
I2
sS'counted'
p1487
I3
sS'houston'
p1488
I9
sS'brahms'
p1489
I2
sS'producer'
p1490
I3
sS'produces'
p1491
I2
sS'move'
p1492
I18
sS'produced'
p1493
I12
sS'directs'
p1494
I3
sS'finanziario'
p1495
I2
sS'8.55'
p1496
I3
sS'year-earlier'
p1497
I4
sS'55,500'
p1498
I2
sS'bodegas'
p1499
I2
sS'chosen'
p1500
I2
sS'dispose'
p1501
I2
sS'meantime'
p1502
I2
sS'2019'
p1503
I2
sS'hobby'
p1504
I3
sS'outlined'
p1505
I2
sS'federico'
p1506
I2
sS'legendary'
p1507
I2
sS'traced'
p1508
I2
sS'merge'
p1509
I3
sS'accounts'
p1510
I6
sS'doing'
p1511
I9
sS'society'
p1512
I3
sS'books'
p1513
I4
sS'static'
p1514
I2
sS'astronomer'
p1515
I2
sS'witness'
p1516
I2
sS'fundamentally'
p1517
I2
sS"'"
I41
sS'dismissal'
p1518
I3
sS'superbly'
p1519
I2
sS'motifs'
p1520
I2
sS'shut'
p1521
I3
sS'tempe'
p1522
I2
sS'unwieldy'
p1523
I2
sS'opinion-makers'
p1524
I2
sS'hyundai'
p1525
I4
sS'quisling'
p1526
I2
sS'regulatory'
p1527
I3
sS'182-day'
p1528
I2
sS'dubbed'
p1529
I4
sS'could'
p1530
I51
sS'david'
p1531
I8
sS'length'
p1532
I3
sS'ratification'
p1533
I2
sS'sidley-ashurst'
p1534
I2
sS'troublemakers'
p1535
I2
sS'scare'
p1536
I2
sS'jurists'
p1537
I2
sS'scene'
p1538
I2
sS'owned'
p1539
I7
sS'autographed'
p1540
I2
sS'owner'
p1541
I4
sS'leasing'
p1542
I2
sS'legislative'
p1543
I2
sS'pryor'
p1544
I2
sS'los'
p1545
I6
sS'ordering'
p1546
I2
sS'system'
p1547
I18
sS'instruction-set'
p1548
I2
sS'behaved'
p1549
I2
sS'pervasive'
p1550
I2
sS'enforcement'
p1551
I2
sS'quarry'
p1552
I2
sS'steel'
p1553
I2
sS'colleagues'
p1554
I4
sS'reacted'
p1555
I2
sS'extraordinarily'
p1556
I2
sS'potpourri'
p1557
I2
sS'16-year-olds'
p1558
I2
sS'appealing'
p1559
I3
sS'decided'
p1560
I3
sS'exclusive'
p1561
I2
sS'vax9000'
p1562
I2
sS'steep'
p1563
I2
sS'downpayments'
p1564
I2
sS'steer'
p1565
I2
sS'partnership'
p1566
I4
sS'seaborne'
p1567
I2
sS'reassuring'
p1568
I2
sS'gentle'
p1569
I2
sS'9.78'
p1570
I2
sS'9.75'
p1571
I2
sS'blockbuster'
p1572
I2
sS'clearly'
p1573
I6
sS'documents'
p1574
I10
sS'how-to'
p1575
I2
sS'bassoon'
p1576
I2
sS'studying'
p1577
I2
sS'jurisdictions'
p1578
I2
sS'equaling'
p1579
I3
sS'korean'
p1580
I7
sS'worldwide'
p1581
I2
sS'pete'
p1582
I3
sS'delayed'
p1583
I2
sS'device'
p1584
I3
sS'so-called'
p1585
I6
sS'bred'
p1586
I2
sS'stronger'
p1587
I5
sS'thanksgiving'
p1588
I4
sS'face'
p1589
I6
sS'consorting'
p1590
I2
sS'mechanical'
p1591
I3
sS'brew'
p1592
I2
sS'painting'
p1593
I2
sS'fact'
p1594
I4
sS'vacancy'
p1595
I2
sS'bring'
p1596
I6
sS'greenhouse'
p1597
I2
sS'rouge'
p1598
I4
sS'unconnected'
p1599
I2
sS'rough'
p1600
I2
sS'economist'
p1601
I2
sS'brauerei'
p1602
I2
sS'decade'
p1603
I3
sS'principal'
p1604
I4
sS'promote'
p1605
I4
sS'95.2'
p1606
I2
sS'should'
p1607
I12
sS'buttons'
p1608
I2
sS'planted'
p1609
I2
sS'tape'
p1610
I2
sS'printers'
p1611
I2
sS'riding'
p1612
I2
sS'secretaries'
p1613
I3
sS'hope'
p1614
I7
sS'exchanged'
p1615
I2
sS'chicago-based'
p1616
I2
sS'bonds'
p1617
I23
sS'cigar-chomping'
p1618
I2
sS'familiar'
p1619
I4
sS'listener'
p1620
I2
sS'envy-quotient'
p1621
I2
sS'wilmington'
p1622
I2
sS'one-quarter-cent'
p1623
I2
sS'summon'
p1624
I2
sS'stuff'
p1625
I3
sS'allegation'
p1626
I3
sS'ohio'
p1627
I2
sS'medium-grade'
p1628
I2
sS'temporarily'
p1629
I2
sS'packet'
p1630
I2
sS'travis'
p1631
I2
sS'subcommittee'
p1632
I4
sS'bidders'
p1633
I3
sS'425,000'
p1634
I2
sS'packed'
p1635
I2
sS'amtran'
p1636
I2
sS'80-plus'
p1637
I2
sS'nuclear'
p1638
I12
sS'unravel'
p1639
I2
sS'nominees'
p1640
I3
sS'pistol'
p1641
I2
sS'wiry'
p1642
I2
sS'ends'
p1643
I3
sS'restrictions'
p1644
I4
sS'figured'
p1645
I3
sS'drum'
p1646
I2
sS'invited'
p1647
I2
sS'deficits'
p1648
I2
sS'drug'
p1649
I5
sS'etc'
p1650
I2
sS'figures'
p1651
I8
sS'32.5'
p1652
I2
sS'invites'
p1653
I2
sS'13.625'
p1654
I2
sS'adjusted'
p1655
I6
sS'belzberg'
p1656
I2
sS'co'
p1657
I14
sS'conclude'
p1658
I2
sS'ca'
p1659
I10
sS'570'
p1660
I2
sS'cd'
p1661
I10
sS'rapidement'
p1662
I2
sS'whispering'
p1663
I2
sS'allocated'
p1664
I2
sS'oakland'
p1665
I3
sS'yastrzemski'
p1666
I2
sS'8.5'
p1667
I2
sS'balloonists'
p1668
I2
sS'midland'
p1669
I2
sS'powered'
p1670
I2
sS'genetic'
p1671
I11
sS'bewkes'
p1672
I2
sS'waste'
p1673
I2
sS'louisiana'
p1674
I2
sS'c.'
p1675
I3
sS'rioting'
p1676
I3
sS'c$'
p1677
I2
sS'atlanta'
p1678
I2
sS'harriton'
p1679
I2
sS'5*slashhere*8'
p1680
I3
sS'rigged'
p1681
I2
sS'maul'
p1682
I2
sS'stuffing'
p1683
I2
sS'norodom'
p1684
I2
sS'lush'
p1685
I2
sS'site'
p1686
I2
sS'vu'
p1687
I2
sS'winnetka'
p1688
I2
sS'amadou-mahtar'
p1689
I2
sS'insight'
p1690
I2
sS'marcoses'
p1691
I2
sS'microsystems'
p1692
I2
sS'paulo'
p1693
I2
sS'ariz.'
p1694
I2
sS'panisse'
p1695
I5
sS'planned'
p1696
I6
sS'ball'
p1697
I2
sS'columbia'
p1698
I8
sS'raymond'
p1699
I2
sS'emotionally'
p1700
I2
sS'dusk'
p1701
I2
sS'drink'
p1702
I4
sS'upon'
p1703
I3
sS'infiniti'
p1704
I2
sS'robotic'
p1705
I2
sS'expand'
p1706
I2
sS'audit'
p1707
I2
sS'labor-intensive'
p1708
I2
sS'off'
p1709
I25
sS'hartt'
p1710
I3
sS'7.77'
p1711
I2
sS'352'
p1712
I2
sS'350'
p1713
I5
sS'7.78'
p1714
I2
sS'negligence'
p1715
I2
sS'less'
p1716
I18
sS'protections'
p1717
I2
sS'paul'
p1718
I5
sS'agnellis'
p1719
I3
sS'stoltzman'
p1720
I11
sS'residential'
p1721
I2
sS'arrest'
p1722
I2
sS'cosmetics'
p1723
I5
sS'clipped'
p1724
I2
sS'exempt'
p1725
I2
sS'enfield'
p1726
I8
sS'tcmp'
p1727
I4
sS'increased'
p1728
I9
sS'counterclaims'
p1729
I2
sS'government'
p1730
I46
sS'checking'
p1731
I2
sS'chancellor'
p1732
I2
sS'low-paid'
p1733
I2
sS'fuji'
p1734
I2
sS'increases'
p1735
I4
sS'cedar'
p1736
I2
sS'desk'
p1737
I2
sS'whopping'
p1738
I2
sS'crisp'
p1739
I2
sS'become'
p1740
I14
sS'replacement'
p1741
I4
sS'amendment'
p1742
I5
sS'indications'
p1743
I3
sS'terminal'
p1744
I3
sS'foreseeable'
p1745
I2
sS'thief'
p1746
I2
sS'ballot'
p1747
I3
sS'transport'
p1748
I2
sS'disbelief'
p1749
I2
sS'leveraged'
p1750
I3
sS'salaries'
p1751
I2
sS'demonstrators'
p1752
I2
sS'does'
p1753
I24
sS'passion'
p1754
I3
sS'shareholdings'
p1755
I2
sS'pressure'
p1756
I7
sS'accompanied'
p1757
I2
sS'loans'
p1758
I13
sS'stage'
p1759
I3
sS'gained'
p1760
I2
sS'sister'
p1761
I2
sS'25.5'
p1762
I2
sS'puts'
p1763
I3
sS'25.7'
p1764
I2
sS'debentures'
p1765
I2
sS'arkoma'
p1766
I2
sS'angeles'
p1767
I6
sS'union'
p1768
I13
sS'seeds'
p1769
I8
sS'concession'
p1770
I2
sS'software'
p1771
I5
sS'contractions'
p1772
I3
sS'letters'
p1773
I7
sS'title-insurance'
p1774
I2
sS'ismaili'
p1775
I2
sS'banca'
p1776
I2
sS'thwart'
p1777
I2
sS'mere'
p1778
I2
sS'negotiable'
p1779
I3
sS'terminated'
p1780
I2
sS'stocks'
p1781
I6
sS'off-speed'
p1782
I2
sS'housing'
p1783
I2
sS'spots'
p1784
I2
sS'peters'
p1785
I9
sS'restricts'
p1786
I2
sS'bros.'
p1787
I3
sS'venezuelan'
p1788
I2
sS'pretax'
p1789
I2
sS'naturally'
p1790
I2
sS'function'
p1791
I3
sS'fiscal'
p1792
I4
sS'19,000'
p1793
I2
sS'construction'
p1794
I5
sS'fishing*slashhere*processing'
p1795
I2
sS'entered'
p1796
I3
sS'beeper'
p1797
I2
sS'disbursement'
p1798
I2
sS'evident'
p1799
I2
sS'chained'
p1800
I2
sS'wife'
p1801
I4
sS'smooth'
p1802
I3
sS'imbalances'
p1803
I2
sS'excitement'
p1804
I2
sS'placed'
p1805
I2
sS'problem'
p1806
I10
sS'bearing'
p1807
I2
sS'kowtow'
p1808
I2
sS'recognize'
p1809
I3
sS'slowing'
p1810
I3
sS'moonie'
p1811
I2
sS'159.7'
p1812
I2
sS'compared'
p1813
I5
sS'nonetheless'
p1814
I4
sS'mccartin'
p1815
I2
sS'lately'
p1816
I3
sS'compares'
p1817
I2
sS'details'
p1818
I2
sS'reckless'
p1819
I2
sS'jumbos'
p1820
I2
sS'francisco'
p1821
I3
sS'monday'
p1822
I15
sS'oppression'
p1823
I3
sS'outlets'
p1824
I3
sS'chance'
p1825
I6
sS'exposure'
p1826
I2
sS'searches'
p1827
I2
sS'mozart'
p1828
I2
sS'rule'
p1829
I9
sS'strings'
p1830
I2
sS'compete'
p1831
I5
sS'pension'
p1832
I7
sS'475'
p1833
I2
sS'rural'
p1834
I5
sS'tax-exempt'
p1835
I2
sS'linsey'
p1836
I2
sS'magnetic'
p1837
I10
sS'outlining'
p1838
I2
sS'self-incrimination'
p1839
I4
sS'controversial'
p1840
I3
sS'mansion'
p1841
I2
sS'oldest'
p1842
I2
sS'integrity'
p1843
I2
sS'relationships'
p1844
I4
sS'pedro'
p1845
I2
sS'edward'
p1846
I4
sS'voted'
p1847
I2
sS'regal'
p1848
I2
sS'worth'
p1849
I3
sS'alternating'
p1850
I2
sS'distort'
p1851
I2
sS'yanking'
p1852
I2
sS'mania'
p1853
I2
sS'electronics'
p1854
I3
sS'investigator'
p1855
I2
sS'gaelic'
p1856
I2
sS'monsanto'
p1857
I3
sS'announced'
p1858
I17
sS'reinvent'
p1859
I2
sS'alarm'
p1860
I2
sS'chew'
p1861
I2
sS'chez'
p1862
I5
sS'chef'
p1863
I3
sS'panda'
p1864
I2
sS'machines'
p1865
I14
sS'established'
p1866
I3
sS'above'
p1867
I9
sS'churches'
p1868
I2
sS'officially'
p1869
I2
sS'consisting'
p1870
I3
sS'told'
p1871
I14
sS'crunch'
p1872
I2
sS'simultaneously'
p1873
I2
sS'residual'
p1874
I2
sS'conglomerate'
p1875
I3
sS'protection'
p1876
I4
sS'obtained'
p1877
I2
sS'fireballs'
p1878
I2
sS'daughter'
p1879
I2
sS'items'
p1880
I3
sS'employees'
p1881
I11
sS'high-security'
p1882
I2
sS'spooks'
p1883
I2
sS'secure'
p1884
I2
sS'highly'
p1885
I7
sS'shun'
p1886
I2
sS'total'
p1887
I12
sS'alligator'
p1888
I2
sS'indians'
p1889
I3
sS'chooses'
p1890
I3
sS'lavoro'
p1891
I2
sS'hahn'
p1892
I3
sS'giovanni'
p1893
I9
sS'aware'
p1894
I2
sS'mather'
p1895
I5
sS'emeritus'
p1896
I3
sS'unraveled'
p1897
I2
sS'blocking'
p1898
I5
sS'1991'
p1899
I10
sS'1990'
p1900
I8
sS'1993'
p1901
I4
sS'1992'
p1902
I3
sS'word'
p1903
I3
sS'1994'
p1904
I3
sS'divorced'
p1905
I2
sS'1996'
p1906
I2
sS'work'
p1907
I20
sS'theories'
p1908
I2
sS'grover'
p1909
I2
sS'half-forgotten'
p1910
I2
sS'era'
p1911
I2
sS'elegantly'
p1912
I2
sS'cited'
p1913
I4
sS'india'
p1914
I3
sS'550'
p1915
I2
sS'uaw'
p1916
I4
sS'impair'
p1917
I2
sS'indicates'
p1918
I3
sS'8.35'
p1919
I2
sS'8.33'
p1920
I2
sS'8.32'
p1921
I2
sS'8.30'
p1922
I2
sS'totaled'
p1923
I3
sS'8.38'
p1924
I2
sS'recovery'
p1925
I2
sS'carriers'
p1926
I4
sS'provide'
p1927
I11
sS'indirectly'
p1928
I2
sS'interview'
p1929
I5
sS'ordinary'
p1930
I4
sS'saint-saens'
p1931
I3
sS'beach'
p1932
I4
sS'gamble'
p1933
I3
sS'bebop'
p1934
I2
sS'after'
p1935
I52
sS'lab'
p1936
I4
sS'induce'
p1937
I5
sS'law'
p1938
I35
sS'austere'
p1939
I2
sS'homeowners'
p1940
I2
sS'harmony'
p1941
I2
sS'green'
p1942
I10
sS'ambulance'
p1943
I2
sS'order'
p1944
I11
sS'office'
p1945
I20
sS'devote'
p1946
I2
sS'satisfied'
p1947
I2
sS'6.7'
p1948
I2
sS'6.5'
p1949
I3
sS'plastics'
p1950
I3
sS'6.2'
p1951
I2
sS'12.5'
p1952
I2
sS'innovative'
p1953
I2
sS'japan'
p1954
I33
sS'15*slashhere*16'
p1955
I2
sS'mayor'
p1956
I3
sS'somewhere'
p1957
I4
sS'recreational'
p1958
I2
sS'50,000'
p1959
I2
sS'production'
p1960
I6
sS'split'
p1961
I7
sS'eventually'
p1962
I11
sS'coffee'
p1963
I2
sS'affected'
p1964
I2
sS'amenable'
p1965
I2
sS'break'
p1966
I3
sS'hispanics'
p1967
I2
sS'cichan'
p1968
I2
sS'they'
p1969
I119
sS'bank'
p1970
I42
sS'7.98'
p1971
I2
sS'7.99'
p1972
I2
sS'7.94'
p1973
I2
sS'7.96'
p1974
I3
sS'7.90'
p1975
I5
sS'7.91'
p1976
I2
sS'7.92'
p1977
I2
sS'7.93'
p1978
I2
sS'lifted'
p1979
I3
sS'crimes'
p1980
I3
sS'stronger-than-expected'
p1981
I2
sS'recognizable'
p1982
I2
sS'burnham'
p1983
I2
sS'network'
p1984
I9
sS'cameras'
p1985
I2
sS'diesel'
p1986
I3
sS'vessels'
p1987
I2
sS'daniel'
p1988
I2
sS'imperialists'
p1989
I2
sS'disputed'
p1990
I3
sS'vetoed'
p1991
I3
sS'veto'
p1992
I3
sS'gardiner'
p1993
I2
sS'standard'
p1994
I5
sS'admits'
p1995
I2
sS'appointments'
p1996
I2
sS'disputes'
p1997
I2
sS'pro-democracy'
p1998
I2
sS'delver'
p1999
I2
sS'delves'
p2000
I2
sS'baseman'
p2001
I2
sS'created'
p2002
I9
sS'240,000'
p2003
I2
sS'oppose'
p2004
I3
sS'delved'
p2005
I2
sS'organize'
p2006
I2
sS'guzzle'
p2007
I2
sS'another'
p2008
I35
sS'comic'
p2009
I3
sS'electronic'
p2010
I4
sS'illustrate'
p2011
I4
sS'rated'
p2012
I10
sS'gooseberry'
p2013
I2
sS'secaucus'
p2014
I2
sS'takeovers'
p2015
I2
sS'approximately'
p2016
I4
sS'airs'
p2017
I2
sS'rates'
p2018
I21
sS'inflate'
p2019
I2
sS'john'
p2020
I15
sS'damaging'
p2021
I2
sS'kiwi'
p2022
I2
sS'5-10'
p2023
I2
sS'190-point'
p2024
I2
sS'diversified'
p2025
I2
sS'albert'
p2026
I2
sS'rejected'
p2027
I2
sS'hazelnut'
p2028
I2
sS'alberg'
p2029
I2
sS'toronto'
p2030
I4
sS'target'
p2031
I2
sS'negotiator'
p2032
I2
sS'seated'
p2033
I2
sS'hollander'
p2034
I6
sS'powers'
p2035
I2
sS'editing*slashhere*electronic'
p2036
I2
sS'interests'
p2037
I10
sS'500,000'
p2038
I2
sS'30.4'
p2039
I2
sS'manner'
p2040
I4
sS'praising'
p2041
I2
sS'strength'
p2042
I5
sS'small-lot'
p2043
I2
sS'subjects'
p2044
I5
sS'luxury'
p2045
I5
sS'forces'
p2046
I9
sS'unsecured'
p2047
I4
sS'circles'
p2048
I3
sS'acquire'
p2049
I4
sS'6*slashhere*2'
p2050
I2
sS'400,000'
p2051
I2
sS'bruce'
p2052
I2
sS'iceland'
p2053
I2
sS'indemnification'
p2054
I2
sS'exercised'
p2055
I2
sS'involving'
p2056
I7
sS'germany'
p2057
I12
sS'exercises'
p2058
I2
sS'germans'
p2059
I3
sS'intergroup'
p2060
I2
sS'calculated'
p2061
I4
sS'newcomers'
p2062
I2
sS'perozo'
p2063
I2
sS'investing'
p2064
I4
sS'voting'
p2065
I4
sS'responded'
p2066
I3
sS'reserve'
p2067
I5
sS'd.'
p2068
I12
sS'asia-pacific'
p2069
I3
sS'religions'
p2070
I2
sS'cogeneration-plant'
p2071
I2
sS'politician'
p2072
I2
sS'painfully'
p2073
I2
sS'yen'
p2074
I7
sS'glasnost'
p2075
I2
sS'pursuing'
p2076
I2
sS'gideon'
p2077
I3
sS'adequate'
p2078
I3
sS'personality'
p2079
I2
sS'do'
p2080
I39
sS'di'
p2081
I2
sS'de'
p2082
I4
sS'preferred'
p2083
I7
sS'yielded'
p2084
I3
sS'25,000'
p2085
I2
sS'vividly'
p2086
I3
sS'runs'
p2087
I3
sS'pearson'
p2088
I2
sS'covering'
p2089
I2
sS'explanations'
p2090
I2
sS'secretary'
p2091
I8
sS'etudes'
p2092
I2
sS'9.35'
p2093
I2
sS'w.'
p2094
I3
sS'observed'
p2095
I3
sS'checks'
p2096
I2
sS'cattle'
p2097
I4
sS'discussions'
p2098
I6
sS'techniques'
p2099
I2
sS'draws'
p2100
I2
sS'away'
p2101
I9
sS'biosource'
p2102
I3
sS'unable'
p2103
I5
sS'cooperation'
p2104
I4
sS'drawn'
p2105
I2
sS'co.'
p2106
I34
sS'disavowed'
p2107
I2
sS'we'
p2108
I44
sS'terms'
p2109
I12
sS'wo'
p2110
I10
sS'handful'
p2111
I2
sS'packaged'
p2112
I2
sS'42.9'
p2113
I2
sS'disservice'
p2114
I2
sS'convertible'
p2115
I2
sS'packages'
p2116
I3
sS'downgraded'
p2117
I2
sS'scribbling'
p2118
I2
sS'received'
p2119
I10
sS'essentially'
p2120
I3
sS'amble'
p2121
I2
sS'exceeds'
p2122
I2
sS'requests'
p2123
I4
sS'bran'
p2124
I3
sS'publicity-seeking'
p2125
I2
sS'negotiation'
p2126
I2
sS'year-end'
p2127
I2
sS'tough'
p2128
I3
sS'c.d.s'
p2129
I2
sS'zellers'
p2130
I2
sS'tons'
p2131
I4
sS'telecommunications'
p2132
I4
sS'knowns'
p2133
I2
sS'petty'
p2134
I3
sS'nomura'
p2135
I13
sS'condemned'
p2136
I2
sS'sachs'
p2137
I2
sS'drafting'
p2138
I2
sS'dozens'
p2139
I2
sS'duties'
p2140
I5
sS'cutouts'
p2141
I2
sS'easy'
p2142
I4
sS'single-b-plus'
p2143
I2
sS'catering'
p2144
I2
sS'ogilvy'
p2145
I6
sS'0.19'
p2146
I2
sS'applied'
p2147
I7
sS'has'
p2148
I155
sS'6.84'
p2149
I2
sS'publicly'
p2150
I5
sS'air'
p2151
I13
sS'thrash'
p2152
I2
sS'aid'
p2153
I5
sS'property'
p2154
I2
sS'launched'
p2155
I4
sS'38.5'
p2156
I2
sS'crowning'
p2157
I2
sS'skipping'
p2158
I2
sS'tissue'
p2159
I3
sS'world-wide'
p2160
I2
sS'exile'
p2161
I3
sS'confirmed'
p2162
I2
sS'descent'
p2163
I2
sS'demonstration'
p2164
I5
sS'trashing'
p2165
I2
sS'indictment'
p2166
I3
sS'spy-chasing'
p2167
I2
sS'independent'
p2168
I3
sS'hani'
p2169
I2
sS'springing'
p2170
I2
sS'blames'
p2171
I2
sS'rain'
p2172
I2
sS'hand'
p2173
I6
sS'liberties'
p2174
I2
sS'blamed'
p2175
I2
sS'kept'
p2176
I8
sS'1978'
p2177
I3
sS'1977'
p2178
I2
sS'1976'
p2179
I4
sS'1975'
p2180
I4
sS'1974'
p2181
I2
sS'1973'
p2182
I2
sS'taint'
p2183
I2
sS'1971'
p2184
I3
sS'ragged'
p2185
I2
sS'hispanic'
p2186
I5
sS'client'
p2187
I5
sS'the'
p2188
I2258
sS'musical'
p2189
I3
sS'unified'
p2190
I2
sS'quoted'
p2191
I3
sS'gods'
p2192
I2
sS'farther'
p2193
I2
sS'victim'
p2194
I2
sS'wallingford'
p2195
I2
sS'8.12'
p2196
I2
sS'adding'
p2197
I3
sS'comparisons'
p2198
I2
sS'hills'
p2199
I2
sS'flooring'
p2200
I2
sS'similarities'
p2201
I2
sS'passive'
p2202
I2
sS'spread'
p2203
I3
sS'board'
p2204
I20
sS'evidenced'
p2205
I2
sS'mayo'
p2206
I2
sS'bridgers'
p2207
I2
sS'souled'
p2208
I2
sS'unification'
p2209
I6
sS'vacaville'
p2210
I2
sS'retreat'
p2211
I2
sS'a.g.'
p2212
I2
sS'securities'
p2213
I45
sS'gandhi'
p2214
I3
sS'security'
p2215
I7
sS'webb'
p2216
I2
sS'lashed'
p2217
I2
sS'denies'
p2218
I2
sS'humor'
p2219
I2
sS'house-painting'
p2220
I2
sS'asking'
p2221
I5
sS'denied'
p2222
I4
sS'beating'
p2223
I2
sS'participation'
p2224
I5
sS'marketing'
p2225
I13
sS'confer'
p2226
I2
sS'illustration'
p2227
I2
sS'plc'
p2228
I2
sS'graduated'
p2229
I2
sS'post'
p2230
I4
sS'properties'
p2231
I5
sS'theirs'
p2232
I2
sS'newspapers'
p2233
I5
sS'months'
p2234
I42
sS'gentler'
p2235
I2
sS'canonie'
p2236
I3
sS'banker'
p2237
I2
sS'horizon'
p2238
I2
sS'dilemma'
p2239
I2
sS'wasting'
p2240
I2
sS'pays'
p2241
I2
sS'float'
p2242
I2
sS'beneficial'
p2243
I5
sS'balances'
p2244
I2
sS'capped'
p2245
I3
sS'pollen-inhibiting'
p2246
I3
sS'wah'
p2247
I2
sS'wad'
p2248
I2
sS'legislation'
p2249
I4
sS'liquidated'
p2250
I2
sS'fight'
p2251
I8
sS'conservation'
p2252
I2
sS'way'
p2253
I21
sS'150,000'
p2254
I2
sS'was'
p2255
I190
sS'war'
p2256
I9
sS'becoming'
p2257
I5
sS'mysterious'
p2258
I2
sS'boon'
p2259
I2
sS'true'
p2260
I5
sS'reset'
p2261
I5
sS'responding'
p2262
I2
sS'high-quality'
p2263
I2
sS'reproductive'
p2264
I2
sS'maximum'
p2265
I3
sS'monitored'
p2266
I2
sS'crystal'
p2267
I2
sS'coverings'
p2268
I2
sS'emotional'
p2269
I2
sS'promises'
p2270
I3
sS'moore'
p2271
I2
sS'computing'
p2272
I2
sS'long-debated'
p2273
I2
sS'abstract'
p2274
I2
sS'evidence'
p2275
I3
sS'promised'
p2276
I3
sS'allegheny'
p2277
I2
sS'physical'
p2278
I3
sS'weakened'
p2279
I3
sS'stake'
p2280
I17
sS'naji'
p2281
I2
sS'topped'
p2282
I2
sS'negotiators'
p2283
I3
sS'interested'
p2284
I8
sS'holding'
p2285
I16
sS'65,200'
p2286
I2
sS'joni'
p2287
I2
sS'brothers'
p2288
I3
sS'update'
p2289
I2
sS'improvisation'
p2290
I2
sS'scores'
p2291
I3
sS'omega'
p2292
I2
sS'mullins'
p2293
I2
sS'}'
I19
sS'affidavit'
p2294
I4
sS'together'
p2295
I3
sS'n.j.'
p2296
I2
sS'campaneris'
p2297
I5
sS'concept'
p2298
I4
sS'diplomacy'
p2299
I2
sS'dance'
p2300
I2
sS'global'
p2301
I3
sS'known'
p2302
I5
sS'battle'
p2303
I4
sS'superpower'
p2304
I2
sS'certainly'
p2305
I7
sS'producing'
p2306
I6
sS'flash'
p2307
I2
sS'compensate'
p2308
I3
sS'dissatisfied'
p2309
I2
sS'brown'
p2310
I3
sS'charles'
p2311
I4
sS'blase'
p2312
I2
sS'seemingly'
p2313
I2
sS'12.9375'
p2314
I2
sS'10-year'
p2315
I3
sS'trouble'
p2316
I5
sS'blast'
p2317
I2
sS'presented'
p2318
I2
sS'presenter'
p2319
I2
sS'guy'
p2320
I4
sS'revolution'
p2321
I2
sS'cost'
p2322
I9
sS'30,180'
p2323
I2
sS'acrimonious'
p2324
I2
sS'appear'
p2325
I9
sS'246.6'
p2326
I2
sS'rapeseeds'
p2327
I2
sS'shares'
p2328
I41
sS'uniform'
p2329
I2
sS'saluting'
p2330
I2
sS'appeal'
p2331
I6
sS'4,300'
p2332
I2
sS'satisfy'
p2333
I2
sS'collateral'
p2334
I3
sS'genes'
p2335
I3
sS'rubicam'
p2336
I2
sS'appears'
p2337
I2
sS'change'
p2338
I10
sS'sending'
p2339
I2
sS'incoming'
p2340
I2
sS'trial'
p2341
I7
sS'usually'
p2342
I5
sS'plotted'
p2343
I2
sS'retired'
p2344
I3
sS'extra'
p2345
I2
sS'lending'
p2346
I4
sS'paragon'
p2347
I2
sS'fbi'
p2348
I2
sS'rarely'
p2349
I3
sS'market'
p2350
I43
sS'jan'
p2351
I2
sS'angell'
p2352
I2
sS'prove'
p2353
I3
sS'live'
p2354
I6
sS'jam'
p2355
I3
sS'commissioner'
p2356
I2
sS'club'
p2357
I4
sS'minimum-wage'
p2358
I5
sS'state-funded'
p2359
I2
sS'clue'
p2360
I2
sS'organizations'
p2361
I5
sS'ibj'
p2362
I2
sS'car'
p2363
I17
sS'paragould'
p2364
I3
sS'can'
p2365
I52
sS'trans'
p2366
I4
sS'stimulating'
p2367
I2
sS'heart'
p2368
I5
sS'expanding'
p2369
I2
sS'chip'
p2370
I3
sS'supremacy'
p2371
I2
sS'heard'
p2372
I2
sS'occur'
p2373
I4
sS'domenici'
p2374
I2
sS'discussion'
p2375
I3
sS'spreads'
p2376
I2
sS'buttoned-up'
p2377
I2
sS'write'
p2378
I3
sS'47-year-old'
p2379
I2
sS'allowable'
p2380
I2
sS'economy'
p2381
I17
sS'product'
p2382
I4
sS'peerless'
p2383
I2
sS'service-industry'
p2384
I3
sS'whacker'
p2385
I2
sS'produce'
p2386
I6
sS'vases'
p2387
I2
sS'5.4'
p2388
I2
sS'heroes'
p2389
I2
sS'iraq'
p2390
I2
sS'ponied'
p2391
I2
sS'eurodollars'
p2392
I2
sS'remember'
p2393
I3
sS'futures'
p2394
I2
sS'rather'
p2395
I13
sS'typical'
p2396
I2
sS'no.'
p2397
I2
sS'serving'
p2398
I2
sS'indeed'
p2399
I4
sS'raised'
p2400
I8
sS'ended'
p2401
I8
sS'ratified'
p2402
I2
sS'still'
p2403
I23
sS'birds'
p2404
I2
sS'deactivates'
p2405
I2
sS'8.0087'
p2406
I2
sS'reacting'
p2407
I2
sS'window'
p2408
I3
sS'hackles'
p2409
I2
sS'norway'
p2410
I2
sS'inefficiency'
p2411
I2
sS'100,000'
p2412
I4
sS'sweetened'
p2413
I2
sS'introduce'
p2414
I2
sS'1955'
p2415
I2
sS'1954'
p2416
I2
sS'half'
p2417
I16
sS'not'
p2418
I74
sS'now'
p2419
I43
sS'provision'
p2420
I2
sS'discuss'
p2421
I5
sS'nor'
p2422
I5
sS'enacted'
p2423
I2
sS'unauthorized'
p2424
I2
sS'galloway'
p2425
I2
sS'january'
p2426
I6
sS'drop'
p2427
I7
sS'stockholm'
p2428
I2
sS'22.8'
p2429
I2
sS'concerts'
p2430
I2
sS'el'
p2431
I2
sS'fired'
p2432
I2
sS'mixed-up'
p2433
I2
sS'kane'
p2434
I2
sS'bradley'
p2435
I2
sS'fires'
p2436
I2
sS'taxes'
p2437
I4
sS'year'
p2438
I76
sS'naming'
p2439
I2
sS'calling'
p2440
I6
sS'pills'
p2441
I13
sS'8.75'
p2442
I2
sS'album'
p2443
I2
sS'shown'
p2444
I6
sS'accomplish'
p2445
I2
sS'space'
p2446
I2
sS'immigrant'
p2447
I2
sS'increase'
p2448
I16
sS'celimene'
p2449
I2
sS'rational'
p2450
I2
sS'fargo'
p2451
I2
sS'viable'
p2452
I2
sS'shows'
p2453
I4
sS'rebuilding'
p2454
I2
sS'e.'
p2455
I6
sS'defenses'
p2456
I2
sS'cars'
p2457
I5
sS'position'
p2458
I9
sS'carl'
p2459
I6
sS'obligation'
p2460
I3
sS'card'
p2461
I2
sS'care'
p2462
I2
sS'chose'
p2463
I4
sS'selections'
p2464
I2
sS'19th-century'
p2465
I2
sS'vehemently'
p2466
I3
sS'british'
p2467
I14
sS'lindsey'
p2468
I2
sS'tangled'
p2469
I2
sS'invitation'
p2470
I3
sS'styles'
p2471
I2
sS'promotion'
p2472
I9
sS'515'
p2473
I2
sS'support'
p2474
I10
sS'sprawling'
p2475
I2
sS'concertos'
p2476
I2
sS'flying'
p2477
I3
sS'striking'
p2478
I2
sS'blink'
p2479
I2
sS'reykjavik'
p2480
I2
sS'directly'
p2481
I9
sS'comprises'
p2482
I2
sS'impossible'
p2483
I2
sS'drove'
p2484
I3
sS'tomorrow'
p2485
I3
sS'size'
p2486
I5
sS'caught'
p2487
I4
sS'free-lance'
p2488
I3
sS'friend'
p2489
I3
sS'zayadi'
p2490
I3
sS'mostly'
p2491
I3
sS'that'
p2492
I381
sS'pittsburgh'
p2493
I4
sS'brains'
p2494
I4
sS'taxation'
p2495
I2
sS'repossess'
p2496
I2
sS'eliminated'
p2497
I2
sS'flowers'
p2498
I2
sS'interbank'
p2499
I4
sS'titans'
p2500
I2
sS'television'
p2501
I6
sS'edition'
p2502
I2
sS'transferred'
p2503
I2
sS'overcollateralized'
p2504
I2
sS'respectability'
p2505
I2
sS'investors'
p2506
I39
sS'remained'
p2507
I6
sS'premier'
p2508
I2
sS'anger'
p2509
I2
sS'recover'
p2510
I2
sS'publicity'
p2511
I2
sS'offering'
p2512
I9
sS'veteran'
p2513
I2
sS'manufacturers'
p2514
I4
sS'equipment'
p2515
I6
sS'mr.'
p2516
I232
sS'batman'
p2517
I3
sS'objective'
p2518
I2
sS'begin'
p2519
I10
sS'price'
p2520
I18
sS'america'
p2521
I16
sS'manville'
p2522
I14
sS'forever'
p2523
I2
sS'egg'
p2524
I3
sS'reform'
p2525
I3
sS'implications'
p2526
I4
sS'hurled'
p2527
I2
sS'professional'
p2528
I5
sS'typically'
p2529
I8
sS'filing'
p2530
I4
sS'brainchild'
p2531
I2
sS'german'
p2532
I5
sS'discovered'
p2533
I4
sS'maine'
p2534
I2
sS'fifth'
p2535
I2
sS'ground'
p2536
I4
sS'upgrade'
p2537
I2
sS'peduzzi'
p2538
I2
sS'title'
p2539
I3
sS'industrialize'
p2540
I2
sS'jolt'
p2541
I2
sS'texture'
p2542
I2
sS'filipinos'
p2543
I4
sS'only'
p2544
I53
sS'kluge'
p2545
I2
sS'inventions'
p2546
I2
sS'thompson'
p2547
I2
sS'interstate'
p2548
I2
sS'cannon'
p2549
I2
sS'samuel'
p2550
I2
sS'truly'
p2551
I3
sS'loath'
p2552
I2
sS'kiki'
p2553
I2
sS'stroll'
p2554
I2
sS'leather'
p2555
I2
sS'seldom'
p2556
I2
sS'losers'
p2557
I2
sS'reorganizes'
p2558
I2
sS'husband'
p2559
I2
sS'salomon'
p2560
I2
sS'concert'
p2561
I3
sS'color-coding'
p2562
I2
sS'elected'
p2563
I6
sS'actively'
p2564
I2
sS'flat-footed'
p2565
I2
sS'sport'
p2566
I2
sS'reputed'
p2567
I2
sS'europeans'
p2568
I3
sS'israeli'
p2569
I3
sS'atrun'
p2570
I2
sS'tackling'
p2571
I2
sS'willard'
p2572
I2
sS'serkin'
p2573
I2
sS'3'
I11
sS'between'
p2574
I28
sS'import'
p2575
I2
sS'justified'
p2576
I2
sS'armenian'
p2577
I2
sS'article'
p2578
I7
sS'rippe'
p2579
I2
sS'environmentalist'
p2580
I2
sS'comes'
p2581
I3
sS'nearby'
p2582
I3
sS'passenger'
p2583
I3
sS'hybrids'
p2584
I3
sS'jeans'
p2585
I2
sS'mirroring'
p2586
I2
sS'moreover'
p2587
I2
sS'fruitful'
p2588
I2
sS'eight-team'
p2589
I2
sS'informed'
p2590
I2
sS'systems'
p2591
I12
sS'impugn'
p2592
I2
sS'4.875'
p2593
I2
sS'wounds'
p2594
I2
sS'external'
p2595
I2
sS'suspected'
p2596
I3
sS'realities'
p2597
I2
sS'developing'
p2598
I7
sS'these'
p2599
I29
sS'trick'
p2600
I2
sS'blinkers'
p2601
I2
sS'sorghum'
p2602
I2
sS'exercisable'
p2603
I3
sS'non-flight'
p2604
I2
sS'misanthrope'
p2605
I2
sS'alcoholic'
p2606
I2
sS'soil'
p2607
I3
sS'metric'
p2608
I2
sS'health-care'
p2609
I3
sS'bias'
p2610
I2
sS'trimming'
p2611
I2
sS'worry'
p2612
I5
sS'farmwives'
p2613
I2
sS'quarter-to-quarter'
p2614
I2
sS'develop'
p2615
I5
sS'media'
p2616
I5
sS'followers'
p2617
I2
sS'angered'
p2618
I2
sS'squatted'
p2619
I2
sS'investigates'
p2620
I2
sS'thornburgh'
p2621
I2
sS'racketeering'
p2622
I2
sS'tradition'
p2623
I2
sS'complained'
p2624
I4
sS'alfresco'
p2625
I2
sS'charges'
p2626
I8
sS'constitutional'
p2627
I3
sS'severe'
p2628
I3
sS'laboratories'
p2629
I2
sS'charged'
p2630
I6
sS'knowledgeable'
p2631
I2
sS'valuable'
p2632
I3
sS'anticipates'
p2633
I3
sS'civilized'
p2634
I2
sS'touch'
p2635
I4
sS'melton'
p2636
I2
sS'speed'
p2637
I3
sS'renewed'
p2638
I2
sS'thinking'
p2639
I2
sS'lender'
p2640
I2
sS'treatment'
p2641
I6
sS'struck'
p2642
I3
sS'real'
p2643
I11
sS'non-clients'
p2644
I2
sS'ambitious'
p2645
I2
sS'spectacular'
p2646
I2
sS'overused'
p2647
I2
sS'read'
p2648
I6
sS'swig'
p2649
I2
sS'pse'
p2650
I2
sS'early'
p2651
I18
sS'listening'
p2652
I4
sS'using'
p2653
I11
sS'execution'
p2654
I2
sS'reap'
p2655
I2
sS'ruled'
p2656
I5
sS'proponent'
p2657
I2
sS'utterances'
p2658
I2
sS'annually'
p2659
I3
sS'benefit'
p2660
I7
sS'fully'
p2661
I2
sS'output'
p2662
I5
sS'dilution'
p2663
I2
sS'geraldo'
p2664
I2
sS'meringues'
p2665
I2
sS'apologists'
p2666
I2
sS'eddie'
p2667
I3
sS'27,500'
p2668
I2
sS'abetted'
p2669
I2
sS'recorded'
p2670
I5
sS'conservative'
p2671
I3
sS'2170'
p2672
I2
sS'dealership'
p2673
I5
sS'deficit'
p2674
I3
sS'racism'
p2675
I2
sS'business'
p2676
I31
sS'chefs'
p2677
I2
sS'credits'
p2678
I2
sS'sixty'
p2679
I2
sS'exciting'
p2680
I2
sS'throw'
p2681
I2
sS'comparison'
p2682
I2
sS'central'
p2683
I7
sS'ideology'
p2684
I2
sS'testimony'
p2685
I6
sS'invested'
p2686
I2
sS'processor'
p2687
I2
sS'heavy'
p2688
I4
sS'8.53'
p2689
I2
sS'protests'
p2690
I2
sS'earring'
p2691
I2
sS'involvement'
p2692
I2
sS'operator'
p2693
I3
sS'your'
p2694
I15
sS'intervention'
p2695
I5
sS'shags'
p2696
I2
sS'area'
p2697
I8
sS'assumed'
p2698
I2
sS'minn.'
p2699
I3
sS'stark'
p2700
I2
sS'start'
p2701
I5
sS'low'
p2702
I4
sS'lot'
p2703
I7
sS'somerset'
p2704
I2
sS'billion'
p2705
I43
sS'pitches'
p2706
I2
sS'philosophers'
p2707
I2
sS'two-thirds'
p2708
I2
sS'trying'
p2709
I5
sS'hire'
p2710
I2
sS'fraud'
p2711
I3
sS'proof-of-purchases'
p2712
I2
sS'intermission'
p2713
I2
sS'recurring'
p2714
I2
sS'popularize'
p2715
I2
sS'9*slashhere*16'
p2716
I3
sS'600'
p2717
I2
sS'moved'
p2718
I7
sS'sales'
p2719
I37
sS'moves'
p2720
I4
sS'innings'
p2721
I2
sS'unwelcome'
p2722
I2
sS'englishman'
p2723
I2
sS'foothills'
p2724
I2
sS'valid'
p2725
I2
sS'acceptance'
p2726
I2
sS'you'
p2727
I31
sS'forcing'
p2728
I3
sS'poor'
p2729
I3
sS'massachusetts'
p2730
I5
sS'coverage'
p2731
I3
sS'pool'
p2732
I2
sS'alcohol'
p2733
I2
sS'building'
p2734
I6
sS'repay'
p2735
I2
sS'requisition'
p2736
I2
sS'overseas'
p2737
I4
sS'bolton'
p2738
I2
sS'blue-chip'
p2739
I2
sS'monte'
p2740
I2
sS'pointing'
p2741
I2
sS'48-year-old'
p2742
I2
sS'month'
p2743
I22
sS'heavy-water'
p2744
I2
sS'unrest'
p2745
I2
sS'deadline'
p2746
I2
sS'douglas'
p2747
I14
sS'renege'
p2748
I2
sS'religious'
p2749
I2
sS'carpet'
p2750
I8
sS'dreadful'
p2751
I2
sS'referring'
p2752
I2
sS'1930s'
p2753
I2
sS'music-publishing'
p2754
I2
sS'sustain'
p2755
I3
sS'reneging'
p2756
I2
sS'confidential'
p2757
I2
sS'divisions'
p2758
I2
sS'very'
p2759
I18
sS'kremlin'
p2760
I2
sS'mph'
p2761
I3
sS'109.85'
p2762
I2
sS'decide'
p2763
I3
sS'rehearing'
p2764
I2
sS'heaven'
p2765
I2
sS'--'
p2766
I84
sS'louis'
p2767
I2
sS'circuit'
p2768
I2
sS'promoter'
p2769
I2
sS'well-meaning'
p2770
I2
sS'consumers'
p2771
I7
sS'raw-material'
p2772
I2
sS'boardrooms'
p2773
I2
sS'fractional'
p2774
I2
sS'certificates'
p2775
I8
sS'learned'
p2776
I2
sS'multinational'
p2777
I2
sS'turmoil'
p2778
I2
sS'answers'
p2779
I4
sS'tracks'
p2780
I4
sS'selective'
p2781
I2
sS'gramm-rudman'
p2782
I3
sS'11.80'
p2783
I2
sS'excess'
p2784
I2
sS'spielvogel'
p2785
I15
sS'strong'
p2786
I7
sS'757-200s'
p2787
I3
sS'ahead'
p2788
I5
sS'inspired'
p2789
I2
sS'losses'
p2790
I9
sS'johnnie'
p2791
I2
sS'amount'
p2792
I9
sS'advertising'
p2793
I9
sS'hime'
p2794
I2
sS'cardinals'
p2795
I2
sS'gun-carrying'
p2796
I2
sS'toughness'
p2797
I2
sS'family'
p2798
I9
sS'requiring'
p2799
I2
sS'thatcher'
p2800
I3
sS'ask'
p2801
I4
sS'aimed'
p2802
I3
sS'trained'
p2803
I3
sS'lewdness'
p2804
I2
sS'334.5'
p2805
I2
sS'conventional'
p2806
I6
sS'khan'
p2807
I7
sS'takes'
p2808
I3
sS'one-day'
p2809
I2
sS'strauss'
p2810
I2
sS'oil-producing'
p2811
I2
sS'taken'
p2812
I12
sS'injury'
p2813
I3
sS'bankamerica'
p2814
I3
sS'ejected'
p2815
I2
sS'jr.'
p2816
I4
sS'excuse'
p2817
I4
sS'cadwell'
p2818
I2
sS'broke'
p2819
I2
sS'underwriter'
p2820
I2
sS'factories'
p2821
I2
sS'pretense'
p2822
I2
sS'nine'
p2823
I9
sS'budgets'
p2824
I2
sS'delegates'
p2825
I2
sS'brain-wave'
p2826
I2
sS'history'
p2827
I4
sS'746'
p2828
I2
sS'pushed'
p2829
I3
sS'quartets'
p2830
I2
sS'cows'
p2831
I2
sS'exclude'
p2832
I2
sS'f.'
p2833
I6
sS'sunbird'
p2834
I3
sS'processors'
p2835
I3
sS'stayed'
p2836
I2
sS'surpassed'
p2837
I2
sS'tried'
p2838
I6
sS'tries'
p2839
I2
sS'remediation'
p2840
I2
sS'hooliganism'
p2841
I2
sS'a'
I926
sS'criticize'
p2842
I2
sS'keio'
p2843
I2
sS'fallen'
p2844
I2
sS'overnight'
p2845
I2
sS'anytime'
p2846
I2
sS'ego'
p2847
I3
sS'banks'
p2848
I30
sS'dream'
p2849
I2
sS'yuppie'
p2850
I2
sS'help'
p2851
I18
sS'soon'
p2852
I6
sS'show-piece'
p2853
I2
sS'held'
p2854
I15
sS'committee'
p2855
I10
sS'clarinet'
p2856
I4
sS'80-page'
p2857
I2
sS'taxpayer'
p2858
I3
sS'w.a.'
p2859
I2
sS'teeming'
p2860
I2
sS'actually'
p2861
I10
sS'disclosed'
p2862
I8
sS'peanuts'
p2863
I3
sS'lire'
p2864
I7
sS'fool'
p2865
I2
sS'evening'
p2866
I4
sS'food'
p2867
I4
sS'reigning'
p2868
I2
sS'permissible'
p2869
I2
sS'sweeping'
p2870
I2
sS'linking'
p2871
I2
sS'terrorism'
p2872
I2
sS'well-known'
p2873
I2
sS'stopper'
p2874
I3
sS'occasions'
p2875
I2
sS'intervene'
p2876
I2
sS'semiannual'
p2877
I3
sS'capability'
p2878
I2
sS'stopped'
p2879
I4
sS'ifi'
p2880
I7
sS'trailer'
p2881
I3
sS'groundball'
p2882
I2
sS'savored'
p2883
I2
sS'healthvest'
p2884
I13
sS'positioned'
p2885
I2
sS'beyond'
p2886
I5
sS'event'
p2887
I3
sS'creamier'
p2888
I2
sS'steered'
p2889
I2
sS'magnet'
p2890
I4
sS'pins'
p2891
I2
sS'robert'
p2892
I7
sS'since'
p2893
I22
sS'temporary'
p2894
I7
sS'testify'
p2895
I3
sS'publish'
p2896
I2
sS'equate'
p2897
I2
sS'safety'
p2898
I4
sS'7'
I7
sS'issue'
p2899
I33
sS'bass'
p2900
I2
sS'dirt'
p2901
I2
sS'unificationist'
p2902
I3
sS'houses'
p2903
I3
sS'reason'
p2904
I5
sS'base'
p2905
I4
sS'put'
p2906
I16
sS'matthews'
p2907
I5
sS'broad-based'
p2908
I2
sS'persuading'
p2909
I2
sS'american'
p2910
I29
sS'businessmen'
p2911
I2
sS'imelda'
p2912
I2
sS'ever-growing'
p2913
I2
sS'reflected'
p2914
I2
sS'morita'
p2915
I2
sS'miss'
p2916
I3
sS'arbitration'
p2917
I2
sS'horse'
p2918
I2
sS'st.'
p2919
I2
sS'airborne'
p2920
I2
sS'station'
p2921
I2
sS'identity'
p2922
I2
sS'hundred'
p2923
I2
sS'shifted'
p2924
I2
sS'selling'
p2925
I11
sS'financing'
p2926
I6
sS'scheme'
p2927
I3
sS'state-owned'
p2928
I3
sS'greg'
p2929
I2
sS'store'
p2930
I3
sS'toward'
p2931
I5
sS'ousted'
p2932
I5
sS'deciding'
p2933
I2
sS'heaviest'
p2934
I2
sS'affirmative'
p2935
I2
sS'randomly'
p2936
I2
sS'substantial'
p2937
I5
sS'perestroika'
p2938
I2
sS'organs'
p2939
I3
sS'1.175'
p2940
I2
sS'lid'
p2941
I2
sS'lie'
p2942
I3
sS'u.s'
p2943
I7
sS'evasion'
p2944
I2
sS'patterns'
p2945
I3
sS'officers'
p2946
I3
sS'j&b'
p2947
I2
sS'lip'
p2948
I2
sS'elianti'
p2949
I2
sS'towards'
p2950
I2
sS'approves'
p2951
I2
sS'exempted'
p2952
I2
sS'freddie'
p2953
I5
sS'hired'
p2954
I2
sS'knotty'
p2955
I2
sS'approved'
p2956
I9
sS'ark.'
p2957
I3
sS'creators'
p2958
I2
sS'mobile'
p2959
I2
sS'performances'
p2960
I2
sS'clear'
p2961
I7
sS'rockefeller'
p2962
I3
sS'clean'
p2963
I2
sS'velocity'
p2964
I2
sS'usual'
p2965
I2
sS'physics'
p2966
I2
sS'stalked'
p2967
I2
sS'7,400'
p2968
I2
sS'hovered'
p2969
I2
sS'gas-tax'
p2970
I2
sS'heavens'
p2971
I2
sS'church-owned'
p2972
I2
sS'northern'
p2973
I3
sS'justice'
p2974
I6
sS'inaugurated'
p2975
I2
sS'flights'
p2976
I3
sS'surveyed'
p2977
I2
sS'pretty'
p2978
I2
sS'2142.6'
p2979
I2
sS'grocery'
p2980
I2
sS'famous'
p2981
I2
sS'competing'
p2982
I2
sS'during'
p2983
I14
sS'soft-drink'
p2984
I4
sS'alexander'
p2985
I3
sS'left-wing'
p2986
I2
sS'transgenic'
p2987
I4
sS'11-member'
p2988
I2
sS'interim'
p2989
I2
sS'switzerland'
p2990
I2
sS'66.50'
p2991
I2
sS'scanning'
p2992
I2
sS'maurice'
p2993
I2
sS'throwing'
p2994
I3
sS'culture'
p2995
I3
sS'close'
p2996
I14
sS'practice'
p2997
I5
sS'probable'
p2998
I2
sS'pictures'
p2999
I5
sS'won'
p3000
I5
sS'woe'
p3001
I2
sS'probably'
p3002
I8
sS'lowered'
p3003
I3
sS'conditions'
p3004
I3
sS'unconscious'
p3005
I2
sS'missing'
p3006
I2
sS'spray'
p3007
I4
sS'invisible'
p3008
I2
sS'arrears'
p3009
I2
sS'both'
p3010
I28
sS'secrets'
p3011
I2
sS'wage-floor'
p3012
I2
sS'sensitive'
p3013
I3
sS'headed'
p3014
I2
sS'whatever'
p3015
I3
sS'vessel'
p3016
I2
sS'described'
p3017
I2
sS'off-budget'
p3018
I2
sS'damp'
p3019
I2
sS'association-college'
p3020
I2
sS'collected'
p3021
I2
sS'reduced-fat'
p3022
I2
sS'walter'
p3023
I4
sS'35549.44'
p3024
I2
sS'alongside'
p3025
I2
sS'partly'
p3026
I2
sS'regroup'
p3027
I2
sS'else'
p3028
I4
sS'lives'
p3029
I5
sS'compromised'
p3030
I2
sS'bidding'
p3031
I6
sS'pact'
p3032
I4
sS'floating-point'
p3033
I2
sS'look'
p3034
I7
sS'governor'
p3035
I3
sS'pace'
p3036
I4
sS'while'
p3037
I23
sS'mainframe'
p3038
I2
sS'fleet'
p3039
I2
sS'mitchell'
p3040
I3
sS'guide'
p3041
I2
sS'pack'
p3042
I2
sS'bailiffs'
p3043
I2
sS'costly'
p3044
I2
sS'voters'
p3045
I3
sS'ready'
p3046
I2
sS'industrial-product'
p3047
I2
sS'fannie'
p3048
I8
sS'fairer'
p3049
I2
sS'marble-columned'
p3050
I2
sS'shaw'
p3051
I6
sS'anymore'
p3052
I3
sS'grant'
p3053
I2
sS'grand'
p3054
I8
sS'well-hit'
p3055
I2
sS'composition'
p3056
I2
sS'conflict'
p3057
I5
sS'pleadings'
p3058
I2
sS'indianapolis'
p3059
I3
sS'lawyers'
p3060
I12
sS'ratings'
p3061
I2
sS'blair'
p3062
I9
sS'uses'
p3063
I7
sS'143,800'
p3064
I2
sS'brussels'
p3065
I3
sS'older'
p3066
I3
sS'12-month'
p3067
I2
sS'poland'
p3068
I4
sS'five'
p3069
I19
sS'docket'
p3070
I2
sS'appalled'
p3071
I2
sS'yankees'
p3072
I2
sS'alvin'
p3073
I2
sS'settlements'
p3074
I3
sS'quarters'
p3075
I2
sS'belgium'
p3076
I3
sS'fertilizing'
p3077
I2
sS'taiwan'
p3078
I4
sS'11-week'
p3079
I2
sS'retirement'
p3080
I5
sS'$'
I189
sS'over-the-counter'
p3081
I4
sS'informal'
p3082
I11
sS'guaranteed'
p3083
I3
sS'nikko'
p3084
I3
sS'stock-market'
p3085
I2
sS'guarantees'
p3086
I2
sS'remaining'
p3087
I9
sS'...'
p3088
I14
sS'march'
p3089
I7
sS'evaluate'
p3090
I4
sS'showing'
p3091
I3
sS'finding'
p3092
I3
sS'game'
p3093
I6
sS'thousand-person'
p3094
I2
sS'defied'
p3095
I2
sS'stimulators'
p3096
I7
sS'outright'
p3097
I2
sS'toyota'
p3098
I2
sS'trade-in'
p3099
I2
sS'popular'
p3100
I2
sS'subverted'
p3101
I2
sS'parade'
p3102
I2
sS'creation'
p3103
I3
sS'some'
p3104
I72
sS'trends'
p3105
I2
sS'economic'
p3106
I21
sS'fanfare'
p3107
I4
sS'67-year-old'
p3108
I2
sS'delivered'
p3109
I3
sS'exceeding'
p3110
I2
sS'eating'
p3111
I2
sS'processing'
p3112
I2
sS'stem'
p3113
I2
sS'jazzy'
p3114
I2
sS'step'
p3115
I5
sS'macy'
p3116
I2
sS'lasts'
p3117
I2
sS'nerves'
p3118
I7
sS'at&t'
p3119
I2
sS'pitchers'
p3120
I3
sS'abroad'
p3121
I4
sS'wealth'
p3122
I2
sS'faith'
p3123
I2
sS'tracing'
p3124
I2
sS'in-depth'
p3125
I2
sS'positive'
p3126
I2
sS'classics'
p3127
I3
sS'block'
p3128
I7
sS'disclosure'
p3129
I2
sS'within'
p3130
I10
sS'guangdong'
p3131
I2
sS'pentagon'
p3132
I3
sS'statistics'
p3133
I6
sS'classical'
p3134
I3
sS'insider'
p3135
I3
sS'disallowed'
p3136
I2
sS'manufacture'
p3137
I3
sS'himself'
p3138
I6
sS'registered'
p3139
I4
sS'specialty'
p3140
I2
sS'properly'
p3141
I2
sS'authority'
p3142
I3
sS'russian'
p3143
I2
sS'investment-banking'
p3144
I2
sS'dull'
p3145
I2
sS'ideals'
p3146
I2
sS'circuits'
p3147
I2
sS'vacancies'
p3148
I2
sS'lords'
p3149
I2
sS'cautiously'
p3150
I3
sS'similar'
p3151
I10
sS'ordered'
p3152
I4
sS'adults'
p3153
I3
sS'corrective'
p3154
I2
sS'languishing'
p3155
I2
sS'three-to-five-year'
p3156
I2
sS'cotton'
p3157
I15
sS'liberalize'
p3158
I2
sS'amounts'
p3159
I4
sS'spokesmen'
p3160
I2
sS'application'
p3161
I2
sS'politicians'
p3162
I3
sS'electrical'
p3163
I3
sS'department'
p3164
I17
sS'manhattan'
p3165
I3
sS'draw'
p3166
I4
sS'spectators'
p3167
I2
sS'reportedly'
p3168
I2
sS're-election'
p3169
I3
sS'kansas'
p3170
I2
sS'visits'
p3171
I2
sS'william'
p3172
I6
sS'drag'
p3173
I2
sS'structure'
p3174
I2
sS'hanover'
p3175
I2
sS'urged'
p3176
I3
sS'required'
p3177
I12
sS'turbines'
p3178
I2
sS'bribe'
p3179
I2
sS'berries'
p3180
I2
sS'requires'
p3181
I4
sS'avoid'
p3182
I5
sS'co-author'
p3183
I2
sS'fixed-rate'
p3184
I3
sS'oct.'
p3185
I11
sS'ga'
p3186
I2
sS'kato'
p3187
I3
sS'go'
p3188
I5
sS'gm'
p3189
I12
sS'compact'
p3190
I2
sS'excludes'
p3191
I2
sS'arrogance'
p3192
I2
sS'uninformative'
p3193
I2
sS'topic'
p3194
I3
sS'excluded'
p3195
I2
sS'cluttered'
p3196
I2
sS'friendly'
p3197
I2
sS'murderous'
p3198
I2
sS'wave'
p3199
I2
sS'wash.'
p3200
I3
sS'cellular'
p3201
I2
sS'g.'
p3202
I2
sS'meant'
p3203
I4
sS'positions'
p3204
I4
sS'unusual'
p3205
I3
sS'michael'
p3206
I5
sS'watered'
p3207
I2
sS'8.95'
p3208
I3
sS'verdict'
p3209
I2
sS'guber'
p3210
I9
sS'2.25'
p3211
I2
sS'carter'
p3212
I2
sS'picket'
p3213
I2
sS'arbitragers'
p3214
I2
sS'graying'
p3215
I2
sS'picked'
p3216
I4
sS'plays'
p3217
I5
sS'bluntly'
p3218
I2
sS'espresso'
p3219
I2
sS'cell'
p3220
I3
sS'collins'
p3221
I5
sS';'
I78
sS'nicholas'
p3222
I5
sS'marketer'
p3223
I2
sS'brunei'
p3224
I2
sS'focuses'
p3225
I2
sS'filings'
p3226
I5
sS'stance'
p3227
I2
sS'commercial'
p3228
I16
sS'following'
p3229
I6
sS'focused'
p3230
I2
sS'affidavits'
p3231
I2
sS'webster'
p3232
I2
sS'convert'
p3233
I2
sS'morsels'
p3234
I2
sS'neurosurgeon'
p3235
I3
sS'products'
p3236
I17
sS'oversees'
p3237
I2
sS'gene'
p3238
I12
sS'deterrents'
p3239
I2
sS'examining'
p3240
I2
sS'felled'
p3241
I2
sS'danger'
p3242
I2
sS'win'
p3243
I3
sS'manage'
p3244
I2
sS'clout'
p3245
I2
sS'diversion'
p3246
I2
sS'cloud'
p3247
I2
sS'metaphor'
p3248
I2
sS'remains'
p3249
I5
sS'adversary'
p3250
I2
sS'hudson'
p3251
I3
sS'camera'
p3252
I2
sS'means'
p3253
I7
sS'hiding'
p3254
I2
sS'historically'
p3255
I2
sS'reflects'
p3256
I5
sS'bureaucracy'
p3257
I3
sS'started'
p3258
I7
sS'tennis'
p3259
I3
sS'benchmark'
p3260
I2
sS'visibility'
p3261
I2
sS'missile'
p3262
I2
sS'mitsubishi'
p3263
I3
sS'rivalry'
p3264
I2
sS'appointed'
p3265
I2
sS'announcing'
p3266
I2
sS'sanctions'
p3267
I2
sS'ride'
p3268
I4
sS'recession'
p3269
I3
sS'crossed'
p3270
I3
sS'servants'
p3271
I2
sS'meet'
p3272
I6
sS'drops'
p3273
I2
sS'stoll'
p3274
I12
sS'control'
p3275
I20
sS'beijing'
p3276
I2
sS'links'
p3277
I2
sS'rejoining'
p3278
I2
sS'evans-black'
p3279
I2
sS'pulling'
p3280
I2
sS'dictation'
p3281
I2
sS'sought'
p3282
I5
sS'hit'
p3283
I5
sS'fearsome'
p3284
I2
sS'hesitate'
p3285
I2
sS'meanwhile'
p3286
I6
sS'arrangement'
p3287
I3
sS'ferdinand'
p3288
I2
sS'blackstone'
p3289
I3
sS'immoral'
p3290
I2
sS'farm'
p3291
I2
sS'ronald'
p3292
I2
sS'sardinia'
p3293
I2
sS'spelling'
p3294
I2
sS'agenda'
p3295
I3
sS'healthcare'
p3296
I15
sS'executives'
p3297
I17
sS'soggy'
p3298
I3
sS'136,800'
p3299
I2
sS'alliance'
p3300
I2
sS'including'
p3301
I22
sS'costume'
p3302
I3
sS'mentioned'
p3303
I2
sS'brood'
p3304
I2
sS'temporal'
p3305
I2
sS'melloan'
p3306
I2
sS'auto'
p3307
I13
sS'sweets'
p3308
I2
sS'hands'
p3309
I7
sS'front'
p3310
I4
sS'handy'
p3311
I2
sS'literacy'
p3312
I2
sS'101.225'
p3313
I2
sS'university'
p3314
I15
sS'boringly'
p3315
I2
sS'registrations'
p3316
I3
sS'slide'
p3317
I4
sS'commonwealth'
p3318
I2
sS'inputs'
p3319
I2
sS'chunk'
p3320
I2
sS'700'
p3321
I4
sS'sands'
p3322
I2
sS'variety'
p3323
I2
sS'measure'
p3324
I5
sS'margins'
p3325
I3
sS'sandy'
p3326
I2
sS'gallant'
p3327
I2
sS'sandor'
p3328
I2
sS'entertainment'
p3329
I11
sS'strokes'
p3330
I3
sS'siena'
p3331
I2
sS'cause'
p3332
I5
sS'dissented'
p3333
I2
sS'alleged'
p3334
I4
sS'knuckles'
p3335
I2
sS'ill.'
p3336
I2
sS'completely'
p3337
I2
sS'intruder'
p3338
I2
sS'improvisational'
p3339
I2
sS'232.4'
p3340
I2
sS'20,000'
p3341
I2
sS'hostile'
p3342
I7
sS'determining'
p3343
I2
sS'diminished'
p3344
I3
sS'membership'
p3345
I5
sS'times'
p3346
I10
sS'counterpart'
p3347
I2
sS'acres'
p3348
I2
sS'timed'
p3349
I2
sS'austin'
p3350
I3
sS'justifying'
p3351
I2
sS'prospective'
p3352
I2
sS'succeeds'
p3353
I3
sS'zero-sum'
p3354
I2
sS'powerful'
p3355
I3
sS'unsupported'
p3356
I3
sS'cardiac'
p3357
I2
sS'drinker'
p3358
I3
sS'precisely'
p3359
I3
sS'quality'
p3360
I3
sS'management'
p3361
I17
sS'durable'
p3362
I2
sS'relations'
p3363
I7
sS'attach'
p3364
I2
sS'attack'
p3365
I4
sS'tourists'
p3366
I2
sS'exactly'
p3367
I3
sS'picturesquely'
p3368
I2
sS'countercultural'
p3369
I2
sS'bassist'
p3370
I2
sS'manipulation'
p3371
I3
sS'fuzzy'
p3372
I2
sS'overwhelming'
p3373
I2
sS'outline'
p3374
I2
sS'photograph'
p3375
I2
sS'9.7'
p3376
I3
sS'submitted'
p3377
I3
sS'claim'
p3378
I10
sS'soviets'
p3379
I17
sS'providing'
p3380
I2
sS'distinguished'
p3381
I2
sS'bet'
p3382
I2
sS'borden'
p3383
I4
sS'julian'
p3384
I2
sS'unchanged'
p3385
I6
sS'goldberg'
p3386
I2
sS'2.2'
p3387
I2
sS'need'
p3388
I7
sS'border'
p3389
I2
sS'instrumentation'
p3390
I3
sS'pursued'
p3391
I2
sS'able'
p3392
I16
sS'battles'
p3393
I2
sS'arm'
p3394
I5
sS'instance'
p3395
I3
sS'relatives'
p3396
I2
sS'issuing'
p3397
I2
sS'2.5'
p3398
I2
sS'ind.'
p3399
I2
sS'coke'
p3400
I14
sS'refocusing'
p3401
I2
sS'mileage'
p3402
I2
sS'duels'
p3403
I2
sS'fibreboard'
p3404
I2
sS'passionately'
p3405
I2
sS'expires'
p3406
I3
sS'learns'
p3407
I2
sS'demise'
p3408
I2
sS'nuisance'
p3409
I2
sS'intrinsic'
p3410
I2
sS'132.00'
p3411
I2
sS'delivery'
p3412
I4
sS'consequences'
p3413
I3
sS'8.25'
p3414
I2
sS'scrambled'
p3415
I2
sS'daiwa'
p3416
I2
sS'conventional-arms'
p3417
I3
sS'impression'
p3418
I3
sS'emerging'
p3419
I2
sS'parker'
p3420
I2
sS'sent'
p3421
I7
sS'partners'
p3422
I4
sS'based'
p3423
I17
sS'earned'
p3424
I3
sS'('
I65
sS'winner'
p3425
I2
sS'employer'
p3426
I2
sS'lightest'
p3427
I2
sS'bases'
p3428
I4
sS'employee'
p3429
I2
sS'employed'
p3430
I4
sS'michigan'
p3431
I4
sS'overall'
p3432
I6
sS'mgm'
p3433
I2
sS'sipping'
p3434
I2
sS'120'
p3435
I3
sS'joint'
p3436
I16
sS'122'
p3437
I3
sS'legitimate'
p3438
I2
sS'joins'
p3439
I3
sS'downturn'
p3440
I2
sS'buyer'
p3441
I3
sS'kong'
p3442
I8
sS'procedures'
p3443
I3
sS'gray'
p3444
I2
sS'processes'
p3445
I3
sS'tobacco'
p3446
I3
sS'course'
p3447
I6
sS'imperious'
p3448
I2
sS'evaders'
p3449
I2
sS'dpc'
p3450
I2
sS'she'
p3451
I11
sS'insist'
p3452
I3
sS'grab'
p3453
I2
sS'official'
p3454
I14
sS'humans'
p3455
I2
sS'34.2'
p3456
I2
sS'inkling'
p3457
I2
sS'officials'
p3458
I23
sS'usefulness'
p3459
I3
sS'desperate'
p3460
I2
sS'operated'
p3461
I2
sS'written'
p3462
I3
sS'tens'
p3463
I2
sS'neither'
p3464
I5
sS'sabotage'
p3465
I2
sS'comparable'
p3466
I4
sS'attention'
p3467
I7
sS'spares'
p3468
I2
sS'importance'
p3469
I2
sS'interfere'
p3470
I2
sS'efficiency'
p3471
I3
sS'key'
p3472
I6
sS'one-stop'
p3473
I2
sS'precious'
p3474
I2
sS'hits'
p3475
I3
sS'2.45'
p3476
I2
sS'limits'
p3477
I6
sS'career'
p3478
I4
sS'minds'
p3479
I3
sS'strains'
p3480
I2
sS'revitalized'
p3481
I3
sS'jersey'
p3482
I5
sS'tuesday'
p3483
I10
sS'quit'
p3484
I2
sS'addition'
p3485
I5
sS'wills'
p3486
I2
sS'slowly'
p3487
I2
sS'industriale'
p3488
I2
sS'controlled'
p3489
I3
sS'league'
p3490
I8
sS'chivas'
p3491
I8
sS'novel'
p3492
I2
sS'countermove'
p3493
I2
sS'owns'
p3494
I8
sS'resident'
p3495
I2
sS'4.55'
p3496
I2
sS'7.160'
p3497
I2
sS'began'
p3498
I3
sS'campus'
p3499
I2
sS'parts'
p3500
I4
sS'northwest'
p3501
I5
sS'incumbent'
p3502
I2
sS'party'
p3503
I8
sS'inc'
p3504
I13
sS'promoters'
p3505
I2
sS'appearances'
p3506
I2
sS'effect'
p3507
I7
sS'mediobanca'
p3508
I3
sS'frequently'
p3509
I3
sS'spree'
p3510
I2
sS'impeccable'
p3511
I2
sS'single'
p3512
I4
sS'destruction'
p3513
I3
sS'transaction'
p3514
I14
sS'i'
I75
sS'modeled'
p3515
I2
sS'well'
p3516
I17
sS'corporation'
p3517
I9
sS'spy-chaser'
p3518
I2
sS'evenhanded'
p3519
I2
sS'increasingly'
p3520
I4
sS'sources'
p3521
I3
sS'mistakes'
p3522
I2
sS'laurel'
p3523
I6
sS'hess'
p3524
I4
sS'high-grade'
p3525
I3
sS'stock-picking'
p3526
I2
sS'deposits'
p3527
I3
sS'nato'
p3528
I8
sS'mitre'
p3529
I2
sS'sventek'
p3530
I3
sS'warrant'
p3531
I3
sS'canter'
p3532
I3
sS'definitive'
p3533
I2
sS'fate'
p3534
I2
sS'devised'
p3535
I2
sS'crushed'
p3536
I2
sS'breach-of-contract'
p3537
I2
sS'historic'
p3538
I2
sS'267'
p3539
I2
sS'burden'
p3540
I3
sS'turbulence'
p3541
I2
sS'prominent'
p3542
I2
sS'loss'
p3543
I3
sS'candu'
p3544
I2
sS'necessary'
p3545
I7
sS'lost'
p3546
I9
sS'teenagers'
p3547
I2
sS'stevenson'
p3548
I3
sS'payments'
p3549
I13
sS'guise'
p3550
I2
sS'lose'
p3551
I8
sS'truckee'
p3552
I2
sS'shed'
p3553
I2
sS'eurobond'
p3554
I2
sS'motive'
p3555
I2
sS'repeat'
p3556
I2
sS'cleveland'
p3557
I2
sS'home'
p3558
I19
sS'peter'
p3559
I6
sS'leery'
p3560
I2
sS'demonstrates'
p3561
I2
sS"o'kicki"
p3562
I14
sS'filers'
p3563
I4
sS'intersections'
p3564
I2
sS'?'
I22
sS'reaching'
p3565
I2
sS'journal'
p3566
I8
sS'monetary'
p3567
I2
sS'expansion'
p3568
I3
sS'ridley'
p3569
I10
sS'90,000'
p3570
I2
sS'unhinged'
p3571
I2
sS'freedom'
p3572
I4
sS'cleans'
p3573
I2
sS'recognized'
p3574
I3
sS'23.4'
p3575
I2
sS'stakes'
p3576
I3
sS'equally'
p3577
I2
sS'previously'
p3578
I7
sS'political'
p3579
I13
sS'washington'
p3580
I8
sS'h.'
p3581
I2
sS'utility'
p3582
I3
sS'accused'
p3583
I6
sS'additional'
p3584
I6
sS'lagged'
p3585
I2
sS'imperial'
p3586
I4
sS'inner'
p3587
I3
sS'jealously'
p3588
I2
sS'north'
p3589
I8
sS'99.75'
p3590
I2
sS'administrators'
p3591
I2
sS'goals'
p3592
I2
sS'courts'
p3593
I3
sS'highest'
p3594
I4
sS'25-year-old'
p3595
I2
sS'brick'
p3596
I2
sS's.p'
p3597
I4
sS'he'
p3598
I241
sS'signed'
p3599
I3
sS'converted'
p3600
I2
sS'limit'
p3601
I5
sS'piece'
p3602
I5
sS'display'
p3603
I2
sS'urging'
p3604
I4
sS'devise'
p3605
I3
sS'reservations'
p3606
I2
sS'beatrice'
p3607
I2
sS'dialogue'
p3608
I3
sS'upsets'
p3609
I2
sS'education'
p3610
I3
sS'diego'
p3611
I2
sS'functions'
p3612
I2
sS'contest'
p3613
I2
sS'offensive'
p3614
I2
sS'policy-making'
p3615
I2
sS'trunkline'
p3616
I2
sS'disposing'
p3617
I2
sS'stay'
p3618
I4
sS'additionally'
p3619
I2
sS'deter'
p3620
I3
sS'friends'
p3621
I3
sS'persistent'
p3622
I2
sS'portion'
p3623
I3
sS'diagnosis'
p3624
I2
sS'theory-teaching'
p3625
I2
sS'moshe'
p3626
I2
sS'frankfurt'
p3627
I3
sS'retirees'
p3628
I2
sS'uzbekistan'
p3629
I2
sS'obstruction'
p3630
I2
sS'protest'
p3631
I5
sS'asian'
p3632
I4
sS'aides'
p3633
I6
sS'consists'
p3634
I3
sS'undersecretary'
p3635
I2
sS'captain'
p3636
I2
sS'whose'
p3637
I12
sS'calculate'
p3638
I2
sS'marcos'
p3639
I19
sS'swan'
p3640
I2
sS'crozier'
p3641
I2
sS'nominal'
p3642
I2
sS'swap'
p3643
I3
sS'cruising'
p3644
I2
sS'non-``'
p3645
I2
sS'flashpoint'
p3646
I2
sS'georgia'
p3647
I2
sS'reforms'
p3648
I4
sS'overcomes'
p3649
I2
sS'affect'
p3650
I5
sS'vast'
p3651
I3
sS'pilgrim'
p3652
I3
sS'moonies'
p3653
I3
sS'crops'
p3654
I7
sS'companies'
p3655
I24
sS'commons'
p3656
I3
sS'herbert'
p3657
I2
sS'convenience'
p3658
I2
sS'unrelated'
p3659
I3
sS'cholesterol'
p3660
I3
sS'heading'
p3661
I2
sS'force'
p3662
I10
sS'japanese'
p3663
I32
sS'likely'
p3664
I13
sS'southwide'
p3665
I2
sS'tangential'
p3666
I2
sS'afl-cio'
p3667
I2
sS'even'
p3668
I40
sS'spouses'
p3669
I3
sS'nec'
p3670
I2
sS'asia'
p3671
I8
sS'spokesman'
p3672
I11
sS'liberated'
p3673
I2
sS'3.35'
p3674
I2
sS'dr.'
p3675
I9
sS'new'
p3676
I115
sS'net'
p3677
I9
sS'ever'
p3678
I7
sS'deemed'
p3679
I2
sS'never'
p3680
I10
sS'disposable'
p3681
I3
sS'drew'
p3682
I4
sS'met'
p3683
I2
sS'109'
p3684
I2
sS'active'
p3685
I6
sS'price-cutting'
p3686
I2
sS'100'
p3687
I14
sS'101'
p3688
I4
sS'contraction'
p3689
I2
sS'dry'
p3690
I2
sS'vulnerability'
p3691
I2
sS'credit'
p3692
I9
sS'harass'
p3693
I2
sS'suitable'
p3694
I2
sS'avena'
p3695
I2
sS'besides'
p3696
I3
sS'campaign'
p3697
I6
sS'revenue-raising'
p3698
I2
sS'reagan'
p3699
I6
sS'county'
p3700
I15
sS'ninety'
p3701
I2
sS'moral'
p3702
I2
sS'guests'
p3703
I2
sS'criminals'
p3704
I2
sS'army'
p3705
I2
sS'watering'
p3706
I2
sS'arms'
p3707
I6
sS'call'
p3708
I7
sS'calm'
p3709
I2
sS'survive'
p3710
I3
sS'type'
p3711
I3
sS'tell'
p3712
I3
sS'supporters'
p3713
I2
sS'wary'
p3714
I2
sS'composite'
p3715
I3
sS'wars'
p3716
I2
sS'berlin'
p3717
I2
sS'warm'
p3718
I3
sS'adult'
p3719
I2
sS'aligned'
p3720
I2
sS'2.68'
p3721
I2
sS'rights'
p3722
I24
sS'gasoline'
p3723
I2
sS'movies'
p3724
I6
sS'laid-back'
p3725
I2
sS'akio'
p3726
I2
sS'give'
p3727
I13
sS'laughs'
p3728
I2
sS'lafalce'
p3729
I3
sS'involve'
p3730
I4
sS'10,000'
p3731
I5
sS'foods'
p3732
I2
sS'degenerate'
p3733
I2
sS'szeto'
p3734
I2
sS'advancing'
p3735
I2
sS'aging'
p3736
I2
sS'sideline'
p3737
I2
sS'amazing'
p3738
I3
sS'answer'
p3739
I3
sS'faulty'
p3740
I2
sS'massive'
p3741
I2
sS'minority'
p3742
I7
sS'disassemble'
p3743
I2
sS'vicious'
p3744
I2
sS'president'
p3745
I70
sS'purchase'
p3746
I13
sS'attempt'
p3747
I4
sS'third'
p3748
I10
sS'baa-1'
p3749
I2
sS'maintain'
p3750
I5
sS'uninsured'
p3751
I2
sS'fraudulently'
p3752
I2
sS'operate'
p3753
I3
sS'operations'
p3754
I13
sS'murray'
p3755
I2
sS'before'
p3756
I22
sS'10.2'
p3757
I2
sS'personal'
p3758
I12
sS'soaking'
p3759
I2
sS','
I2182
sS'better'
p3760
I12
sS'encounter'
p3761
I2
sS'enlisted'
p3762
I2
sS'weeks'
p3763
I12
sS'overcome'
p3764
I2
sS'dec.'
p3765
I5
sS'sterilization'
p3766
I2
sS'weakness'
p3767
I2
sS'unemployed'
p3768
I2
sS'academics'
p3769
I2
sS'therapy'
p3770
I3
sS'pollution-control'
p3771
I3
sS'arrested'
p3772
I2
sS'schieffelin'
p3773
I2
sS'pollen-producing'
p3774
I2
sS'fringes'
p3775
I2
sS'doubleday'
p3776
I2
sS'went'
p3777
I7
sS'side'
p3778
I7
sS'mean'
p3779
I8
sS'principles'
p3780
I3
sS'marital'
p3781
I6
sS'milan'
p3782
I3
sS'used'
p3783
I12
sS'trading'
p3784
I15
sS'stealing'
p3785
I2
sS'clauses'
p3786
I2
sS'dawn'
p3787
I2
sS'contend'
p3788
I3
sS'velvet'
p3789
I2
sS'second-level'
p3790
I2
sS'content'
p3791
I3
sS'surprise'
p3792
I4
sS'sluggish'
p3793
I3
sS'tashi'
p3794
I3
sS'turning'
p3795
I4
sS'11.08'
p3796
I2
sS'u.s.'
p3797
I91
sS'ascending'
p3798
I2
sS'ramos'
p3799
I2
sS'aisle'
p3800
I2
sS'starts'
p3801
I2
sS'signature'
p3802
I2
sS'stewart'
p3803
I3
sS'features'
p3804
I3
sS'economists'
p3805
I4
sS'reassure'
p3806
I2
sS'comforted'
p3807
I2
sS'executions'
p3808
I3
sS'featured'
p3809
I3
sS'plurality'
p3810
I2
sS'ditch'
p3811
I3
sS'feb.'
p3812
I3
sS'38-year-old'
p3813
I2
sS'overstating'
p3814
I2
sS'woodwind'
p3815
I2
sS'burgess'
p3816
I2
sS'hollywood'
p3817
I2
sS'digs'
p3818
I2
sS'georgia-pacific'
p3819
I2
sS'somewhat'
p3820
I2
sS'begins'
p3821
I2
sS'distance'
p3822
I4
sS'anxiety'
p3823
I2
sS'matter'
p3824
I5
sS'fabulous'
p3825
I2
sS'silly'
p3826
I3
sS'divisiveness'
p3827
I2
sS'enables'
p3828
I2
sS'bidder'
p3829
I4
sS'sees'
p3830
I3
sS'chickens'
p3831
I2
sS'mind'
p3832
I2
sS'eyes'
p3833
I3
sS'seed'
p3834
I10
sS'seen'
p3835
I3
sS'seem'
p3836
I4
sS'seek'
p3837
I6
sS'tells'
p3838
I2
sS'estimated'
p3839
I11
sS'50.46'
p3840
I2
sS'transnational'
p3841
I2
sS'gabele'
p3842
I2
sS'regular'
p3843
I2
sS'holliger'
p3844
I2
sS'maria'
p3845
I2
sS'zealand'
p3846
I12
sS'don'
p3847
I2
sS'medical'
p3848
I5
sS'points'
p3849
I9
sS'principle'
p3850
I3
sS'consumer'
p3851
I12
sS'dow'
p3852
I9
sS'double-a'
p3853
I2
sS'retire'
p3854
I3
sS'liberty'
p3855
I5
sS'stepping'
p3856
I2
sS'judges'
p3857
I6
sS'northeast'
p3858
I2
sS'representing'
p3859
I2
sS'explain'
p3860
I2
sS'debts'
p3861
I4
sS'integrate'
p3862
I2
sS'jailed'
p3863
I3
sS'wearing'
p3864
I3
sS'praised'
p3865
I2
sS'exports'
p3866
I2
sS'stop'
p3867
I3
sS'coast'
p3868
I3
sS'equity-purchase'
p3869
I3
sS'765'
p3870
I2
sS'u.n.'
p3871
I4
sS'tymnet'
p3872
I2
sS'earl'
p3873
I2
sS'earn'
p3874
I2
sS'bar'
p3875
I6
sS'sailing'
p3876
I2
sS'fields'
p3877
I3
sS'rothschild'
p3878
I2
sS'bay'
p3879
I4
sS'bad'
p3880
I2
sS'architecture'
p3881
I2
sS'rival'
p3882
I2
sS'ban'
p3883
I2
sS'ethical'
p3884
I2
sS'fascinating'
p3885
I2
sS'testing'
p3886
I2
sS'allure'
p3887
I2
sS'half-an-hour'
p3888
I3
sS'subject'
p3889
I8
sS'brazil'
p3890
I3
sS'said'
p3891
I255
sS'fastballs'
p3892
I2
sS'continent'
p3893
I2
sS'2120.5'
p3894
I2
sS'tolerance'
p3895
I2
sS'glossy'
p3896
I3
sS'gems'
p3897
I2
sS'juxtapose'
p3898
I2
sS'vows'
p3899
I2
sS'vernon'
p3900
I2
sS'picking'
p3901
I2
sS'suggested'
p3902
I5
sS'disorderly'
p3903
I2
sS'resistant'
p3904
I3
sS'uncertainty'
p3905
I3
sS'pollinated'
p3906
I3
sS'against'
p3907
I45
sS'nekoosa'
p3908
I2
sS'appeared'
p3909
I2
sS'tiant'
p3910
I3
sS'offerings'
p3911
I2
sS'ballparks'
p3912
I2
sS'initiative'
p3913
I2
sS'39.125'
p3914
I2
sS'asks'
p3915
I3
sS'basis'
p3916
I5
sS'three'
p3917
I24
sS'tiny'
p3918
I2
sS'particulars'
p3919
I2
sS'commission'
p3920
I10
sS'interest'
p3921
I35
sS'basic'
p3922
I4
sS'basin'
p3923
I4
sS'lovely'
p3924
I4
sS'threw'
p3925
I3
sS'deeper'
p3926
I2
sS'mci'
p3927
I2
sS'dismiss'
p3928
I2
sS'mca'
p3929
I5
sS'watchers'
p3930
I2
sS'jewels'
p3931
I2
sS'personally'
p3932
I3
sS'aviation'
p3933
I2
sS'tank'
p3934
I2
sS'vendetta'
p3935
I2
sS'oboist'
p3936
I2
sS'economies'
p3937
I5
sS'auction'
p3938
I8
sS'near'
p3939
I9
sS'suppose'
p3940
I2
sS'balance'
p3941
I4
sS'study'
p3942
I2
sS'seven'
p3943
I5
sS'30-share'
p3944
I2
sS'metropolitan'
p3945
I3
sS'is'
p3946
I301
sS'it'
p3947
I235
sS'ii'
p3948
I3
sS'in'
p3949
I738
sS'80,000'
p3950
I2
sS'if'
p3951
I55
sS'grown'
p3952
I4
sS'bottles'
p3953
I3
sS'belle'
p3954
I2
sS'make'
p3955
I37
sS'stickier'
p3956
I2
sS'unfortunate'
p3957
I2
sS'sidelines'
p3958
I3
sS'meets'
p3959
I3
sS'condemnation'
p3960
I2
sS'human-rights'
p3961
I2
sS'delight'
p3962
I3
sS'8.62'
p3963
I2
sS'kim'
p3964
I3
sS'opportunity'
p3965
I4
sS'kid'
p3966
I2
sS'butter'
p3967
I3
sS'waggishly'
p3968
I2
sS'practiced'
p3969
I3
sS'programs'
p3970
I9
sS'settled'
p3971
I3
sS'stimuli'
p3972
I2
sS'materials'
p3973
I2
sS'claims'
p3974
I7
sS'800'
p3975
I4
sS'investments'
p3976
I10
sS'left'
p3977
I9
sS'gov.'
p3978
I2
sS'protocol'
p3979
I2
sS'just'
p3980
I27
sS'sentence'
p3981
I2
sS'sporting'
p3982
I2
sS'human'
p3983
I4
sS'yet'
p3984
I12
sS'yew'
p3985
I2
sS'candidate'
p3986
I2
sS'legion'
p3987
I2
sS'save'
p3988
I2
sS'jahn'
p3989
I3
sS'braumeisters'
p3990
I2
sS'supervisors'
p3991
I2
sS'background'
p3992
I2
sS'wanting'
p3993
I2
sS'dignity'
p3994
I2
sS'profit-seeking'
p3995
I2
sS'unnecessary'
p3996
I3
sS'brunswick'
p3997
I2
sS'private-sector'
p3998
I2
sS'dean'
p3999
I3
sS'deal'
p4000
I10
sS'somehow'
p4001
I3
sS'short-term'
p4002
I8
sS'separately'
p4003
I5
sS'unfit'
p4004
I2
sS'theatre'
p4005
I2
sS'78.64'
p4006
I2
sS'outspoken'
p4007
I2
sS'single-family'
p4008
I2
sS'motor-control'
p4009
I3
sS'bold'
p4010
I2
sS'bank-backed'
p4011
I2
sS'burn'
p4012
I2
sS'confrontation'
p4013
I3
sS'magazine'
p4014
I4
sS'afternoon'
p4015
I4
sS'resold'
p4016
I2
sS'automatically'
p4017
I5
sS'nerve'
p4018
I4
sS'motivate'
p4019
I2
sS'managers'
p4020
I5
sS'formerly'
p4021
I4
sS'amounted'
p4022
I2
sS'down'
p4023
I32
sS'pair'
p4024
I2
sS'thinned'
p4025
I2
sS'cardiff'
p4026
I2
sS'amsterdam'
p4027
I2
sS'initial'
p4028
I5
sS'lowering'
p4029
I2
sS'ifint'
p4030
I4
sS'editor'
p4031
I4
sS'fraction'
p4032
I2
sS'at-bat'
p4033
I2
sS'bert'
p4034
I2
sS'chiappa'
p4035
I2
sS'form'
p4036
I5
sS'immorality'
p4037
I2
sS'penney'
p4038
I5
sS'ford'
p4039
I17
sS'failure'
p4040
I4
sS'martex'
p4041
I2
sS'syndicate'
p4042
I3
sS'225'
p4043
I2
sS'analyst'
p4044
I10
sS'prevents'
p4045
I2
sS'attached'
p4046
I4
sS'stages'
p4047
I3
sS'long-distance'
p4048
I2
sS'one-third'
p4049
I3
sS'covers'
p4050
I2
sS'drive'
p4051
I4
sS'marking'
p4052
I2
sS'agreeing'
p4053
I2
sS'million-dollar'
p4054
I2
sS'generally'
p4055
I5
sS'handed'
p4056
I2
sS'digital'
p4057
I5
sS'exporter'
p4058
I2
sS'dies'
p4059
I3
sS'felt'
p4060
I4
sS'utilities'
p4061
I2
sS'fell'
p4062
I7
sS'resurfaced'
p4063
I2
sS'authorities'
p4064
I3
sS'weekend'
p4065
I2
sS'died'
p4066
I7
sS'jones'
p4067
I5
sS'assume'
p4068
I5
sS'annuity'
p4069
I3
sS'daily'
p4070
I5
sS'parcels'
p4071
I2
sS'profits'
p4072
I5
sS'overdue'
p4073
I3
sS'managed'
p4074
I3
sS'stimulator'
p4075
I2
sS'invent'
p4076
I2
sS'manager'
p4077
I9
sS'mile'
p4078
I3
sS'leche'
p4079
I4
sS'mill'
p4080
I2
sS'milk'
p4081
I10
sS'anticipation'
p4082
I2
sS'flaherty'
p4083
I2
sS'disorders'
p4084
I2
sS'technique'
p4085
I8
sS'father'
p4086
I3
sS'editors'
p4087
I2
sS'finally'
p4088
I5
sS'unpleasant'
p4089
I2
sS'emasculation'
p4090
I2
sS'marks'
p4091
I4
sS'misstatements'
p4092
I2
sS'advises'
p4093
I2
sS'ballooning'
p4094
I4
sS'keck'
p4095
I2
sS'string'
p4096
I2
sS'tnt'
p4097
I3
sS'lynch'
p4098
I4
sS'uneventful'
p4099
I2
sS'advised'
p4100
I2
sS'66-year-old'
p4101
I2
sS'governments'
p4102
I7
sS'1997'
p4103
I3
sS'did'
p4104
I27
sS'permits'
p4105
I2
sS'proposals'
p4106
I6
sS'itel'
p4107
I3
sS'item'
p4108
I3
sS'59-dealer'
p4109
I2
sS'attracting'
p4110
I3
sS'unexpected'
p4111
I2
sS'dealing'
p4112
I2
sS'telerate'
p4113
I3
sS'diapers'
p4114
I2
sS'stamford'
p4115
I3
sS'run'
p4116
I8
sS'targets'
p4117
I3
sS'21.44'
p4118
I2
sS'majors'
p4119
I5
sS'adds'
p4120
I3
sS'troops'
p4121
I2
sS'page-one'
p4122
I2
sS'norris'
p4123
I4
sS'10-point'
p4124
I2
sS'suspect'
p4125
I2
sS'international'
p4126
I22
sS'growls'
p4127
I2
sS'proclaiming'
p4128
I2
sS'transportation'
p4129
I3
sS'wain'
p4130
I2
sS'wail'
p4131
I2
sS'clerk'
p4132
I2
sS'involuntarily'
p4133
I2
sS'french'
p4134
I9
sS'polyrhythms'
p4135
I2
sS'dewar'
p4136
I2
sS'earthquake'
p4137
I3
sS'box'
p4138
I2
sS'cuckoo'
p4139
I4
sS'canadian'
p4140
I11
sS'institute'
p4141
I5
sS'salvage'
p4142
I2
sS'suggestion'
p4143
I2
sS'priceless'
p4144
I2
sS'bob'
p4145
I2
sS'taipei'
p4146
I2
sS'adjustable'
p4147
I3
sS'useful'
p4148
I4
sS'merely'
p4149
I3
sS'hindemith'
p4150
I2
sS'licensing'
p4151
I2
sS'spring-early'
p4152
I2
sS'panhandle'
p4153
I3
sS'sympathetic'
p4154
I2
sS'estate'
p4155
I13
sS'france'
p4156
I5
sS'creamy'
p4157
I2
sS'lorenzo'
p4158
I2
sS'johnstown'
p4159
I4
sS'sharing'
p4160
I2
sS'fine-tuned'
p4161
I2
sS'acceptable'
p4162
I2
sS'tandem'
p4163
I2
sS'withdrawn'
p4164
I2
sS'realty'
p4165
I2
sS'effort'
p4166
I4
sS'fly'
p4167
I3
sS'tokyo'
p4168
I10
sS'soul'
p4169
I2
sS'wallet'
p4170
I2
sS'growing'
p4171
I9
sS'making'
p4172
I11
sS'dispute'
p4173
I13
sS'nearest'
p4174
I2
sS'uruguay'
p4175
I2
sS'lobbying'
p4176
I2
sS'agent'
p4177
I2
sS'sample'
p4178
I2
sS'pointedly'
p4179
I2
sS'non-invasive'
p4180
I3
sS'council'
p4181
I3
sS'spanning'
p4182
I2
sS'pro-'
p4183
I2
sS'pine'
p4184
I3
sS'galbani'
p4185
I2
sS'chemical'
p4186
I8
sS'pure'
p4187
I2
sS'tile'
p4188
I2
sS'sworn'
p4189
I3
sS'ceremony'
p4190
I2
sS'145'
p4191
I2
sS'140'
p4192
I2
sS'may'
p4193
I41
sS'149'
p4194
I2
sS'mac'
p4195
I5
sS'mae'
p4196
I8
sS'designed'
p4197
I4
sS'epileptics'
p4198
I2
sS'aisles'
p4199
I2
sS'grow'
p4200
I4
sS'pressuring'
p4201
I2
sS'man'
p4202
I8
sS'relinquish'
p4203
I2
sS'scrambling'
p4204
I2
sS'hannover'
p4205
I2
sS'neck'
p4206
I2
sS'johnson'
p4207
I4
sS'maybe'
p4208
I5
sS'borrowing'
p4209
I4
sS'tale'
p4210
I3
sS'switch'
p4211
I2
sS'deposit'
p4212
I5
sS'african'
p4213
I4
sS'basket'
p4214
I6
sS'talk'
p4215
I7
sS'nearly'
p4216
I9
sS'shoes'
p4217
I2
sS'canberra'
p4218
I2
sS'seeing'
p4219
I3
sS'wishing'
p4220
I2
sS'argues'
p4221
I2
sS'cuts'
p4222
I2
sS'argued'
p4223
I7
sS'group'
p4224
I38
sS'monitor'
p4225
I4
sS'interesting'
p4226
I3
sS'undermined'
p4227
I2
sS'pontiac-cadillac'
p4228
I2
sS'policy'
p4229
I8
sS'mail'
p4230
I5
sS'mcenaney'
p4231
I3
sS'main'
p4232
I3
sS'sterility'
p4233
I2
sS'texas'
p4234
I16
sS'finance'
p4235
I8
sS'views'
p4236
I3
sS'impulses'
p4237
I3
sS'undisclosed'
p4238
I2
sS'sooner'
p4239
I2
sS'killed'
p4240
I2
sS'possess'
p4241
I2
sS'attorneys'
p4242
I3
sS'careless'
p4243
I2
sS'rock'
p4244
I2
sS'scolded'
p4245
I2
sS'zurich'
p4246
I2
sS's&p'
p4247
I7
sS's&l'
p4248
I5
sS'whirlwinds'
p4249
I2
sS'relive'
p4250
I2
sS'canada'
p4251
I12
sS'living'
p4252
I2
sS'deficit-reduction'
p4253
I2
sS'enjoyable'
p4254
I2
sS'bailout'
p4255
I7
sS'correct'
p4256
I3
sS'earlier'
p4257
I20
sS'mercantile'
p4258
I2
sS'hefty'
p4259
I2
sS'wildbad'
p4260
I2
sS'california'
p4261
I8
sS'keith'
p4262
I2
sS'220,000'
p4263
I2
sS'advance'
p4264
I4
sS'underwear'
p4265
I2
sS'carnival'
p4266
I2
sS'suisse'
p4267
I3
sS'thing'
p4268
I6
sS'economic-forecasting'
p4269
I2
sS'think'
p4270
I14
sS'frequent'
p4271
I5
sS'first'
p4272
I43
sS'exotic'
p4273
I2
sS'americans'
p4274
I7
sS'fast'
p4275
I3
sS'suspended'
p4276
I3
sS'carry'
p4277
I6
sS'corporations'
p4278
I9
sS'sounds'
p4279
I2
sS'rome'
p4280
I2
sS'single-b-1'
p4281
I2
sS'little'
p4282
I14
sS'single-b-3'
p4283
I2
sS'slept'
p4284
I2
sS'anyone'
p4285
I5
sS'speaking'
p4286
I2
sS'mining'
p4287
I2
sS'allegedly'
p4288
I3
sS'streaked'
p4289
I2
sS'moscow'
p4290
I7
sS'pompano'
p4291
I2
sS'sequels'
p4292
I2
sS'ricca'
p4293
I2
sS'once-cozy'
p4294
I2
sS'bio-analytical'
p4295
I2
sS'11'
p4296
I9
sS'10'
p4297
I31
sS'13'
p4298
I7
sS'12'
p4299
I8
sS'15'
p4300
I20
sS'14'
p4301
I5
sS'17'
p4302
I5
sS'16'
p4303
I6
sS'19'
p4304
I9
sS'18'
p4305
I5
sS'protected'
p4306
I2
sS'swearing-in'
p4307
I2
sS'venture'
p4308
I17
sS'were'
p4309
I85
sS'gathering'
p4310
I2
sS'briefs'
p4311
I2
sS'voices'
p4312
I3
sS'conspiracy'
p4313
I2
sS'pastry'
p4314
I4
sS'stigma'
p4315
I2
sS'warsaw'
p4316
I5
sS'answering'
p4317
I2
sS'shocked'
p4318
I2
sS'potential'
p4319
I10
sS'performance'
p4320
I8
sS'1,250'
p4321
I2
sS'channel'
p4322
I2
sS'200'
p4323
I3
sS'norman'
p4324
I2
sS'trace'
p4325
I2
sS'normal'
p4326
I2
sS'track'
p4327
I2
sS'208'
p4328
I2
sS'kuehn'
p4329
I4
sS'paid'
p4330
I12
sS'sheets'
p4331
I2
sS'complaints'
p4332
I2
sS'tracy'
p4333
I2
sS'proxies'
p4334
I2
sS'conlon'
p4335
I3
sS'12,500'
p4336
I2
sS'especially'
p4337
I3
sS'172.5'
p4338
I2
sS'obligatto'
p4339
I2
sS'georgeson'
p4340
I2
sS'rating'
p4341
I6
sS'show'
p4342
I9
sS'delta'
p4343
I3
sS'contemporary'
p4344
I4
sS'rep.'
p4345
I7
sS'cambodian'
p4346
I3
sS'forecast'
p4347
I2
sS'specifically'
p4348
I3
sS'dice'
p4349
I2
sS'enough'
p4350
I5
sS'black'
p4351
I10
sS'treasury'
p4352
I22
sS'awareness'
p4353
I2
sS'ranking'
p4354
I2
sS'savoring'
p4355
I2
sS'get'
p4356
I21
sS'contracts'
p4357
I4
sS'pricings'
p4358
I2
sS'employers'
p4359
I3
sS'hailed'
p4360
I2
sS'procreation'
p4361
I2
sS'conjunction'
p4362
I2
sS'secondary'
p4363
I3
sS'yield'
p4364
I18
sS'morning'
p4365
I5
sS'miles'
p4366
I3
sS'audited'
p4367
I2
sS'declared'
p4368
I3
sS'seat'
p4369
I5
sS'j.'
p4370
I9
sS'misconduct'
p4371
I2
sS'unaltered'
p4372
I2
sS'wonder'
p4373
I4
sS'indicted'
p4374
I2
sS'label'
p4375
I4
sS'behind'
p4376
I4
sS'sihanouk'
p4377
I3
sS'metromedia-itt'
p4378
I2
sS'geometric'
p4379
I2
sS'reading'
p4380
I2
sS'across'
p4381
I4
sS'infrastructure'
p4382
I2
sS'august'
p4383
I15
sS'parent'
p4384
I3
sS'signaled'
p4385
I2
sS'oberstar'
p4386
I2
sS'dates'
p4387
I2
sS'trades'
p4388
I3
sS'according'
p4389
I21
sS'sketchy'
p4390
I2
sS'marietta'
p4391
I3
sS'patrons'
p4392
I2
sS'holders'
p4393
I5
sS'traded'
p4394
I3
sS'among'
p4395
I18
sS'stretches'
p4396
I2
sS'maintained'
p4397
I3
sS'clambered'
p4398
I2
sS'specializing'
p4399
I2
sS'mare'
p4400
I2
sS'arts'
p4401
I2
sS'capable'
p4402
I2
sS'mark'
p4403
I2
sS'cecelia'
p4404
I2
sS'shopping'
p4405
I2
sS'offered'
p4406
I19
sS'cattrall'
p4407
I2
sS'dramatic'
p4408
I3
sS'wake'
p4409
I3
sS'declaration'
p4410
I2
sS'prof.'
p4411
I2
sS'odyssey'
p4412
I2
sS'those'
p4413
I31
sS'sound'
p4414
I2
sS'predicament'
p4415
I2
sS'stacked'
p4416
I2
sS'6.056'
p4417
I2
sS"n't"
p4418
I142
sS'warning'
p4419
I2
sS'margin'
p4420
I3
sS'inadvertence'
p4421
I2
sS'conferences'
p4422
I5
sS'then'
p4423
I29
sS'sincere'
p4424
I2
sS'them'
p4425
I38
sS'strain'
p4426
I2
sS'pressing'
p4427
I2
sS'tourist'
p4428
I3
sS'par'
p4429
I5
sS'harsh'
p4430
I2
sS'pay'
p4431
I29
sS'edwin'
p4432
I2
sS'same'
p4433
I9
sS'thinning'
p4434
I2
sS'speech'
p4435
I2
sS'arguments'
p4436
I4
sS'fireproofing'
p4437
I2
sS'1900s'
p4438
I2
sS'stepped'
p4439
I2
sS'buy-outs'
p4440
I2
sS'oil'
p4441
I5
sS'companion'
p4442
I3
sS'running'
p4443
I4
sS'totally'
p4444
I5
sS'drain'
p4445
I3
sS'businesslike'
p4446
I3
sS'markus'
p4447
I3
sS'wellington'
p4448
I6
sS'mortgages'
p4449
I13
sS'accountable'
p4450
I2
sS'bottle'
p4451
I2
sS'pa.'
p4452
I3
sS'alfalfa'
p4453
I2
sS'bromley'
p4454
I3
sS'monet'
p4455
I2
sS'asset-backed'
p4456
I3
sS'flier'
p4457
I2
sS'money'
p4458
I28
sS'adjustments'
p4459
I4
sS'leeway'
p4460
I2
sS'multiples'
p4461
I2
sS'statesmen'
p4462
I2
sS'dipped'
p4463
I2
sS'trespasses'
p4464
I2
sS'4'
I7
sS'preflight'
p4465
I2
sS'pill'
p4466
I12
sS'safeguarded'
p4467
I2
sS'grip'
p4468
I2
sS'jake'
p4469
I2
sS'mow'
p4470
I2
sS'credentials'
p4471
I2
sS'railroad'
p4472
I2
sS'aiming'
p4473
I2
sS'disappointed'
p4474
I4
sS'christina'
p4475
I2
sS'acquainted'
p4476
I2
sS'serves'
p4477
I2
sS"'ve"
p4478
I6
sS'chamber'
p4479
I4
sS'audience'
p4480
I8
sS'either'
p4481
I9
sS'retailers'
p4482
I3
sS'served'
p4483
I3
sS'voluntarily'
p4484
I2
sS'tator'
p4485
I3
sS'pittsburg'
p4486
I2
sS'imprisonment'
p4487
I2
sS'specified'
p4488
I2
sS'images'
p4489
I3
sS'matching'
p4490
I2
sS'gross'
p4491
I2
sS'genetics'
p4492
I2
sS'calculating'
p4493
I2
sS'confirm'
p4494
I2
sS'affiliate'
p4495
I2
sS'staffs'
p4496
I2
sS'measuring'
p4497
I2
sS'considering'
p4498
I6
sS'underwriters'
p4499
I4
sS'manufactured'
p4500
I2
sS'notable'
p4501
I2
sS'broker'
p4502
I2
sS'conducting'
p4503
I4
sS'80%-owned'
p4504
I2
sS'40,800'
p4505
I2
sS'7.649'
p4506
I2
sS'airline'
p4507
I8
sS'mounting'
p4508
I2
sS'mixed'
p4509
I3
sS'road'
p4510
I4
sS'fertile'
p4511
I2
sS'coupon'
p4512
I10
sS'spreading'
p4513
I2
sS'references'
p4514
I2
sS'gomez'
p4515
I4
sS'acquiesced'
p4516
I2
sS'spring-training'
p4517
I2
sS'bipartisan'
p4518
I2
sS'tycoon'
p4519
I2
sS'arranged'
p4520
I2
sS'co-chief'
p4521
I3
sS'centerfielder'
p4522
I2
sS'1.76'
p4523
I2
sS'manuel'
p4524
I2
sS'citation'
p4525
I2
sS'deep'
p4526
I5
sS'general'
p4527
I28
sS'examine'
p4528
I3
sS'file'
p4529
I8
sS'girlfriend'
p4530
I2
sS'fill'
p4531
I2
sS'again'
p4532
I8
sS'retiring'
p4533
I2
sS'drivers'
p4534
I2
sS'hybrid'
p4535
I14
sS'narcotics'
p4536
I2
sS'field'
p4537
I12
sS'privatized'
p4538
I2
sS'4,000'
p4539
I2
sS'students'
p4540
I3
sS'forbidding-looking'
p4541
I2
sS'important'
p4542
I4
sS'brands'
p4543
I7
sS'prudent'
p4544
I2
sS'assets'
p4545
I17
sS'husky'
p4546
I2
sS'starting'
p4547
I2
sS'represent'
p4548
I2
sS'suny'
p4549
I3
sS'founder'
p4550
I4
sS'suns'
p4551
I4
sS'dollar'
p4552
I9
sS'founded'
p4553
I3
sS'cooperative'
p4554
I3
sS'talks'
p4555
I19
sS'reluctant'
p4556
I3
sS'modernization'
p4557
I2
sS'wako'
p4558
I2
sS'mandela'
p4559
I2
sS'premium'
p4560
I5
sS'returning'
p4561
I2
sS'witter'
p4562
I2
sS'fall'
p4563
I4
sS'difference'
p4564
I2
sS'grand-jury'
p4565
I4
sS'celebrity'
p4566
I2
sS'wsj'
p4567
I3
sS'worded'
p4568
I2
sS'donovan'
p4569
I3
sS'economically'
p4570
I3
sS'exemptions'
p4571
I2
sS'neighborhood'
p4572
I2
sS'conn.-based'
p4573
I2
sS'solicitations'
p4574
I2
sS'anti-abortionists'
p4575
I2
sS'ritter'
p4576
I2
sS'7*slashhere*8'
p4577
I7
sS'timberland'
p4578
I2
sS'titles'
p4579
I2
sS'perspective'
p4580
I2
sS'lawyer'
p4581
I7
sS'further'
p4582
I6
sS'10.48'
p4583
I3
sS'ziyang'
p4584
I2
sS'stood'
p4585
I3
sS'opted'
p4586
I2
sS'public'
p4587
I16
sS'movement'
p4588
I9
sS'ranged'
p4589
I3
sS'component'
p4590
I3
sS'ranges'
p4591
I2
sS'operating'
p4592
I10
sS'free'
p4593
I11
sS'campaigns'
p4594
I2
sS'search'
p4595
I2
sS'prosecutors'
p4596
I8
sS'repaying'
p4597
I2
sS'airport'
p4598
I3
sS'published'
p4599
I3
sS'streamline'
p4600
I3
sS'toxicity'
p4601
I2
sS'milks'
p4602
I2
sS'authorize'
p4603
I2
sS'tiananmen'
p4604
I3
sS'cowardly'
p4605
I2
sS'africa'
p4606
I2
sS'establish'
p4607
I4
sS'legislator'
p4608
I2
sS'readily'
p4609
I2
sS'shareholders'
p4610
I18
sS'twa'
p4611
I2
sS'eye'
p4612
I3
sS'uniformity'
p4613
I2
sS'interest-bearing'
p4614
I2
sS'two'
p4615
I72
sS'libel'
p4616
I3
sS'restraints'
p4617
I2
sS'achieving'
p4618
I2
sS'pawing'
p4619
I2
sS'chortled'
p4620
I2
sS'purse'
p4621
I2
sS'leonard'
p4622
I2
sS'apprehensions'
p4623
I2
sS'controlling'
p4624
I2
sS'town'
p4625
I2
sS'none'
p4626
I6
sS'hour'
p4627
I10
sS'recall'
p4628
I2
sS'phrasing'
p4629
I2
sS'dei'
p4630
I2
sS'remain'
p4631
I6
sS'del'
p4632
I3
sS'subterfuge'
p4633
I2
sS'pioneered'
p4634
I3
sS'strategies'
p4635
I3
sS'eichof'
p4636
I2
sS'marble'
p4637
I2
sS'purchases'
p4638
I8
sS'share'
p4639
I43
sS'minimum'
p4640
I9
sS'numbers'
p4641
I2
sS'purchased'
p4642
I3
sS'sharp'
p4643
I4
sS'robinson'
p4644
I3
sS'narrowly'
p4645
I2
sS'needs'
p4646
I5
sS'13.5'
p4647
I2
sS'subminimum'
p4648
I4
sS'technology'
p4649
I8
sS'plans'
p4650
I13
sS'comfort'
p4651
I3
sS'morning-session'
p4652
I2
sS'advice'
p4653
I3
sS'different'
p4654
I8
sS'deprogrammings'
p4655
I2
sS'coming'
p4656
I6
sS'deukmejian'
p4657
I2
sS'crippling'
p4658
I2
sS'pleasure'
p4659
I2
sS'playing'
p4660
I6
sS'rifles'
p4661
I2
sS'rounded'
p4662
I2
sS'ashurst'
p4663
I5
sS'azerbaijan'
p4664
I2
sS'u.s.-soviet'
p4665
I2
sS'already'
p4666
I11
sS'through'
p4667
I24
sS'deterring'
p4668
I2
sS'arrogant'
p4669
I2
sS'24'
p4670
I5
sS'25'
p4671
I7
sS'26'
p4672
I4
sS'27'
p4673
I3
sS'20'
p4674
I11
sS'21'
p4675
I3
sS'22'
p4676
I2
sS'shortstop'
p4677
I2
sS'28'
p4678
I4
sS'29'
p4679
I4
sS'late'
p4680
I15
sS'detected'
p4681
I2
sS'penn'
p4682
I2
sS'hurting'
p4683
I2
sS'someone'
p4684
I4
sS'seeking'
p4685
I7
sS'males'
p4686
I2
sS'socially'
p4687
I2
sS'formulating'
p4688
I3
sS'complain'
p4689
I4
sS'association'
p4690
I16
sS'mystery'
p4691
I2
sS'easily'
p4692
I3
sS'nondemocratic'
p4693
I2
sS'65.7'
p4694
I2
sS'habits'
p4695
I3
sS'repeating'
p4696
I3
sS'integrated-circuit'
p4697
I2
sS'14-judge'
p4698
I2
sS'exquisite'
p4699
I2
sS'harm'
p4700
I3
sS'everyone'
p4701
I4
sS'house'
p4702
I31
sS'energy'
p4703
I5
sS'hard'
p4704
I8
sS'beret'
p4705
I2
sS'connect'
p4706
I2
sS'seniority'
p4707
I2
sS'dignitaries'
p4708
I2
sS'insurance'
p4709
I7
sS'initiatives'
p4710
I2
sS'uninvited'
p4711
I2
sS'creditor'
p4712
I3
sS's.a.'
p4713
I3
sS'projected'
p4714
I4
sS'1.75'
p4715
I2
sS'participants'
p4716
I5
sS'longtime'
p4717
I3
sS'1.78'
p4718
I2
sS'disobedience'
p4719
I15
sS'crouched'
p4720
I2
sS'lawrence'
p4721
I3
sS'paschi'
p4722
I2
sS'backer'
p4723
I7
sS'mikhail'
p4724
I4
sS'extraordinary'
p4725
I4
sS'members'
p4726
I14
sS'backed'
p4727
I8
sS'beginning'
p4728
I6
sS'benefits'
p4729
I3
sS'finland'
p4730
I3
sS'pilote'
p4731
I2
sS'conducted'
p4732
I2
sS'pilots'
p4733
I21
sS'dons'
p4734
I2
sS'mistakenly'
p4735
I3
sS'done'
p4736
I8
sS'embraced'
p4737
I2
sS'wages'
p4738
I2
sS'heights'
p4739
I2
sS'bullied'
p4740
I2
sS'joint-venture'
p4741
I2
sS'least'
p4742
I7
sS'obligatory'
p4743
I2
sS'paint'
p4744
I2
sS'regulation'
p4745
I2
sS'statement'
p4746
I9
sS'compromise'
p4747
I13
sS'shahal'
p4748
I2
sS'lease'
p4749
I3
sS'muscles'
p4750
I3
sS'pest-control'
p4751
I2
sS'favorably'
p4752
I2
sS'wildly'
p4753
I2
sS'sensation'
p4754
I2
sS'sizable'
p4755
I2
sS'part'
p4756
I29
sS'muscled'
p4757
I2
sS'favorable'
p4758
I3
sS'doctors'
p4759
I3
sS'believe'
p4760
I10
sS'mail-sorting'
p4761
I2
sS'stirs'
p4762
I2
sS'869'
p4763
I3
sS'mclaughlin'
p4764
I4
sS'b'
I6
sS'gotten'
p4765
I2
sS'cross-pollinated'
p4766
I2
sS'youth'
p4767
I3
sS'supposed'
p4768
I3
sS'treated'
p4769
I2
sS'chanted'
p4770
I3
sS'lilting'
p4771
I2
sS'aug.'
p4772
I3
sS'orders'
p4773
I5
sS'collateralized'
p4774
I5
sS'built'
p4775
I6
sS'depending'
p4776
I2
sS'gorbachev'
p4777
I15
sS'majority'
p4778
I6
sS'appellate'
p4779
I4
sS'build'
p4780
I10
sS'province'
p4781
I2
sS'eggs'
p4782
I3
sS'most'
p4783
I41
sS'significant'
p4784
I7
sS'services'
p4785
I10
sS'extremely'
p4786
I3
sS'kiddies'
p4787
I3
sS'pocketing'
p4788
I2
sS'charitable'
p4789
I3
sS'joining'
p4790
I3
sS'sector'
p4791
I2
sS'gdp'
p4792
I3
sS'thomas'
p4793
I2
sS'directorate'
p4794
I3
sS'particularly'
p4795
I6
sS'disturbances'
p4796
I2
sS'obligations'
p4797
I3
sS'commissions'
p4798
I6
sS'businesses'
p4799
I13
sS'carefully'
p4800
I2
sS'find'
p4801
I7
sS'giant'
p4802
I2
sS'merger'
p4803
I4
sS'distributed'
p4804
I2
sS'unhappy'
p4805
I2
sS'generators'
p4806
I2
sS'override'
p4807
I3
sS'8'
I25
sS'distributes'
p4808
I2
sS'merged'
p4809
I2
sS'permission'
p4810
I3
sS'express'
p4811
I9
sS'theft'
p4812
I4
sS'merchandise'
p4813
I3
sS'guile'
p4814
I2
sS'resolve'
p4815
I5
sS'alisarda'
p4816
I2
sS'testifying'
p4817
I2
sS'remove'
p4818
I3
sS'six-month'
p4819
I7
sS'redefined'
p4820
I2
sS'common'
p4821
I7
sS'unfettered'
p4822
I2
sS'restaurants'
p4823
I3
sS'natural-resources'
p4824
I2
sS'opposing'
p4825
I3
sS'tended'
p4826
I2
sS'marston'
p4827
I3
sS'individual'
p4828
I6
sS'tender'
p4829
I2
sS'double-crossed'
p4830
I2
sS'feared'
p4831
I3
sS'repairs'
p4832
I2
sS'1,214'
p4833
I2
sS'burner'
p4834
I3
sS'splendidly'
p4835
I2
sS'fans'
p4836
I6
sS'burned'
p4837
I2
sS'complementary'
p4838
I2
sS'dividends'
p4839
I4
sS'environmentalists'
p4840
I2
sS'labella'
p4841
I2
sS'aircraft'
p4842
I7
sS'scuttle'
p4843
I3
sS'full-time'
p4844
I3
sS'restaurant'
p4845
I3
sS'solely'
p4846
I2
sS'annual'
p4847
I9
sS'foreign'
p4848
I24
sS'upgraded'
p4849
I2
sS'7.875'
p4850
I2
sS'point'
p4851
I5
sS'simple'
p4852
I3
sS'prosecuting'
p4853
I2
sS'ga.'
p4854
I2
sS'tennessee'
p4855
I2
sS'simply'
p4856
I6
sS'throughout'
p4857
I3
sS'expensive'
p4858
I4
sS'headaches'
p4859
I2
sS'n.v.'
p4860
I2
sS'raise'
p4861
I17
sS'create'
p4862
I6
sS'rivals'
p4863
I2
sS'secret'
p4864
I2
sS'ireland'
p4865
I2
sS'meeting'
p4866
I32
sS'first-year'
p4867
I2
sS'assorted'
p4868
I2
sS'gas'
p4869
I6
sS'gap'
p4870
I2
sS'gao'
p4871
I2
sS'repertoire'
p4872
I3
sS'non-russian'
p4873
I2
sS'understand'
p4874
I4
sS'prices'
p4875
I21
sS'replaces'
p4876
I2
sS'classifications'
p4877
I2
sS'grains'
p4878
I2
sS'solid'
p4879
I2
sS'bill'
p4880
I24
sS'elections'
p4881
I5
sS'denominations'
p4882
I2
sS'fun'
p4883
I3
sS'advising'
p4884
I2
sS'incriminating'
p4885
I2
sS'century'
p4886
I4
sS'cents'
p4887
I22
sS'violently'
p4888
I2
sS'audience-friendly'
p4889
I2
sS'itself'
p4890
I6
sS'lomas'
p4891
I2
sS'okla.'
p4892
I2
sS'all-important'
p4893
I2
sS'italy'
p4894
I7
sS'sociologist'
p4895
I2
sS'benign'
p4896
I2
sS'discourse'
p4897
I2
sS'development'
p4898
I6
sS'forced'
p4899
I2
sS'yesterday'
p4900
I23
sS'moment'
p4901
I6
sS'purpose'
p4902
I4
sS'safe'
p4903
I3
sS'spent'
p4904
I6
sS'swiss'
p4905
I2
sS'organization'
p4906
I4
sS'spend'
p4907
I2
sS'howl'
p4908
I2
sS'one-year'
p4909
I5
sS'junk-bond'
p4910
I2
sS'ludicrous'
p4911
I2
sS'distracting'
p4912
I2
sS'openly'
p4913
I2
sS'unesco'
p4914
I9
sS'alternative'
p4915
I6
sS'predominantly'
p4916
I2
sS'timber'
p4917
I3
sS'letting'
p4918
I3
sS'fullscale'
p4919
I2
sS'cut'
p4920
I13
sS'cup'
p4921
I3
sS'deputy'
p4922
I2
sS'source'
p4923
I5
sS'snap'
p4924
I2
sS'administrative'
p4925
I3
sS'big'
p4926
I10
sS'bid'
p4927
I14
sS'jerked'
p4928
I2
sS'tribune-democrat'
p4929
I2
sS'foreigners'
p4930
I4
sS'bit'
p4931
I2
sS'pollinate'
p4932
I3
sS'knock'
p4933
I2
sS'follows'
p4934
I5
sS'alltel'
p4935
I4
sS'1.2'
p4936
I2
sS'glove'
p4937
I2
sS'indication'
p4938
I2
sS'depositary'
p4939
I2
sS'jolted'
p4940
I2
sS'54.5'
p4941
I2
sS'often'
p4942
I7
sS'absolutely'
p4943
I2
sS'obliged'
p4944
I2
sS'30s'
p4945
I2
sS'back'
p4946
I29
sS'bach'
p4947
I3
sS'redistributionism'
p4948
I2
sS'delegation'
p4949
I2
sS'pricing'
p4950
I3
sS'scuttled'
p4951
I2
sS'vietnamese-backed'
p4952
I2
sS'pronounced'
p4953
I2
sS'scale'
p4954
I3
sS'jewelry'
p4955
I9
sS'culprit'
p4956
I2
sS'contacts'
p4957
I2
sS'decision'
p4958
I14
sS'91-day'
p4959
I2
sS'per'
p4960
I3
sS'eliminate'
p4961
I3
sS'313.2'
p4962
I2
sS'full-scale'
p4963
I2
sS'patient'
p4964
I4
sS'300'
p4965
I5
sS'continuing'
p4966
I3
sS'fed'
p4967
I6
sS'restrictive'
p4968
I2
sS'goods'
p4969
I4
sS'conciliatory'
p4970
I2
sS'pollution'
p4971
I3
sS'plenty'
p4972
I2
sS'harassed'
p4973
I2
sS'nsa'
p4974
I2
sS'abusive'
p4975
I3
sS'retailer'
p4976
I2
sS'steven'
p4977
I2
sS'bankruptcy'
p4978
I10
sS'forth'
p4979
I2
sS'conduits'
p4980
I2
sS'1.50'
p4981
I2
sS's.c.'
p4982
I2
sS'murphy'
p4983
I2
sS'hoped'
p4984
I2
sS'boys'
p4985
I2
sS'two-part'
p4986
I4
sS'hopes'
p4987
I7
sS'subsidiary'
p4988
I6
sS'directed'
p4989
I2
sS'rejection'
p4990
I2
sS'generating'
p4991
I2
sS"'re"
p4992
I17
sS'planes'
p4993
I3
sS'jumbo'
p4994
I3
sS'curt'
p4995
I2
sS'constant'
p4996
I3
sS'stripped'
p4997
I3
sS'lackeys'
p4998
I2
sS'deprive'
p4999
I2
sS'engineering'
p5000
I6
sS'dragging'
p5001
I2
sS'%'
I238
sS'sterilize'
p5002
I2
sS'spanish-language'
p5003
I2
sS'lend'
p5004
I2
sS'testified'
p5005
I4
sS'prepared'
p5006
I4
sS'prepares'
p5007
I2
sS'vehicles'
p5008
I2
sS'bankers'
p5009
I3
sS'notion'
p5010
I2
sS'2001'
p5011
I3
sS'2004'
p5012
I2
sS'2005'
p5013
I2
sS'magnetically'
p5014
I2
sS'debenture'
p5015
I2
sS'minors'
p5016
I2
sS'fitch'
p5017
I2
sS'j.c.'
p5018
I5
sS'intricate'
p5019
I2
sS'15,000'
p5020
I4
sS'gm-jaguar'
p5021
I2
sS'rc6280'
p5022
I3
sS'boom-or-bust'
p5023
I2
sS'intensive'
p5024
I5
sS'chaps'
p5025
I2
sS'quarterly'
p5026
I8
sS'lilly'
p5027
I4
sS'labels'
p5028
I4
sS'dessert'
p5029
I2
sS'nixed'
p5030
I2
sS'putting'
p5031
I2
sS'entire'
p5032
I4
sS'knight'
p5033
I2
sS'rearing'
p5034
I2
sS'crop'
p5035
I5
sS'carla'
p5036
I2
sS'nests'
p5037
I2
sS'staffers'
p5038
I2
sS'pittance'
p5039
I2
sS'chicago'
p5040
I6
sS'giving'
p5041
I6
sS'practices'
p5042
I3
sS'access'
p5043
I5
sS'condominium'
p5044
I2
sS'industrialized'
p5045
I2
sS'irreparable'
p5046
I2
sS'exercise'
p5047
I3
sS'body'
p5048
I2
sS'exchange'
p5049
I18
sS'jointly'
p5050
I2
sS'objects'
p5051
I2
sS'healing'
p5052
I2
sS'others'
p5053
I14
sS'luis'
p5054
I2
sS'safer'
p5055
I2
sS'extreme'
p5056
I3
sS'39'
p5057
I2
sS'32'
p5058
I4
sS'31'
p5059
I5
sS'30'
p5060
I25
sS'37'
p5061
I4
sS'alaska'
p5062
I2
sS'35'
p5063
I3
sS'later'
p5064
I12
sS'honor'
p5065
I2
sS'named'
p5066
I21
sS'limp'
p5067
I2
sS'private'
p5068
I4
sS'gordon'
p5069
I2
sS'decrease'
p5070
I2
sS'names'
p5071
I3
sS'composer'
p5072
I3
sS'limb'
p5073
I2
sS'scandal'
p5074
I3
sS'year-ago'
p5075
I2
sS'themselves'
p5076
I8
sS'defendant'
p5077
I2
sS'trait'
p5078
I2
sS'trail'
p5079
I2
sS'9.85'
p5080
I2
sS'tattered'
p5081
I2
sS'arranging'
p5082
I2
sS'iii'
p5083
I3
sS'non-communist'
p5084
I2
sS'account'
p5085
I9
sS'16.05'
p5086
I2
sS'erwin'
p5087
I3
sS'obvious'
p5088
I3
sS'industrial'
p5089
I10
sS'closing'
p5090
I4
sS'rehabilitation'
p5091
I3
sS'reserved'
p5092
I2
sS'proportions'
p5093
I3
sS'effectively'
p5094
I2
sS'reserves'
p5095
I2
sS'exclaims'
p5096
I2
sS'employs'
p5097
I4
sS'10.05'
p5098
I2
sS'maturities'
p5099
I4
sS'dinners'
p5100
I2
sS'holds'
p5101
I4
sS'regions'
p5102
I3
sS'responsibilities'
p5103
I3
sS'winners'
p5104
I2
sS'forest'
p5105
I2
sS'stock'
p5106
I45
sS'204.3'
p5107
I2
sS'204.8'
p5108
I2
sS'waters'
p5109
I2
sS'market-research'
p5110
I2
sS'collection'
p5111
I2
sS'bothered'
p5112
I2
sS'nullify'
p5113
I2
sS'leisure'
p5114
I2
sS'wisecracks'
p5115
I2
sS'fray'
p5116
I2
sS'rev.'
p5117
I2
sS'bind'
p5118
I3
sS'lines'
p5119
I4
sS'chief'
p5120
I26
sS'metaphors'
p5121
I2
sS'testament-style'
p5122
I2
sS'aiken'
p5123
I2
sS'institutional'
p5124
I7
sS'ever-changing'
p5125
I2
sS'duffers'
p5126
I2
sS'agricultural'
p5127
I4
sS'industries'
p5128
I10
sS'negotiated'
p5129
I5
sS'la'
p5130
I4
sS'2-for-1'
p5131
I2
sS'labor'
p5132
I9
sS'willing'
p5133
I7
sS'yamaichi'
p5134
I2
sS'criminal'
p5135
I3
sS'greater'
p5136
I5
sS'cutting'
p5137
I4
sS'courtroom'
p5138
I4
sS'sonata'
p5139
I2
sS'insisting'
p5140
I3
sS'dax'
p5141
I2
sS'day'
p5142
I12
sS'capital-gains'
p5143
I2
sS'february'
p5144
I2
sS'l.'
p5145
I3
sS'warned'
p5146
I4
sS'preclude'
p5147
I2
sS'identified'
p5148
I2
sS'morris'
p5149
I2
sS'experienced'
p5150
I2
sS'warner'
p5151
I32
sS'activate'
p5152
I2
sS'dixie'
p5153
I2
sS'administrator'
p5154
I2
sS'salesman'
p5155
I3
sS'announcer'
p5156
I2
sS'aga'
p5157
I7
sS'defend'
p5158
I2
sS'istituto'
p5159
I2
sS'insolvent'
p5160
I2
sS'postpone'
p5161
I3
sS'red'
p5162
I7
sS'harold'
p5163
I2
sS'582'
p5164
I2
sS'frank'
p5165
I6
sS'fourteen'
p5166
I2
sS'clarify'
p5167
I2
sS'afterward'
p5168
I2
sS'receipts'
p5169
I2
sS'allies'
p5170
I7
sS'recipes'
p5171
I5
sS'abuse'
p5172
I2
sS'barriers'
p5173
I2
sS'retain'
p5174
I5
sS'retail'
p5175
I2
sS'south'
p5176
I18
sS'finest'
p5177
I2
sS'2,000'
p5178
I3
sS'strategic'
p5179
I5
sS'embarrassed'
p5180
I2
sS'puppet'
p5181
I2
sS'rusticated'
p5182
I2
sS'reached'
p5183
I7
sS'pershare'
p5184
I2
sS'single-a-3'
p5185
I6
sS'single-a-2'
p5186
I5
sS'recapitalization'
p5187
I2
sS'bosco'
p5188
I2
sS'smolder'
p5189
I2
sS'completed'
p5190
I8
sS'nobody'
p5191
I4
sS'7.45'
p5192
I2
sS'environmental'
p5193
I3
sS'completes'
p5194
I2
sS'glamorous'
p5195
I2
sS'shevardnadze'
p5196
I4
sS'bullhorns'
p5197
I2
sS'asean'
p5198
I2
sS'compensation'
p5199
I4
sS'circumspect'
p5200
I2
sS'visited'
p5201
I4
sS'pardoned'
p5202
I2
sS'imaginative'
p5203
I3
sS'comfortable'
p5204
I2
sS'tide'
p5205
I2
sS'38.2'
p5206
I2
sS'unlikely'
p5207
I5
sS'have'
p5208
I151
sS'dictate'
p5209
I2
sS'apparently'
p5210
I5
sS'tomash'
p5211
I4
sS'dallas'
p5212
I2
sS'parks'
p5213
I2
sS'mix'
p5214
I2
sS'concerns'
p5215
I6
sS'326'
p5216
I2
sS'provoked'
p5217
I3
sS'1.31'
p5218
I2
sS'1.34'
p5219
I2
sS'1.35'
p5220
I2
sS'1.37'
p5221
I2
sS'unless'
p5222
I6
sS'preliminary'
p5223
I6
sS'sfe'
p5224
I4
sS'reveling'
p5225
I2
sS'payment'
p5226
I5
sS'gurus'
p5227
I2
sS'quotations'
p5228
I2
sS'enthusiastic'
p5229
I2
sS'request'
p5230
I4
sS'1,000'
p5231
I2
sS'1,001'
p5232
I2
sS'normally'
p5233
I2
sS'gnu-emacs'
p5234
I3
sS'selection'
p5235
I2
sS'galvanizing'
p5236
I2
sS'supported'
p5237
I3
sS'portfolio'
p5238
I2
sS'889,000'
p5239
I2
sS'thicket'
p5240
I2
sS'staff'
p5241
I5
sS'communism'
p5242
I2
sS'controls'
p5243
I5
sS'loafers'
p5244
I3
sS'communist'
p5245
I4
sS'regularly'
p5246
I3
sS'beat'
p5247
I2
sS'october'
p5248
I12
sS'timing'
p5249
I3
sS'areas'
p5250
I6
sS'organ'
p5251
I2
sS'362'
p5252
I2
sS'teams'
p5253
I3
sS'ballplayers'
p5254
I2
sS'fixed'
p5255
I3
sS'national'
p5256
I22
sS'grudging'
p5257
I2
sS'j.e.'
p5258
I2
sS'enhanced'
p5259
I3
sS'greece'
p5260
I2
sS'audits'
p5261
I6
sS'36.6'
p5262
I2
sS'exploited'
p5263
I2
sS'attempting'
p5264
I3
sS'clearing'
p5265
I2
sS'brunt'
p5266
I2
sS'discounts'
p5267
I2
sS'routine'
p5268
I4
sS'progress'
p5269
I2
sS'antics'
p5270
I2
sS'7.0808'
p5271
I2
sS'armenia'
p5272
I2
sS'health-conscious'
p5273
I2
sS'buster'
p5274
I2
sS'taking'
p5275
I4
sS'attributed'
p5276
I4
sS'pulp'
p5277
I2
sS'assure'
p5278
I2
sS'liquidating'
p5279
I3
sS'attributes'
p5280
I2
sS'comment'
p5281
I9
sS'fostering'
p5282
I2
sS'clues'
p5283
I2
sS'disarmament'
p5284
I2
sS'bikini'
p5285
I2
sS'manhood'
p5286
I2
sS'flourishing'
p5287
I2
sS'copies'
p5288
I2
sS'tyler'
p5289
I2
sS'indicators'
p5290
I9
sS'proposal'
p5291
I8
sS'pravda'
p5292
I4
sS'climate'
p5293
I2
sS'finished'
p5294
I2
sS'bull'
p5295
I3
sS'fellow'
p5296
I2
sS'locales'
p5297
I2
sS'homes'
p5298
I2
sS'plaid'
p5299
I2
sS'crowds'
p5300
I2
sS'appearance'
p5301
I5
sS'value'
p5302
I11
sS'augusta'
p5303
I2
sS'instigated'
p5304
I2
sS'fault'
p5305
I2
sS'almost'
p5306
I9
sS"m'bow"
p5307
I4
sS'helped'
p5308
I5
sS'landfills'
p5309
I2
sS'claimed'
p5310
I4
sS'partner'
p5311
I7
sS'inspector'
p5312
I2
sS')'
I61
sS'administration'
p5313
I10
sS'mahatma'
p5314
I2
sS'fifth-largest'
p5315
I2
sS'frivolous'
p5316
I2
sS'injured'
p5317
I2
sS'kidnapping'
p5318
I2
sS'cubic'
p5319
I2
sS'reporting'
p5320
I4
sS'257.8'
p5321
I2
sS'recourse'
p5322
I2
sS'center'
p5323
I8
sS'nevertheless'
p5324
I2
sS'ious'
p5325
I2
sS'thought'
p5326
I5
sS'sets'
p5327
I2
sS'pre-trial'
p5328
I2
sS'muscle'
p5329
I3
sS'soviet'
p5330
I30
sS'latest'
p5331
I5
sS'stores'
p5332
I5
sS'executive'
p5333
I24
sS'domestic'
p5334
I11
sS'clinic'
p5335
I3
sS'41-lawyer'
p5336
I2
sS'seats'
p5337
I2
sS'tone'
p5338
I2
sS'ads'
p5339
I6
sS'demographic'
p5340
I2
sS'bench'
p5341
I6
sS'288'
p5342
I2
sS'add'
p5343
I4
sS'stimulate'
p5344
I2
sS'ought'
p5345
I6
sS'resolved'
p5346
I4
sS'tests'
p5347
I7
sS'judiciary'
p5348
I3
sS'hees'
p5349
I7
sS'displaced'
p5350
I2
sS'motorola'
p5351
I2
sS'like'
p5352
I24
sS'success'
p5353
I7
sS'admitted'
p5354
I3
sS'works'
p5355
I3
sS'soft'
p5356
I3
sS'kucharski'
p5357
I2
sS'italian'
p5358
I2
sS'accessible'
p5359
I2
sS'outfield'
p5360
I2
sS'cellists'
p5361
I2
sS'propel'
p5362
I2
sS'alive'
p5363
I2
sS'hair'
p5364
I3
sS'novelist'
p5365
I2
sS'righthander'
p5366
I2
sS'garrett'
p5367
I2
sS'hurricane'
p5368
I3
sS'assuming'
p5369
I3
sS'slight'
p5370
I2
sS'host'
p5371
I3
sS'expire'
p5372
I2
sS'although'
p5373
I14
sS'hospitable'
p5374
I2
sS'panel'
p5375
I4
sS'retribution'
p5376
I2
sS'about'
p5377
I67
sS'actual'
p5378
I3
sS'boards'
p5379
I2
sS'discard'
p5380
I2
sS'introduced'
p5381
I7
sS'baseless'
p5382
I2
sS'seniors'
p5383
I2
sS'ways'
p5384
I7
sS'depart'
p5385
I2
sS'billions'
p5386
I3
sS'guard'
p5387
I2
sS'female'
p5388
I7
sS'luxembourg-based'
p5389
I2
sS'currier'
p5390
I2
sS'1986'
p5391
I5
sS'1987'
p5392
I9
sS'1984'
p5393
I4
sS'1985'
p5394
I5
sS'1982'
p5395
I3
sS'1983'
p5396
I4
sS'1980'
p5397
I2
sS'1981'
p5398
I3
sS'general-practice'
p5399
I2
sS'1988'
p5400
I10
sS'1989'
p5401
I19
sS'stimulative'
p5402
I2
sS'biggest'
p5403
I5
sS'buy'
p5404
I13
sS'bus'
p5405
I2
sS'brand'
p5406
I5
sS'sequel'
p5407
I3
sS'but'
p5408
I150
sS'insured'
p5409
I4
sS'repeated'
p5410
I2
sS'8.27'
p5411
I2
sS'wealthier'
p5412
I3
sS'money-fund'
p5413
I3
sS'strident'
p5414
I2
sS'wise'
p5415
I2
sS'dangerous'
p5416
I2
sS'mists'
p5417
I2
sS'flip'
p5418
I2
sS'seib'
p5419
I2
sS'lecheria'
p5420
I3
sS'minutes'
p5421
I6
sS'tastes'
p5422
I3
sS'wage-discrimination'
p5423
I2
sS'supreme'
p5424
I4
sS'recounts'
p5425
I2
sS'crusade'
p5426
I2
sS'inflation-fighting'
p5427
I2
sS'periods'
p5428
I2
sS'83'
p5429
I2
sS'nazionale'
p5430
I2
sS'proceeds'
p5431
I5
sS'49'
p5432
I3
sS'46'
p5433
I2
sS'47'
p5434
I2
sS'44'
p5435
I4
sS'45'
p5436
I5
sS'42'
p5437
I2
sS'detail'
p5438
I4
sS'40'
p5439
I6
sS'surreal'
p5440
I2
sS'oat'
p5441
I3
sS'special'
p5442
I12
sS'out'
p5443
I44
sS'stirred'
p5444
I2
sS'resolution'
p5445
I2
sS'baker'
p5446
I2
sS'original'
p5447
I6
sS'biotechnology'
p5448
I4
sS'cookbook'
p5449
I2
sS'limited'
p5450
I10
sS'7.15'
p5451
I2
sS'hats'
p5452
I2
sS'sterilizing'
p5453
I2
sS'hitch'
p5454
I2
sS'facilities'
p5455
I6
sS'nwa'
p5456
I2
sS'rendezvoused'
p5457
I2
sS'1.12'
p5458
I2
sS'violate'
p5459
I3
sS'1.11'
p5460
I2
sS'paris'
p5461
I3
sS'1.18'
p5462
I2
sS'7.62'
p5463
I2
sS'under'
p5464
I37
sS'stationery'
p5465
I2
sS'pride'
p5466
I3
sS'merchant'
p5467
I2
sS'lure'
p5468
I2
sS'u.s.-japan'
p5469
I2
sS'legislators'
p5470
I3
sS'risk'
p5471
I6
sS'rise'
p5472
I10
sS'risc'
p5473
I6
sS'position-squaring'
p5474
I2
sS'every'
p5475
I5
sS'softened'
p5476
I2
sS'harms'
p5477
I2
sS'missionary'
p5478
I2
sS'get-togethers'
p5479
I2
sS'school'
p5480
I6
sS'pooled'
p5481
I2
sS'antisony'
p5482
I2
sS'173.1'
p5483
I2
sS'enjoy'
p5484
I4
sS'u.s.-philippine'
p5485
I2
sS'leaders'
p5486
I16
sS'estimates'
p5487
I7
sS'direct'
p5488
I4
sS'street'
p5489
I8
sS'borrowings'
p5490
I2
sS'tweezers'
p5491
I2
sS'shining'
p5492
I2
sS'anti-apartheid'
p5493
I2
sS'hide'
p5494
I2
sS'selected'
p5495
I2
sS'profitability'
p5496
I2
sS'poison'
p5497
I22
sS'steriles'
p5498
I2
sS'conduct'
p5499
I2
sS'supplier'
p5500
I2
sS'seeks'
p5501
I4
sS'hundreds'
p5502
I5
sS'standing-room-only'
p5503
I2
sS'studio'
p5504
I7
sS'connoisseur'
p5505
I2
sS'ventures'
p5506
I5
sS'changed'
p5507
I3
sS'analysts'
p5508
I11
sS'chateau'
p5509
I2
sS'changes'
p5510
I14
sS'issuers'
p5511
I3
sS'swearing'
p5512
I2
sS'feelings'
p5513
I2
sS'visible'
p5514
I3
sS'punching'
p5515
I2
sS'2692.65'
p5516
I2
sS'philip'
p5517
I2
sS'swings'
p5518
I3
sS'would'
p5519
I121
sS'hospital'
p5520
I3
sS'm.'
p5521
I2
sS'wordplay'
p5522
I2
sS'asset'
p5523
I2
sS'assessment'
p5524
I2
sS'preserved'
p5525
I2
sS'single-handedly'
p5526
I2
sS'naive'
p5527
I2
sS'muse'
p5528
I2
sS'phone'
p5529
I3
sS'excellent'
p5530
I2
sS'must'
p5531
I13
sS'me'
p5532
I12
sS'join'
p5533
I3
sS'tremendously'
p5534
I2
sS'crescott'
p5535
I2
sS'deficiencies'
p5536
I2
sS'install'
p5537
I3
sS'my'
p5538
I24
sS'male-fertile'
p5539
I3
sS'loosen'
p5540
I2
sS'receivables'
p5541
I5
sS'florida'
p5542
I4
sS'preserving'
p5543
I2
sS'jetliner'
p5544
I2
sS'keep'
p5545
I10
sS'attract'
p5546
I4
sS'guarantee'
p5547
I2
sS'male-sterile'
p5548
I5
sS'end'
p5549
I18
sS'75.1'
p5550
I2
sS'bunt'
p5551
I2
sS'accusations'
p5552
I2
sS'widespread'
p5553
I2
sS'badly'
p5554
I4
sS'pre-approved'
p5555
I2
sS'claptrap'
p5556
I2
sS'kavanagh'
p5557
I2
sS'amid'
p5558
I3
sS'acknowledged'
p5559
I3
sS'enter'
p5560
I3
sS'civil-service'
p5561
I2
sS'over'
p5562
I50
sS'expects'
p5563
I8
sS'london'
p5564
I14
sS'expectations'
p5565
I3
sS'writing'
p5566
I2
sS'16.3'
p5567
I3
sS'400'
p5568
I5
sS'diseases'
p5569
I2
sS'payouts'
p5570
I2
sS'matagorda'
p5571
I2
sS'roost'
p5572
I2
sS'mosher'
p5573
I2
sS'26.125'
p5574
I2
sS'tourism'
p5575
I2
sS'30-year'
p5576
I3
sS'alex'
p5577
I2
sS'detroit'
p5578
I4
sS'filling'
p5579
I2
sS'dollar-denominated'
p5580
I2
sS'newport'
p5581
I4
sS'each'
p5582
I27
sS'lasting'
p5583
I2
sS'signing'
p5584
I3
sS'autry'
p5585
I2
sS'applicable'
p5586
I2
sS'magnets'
p5587
I2
sS'combining'
p5588
I4
sS'saturday'
p5589
I2
sS't.'
p5590
I2
sS'looseleaf'
p5591
I2
sS'driving'
p5592
I3
sS'god'
p5593
I3
sS'collaborated'
p5594
I2
sS'laid'
p5595
I2
sS'got'
p5596
I7
sS'newly'
p5597
I4
sS'gop'
p5598
I2
sS'independence'
p5599
I3
sS'sept.'
p5600
I6
sS'merchandising'
p5601
I2
sS'weekes'
p5602
I6
sS'fred'
p5603
I2
sS'masterpiece'
p5604
I2
sS'formation'
p5605
I2
sS'time-limited'
p5606
I5
sS'boosting'
p5607
I2
sS'wanted'
p5608
I6
sS'inexpensive'
p5609
I2
sS'days'
p5610
I32
sS'pence'
p5611
I8
sS'20th'
p5612
I2
sS'soda'
p5613
I2
sS'appeals'
p5614
I2
sS'researcher'
p5615
I5
sS'researches'
p5616
I2
sS'primary'
p5617
I4
sS'hearing'
p5618
I7
sS'adopted'
p5619
I8
sS'insulation'
p5620
I2
sS'portable'
p5621
I2
sS'their'
p5622
I94
sS'0.02'
p5623
I2
sS'top'
p5624
I14
sS'0.05'
p5625
I2
sS'too'
p5626
I15
sS'tom'
p5627
I2
sS'percentage'
p5628
I9
sS'urban'
p5629
I2
sS'tool'
p5630
I4
sS'serve'
p5631
I3
sS'took'
p5632
I11
sS'negotiating'
p5633
I5
sS'western'
p5634
I8
sS'longer-term'
p5635
I2
sS'roles'
p5636
I2
sS'bloated'
p5637
I2
sS'final'
p5638
I8
sS'18.8'
p5639
I2
sS'precocious'
p5640
I2
sS'classes'
p5641
I3
sS'flame'
p5642
I2
sS'bridge'
p5643
I2
sS'fashion'
p5644
I4
sS'pollination'
p5645
I2
sS'ran'
p5646
I3
sS'talking'
p5647
I2
sS'epp'
p5648
I2
sS'rap'
p5649
I2
sS'seminar'
p5650
I2
sS'relatively'
p5651
I4
sS'1969'
p5652
I3
sS'bronfman'
p5653
I2
sS'thoroughly'
p5654
I2
sS'1967'
p5655
I2
sS'-'
I5
sS'isolated'
p5656
I4
sS'thorough'
p5657
I3
sS'situated'
p5658
I2
sS'laughed'
p5659
I2
sS'teito'
p5660
I2
sS'though'
p5661
I10
sS'8.03'
p5662
I2
sS'8.01'
p5663
I2
sS'8.04'
p5664
I3
sS'8.05'
p5665
I3
sS'8.09'
p5666
I2
sS'618,000'
p5667
I2
sS'treats'
p5668
I2
sS'flow'
p5669
I5
sS'treaty'
p5670
I9
sS'reputation'
p5671
I2
sS'after-tax'
p5672
I2
sS'entertaining'
p5673
I2
sS'agnew'
p5674
I2
sS'arousing'
p5675
I2
sS'sanctuary'
p5676
I2
sS'reductions'
p5677
I3
sS'random'
p5678
I2
sS'sage'
p5679
I2
sS'colors'
p5680
I2
sS'radio'
p5681
I3
sS'bail'
p5682
I2
sS'sunsets'
p5683
I2
sS'20-year'
p5684
I2
sS'safest'
p5685
I2
sS'delays'
p5686
I2
sS'minnesota'
p5687
I2
sS'542'
p5688
I2
sS'announce'
p5689
I4
sS'oct'
p5690
I2
sS'5*slashhere*16'
p5691
I2
sS'watch'
p5692
I2
sS'criticized'
p5693
I2
sS'despite'
p5694
I11
sS'report'
p5695
I17
sS'interrogated'
p5696
I2
sS'19-year-olds'
p5697
I2
sS'countries'
p5698
I10
sS'twice'
p5699
I2
sS'shots'
p5700
I2
sS'mergers'
p5701
I2
sS'thanks'
p5702
I4
sS'car-crash'
p5703
I2
sS'habit'
p5704
I2
sS'liquor'
p5705
I2
sS'1960s'
p5706
I2
sS'resist'
p5707
I2
sS'keenan'
p5708
I8
sS'corrupt'
p5709
I3
sS'capacity'
p5710
I2
sS"bird's-eye"
p5711
I2
sS'interviewing'
p5712
I2
sS'machinists'
p5713
I2
sS'mud'
p5714
I2
sS'brushbacks'
p5715
I2
sS'finger'
p5716
I2
sS'approach'
p5717
I8
sS'7.80'
p5718
I2
sS'weak'
p5719
I2
sS'however'
p5720
I13
sS'boss'
p5721
I2
sS'southeast'
p5722
I2
sS'censorship'
p5723
I2
sS'news'
p5724
I7
sS'sipped'
p5725
I2
sS'predates'
p5726
I2
sS'improve'
p5727
I8
sS'faced'
p5728
I2
sS'protect'
p5729
I7
sS'citicorp'
p5730
I3
sS'credit-card'
p5731
I5
sS'participating'
p5732
I2
sS'players'
p5733
I9
sS'merging'
p5734
I2
sS'games'
p5735
I2
sS'encore'
p5736
I2
sS'faces'
p5737
I3
sS'expense'
p5738
I2
sS'telepictures'
p5739
I2
sS'karen'
p5740
I2
sS'towels'
p5741
I2
sS'trust'
p5742
I21
sS'conference'
p5743
I4
sS'jobless'
p5744
I4
sS'beef'
p5745
I2
sS'rebounded'
p5746
I2
sS'been'
p5747
I80
sS'quickly'
p5748
I8
sS'confident'
p5749
I3
sS'beer'
p5750
I7
sS'expected'
p5751
I25
sS'republicans'
p5752
I2
sS'900'
p5753
I5
sS'enterprises'
p5754
I2
sS'craft'
p5755
I2
sS'lorded'
p5756
I2
sS'catch'
p5757
I2
sS'feminine-care'
p5758
I2
sS'kentucky'
p5759
I2
sS'gumbel'
p5760
I2
sS'teachers'
p5761
I3
sS'precede'
p5762
I2
sS's&ls'
p5763
I2
sS'accessories'
p5764
I2
sS'expenses'
p5765
I2
sS'brewed'
p5766
I2
sS'experts'
p5767
I5
sS'containing'
p5768
I2
sS'complex'
p5769
I4
sS'isikoff'
p5770
I2
sS'several'
p5771
I23
sS'peaks'
p5772
I2
sS'workings'
p5773
I2
sS'insisted'
p5774
I2
sS'tassel'
p5775
I2
sS'shortly'
p5776
I3
sS'neurologists'
p5777
I2
sS'charlie'
p5778
I2
sS'savings'
p5779
I4
sS'greatest'
p5780
I3
sS'mother'
p5781
I2
sS'hearts'
p5782
I2
sS'alabama'
p5783
I3
sS'outnumbered'
p5784
I2
sS'seasonal'
p5785
I2
sS'whimsical'
p5786
I2
sS'departed'
p5787
I2
sS'proposed'
p5788
I14
sS'unemployment'
p5789
I7
sS'luxury-car'
p5790
I2
sS'proposes'
p5791
I2
sS'vivaldi-at-brunch'
p5792
I2
sS'resigning'
p5793
I2
sS'eli'
p5794
I4
sS'orange-and-blue'
p5795
I2
sS'greenwich'
p5796
I2
sS'exempting'
p5797
I2
sS'non-u.s.'
p5798
I2
sS'cinzano'
p5799
I2
sS'interprets'
p5800
I2
sS'sherbet'
p5801
I2
sS'gave'
p5802
I7
sS'casting'
p5803
I2
sS'bands'
p5804
I2
sS'descending'
p5805
I2
sS'judge'
p5806
I76
sS'appearing'
p5807
I2
sS'advanced'
p5808
I2
sS'apart'
p5809
I4
sS'59'
p5810
I3
sS'gift'
p5811
I2
sS'55'
p5812
I4
sS'54'
p5813
I4
sS'hunt'
p5814
I14
sS'51'
p5815
I3
sS'50'
p5816
I14
sS'53'
p5817
I4
sS'specific'
p5818
I7
sS'renamed'
p5819
I2
sS'offices'
p5820
I2
sS'officer'
p5821
I22
sS'awarded'
p5822
I3
sS'wakeman'
p5823
I4
sS'malaysia'
p5824
I2
sS'donald'
p5825
I2
sS'election'
p5826
I4
sS'indirect'
p5827
I2
sS'unsuspecting'
p5828
I2
sS'clash'
p5829
I3
sS'orwellian'
p5830
I2
sS'reinvest'
p5831
I3
sS'ice'
p5832
I2
sS'everything'
p5833
I7
sS'newsprint'
p5834
I7
sS'banxquote'
p5835
I6
sS'flaps'
p5836
I3
sS'core'
p5837
I4
sS'corn'
p5838
I11
sS'discount'
p5839
I7
sS'corp'
p5840
I5
sS'chapter'
p5841
I3
sS'burbank'
p5842
I2
sS'misleading'
p5843
I2
sS'ensure'
p5844
I3
sS'steadily'
p5845
I2
sS'efforts'
p5846
I12
sS'twitch'
p5847
I2
sS'presence'
p5848
I6
sS'civil'
p5849
I18
sS'accommodate'
p5850
I2
sS'accomplishments'
p5851
I3
sS'tribune'
p5852
I2
sS'transform'
p5853
I2
sS'class'
p5854
I8
sS'stuck'
p5855
I2
sS'fought'
p5856
I4
sS'purposely'
p5857
I2
sS'head'
p5858
I8
sS'successfully'
p5859
I5
sS'amateur'
p5860
I3
sS'fragrance'
p5861
I2
sS'dataproducts'
p5862
I3
sS'attempted'
p5863
I2
sS'differences'
p5864
I2
sS'removes'
p5865
I2
sS'libor'
p5866
I2
sS'payable'
p5867
I5
sS'heat'
p5868
I2
sS'hear'
p5869
I2
sS'insider-trading'
p5870
I3
sS'counsel'
p5871
I4
sS'versions'
p5872
I5
sS'compositional'
p5873
I2
sS'bids'
p5874
I9
sS'kitschy'
p5875
I2
sS'simplifying'
p5876
I2
sS'plant-sciences'
p5877
I2
sS'trim'
p5878
I2
sS'obfuscation'
p5879
I2
sS'peruvian'
p5880
I2
sS'suspicions'
p5881
I2
sS'0.60'
p5882
I2
sS'trip'
p5883
I2
sS'propagandists'
p5884
I2
sS'faithful'
p5885
I2
sS'no'
p5886
I46
sS'when'
p5887
I53
sS'setting'
p5888
I4
sS'papers'
p5889
I3
sS'picture'
p5890
I3
sS'reconsider'
p5891
I2
sS'loan-loss'
p5892
I2
sS'unifirst'
p5893
I4
sS'cambria'
p5894
I12
sS'rapeseed'
p5895
I2
sS'longer'
p5896
I6
sS'uncovered'
p5897
I2
sS'vietnam'
p5898
I4
sS'oeufs'
p5899
I2
sS'serious'
p5900
I2
sS'intimacy'
p5901
I2
sS'pistils'
p5902
I2
sS'remarkable'
p5903
I3
sS'alternatives'
p5904
I2
sS'focus'
p5905
I2
sS'deliveries'
p5906
I2
sS'obviate'
p5907
I2
sS'leads'
p5908
I2
sS'roy'
p5909
I2
sS'savings-type'
p5910
I3
sS'row'
p5911
I3
sS'environment'
p5912
I4
sS'charge'
p5913
I8
sS'promoting'
p5914
I2
sS'discovering'
p5915
I2
sS"l'heureux"
p5916
I2
sS'federation'
p5917
I2
sS'sloppy'
p5918
I2
sS'tanks'
p5919
I9
sS'cook'
p5920
I2
sS'8.61'
p5921
I2
sS'emphasized'
p5922
I2
sS'8.63'
p5923
I2
sS'clouds'
p5924
I2
sS'impressive'
p5925
I2
sS'level'
p5926
I10
sS'philippines'
p5927
I6
sS'camaraderie'
p5928
I2
sS'posts'
p5929
I3
sS'hawaii'
p5930
I2
sS'standards'
p5931
I8
sS'yale'
p5932
I3
sS'quick'
p5933
I6
sS'money-market'
p5934
I2
sS'pork'
p5935
I2
sS'heinz'
p5936
I2
sS'says'
p5937
I71
sS'tougher'
p5938
I4
sS'trend'
p5939
I4
sS'injunction'
p5940
I2
sS'slowed'
p5941
I2
sS'journalistic'
p5942
I2
sS'takeoff'
p5943
I3
sS'substitute'
p5944
I4
sS'drinks'
p5945
I3
sS'constitution'
p5946
I3
sS'minikes'
p5947
I2
sS'goes'
p5948
I3
sS'groupe'
p5949
I2
sS'water'
p5950
I3
sS'abandon'
p5951
I3
sS'baseball'
p5952
I8
sS'groups'
p5953
I6
sS'crippled'
p5954
I2
sS'healthy'
p5955
I2
sS'lancaster'
p5956
I2
sS'noticeably'
p5957
I2
sS'navigation'
p5958
I2
sS'emerge'
p5959
I2
sS'shelled'
p5960
I2
sS'soybeans'
p5961
I2
sS'bribery'
p5962
I2
sS'paralyzed'
p5963
I3
sS'pianist*slashhere*bassoonist*slashhere*composer'
p5964
I2
sS'crisis'
p5965
I2
sS'handled'
p5966
I2
sS'third-quarter'
p5967
I5
sS'sports'
p5968
I3
sS'handles'
p5969
I3
sS'criteria'
p5970
I2
sS'australian'
p5971
I2
sS'today'
p5972
I16
sS'unwarranted'
p5973
I2
sS'dismay'
p5974
I2
sS'7.0826'
p5975
I2
sS'cases'
p5976
I8
sS'tribunal'
p5977
I2
sS'thousands'
p5978
I3
sS'butterfat'
p5979
I4
sS'modified'
p5980
I2
sS'flagship'
p5981
I2
sS'ms.'
p5982
I15
sS'judy'
p5983
I2
sS'laughter'
p5984
I2
sS'performer'
p5985
I2
sS'nursing'
p5986
I2
sS'figure'
p5987
I5
sS'demagoguery'
p5988
I2
sS'critic'
p5989
I3
sS'dropped'
p5990
I7
sS'parliamentary'
p5991
I2
sS'requirements'
p5992
I3
sS'secured'
p5993
I2
sS'1'
I18
sS'ornette'
p5994
I2
sS'fourth'
p5995
I5
sS'subsidiaries'
p5996
I2
sS'!'
I2
sS'3.45'
p5997
I2
sS'nixdorf'
p5998
I3
sS'huge'
p5999
I5
sS'birthday'
p6000
I2
sS'receptivity'
p6001
I2
sS'branches'
p6002
I4
sS'rollie'
p6003
I2
sS'liquid'
p6004
I2
sS'equities'
p6005
I2
sS'refund'
p6006
I2
sS'stonemason'
p6007
I2
sS'acts'
p6008
I2
sS'furnished'
p6009
I2
sS'undervalued'
p6010
I2
sS'mainly'
p6011
I2
sS'swank'
p6012
I3
sS'courthouse'
p6013
I3
sS'offers'
p6014
I5
sS'farmer'
p6015
I2
sS'prebon'
p6016
I2
sS'delighted'
p6017
I2
sS'78,600'
p6018
I2
sS'31.25'
p6019
I2
sS'term'
p6020
I3
sS'name'
p6021
I8
sS'clutch'
p6022
I2
sS'vt.'
p6023
I2
sS'possibilities'
p6024
I2
sS'85'
p6025
I2
sS'weighted'
p6026
I3
sS'asbestos-related'
p6027
I2
sS'begun'
p6028
I2
sS'distributor'
p6029
I2
sS'obsession'
p6030
I2
sS'intended'
p6031
I4
sS'hacker'
p6032
I8
sS'ultimately'
p6033
I6
sS'computer-market'
p6034
I2
sS'factors'
p6035
I4
sS'profit'
p6036
I4
sS'factory'
p6037
I3
sS'attracted'
p6038
I4
sS'overflowing'
p6039
I2
sS'attended'
p6040
I2
sS'rolls-royce'
p6041
I2
sS'dirk'
p6042
I2
sS'motion'
p6043
I3
sS'turn'
p6044
I6
sS'best-known'
p6045
I2
sS'place'
p6046
I2
sS'retreating'
p6047
I2
sS'turf'
p6048
I2
sS'laboratorium'
p6049
I2
sS'merrill'
p6050
I4
sS'revenue'
p6051
I13
sS'soaring'
p6052
I3
sS'array'
p6053
I2
sS'george'
p6054
I6
sS'millions'
p6055
I2
sS'given'
p6056
I5
sS'necessarily'
p6057
I2
sS'district'
p6058
I7
sS'trillion'
p6059
I5
sS'stimulation'
p6060
I3
sS'returns'
p6061
I5
sS'clinical'
p6062
I2
sS'convention'
p6063
I2
sS'white'
p6064
I15
sS'anesthetized'
p6065
I2
sS'gives'
p6066
I4
sS'exploring'
p6067
I2
sS'wrongdoing'
p6068
I2
sS'season'
p6069
I7
sS'hun'
p6070
I3
sS'alan'
p6071
I3
sS'released'
p6072
I4
sS'copy'
p6073
I3
sS'holder'
p6074
I2
sS'milton'
p6075
I2
sS'wide'
p6076
I3
sS'unfortunately'
p6077
I4
sS'require'
p6078
I6
sS'diplomatic'
p6079
I3
sS'spokeswoman'
p6080
I2
sS'computer'
p6081
I17
sS'mcbride'
p6082
I2
sS'cards'
p6083
I4
sS'theocracy'
p6084
I2
sS'and'
p6085
I813
sS'armored'
p6086
I3
sS'largely'
p6087
I6
sS'pro'
p6088
I2
sS'worcester'
p6089
I2
sS'rent'
p6090
I6
sS'sells'
p6091
I4
sS'any'
p6092
I30
sS'prosperity'
p6093
I2
sS'conversion'
p6094
I2
sS'ideas'
p6095
I3
sS'sciences'
p6096
I3
sS'ideal'
p6097
I3
sS'then-current'
p6098
I2
sS'urge'
p6099
I2
sS'sure'
p6100
I5
sS'multiple'
p6101
I2
sS'visitors'
p6102
I2
sS'schimberg'
p6103
I2
sS'probes'
p6104
I2
sS'considered'
p6105
I9
sS'broberg'
p6106
I4
sS'adopt'
p6107
I2
sS'hungry'
p6108
I2
sS'pores'
p6109
I2
sS'senior'
p6110
I19
sS'drastically'
p6111
I2
sS'ginseng'
p6112
I2
sS'allegations'
p6113
I7
sS'trespass'
p6114
I2
sS'trop'
p6115
I2
sS'hustles'
p6116
I2
sS'genius'
p6117
I2
sS'watergate-beleaguered'
p6118
I2
sS'state'
p6119
I39
sS'crime'
p6120
I3
sS'wood'
p6121
I2
sS'brissette'
p6122
I3
sS'messiaen'
p6123
I2
sS'cautioned'
p6124
I2
sS'dreaded'
p6125
I2
sS'viewpoint'
p6126
I2
sS'jazz'
p6127
I5
sS'begging'
p6128
I2
sS'expectation'
p6129
I2
sS'2210'
p6130
I2
sS'lighter'
p6131
I2
sS'closure'
p6132
I2
sS'reveal'
p6133
I2
sS'regarding'
p6134
I2
sS'high-backed'
p6135
I2
sS'paper'
p6136
I11
sS'predicted'
p6137
I2
sS'discussing'
p6138
I7
sS'ignored'
p6139
I2
sS'picnic'
p6140
I2
sS'encourages'
p6141
I3
sS'violated'
p6142
I2
sS'baseball-loving'
p6143
I2
sS'college'
p6144
I4
sS'slashing'
p6145
I2
sS'stanley'
p6146
I6
sS'violates'
p6147
I2
sS'encouraged'
p6148
I2
sS'fails'
p6149
I2
sS'mortgage'
p6150
I31
sS'farmers'
p6151
I3
sS'federal'
p6152
I31
sS'review'
p6153
I7
sS'commitments'
p6154
I5
sS'weapons'
p6155
I9
sS'outside'
p6156
I4
sS'moslems'
p6157
I2
sS'8.44'
p6158
I2
sS'8.45'
p6159
I2
sS'8.40'
p6160
I2
sS'8.49'
p6161
I2
sS'diners'
p6162
I2
sS'unusually'
p6163
I2
sS'cities'
p6164
I2
sS'come'
p6165
I14
sS'reaction'
p6166
I2
sS'bite-sized'
p6167
I2
sS'acquiring'
p6168
I4
sS'missions'
p6169
I2
sS'mob'
p6170
I2
sS'region'
p6171
I2
sS'23'
p6172
I6
sS'berra'
p6173
I2
sS'contract'
p6174
I10
sS'columnist'
p6175
I2
sS'senator'
p6176
I2
sS'railway'
p6177
I2
sS'ntsb'
p6178
I2
sS'cabal'
p6179
I2
sS'billion-yen'
p6180
I2
sS'color'
p6181
I4
sS'cablevision'
p6182
I2
sS'colony'
p6183
I2
sS'period'
p6184
I10
sS'pop'
p6185
I4
sS'60'
p6186
I10
sS'61'
p6187
I4
sS'62'
p6188
I2
sS'white-haired'
p6189
I2
sS'65'
p6190
I2
sS'66'
p6191
I3
sS'approval'
p6192
I8
sS'68'
p6193
I3
sS'bizarre'
p6194
I3
sS'poll'
p6195
I2
sS'two-year'
p6196
I2
sS'turkey'
p6197
I2
sS'squaring'
p6198
I2
sS'howard'
p6199
I2
sS'3.53'
p6200
I2
sS'declining'
p6201
I4
sS'peaceful'
p6202
I2
sS'hardly'
p6203
I4
sS'500'
p6204
I10
sS'engine'
p6205
I2
sS'direction'
p6206
I5
sS'blessing'
p6207
I4
sS'andrew'
p6208
I2
sS'minister'
p6209
I7
sS'walkie-talkie'
p6210
I2
sS'pilot'
p6211
I6
sS'paying'
p6212
I4
sS'per-capita'
p6213
I3
sS'myself'
p6214
I4
sS'mount'
p6215
I3
sS'thigh'
p6216
I2
sS'cash'
p6217
I15
sS'premature'
p6218
I2
sS'prime-1'
p6219
I2
sS'prime-2'
p6220
I2
sS'mound'
p6221
I2
sS'coupled'
p6222
I2
sS'telephone'
p6223
I5
sS'discrepancy'
p6224
I2
sS'good'
p6225
I17
sS'converts'
p6226
I2
sS'kimberly-clark'
p6227
I4
sS'mcgregor'
p6228
I2
sS'79.18'
p6229
I2
sS'author'
p6230
I2
sS'granted'
p6231
I3
sS'admit'
p6232
I2
sS'check'
p6233
I2
sS'manila'
p6234
I2
sS'buys'
p6235
I2
sS'events'
p6236
I4
sS'week'
p6237
I22
sS'high-production'
p6238
I2
sS'sherblom'
p6239
I2
sS'refusal'
p6240
I3
sS'driver'
p6241
I2
sS'driven'
p6242
I2
sS'delicate'
p6243
I3
sS'changing'
p6244
I2
sS'perennial'
p6245
I2
sS'minimize'
p6246
I2
sS'without'
p6247
I19
sS'relief'
p6248
I3
sS'components'
p6249
I5
sS'reward'
p6250
I2
sS'researchers'
p6251
I12
sS'justify'
p6252
I4
sS'actions'
p6253
I2
sS'lavish'
p6254
I2
sS'violent'
p6255
I3
sS'kill'
p6256
I3
sS'mazzera'
p6257
I2
sS'polish'
p6258
I2
sS'blow'
p6259
I2
sS'announcement'
p6260
I8
sS'assemblages'
p6261
I2
sS'rose'
p6262
I22
sS'seems'
p6263
I6
sS'except'
p6264
I2
sS'embezzled'
p6265
I2
sS'bloc'
p6266
I3
sS'rost'
p6267
I2
sS'disrupt'
p6268
I2
sS'sea'
p6269
I5
sS'ross'
p6270
I8
sS'scheduled'
p6271
I6
sS'virginia'
p6272
I4
sS'loaned'
p6273
I2
sS'1472.76'
p6274
I2
sS'inflation'
p6275
I3
sS'accepted'
p6276
I6
sS'unwilling'
p6277
I2
sS'furniture'
p6278
I2
sS'walt'
p6279
I2
sS'standstill'
p6280
I3
sS'kennedy'
p6281
I3
sS'reduces'
p6282
I2
sS'reduced'
p6283
I7
sS'shunned'
p6284
I2
sS'deduct'
p6285
I2
sS'burdens'
p6286
I2
sS'nikkei'
p6287
I3
sS'pacific'
p6288
I6
sS'multimillion-dollar'
p6289
I2
sS'intact'
p6290
I3
sS'top-secret'
p6291
I2
sS'provided'
p6292
I4
sS'swaps'
p6293
I2
sS'legal'
p6294
I8
sS'moon'
p6295
I18
sS'provides'
p6296
I4
sS'provider'
p6297
I3
sS'porter'
p6298
I2
sS'norberto'
p6299
I2
sS'beaches'
p6300
I2
sS'on'
p6301
I238
sS'oh'
p6302
I2
sS'of'
p6303
I1048
sS'discussed'
p6304
I3
sS'mutually'
p6305
I2
sS'stand'
p6306
I5
sS'tariffs'
p6307
I2
sS'or'
p6308
I116
sS'cambridge'
p6309
I2
sS'instruments'
p6310
I6
sS'spinal'
p6311
I5
sS'rising'
p6312
I3
sS'determine'
p6313
I4
sS'burton'
p6314
I2
sS'there'
p6315
I42
sS'disposed'
p6316
I2
sS'christianity'
p6317
I2
sS'strict'
p6318
I3
sS'fastball'
p6319
I3
sS'11*slashhere*16'
p6320
I3
sS'fundamentals'
p6321
I2
sS'cabinet'
p6322
I2
sS'slowdown'
p6323
I2
sS'street-corner'
p6324
I3
sS'wholesale'
p6325
I3
sS'grasp'
p6326
I2
sS'life-insurance'
p6327
I2
sS'triple-a'
p6328
I6
sS'taste'
p6329
I2
sS'totaling'
p6330
I5
sS'minneapolis'
p6331
I2
sS'cbs'
p6332
I5
sS'britain'
p6333
I8
sS'ingeniously'
p6334
I2
sS'99.1875'
p6335
I3
sS'politics'
p6336
I2
sS'belzbergs'
p6337
I2
sS'scotches'
p6338
I2
sS'4.5'
p6339
I2
sS'onerous'
p6340
I2
sS'4.2'
p6341
I4
sS'4.9'
p6342
I2
sS'rubber'
p6343
I2
sS'roses'
p6344
I2
sS'5'
I8
sS'trash'
p6345
I2
sS'separate'
p6346
I9
sS'includes'
p6347
I3
sS'flower'
p6348
I2
sS'included'
p6349
I4
sS'funding'
p6350
I4
sS'spouse'
p6351
I2
sS'slowball'
p6352
I2
sS'arsenals'
p6353
I3
sS'calls'
p6354
I4
sS'refinanced'
p6355
I3
sS'invest'
p6356
I4
sS'odds'
p6357
I3
sS'directors'
p6358
I8
sS'all'
p6359
I50
sS'chinese'
p6360
I12
sS'720,000'
p6361
I2
sS'dish'
p6362
I2
sS'settlement'
p6363
I15
sS'decisions'
p6364
I3
sS'jerome'
p6365
I2
sS'apartment'
p6366
I2
sS'subjected'
p6367
I2
sS'agro-industry'
p6368
I2
sS'opportunities'
p6369
I2
sS'program'
p6370
I12
sS'dairy'
p6371
I3
sS'lawmakers'
p6372
I3
sS'activities'
p6373
I7
sS'woman'
p6374
I3
sS'worse'
p6375
I3
sS'song'
p6376
I3
sS'far'
p6377
I16
sS'fat'
p6378
I3
sS'worst'
p6379
I3
sS'sony'
p6380
I18
sS'epinalers'
p6381
I2
sS'morley'
p6382
I2
sS'stimulus'
p6383
I2
sS'quipped'
p6384
I2
sS'employing'
p6385
I2
sS'tel'
p6386
I2
sS'tea'
p6387
I2
sS'90.5'
p6388
I2
sS'tee'
p6389
I2
sS'dalton'
p6390
I2
sS'rate'
p6391
I26
sS'haag'
p6392
I3
sS'distributorship'
p6393
I2
sS'what'
p6394
I28
sS'sun'
p6395
I5
sS'brief'
p6396
I2
sS'version'
p6397
I3
sS'disbursed'
p6398
I2
sS'guns'
p6399
I2
sS'toes'
p6400
I3
sS'christian'
p6401
I2
sS'teodorani'
p6402
I2
sS'supposedly'
p6403
I2
sS'retraining'
p6404
I2
sS'andrews'
p6405
I2
sS'berkeley'
p6406
I8
sS'tragedy'
p6407
I2
sS'naval'
p6408
I4
sS'd.c'
p6409
I2
sS'allows'
p6410
I3
sS'gleeful'
p6411
I2
sS'ana'
p6412
I2
sS'options'
p6413
I9
sS'1721.4'
p6414
I2
sS'arms-control'
p6415
I4
sS'suddenly'
p6416
I2
sS'fla.'
p6417
I2
sS'florence'
p6418
I4
sS'clifford'
p6419
I3
sS'new-home'
p6420
I2
sS'markets'
p6421
I24
sS'minor'
p6422
I5
sS'horses'
p6423
I2
sS'flat'
p6424
I4
sS'israel'
p6425
I5
sS'knows'
p6426
I2
sS're-elected'
p6427
I2
sS'oleg'
p6428
I2
sS'hissed'
p6429
I2
sS'big-time'
p6430
I2
sS'mellow'
p6431
I3
sS'computers'
p6432
I17
sS'division'
p6433
I9
sS'protects'
p6434
I2
sS'pond'
p6435
I2
sS'chores'
p6436
I3
sS'court'
p6437
I25
sS'goal'
p6438
I2
sS'5.6'
p6439
I2
sS'acrimony'
p6440
I3
sS'5.9'
p6441
I2
sS'breaking'
p6442
I9
sS'occasionally'
p6443
I2
sS'stemming'
p6444
I2
sS'speeding'
p6445
I2
sS'explains'
p6446
I2
sS'prepayment'
p6447
I4
sS'reflect'
p6448
I2
sS'lighting'
p6449
I6
sS'unsurprising'
p6450
I2
sS'concentrating'
p6451
I2
sS'dissolving'
p6452
I2
sS'short'
p6453
I6
sS'perhaps'
p6454
I8
sS'shore'
p6455
I2
sS'balloon'
p6456
I8
sS'turnover'
p6457
I3
sS'september'
p6458
I22
sS'developed'
p6459
I8
sS'mission'
p6460
I3
sS'logan'
p6461
I2
sS'1.93'
p6462
I2
sS'inquiries'
p6463
I2
sS'developer'
p6464
I2
sS'style'
p6465
I3
sS'agnelli'
p6466
I16
sS'susceptible'
p6467
I2
sS'harmless'
p6468
I2
sS'strange'
p6469
I2
sS'disagrees'
p6470
I2
sS'stephen'
p6471
I3
sS'soccer'
p6472
I2
sS'might'
p6473
I26
sS'alter'
p6474
I2
sS'return'
p6475
I11
sS'hunter'
p6476
I2
sS'inch'
p6477
I2
sS'communities'
p6478
I3
sS'bancorp'
p6479
I3
sS'bigger'
p6480
I3
sS'instructions'
p6481
I2
sS'marcus'
p6482
I2
sS'adjacent'
p6483
I2
sS'transportable'
p6484
I2
sS'characterized'
p6485
I2
sS'weighs'
p6486
I2
sS'weight'
p6487
I2
sS'generation'
p6488
I3
sS'fixture'
p6489
I2
sS'brother'
p6490
I2
sS'expect'
p6491
I13
sS'telltale'
p6492
I2
sS'70.3'
p6493
I2
sS'english-language'
p6494
I2
sS'imploring'
p6495
I2
sS'health'
p6496
I6
sS'congenial'
p6497
I2
sS'compounding'
p6498
I2
sS'fiber'
p6499
I2
sS'wisconsin'
p6500
I3
sS'friday'
p6501
I4
sS'abounds'
p6502
I2
sS'experimenting'
p6503
I2
sS'four-month'
p6504
I2
sS'tassels'
p6505
I2
sS'attendant'
p6506
I2
sS'generate'
p6507
I2
sS'lag'
p6508
I2
sS'fiat'
p6509
I6
sS'introduction'
p6510
I2
sS'deja'
p6511
I2
sS'ebensburg'
p6512
I6
sS'throws'
p6513
I2
sS'feed'
p6514
I3
sS'feel'
p6515
I11
sS'babelists'
p6516
I2
sS'fancy'
p6517
I3
sS'traveled'
p6518
I2
sS'feet'
p6519
I6
sS'resnick'
p6520
I2
sS'fees'
p6521
I4
sS'slower'
p6522
I3
sS'idea'
p6523
I6
sS'passes'
p6524
I3
sS'story'
p6525
I2
sS'leading'
p6526
I11
sS'interviews'
p6527
I2
sS'180'
p6528
I3
sS'passed'
p6529
I3
sS'finances'
p6530
I2
sS'recovered'
p6531
I2
sS'headache'
p6532
I2
sS'pipelines'
p6533
I2
sS'erupted'
p6534
I2
sS'hotel'
p6535
I2
sS'treasurer'
p6536
I2
sS'convinced'
p6537
I2
sS'five-course'
p6538
I2
sS'reliever'
p6539
I2
sS'king'
p6540
I3
sS'kind'
p6541
I4
sS'nagging'
p6542
I2
sS'double'
p6543
I2
sS'mich.'
p6544
I2
sS'arcata'
p6545
I2
sS'risks'
p6546
I2
sS'midmorning'
p6547
I2
sS'risky'
p6548
I2
sS'amass'
p6549
I2
sS'outstanding'
p6550
I7
sS'strengthen'
p6551
I5
sS'imports'
p6552
I2
sS'berthold'
p6553
I4
sS'shrewd'
p6554
I2
sS'depleted'
p6555
I2
sS'oriole'
p6556
I2
sS'nights'
p6557
I2
sS'interferes'
p6558
I2
sS'cropped'
p6559
I2
sS'conforming'
p6560
I2
sS'chairman'
p6561
I23
sS'genetically'
p6562
I2
sS'sherry'
p6563
I2
sS'stennett'
p6564
I2
sS'fresca'
p6565
I4
sS'added'
p6566
I16
sS'critics'
p6567
I5
sS'electric'
p6568
I5
sS'42,455'
p6569
I2
sS'intervened'
p6570
I2
sS'goldman'
p6571
I2
sS'measures'
p6572
I4
sS'reach'
p6573
I3
sS'76'
p6574
I2
sS'75'
p6575
I4
sS'shareholder'
p6576
I7
sS'72'
p6577
I3
sS'70'
p6578
I5
sS'nothing'
p6579
I5
sS'seasons'
p6580
I2
sS'prestige'
p6581
I2
sS'measured'
p6582
I2
sS'soared'
p6583
I2
sS'stands'
p6584
I3
sS'patterned'
p6585
I2
sS'gas-tax-increasing'
p6586
I2
sS'dealers'
p6587
I3
sS'45-year-old'
p6588
I3
sS'traditional'
p6589
I2
sS'institutions'
p6590
I11
sS'lying'
p6591
I2
sS'painewebber'
p6592
I2
sS'stones'
p6593
I2
sS'rtc'
p6594
I8
sS'cdc'
p6595
I2
sS'lay'
p6596
I2
sS'restarters'
p6597
I2
sS'cds'
p6598
I6
sS'deserts'
p6599
I2
sS'penalty'
p6600
I5
sS'counterpoint'
p6601
I3
sS'his'
p6602
I142
sS'founding'
p6603
I3
sS'gains'
p6604
I6
sS'compiled'
p6605
I2
sS'mortgage-backed'
p6606
I3
sS'5,000'
p6607
I3
sS'industrywide'
p6608
I2
sS'him'
p6609
I29
sS'grievances'
p6610
I3
sS'statism'
p6611
I2
sS'investigate'
p6612
I2
sS'statist'
p6613
I2
sS'activity'
p6614
I6
sS'precaution'
p6615
I2
sS'wrote'
p6616
I11
sS'dump'
p6617
I2
sS'achieved'
p6618
I2
sS'declines'
p6619
I2
sS'evangelist-industrialist'
p6620
I2
sS'defense'
p6621
I2
sS'are'
p6622
I182
sS'cleverly'
p6623
I2
sS'chambers'
p6624
I4
sS'2.7'
p6625
I2
sS'2.6'
p6626
I3
sS'declined'
p6627
I9
sS'2.4'
p6628
I4
sS'spirited'
p6629
I2
sS'invest*slashhere*net'
p6630
I2
sS'user'
p6631
I3
sS'various'
p6632
I10
sS'consecutive'
p6633
I3
sS'corruption'
p6634
I3
sS'solo'
p6635
I2
sS'korea'
p6636
I12
sS'recently'
p6637
I16
sS'creating'
p6638
I4
sS'initially'
p6639
I2
sS'sold'
p6640
I18
sS'sole'
p6641
I3
sS'general-purpose'
p6642
I3
sS'outfit'
p6643
I2
sS'succeed'
p6644
I3
sS'opposition'
p6645
I3
sS'franchise'
p6646
I4
sS'franchisee'
p6647
I2
sS'license'
p6648
I3
sS'oversee'
p6649
I2
sS'rubendall'
p6650
I4
sS'became'
p6651
I8
sS'redemptions'
p6652
I2
sS'context'
p6653
I2
sS'nahas'
p6654
I4
sS'flies'
p6655
I2
sS'regulates'
p6656
I2
sS'duplicity'
p6657
I2
sS'reasons'
p6658
I5
sS'sweet'
p6659
I2
sS'slots'
p6660
I2
sS'leemans'
p6661
I4
sS'bolster'
p6662
I3
sS'decline'
p6663
I4
sS'duo'
p6664
I3
sS'352-mile'
p6665
I2
sS'hashidate'
p6666
I2
sS'due'
p6667
I11
sS'strategy'
p6668
I4
sS'whom'
p6669
I2
sS'reduction'
p6670
I2
sS'3*slashhere*4'
p6671
I9
sS'orioles'
p6672
I2
sS'3*slashhere*8'
p6673
I2
sS'chandler'
p6674
I2
sS'woke'
p6675
I2
sS'flight'
p6676
I2
sS'precision'
p6677
I3
sS'vaguely'
p6678
I2
sS'brokers'
p6679
I4
sS'demand'
p6680
I5
sS'plants'
p6681
I18
sS'stolen'
p6682
I3
sS'anticult'
p6683
I2
sS'balloons'
p6684
I2
sS'unprecedented'
p6685
I2
sS'tweaking'
p6686
I2
sS'p.'
p6687
I4
sS'19.7'
p6688
I3
sS'uninspired'
p6689
I2
sS'disappointing'
p6690
I2
sS'obstacle'
p6691
I3
sS'headway'
p6692
I2
sS'currents'
p6693
I2
sS'chauffeur'
p6694
I2
sS'lengthy'
p6695
I2
sS'ample'
p6696
I3
sS'widely'
p6697
I4
sS'peoples'
p6698
I3
sS'9'
I8
sS'advise'
p6699
I3
sS'daughters'
p6700
I2
sS'higher'
p6701
I17
sS'biochemist'
p6702
I2
sS'perception'
p6703
I2
sS'painless'
p6704
I2
sS'negotiate'
p6705
I3
sS'flown'
p6706
I2
sS'moving'
p6707
I5
sS'anti-japanese'
p6708
I2
sS'mips'
p6709
I20
sS'lower'
p6710
I13
sS'cheek'
p6711
I2
sS'bounces'
p6712
I2
sS'analysis'
p6713
I2
sS'cheer'
p6714
I2
sS'edge'
p6715
I3
sS'machinery'
p6716
I4
sS'mellowed'
p6717
I2
sS'pollen'
p6718
I6
sS'grievance'
p6719
I3
sS'abilities'
p6720
I2
sS'52.4'
p6721
I2
sS'competitive'
p6722
I4
sS'questions'
p6723
I6
sS'immediately'
p6724
I5
sS'regardless'
p6725
I2
sS'prince'
p6726
I3
sS'profitable'
p6727
I4
sS'old-time'
p6728
I2
sS'advisers'
p6729
I2
sS'workers'
p6730
I9
sS'9.19'
p6731
I2
sS'exclusively'
p6732
I2
sS'contractor'
p6733
I2
sS"tong'il"
p6734
I2
sS'tamer'
p6735
I2
sS'complaint'
p6736
I3
sS'vendor'
p6737
I2
sS'discriminatory'
p6738
I2
sS'moody'
p6739
I13
sS'modifications'
p6740
I2
sS'shapes'
p6741
I2
sS'collect'
p6742
I2
sS'arthur'
p6743
I2
sS'yorker'
p6744
I3
sS'essential'
p6745
I2
sS'hallmark'
p6746
I2
sS'hinted'
p6747
I2
sS'3.6'
p6748
I3
sS'understood'
p6749
I2
sS'3.4'
p6750
I2
sS'3.5'
p6751
I3
sS'3.2'
p6752
I2
sS'3.8'
p6753
I2
sS'3.9'
p6754
I2
sS'incendiary'
p6755
I2
sS'seller'
p6756
I2
sS'bankruptcy-law'
p6757
I3
sS'innovation'
p6758
I2
sS'anne'
p6759
I2
sS'clarinetist'
p6760
I4
sS'mutts'
p6761
I2
sS'under-reported'
p6762
I2
sS'martin'
p6763
I4
sS'refused'
p6764
I5
sS'aloft'
p6765
I2
sS'4.67'
p6766
I2
sS'elixir'
p6767
I2
sS'refuses'
p6768
I2
sS'dormant'
p6769
I2
sS'guber-peters'
p6770
I6
sS'pipeline'
p6771
I4
sS'brooklyn'
p6772
I2
sS'range'
p6773
I6
sS'hatred'
p6774
I2
sS'resiliency'
p6775
I2
sS'procter'
p6776
I2
sS'intraday'
p6777
I2
sS'canal'
p6778
I3
sS'introverted'
p6779
I2
sS'question'
p6780
I5
sS'long'
p6781
I16
sS'back-pay'
p6782
I2
sS'vienna'
p6783
I3
sS'files'
p6784
I4
sS'mountains'
p6785
I2
sS'plunge'
p6786
I2
sS'memory'
p6787
I5
sS'goods-producing'
p6788
I2
sS'filed'
p6789
I16
sS'raising'
p6790
I5
sS'declarations'
p6791
I2
sS'holler'
p6792
I2
sS'called'
p6793
I16
sS'associated'
p6794
I3
sS'quantification'
p6795
I2
sS'associates'
p6796
I5
sS'rally'
p6797
I2
sS'dessert-menu'
p6798
I2
sS'119'
p6799
I2
sS'peace'
p6800
I5
sS'backs'
p6801
I2
sS'income'
p6802
I6
sS'mcdonnell'
p6803
I4
sS'muddled'
p6804
I2
sS'six-cent'
p6805
I2
sS'problems'
p6806
I11
sS'fertilized'
p6807
I2
sS'helping'
p6808
I2
sS'generated'
p6809
I3
sS'chugoku'
p6810
I2
sS'allowing'
p6811
I4
sS'pottery'
p6812
I2
sS'vice'
p6813
I26
sS'vosges'
p6814
I2
sS'departments'
p6815
I2
sS'remic'
p6816
I2
sS'intentional'
p6817
I2
sS'once'
p6818
I14
sS'gant'
p6819
I3
sS'issued'
p6820
I7
sS'resistance'
p6821
I3
sS'steve'
p6822
I3
sS'windy'
p6823
I3
sS'winds'
p6824
I2
sS'adjustment'
p6825
I2
sS'contributions'
p6826
I2
sS'issues'
p6827
I18
sS'disposal'
p6828
I2
sS'stable'
p6829
I3
sS'breach'
p6830
I2
sS'include'
p6831
I9
sS'1988-return'
p6832
I2
sS'engineered'
p6833
I2
sS'disquieting'
p6834
I2
sS'drinking'
p6835
I3
sS'posture'
p6836
I2
sS'infocorp'
p6837
I3
sS'notes'
p6838
I14
sS'deals'
p6839
I2
sS'49.4'
p6840
I2
sS'three-judge'
p6841
I2
sS'noted'
p6842
I4
sS'concluded'
p6843
I2
sS'someday'
p6844
I2
sS'smaller'
p6845
I4
sS'gripping'
p6846
I2
sS'wrestling'
p6847
I2
sS'malice'
p6848
I2
sS'beanballs'
p6849
I2
sS'abominable'
p6850
I2
sS'buffeted'
p6851
I2
sS'growers'
p6852
I3
sS'makers'
p6853
I10
sS'concessions'
p6854
I2
sS'networks'
p6855
I2
sS'waiting'
p6856
I3
sS'gubernatorial'
p6857
I2
sS'capital'
p6858
I18
sS'realignments'
p6859
I2
sS'n.m'
p6860
I2
sS'n.j'
p6861
I2
sS'degree'
p6862
I3
sS'pushing'
p6863
I2
sS'explore'
p6864
I2
sS'n.y'
p6865
I2
sS'horse-breeding'
p6866
I2
sS'skyrocketed'
p6867
I2
sS'adjusts'
p6868
I2
sS'leaving'
p6869
I2
sS'fulton'
p6870
I2
sS'spy'
p6871
I4
sS'apt'
p6872
I2
sS'scaled'
p6873
I2
sS'motor'
p6874
I10
sS'apply'
p6875
I7
sS'use'
p6876
I20
sS'fee'
p6877
I2
sS'from'
p6878
I195
sS'hippie'
p6879
I2
sS'consumption'
p6880
I5
sS'&'
I41
sS'few'
p6881
I20
sS'weeping'
p6882
I2
sS'december'
p6883
I8
sS'timetable'
p6884
I2
sS'1,640'
p6885
I2
sS'parliament'
p6886
I3
sS'journalists'
p6887
I3
sS'inclined'
p6888
I3
sS'factor'
p6889
I2
sS'posturing'
p6890
I2
sS'shostakovich'
p6891
I2
sS'women'
p6892
I2
sS'1980s'
p6893
I2
sS'us$'
p6894
I3
sS'stroke'
p6895
I3
sS'lumber'
p6896
I2
sS'proof'
p6897
I2
sS'payroll-tax'
p6898
I2
sS'tap'
p6899
I2
sS'120-day'
p6900
I3
sS'0.1'
p6901
I2
sS'0.3'
p6902
I2
sS'0.2'
p6903
I6
sS'0.5'
p6904
I3
sS'0.4'
p6905
I2
sS'0.6'
p6906
I2
sS'tad'
p6907
I2
sS'tag'
p6908
I2
sS'something'
p6909
I5
sS'summers'
p6910
I2
sS'united'
p6911
I7
sS'sit'
p6912
I3
sS'six'
p6913
I15
sS'slovenian'
p6914
I2
sS'scotch'
p6915
I3
sS'traders'
p6916
I5
sS'brian'
p6917
I2
sS'3642.90'
p6918
I2
sS'instead'
p6919
I8
sS'tension'
p6920
I2
sS'restructured'
p6921
I2
sS'tack'
p6922
I2
sS'men'
p6923
I5
sS'ethnic'
p6924
I2
sS'improviser'
p6925
I2
sS'light'
p6926
I13
sS'chapman'
p6927
I2
sS'improvised'
p6928
I2
sS'tropics'
p6929
I4
sS'looks'
p6930
I2
sS'quake'
p6931
I2
sS'obeisance'
p6932
I2
sS'superior'
p6933
I2
sS'complicate'
p6934
I2
sS'ships'
p6935
I2
sS'anti-nuclear'
p6936
I2
sS'permanent'
p6937
I2
sS'restrain'
p6938
I2
sS'covered'
p6939
I3
sS'holiday'
p6940
I4
sS'defining'
p6941
I2
sS'pending'
p6942
I3
sS'8.3875'
p6943
I2
sS'crash'
p6944
I8
sS'contention'
p6945
I2
sS'orthodox'
p6946
I2
sS'material'
p6947
I3
sS'republican'
p6948
I3
sS'investor'
p6949
I5
sS'fled'
p6950
I3
sS'articles'
p6951
I2
sS'recorded-music'
p6952
I2
sS'nfl'
p6953
I2
sS'trimmed'
p6954
I2
sS'bickford'
p6955
I2
sS'bills'
p6956
I6
sS'studios'
p6957
I2
sS'registration'
p6958
I3
sS'levy'
p6959
I5
sS'related'
p6960
I2
sS'89'
p6961
I2
sS'lobbied'
p6962
I2
sS'geiger'
p6963
I3
sS'our'
p6964
I24
sS'80'
p6965
I3
sS'ky.'
p6966
I2
sS'category'
p6967
I2
sS'honorably'
p6968
I2
sS'unencumbered'
p6969
I2
sS'supports'
p6970
I2
sS'thrifts'
p6971
I3
sS'disclose'
p6972
I2
sS'dictionary'
p6973
I2
sS'southern'
p6974
I5
sS'provident'
p6975
I2
sS'york'
p6976
I21
sS'broker-dealer'
p6977
I2
sS'segregated'
p6978
I2
sS'navies'
p6979
I2
sS'ltd'
p6980
I6
sS'biting'
p6981
I2
sS'museum'
p6982
I2
sS'plainly'
p6983
I2
sS'baby-faced'
p6984
I2
sS'galvanized'
p6985
I2
sS'tacker'
p6986
I4
sS'proposing'
p6987
I2
sS'probation'
p6988
I2
sS'kingman'
p6989
I2
sS'umbrellas'
p6990
I2
sS'publication'
p6991
I2
sS'priority'
p6992
I3
sS'wood-paneled'
p6993
I2
sS'tidbit'
p6994
I2
sS'shell'
p6995
I2
sS'shelf'
p6996
I3
sS'doomed'
p6997
I2
sS'debate'
p6998
I10
sS'slides'
p6999
I2
sS'reflecting'
p7000
I2
sS'july'
p7001
I10
sS'chisholm'
p7002
I2
sS'institution'
p7003
I2
sS'cash-flush'
p7004
I2
sS'kickback'
p7005
I2
sS'patients'
p7006
I3
sS'creditors'
p7007
I7
sS'1.4'
p7008
I2
sS'1.5'
p7009
I2
sS'1.6'
p7010
I3
sS'1.1'
p7011
I3
sS'clip'
p7012
I2
sS'1.3'
p7013
I2
sS'1.8'
p7014
I2
sS'1.9'
p7015
I2
sS'westward'
p7016
I2
sS'sincerity'
p7017
I2
sS'faux'
p7018
I2
sS'8.50'
p7019
I3
sS'linked'
p7020
I3
sS'pallor'
p7021
I2
sS'agency'
p7022
I34
sS'which'
p7023
I109
sS'u.s.a.'
p7024
I2
sS'alienating'
p7025
I2
sS'martha'
p7026
I2
sS'first-quarter'
p7027
I2
sS'combat'
p7028
I3
sS'collaboration'
p7029
I2
sS'who'
p7030
I96
sS'accountants'
p7031
I4
sS'why'
p7032
I4
sS'subjective'
p7033
I2
sS'410,000'
p7034
I2
sS'looked'
p7035
I5
sS'guinea'
p7036
I3
sS'gain'
p7037
I7
sS'bulging'
p7038
I2
sS'chances'
p7039
I2
sS'please'
p7040
I2
sS'agreed'
p7041
I18
sS'planning'
p7042
I3
sS'democrats'
p7043
I6
sS'fear'
p7044
I3
sS'feat'
p7045
I2
sS'pleased'
p7046
I3
sS'litigation'
p7047
I3
sS'bottling'
p7048
I4
sS'ear'
p7049
I2
sS'piano'
p7050
I2
sS'local'
p7051
I13
sS'q.'
p7052
I2
sS'vigor'
p7053
I2
sS'sued'
p7054
I2
sS'watching'
p7055
I4
sS'midnight'
p7056
I2
sS'massacre'
p7057
I2
sS'ones'
p7058
I4
sS'penetrate'
p7059
I2
sS'chips'
p7060
I2
sS'mulford'
p7061
I9
sS'brain'
p7062
I19
sS'married'
p7063
I2
sS'view'
p7064
I4
sS'available'
p7065
I5
sS'acquired'
p7066
I8
sS'gametocide'
p7067
I2
sS'unfairly'
p7068
I2
sS'acquirer'
p7069
I2
sS'acquires'
p7070
I2
sS'mid-november'
p7071
I2
sS'favor'
p7072
I4
sS':'
I70
sS'closed'
p7073
I13
sS'pure-voiced'
p7074
I2
sS'frustrated'
p7075
I2
sS'bought'
p7076
I6
sS'weighing'
p7077
I2
sS'ability'
p7078
I3
sS'opening'
p7079
I7
sS'beverages'
p7080
I2
sS'agencies'
p7081
I9
sS'reitman'
p7082
I2
sS'embarrassment'
p7083
I2
sS'job'
p7084
I7
sS'takeover'
p7085
I11
sS'joe'
p7086
I2
sS'probing'
p7087
I2
sS'jon'
p7088
I2
sS'barrett'
p7089
I2
sS'april'
p7090
I4
sS'strengthens'
p7091
I2
sS'unclear'
p7092
I2
sS'wall'
p7093
I7
sS'grinevsky'
p7094
I2
sS'narrower'
p7095
I2
sS'ploys'
p7096
I2
sS'packaging'
p7097
I3
sS'heredity'
p7098
I2
sS'table'
p7099
I2
sS'bottlers'
p7100
I2
sS'unhappiness'
p7101
I2
sS'flashes'
p7102
I3
sS'fishery'
p7103
I2
sS'trademark'
p7104
I2
sS'730'
p7105
I2
sS'arbitrator'
p7106
I8
sS'agreements'
p7107
I4
sS'remedies'
p7108
I2
sS'tissues'
p7109
I2
sS'thrusting'
p7110
I2
sS'defunct'
p7111
I3
sS'scrutiny'
p7112
I4
sS'improved'
p7113
I2
sS'21.18'
p7114
I2
sS'present'
p7115
I4
sS'wily'
p7116
I2
sS'unlike'
p7117
I3
sS'overuse'
p7118
I2
sS'vanilla'
p7119
I2
sS'choices'
p7120
I2
sS'will'
p7121
I155
sS'19.95'
p7122
I2
sS'non-proliferation'
p7123
I2
sS'thus'
p7124
I3
sS'audiences'
p7125
I4
sS'dual'
p7126
I2
sS'lightweight'
p7127
I2
sS'co-edited'
p7128
I2
sS'stadiums'
p7129
I3
sS'vintage'
p7130
I2
sS'privileges'
p7131
I3
sS'member'
p7132
I6
sS'largest'
p7133
I16
sS'units'
p7134
I5
sS'gets'
p7135
I2
sS'burnouts'
p7136
I2
sS'difficult'
p7137
I9
sS'premiere'
p7138
I2
sS'disagree'
p7139
I2
sS'14.25'
p7140
I2
sS'correspondent'
p7141
I2
sS'approve'
p7142
I3
sS'fighting'
p7143
I2
sS'english'
p7144
I3
sS'decliners'
p7145
I2
sS'inc.'
p7146
I48
sS'routinely'
p7147
I3
sS'heavily'
p7148
I3
sS'gyrations'
p7149
I2
sS'five-year-old'
p7150
I2
sS'obtain'
p7151
I2
sS'fishing'
p7152
I2
sS'7*slashhere*16'
p7153
I5
sS'rapid'
p7154
I2
sS'supply'
p7155
I5
sS'smith'
p7156
I4
sS'clyde'
p7157
I2
sS'other'
p7158
I77
sS'adoption'
p7159
I3
sS'attractive'
p7160
I4
sS'tax'
p7161
I19
sS'pampers'
p7162
I2
sS'branch'
p7163
I7
sS'provisions'
p7164
I3
sS'protesters'
p7165
I5
sS'republics'
p7166
I2
sS'siemens'
p7167
I2
sS'know'
p7168
I9
sS'catchers'
p7169
I2
sS'press'
p7170
I9
sS'miami'
p7171
I2
sS'perpetual'
p7172
I2
sS'loses'
p7173
I2
sS'taxpayers'
p7174
I11
sS'counterespionage'
p7175
I2
sS'lawson'
p7176
I2
sS'hosts'
p7177
I2
sS'construe'
p7178
I2
sS'james'
p7179
I8
sS'stain-resistant'
p7180
I2
sS'parity'
p7181
I6
sS'5,600'
p7182
I2
sS'because'
p7183
I43
sS'clusters'
p7184
I2
sS'scottish'
p7185
I2
sS'searching'
p7186
I2
sS'115'
p7187
I2
sS'demeanor'
p7188
I2
sS'growth'
p7189
I11
sS'export'
p7190
I2
sS'empire'
p7191
I2
sS'employment'
p7192
I2
sS'wellesley'
p7193
I2
sS'lead'
p7194
I7
sS'severance'
p7195
I2
sS'lean'
p7196
I2
sS'york-based'
p7197
I2
sS'leader'
p7198
I15
sS'thoroughfare'
p7199
I2
sS'27.6'
p7200
I2
sS'27.4'
p7201
I2
sS'rare'
p7202
I4
sS'carried'
p7203
I3
sS'getting'
p7204
I8
sS'shipping'
p7205
I2
sS'surge'
p7206
I2
sS'carries'
p7207
I4
sS'carrier'
p7208
I8
sS'sweat'
p7209
I2
sS'urges'
p7210
I2
sS'own'
p7211
I20
sS'polished'
p7212
I2
sS'owe'
p7213
I4
sS'warrants'
p7214
I4
sS'promise'
p7215
I3
sS'lawful'
p7216
I5
sS'yankee'
p7217
I2
sS'2.53'
p7218
I2
sS'texaco'
p7219
I2
sS'transfer'
p7220
I3
sS'continental'
p7221
I3
sS'intention'
p7222
I2
sS'ed'
p7223
I2
sS'breeding'
p7224
I3
sS'ubs-phillips'
p7225
I2
sS'triggered'
p7226
I4
sS'multistate'
p7227
I2
sS'funds'
p7228
I15
sS'english-speaking'
p7229
I2
sS'volume'
p7230
I7
sS'automated'
p7231
I2
sS'squeeze'
p7232
I2
sS'challenges'
p7233
I2
sS'made'
p7234
I24
sS'tactics'
p7235
I3
sS'whether'
p7236
I10
sS'record'
p7237
I14
sS'below'
p7238
I3
sS'ruling'
p7239
I11
sS'200,000'
p7240
I2
sS'8.395'
p7241
I2
sS'eagerness'
p7242
I2
sS'911,606'
p7243
I2
sS'mutual'
p7244
I2
sS"'ll"
p7245
I5
sS'percent'
p7246
I2
sS'illinois'
p7247
I2
sS'book'
p7248
I4
sS'sick'
p7249
I3
sS'hand-held'
p7250
I2
sS'kinds'
p7251
I4
sS'june'
p7252
I8
sS'contends'
p7253
I2
sS'frustrate'
p7254
I2
sS'shere'
p7255
I7
sS'income-tax'
p7256
I3
sS'priced'
p7257
I14
sS'4.25'
p7258
I6
sS'4.27'
p7259
I2
sS'extort'
p7260
I2
sS'intentionally'
p7261
I2
sS'ideological'
p7262
I2
sS'smoke-filled'
p7263
I2
s.