(dp1
S'PRP$'
p2
(dp3
g2
I1
sS'VBG'
p4
I15
sS'FW'
p5
I1
sS'VBN'
p6
I4
sS','
I2
sS'VBP'
p7
I3
sS'WDT'
p8
I1
sS'JJ'
p9
I2
sS'WP'
p10
I1
sS'VBZ'
p11
I6
sS'DT'
p12
I5
sS'#'
I1
sS'"'
I3
sS'RP'
p13
I3
sS'$'
I1
sS'NN'
p14
I2
sS'start'
p15
I13
sS')'
I1
sS'('
I2
sS'VBD'
p16
I21
sS'POS'
p17
I1
sS'.'
I1
sS'TO'
p18
I11
sS'PRP'
p19
I1
sS'RB'
p20
I5
sS':'
I2
sS'NNS'
p21
I1
sS'NNP'
p22
I1
sS'VB'
p23
I42
sS'WRB'
p24
I3
sS'`'
I1
sS'CC'
p25
I16
sS'LS'
p26
I1
sS'PDT'
p27
I1
sS'RBS'
p28
I1
sS'RBR'
p29
I1
sS'CD'
p30
I1
sS'EX'
p31
I1
sS'IN'
p32
I90
sS'WP$'
p33
I1
sS'MD'
p34
I1
sS'NNPS'
p35
I1
sS"'"
I1
sS'JJS'
p36
I1
sS'JJR'
p37
I1
sS'SYM'
p38
I1
sS'UH'
p39
I1
ssg4
(dp40
g2
I1
sg4
I3
sg5
I1
sg6
I15
sS','
I45
sg7
I32
sg8
I1
sg9
I9
sg10
I1
sg11
I26
sg12
I19
sS'#'
I1
sS'"'
I7
sg13
I1
sS'$'
I1
sg14
I35
sg15
I14
sS')'
I2
sS'('
I1
sg16
I8
sg17
I4
sS'.'
I1
sg18
I4
sg19
I2
sg20
I22
sS':'
I2
sg21
I23
sg22
I7
sg23
I10
sg24
I1
sS'`'
I1
sg25
I12
sg26
I1
sg27
I1
sg28
I1
sg29
I1
sg30
I1
sg31
I1
sg32
I75
sg33
I1
sg34
I1
sg35
I1
sS"'"
I1
sg36
I1
sg37
I1
sg38
I1
sg39
I1
ssg5
(dp41
g2
I1
sg4
I1
sg5
I1
sg6
I1
sS','
I2
sg7
I1
sg8
I1
sg9
I1
sg10
I1
sg11
I1
sg12
I1
sS'#'
I1
sS'"'
I1
sg13
I1
sS'$'
I1
sg14
I1
sg15
I2
sS')'
I1
sS'('
I1
sg16
I1
sg17
I1
sS'.'
I1
sg18
I1
sg19
I1
sg20
I1
sS':'
I1
sg21
I1
sg22
I5
sg23
I1
sg24
I1
sS'`'
I1
sg25
I1
sg26
I1
sg27
I1
sg28
I1
sg29
I1
sg30
I2
sg31
I1
sg32
I2
sg33
I1
sg34
I1
sg35
I1
sS"'"
I1
sg36
I1
sg37
I1
sg38
I1
sg39
I1
ssg6
(dp42
g2
I1
sg4
I9
sg5
I1
sg6
I12
sS','
I19
sg7
I58
sg8
I1
sg9
I2
sg10
I1
sg11
I67
sg12
I17
sS'#'
I1
sS'"'
I3
sg13
I1
sS'$'
I1
sg14
I43
sg15
I10
sS')'
I1
sS'('
I2
sg16
I67
sg17
I2
sS'.'
I1
sg18
I2
sg19
I1
sg20
I58
sS':'
I4
sg21
I40
sg22
I1
sg23
I59
sg24
I2
sS'`'
I1
sg25
I8
sg26
I1
sg27
I1
sg28
I1
sg29
I2
sg30
I2
sg31
I1
sg32
I10
sg33
I1
sg34
I2
sg35
I2
sS"'"
I1
sg36
I1
sg37
I2
sg38
I1
sg39
I1
ssS','
(dp43
g2
I1
sg4
I3
sg5
I1
sg6
I13
sS','
I1
sg7
I11
sg8
I2
sg9
I54
sg10
I3
sg11
I11
sg12
I5
sS'#'
I1
sS'"'
I1
sg13
I3
sS'$'
I1
sg14
I381
sg15
I1
sS')'
I10
sS'('
I1
sg16
I20
sg17
I1
sS'.'
I1
sg18
I2
sg19
I9
sg20
I69
sS':'
I1
sg21
I226
sg22
I299
sg23
I13
sg24
I1
sS'`'
I1
sg25
I5
sg26
I4
sg27
I1
sg28
I1
sg29
I2
sg30
I52
sg31
I1
sg32
I4
sg33
I1
sg34
I1
sg35
I15
sS"'"
I1
sg36
I4
sg37
I9
sg38
I1
sg39
I2
ssg7
(dp44
g2
I1
sg4
I1
sg5
I1
sg6
I2
sS','
I15
sg7
I1
sg8
I16
sg9
I3
sg10
I15
sg11
I1
sg12
I9
sS'#'
I1
sS'"'
I3
sg13
I1
sS'$'
I1
sg14
I15
sg15
I2
sS')'
I1
sS'('
I1
sg16
I2
sg17
I1
sS'.'
I1
sg18
I1
sg19
I84
sg20
I28
sS':'
I2
sg21
I110
sg22
I11
sg23
I2
sg24
I1
sS'`'
I1
sg25
I13
sg26
I1
sg27
I1
sg28
I1
sg29
I1
sg30
I5
sg31
I3
sg32
I3
sg33
I1
sg34
I1
sg35
I15
sS"'"
I1
sg36
I3
sg37
I1
sg38
I1
sg39
I1
ssg8
(dp45
g2
I1
sg4
I1
sg5
I1
sg6
I1
sS','
I45
sg7
I1
sg8
I1
sg9
I1
sg10
I1
sg11
I1
sg12
I1
sS'#'
I1
sS'"'
I4
sg13
I1
sS'$'
I1
sg14
I44
sg15
I3
sS')'
I1
sS'('
I1
sg16
I1
sg17
I1
sS'.'
I1
sg18
I2
sg19
I2
sg20
I1
sS':'
I2
sg21
I18
sg22
I2
sg23
I1
sg24
I1
sS'`'
I1
sg25
I2
sg26
I1
sg27
I1
sg28
I1
sg29
I1
sg30
I1
sg31
I1
sg32
I11
sg33
I1
sg34
I1
sg35
I1
sS"'"
I1
sg36
I1
sg37
I1
sg38
I1
sg39
I1
ssg9
(dp46
g2
I49
sg4
I20
sg5
I1
sg6
I18
sS','
I80
sg7
I38
sg8
I1
sg9
I157
sg10
I2
sg11
I52
sg12
I490
sS'#'
I1
sS'"'
I34
sg13
I7
sS'$'
I1
sg14
I29
sg15
I41
sS')'
I1
sS'('
I5
sg16
I36
sg17
I47
sS'.'
I1
sg18
I33
sg19
I4
sg20
I97
sS':'
I8
sg21
I24
sg22
I25
sg23
I76
sg24
I10
sS'`'
I1
sg25
I93
sg26
I1
sg27
I1
sg28
I9
sg29
I23
sg30
I29
sg31
I1
sg32
I256
sg33
I2
sg34
I1
sg35
I1
sS"'"
I1
sg36
I5
sg37
I7
sg38
I1
sg39
I1
ssg10
(dp47
g2
I1
sg4
I1
sg5
I1
sg6
I1
sS','
I23
sg7
I1
sg8
I1
sg9
I1
sg10
I1
sg11
I4
sg12
I5
sS'#'
I1
sS'"'
I6
sg13
I1
sS'$'
I1
sg14
I12
sg15
I3
sS')'
I1
sS'('
I1
sg16
I2
sg17
I1
sS'.'
I2
sg18
I1
sg19
I1
sg20
I3
sS':'
I2
sg21
I16
sg22
I2
sg23
I3
sg24
I1
sS'`'
I1
sg25
I1
sg26
I1
sg27
I1
sg28
I1
sg29
I1
sg30
I1
sg31
I1
sg32
I3
sg33
I1
sg34
I1
sg35
I3
sS"'"
I1
sg36
I1
sg37
I1
sg38
I1
sg39
I1
ssg11
(dp48
g2
I1
sg4
I2
sg5
I1
sg6
I2
sS','
I47
sg7
I1
sg8
I34
sg9
I5
sg10
I22
sg11
I1
sg12
I12
sS'#'
I1
sS'"'
I26
sg13
I1
sS'$'
I1
sg14
I109
sg15
I4
sS')'
I1
sS'('
I1
sg16
I1
sg17
I1
sS'.'
I1
sg18
I1
sg19
I95
sg20
I34
sS':'
I1
sg21
I8
sg22
I86
sg23
I2
sg24
I2
sS'`'
I1
sg25
I17
sg26
I1
sg27
I1
sg28
I2
sg29
I2
sg30
I4
sg31
I13
sg32
I3
sg33
I1
sg34
I1
sg35
I5
sS"'"
I1
sg36
I1
sg37
I1
sg38
I1
sg39
I1
ssg12
(dp49
g2
I1
sg4
I76
sg5
I1
sg6
I39
sS','
I167
sg7
I41
sg8
I7
sg9
I9
sg10
I6
sg11
I100
sg12
I7
sS'#'
I1
sS'"'
I33
sg13
I25
sS'$'
I1
sg14
I17
sg15
I212
sS')'
I1
sS'('
I4
sg16
I125
sg17
I1
sS'.'
I2
sg18
I66
sg19
I5
sg20
I46
sS':'
I15
sg21
I23
sg22
I5
sg23
I150
sg24
I11
sS'`'
I1
sg25
I78
sg26
I1
sg27
I5
sg28
I1
sg29
I7
sg30
I18
sg31
I1
sg32
I828
sg33
I1
sg34
I2
sg35
I1
sS"'"
I1
sg36
I1
sg37
I1
sg38
I1
sg39
I1
ssS'#'
(dp50
g2
I1
sg4
I1
sg5
I1
sg6
I1
sS','
I1
sg7
I1
sg8
I1
sg9
I1
sg10
I1
sg11
I1
sg12
I1
sS'#'
I1
sS'"'
I1
sg13
I1
sS'$'
I1
sg14
I1
sg15
I1
sS')'
I1
sS'('
I1
sg16
I1
sg17
I1
sS'.'
I1
sg18
I1
sg19
I1
sg20
I1
sS':'
I1
sg21
I1
sg22
I1
sg23
I1
sg24
I1
sS'`'
I1
sg25
I1
sg26
I1
sg27
I1
sg28
I1
sg29
I1
sg30
I1
sg31
I1
sg32
I1
sg33
I1
sg34
I1
sg35
I1
sS"'"
I1
sg36
I1
sg37
I1
sg38
I1
sg39
I1
ssS'"'
(dp51
g2
I3
sg4
I3
sg5
I1
sg6
I5
sS','
I79
sg7
I2
sg8
I1
sg9
I21
sg10
I1
sg11
I6
sg12
I12
sS'#'
I1
sS'"'
I4
sg13
I1
sS'$'
I1
sg14
I38
sg15
I91
sS')'
I1
sS'('
I1
sg16
I2
sg17
I7
sS'.'
I2
sg18
I3
sg19
I5
sg20
I4
sS':'
I12
sg21
I14
sg22
I4
sg23
I4
sg24
I1
sS'`'
I1
sg25
I5
sg26
I1
sg27
I1
sg28
I1
sg29
I2
sg30
I3
sg31
I1
sg32
I17
sg33
I1
sg34
I2
sg35
I3
sS"'"
I1
sg36
I1
sg37
I1
sg38
I1
sg39
I1
ssg13
(dp52
g2
I1
sg4
I10
sg5
I1
sg6
I5
sS','
I1
sg7
I3
sg8
I1
sg9
I1
sg10
I1
sg11
I5
sg12
I1
sS'#'
I1
sS'"'
I1
sg13
I1
sS'$'
I1
sg14
I7
sg15
I1
sS')'
I1
sS'('
I1
sg16
I8
sg17
I1
sS'.'
I1
sg18
I1
sg19
I4
sg20
I2
sS':'
I1
sg21
I3
sg22
I1
sg23
I25
sg24
I1
sS'`'
I1
sg25
I1
sg26
I1
sg27
I1
sg28
I1
sg29
I1
sg30
I1
sg31
I1
sg32
I1
sg33
I1
sg34
I1
sg35
I1
sS"'"
I1
sg36
I1
sg37
I1
sg38
I1
sg39
I1
ssS'$'
(dp53
g2
I2
sg4
I5
sg5
I1
sg6
I6
sS','
I5
sg7
I1
sg8
I1
sg9
I4
sg10
I1
sg11
I5
sg12
I6
sS'#'
I1
sS'"'
I1
sg13
I2
sS'$'
I1
sg14
I1
sg15
I1
sS')'
I1
sS'('
I7
sg16
I4
sg17
I2
sS'.'
I1
sg18
I15
sg19
I1
sg20
I5
sS':'
I1
sg21
I1
sg22
I5
sg23
I4
sg24
I1
sS'`'
I1
sg25
I6
sg26
I1
sg27
I1
sg28
I1
sg29
I1
sg30
I2
sg31
I1
sg32
I41
sg33
I1
sg34
I1
sg35
I1
sS"'"
I1
sg36
I2
sg37
I1
sg38
I1
sg39
I1
ssg14
(dp54
g2
I93
sg4
I54
sg5
I1
sg6
I15
sS','
I57
sg7
I5
sg8
I2
sg9
I740
sg10
I1
sg11
I23
sg12
I922
sS'#'
I1
sS'"'
I33
sg13
I5
sS'$'
I1
sg14
I378
sg15
I28
sS')'
I3
sS'('
I2
sg16
I24
sg17
I89
sS'.'
I1
sg18
I18
sg19
I2
sg20
I9
sS':'
I5
sg21
I36
sg22
I98
sg23
I37
sg24
I5
sS'`'
I1
sg25
I70
sg26
I1
sg27
I1
sg28
I1
sg29
I1
sg30
I156
sg31
I1
sg32
I260
sg33
I6
sg34
I1
sg35
I6
sS"'"
I1
sg36
I17
sg37
I23
sg38
I1
sg39
I1
ssS')'
(dp55
g2
I2
sg4
I1
sg5
I1
sg6
I1
sS','
I1
sg7
I1
sg8
I1
sg9
I2
sg10
I1
sg11
I2
sg12
I1
sS'#'
I1
sS'"'
I1
sg13
I1
sS'$'
I1
sg14
I6
sg15
I4
sS')'
I1
sS'('
I1
sg16
I1
sg17
I1
sS'.'
I1
sg18
I1
sg19
I1
sg20
I1
sS':'
I1
sg21
I4
sg22
I16
sg23
I2
sg24
I1
sS'`'
I1
sg25
I1
sg26
I1
sg27
I1
sg28
I1
sg29
I1
sg30
I9
sg31
I1
sg32
I1
sg33
I1
sg34
I1
sg35
I1
sS"'"
I1
sg36
I1
sg37
I1
sg38
I1
sg39
I1
ssS'('
(dp56
g2
I1
sg4
I2
sg5
I1
sg6
I1
sS','
I2
sg7
I1
sg8
I1
sg9
I2
sg10
I1
sg11
I1
sg12
I3
sS'#'
I1
sS'"'
I4
sg13
I1
sS'$'
I1
sg14
I6
sg15
I8
sS')'
I1
sS'('
I1
sg16
I1
sg17
I1
sS'.'
I1
sg18
I2
sg19
I1
sg20
I2
sS':'
I1
sg21
I7
sg22
I10
sg23
I2
sg24
I1
sS'`'
I1
sg25
I2
sg26
I1
sg27
I1
sg28
I1
sg29
I1
sg30
I1
sg31
I1
sg32
I3
sg33
I1
sg34
I1
sg35
I2
sS"'"
I1
sg36
I1
sg37
I1
sg38
I1
sg39
I1
ssg16
(dp57
g2
I1
sg4
I1
sg5
I1
sg6
I1
sS','
I52
sg7
I1
sg8
I26
sg9
I1
sg10
I22
sg11
I1
sg12
I4
sS'#'
I1
sS'"'
I13
sg13
I1
sS'$'
I1
sg14
I119
sg15
I2
sS')'
I2
sS'('
I1
sg16
I1
sg17
I5
sS'.'
I1
sg18
I1
sg19
I120
sg20
I47
sS':'
I1
sg21
I71
sg22
I137
sg23
I2
sg24
I1
sS'`'
I1
sg25
I22
sg26
I1
sg27
I1
sg28
I1
sg29
I1
sg30
I7
sg31
I4
sg32
I1
sg33
I1
sg34
I1
sg35
I15
sS"'"
I1
sg36
I2
sg37
I1
sg38
I1
sg39
I1
ssg17
(dp58
g2
I1
sg4
I1
sg5
I1
sg6
I1
sS','
I1
sg7
I2
sg8
I1
sg9
I1
sg10
I1
sg11
I1
sg12
I1
sS'#'
I1
sS'"'
I1
sg13
I1
sS'$'
I1
sg14
I66
sg15
I1
sS')'
I1
sS'('
I1
sg16
I1
sg17
I1
sS'.'
I1
sg18
I1
sg19
I3
sg20
I2
sS':'
I1
sg21
I18
sg22
I122
sg23
I1
sg24
I1
sS'`'
I1
sg25
I1
sg26
I1
sg27
I1
sg28
I1
sg29
I1
sg30
I1
sg31
I1
sg32
I1
sg33
I1
sg34
I1
sg35
I6
sS"'"
I1
sg36
I1
sg37
I1
sg38
I1
sg39
I1
ssS'.'
(dp59
g2
I1
sg4
I3
sg5
I2
sg6
I27
sS','
I1
sg7
I7
sg8
I1
sg9
I48
sg10
I1
sg11
I16
sg12
I2
sS'#'
I1
sS'"'
I1
sg13
I6
sS'$'
I1
sg14
I355
sg15
I1
sS')'
I2
sS'('
I1
sg16
I37
sg17
I1
sS'.'
I1
sg18
I2
sg19
I17
sg20
I47
sS':'
I6
sg21
I230
sg22
I120
sg23
I18
sg24
I1
sS'`'
I1
sg25
I1
sg26
I1
sg27
I1
sg28
I1
sg29
I1
sg30
I36
sg31
I1
sg32
I2
sg33
I1
sg34
I1
sg35
I10
sS"'"
I1
sg36
I1
sg37
I6
sg38
I1
sg39
I1
ssg18
(dp60
g2
I1
sg4
I26
sg5
I1
sg6
I49
sS','
I9
sg7
I16
sg8
I1
sg9
I58
sg10
I1
sg11
I21
sg12
I1
sS'#'
I1
sS'"'
I3
sg13
I4
sS'$'
I1
sg14
I142
sg15
I4
sS')'
I2
sS'('
I1
sg16
I39
sg17
I1
sS'.'
I2
sg18
I1
sg19
I14
sg20
I26
sS':'
I1
sg21
I83
sg22
I28
sg23
I32
sg24
I4
sS'`'
I1
sg25
I4
sg26
I1
sg27
I1
sg28
I1
sg29
I2
sg30
I18
sg31
I1
sg32
I7
sg33
I1
sg34
I2
sg35
I6
sS"'"
I1
sg36
I1
sg37
I1
sg38
I1
sg39
I1
ssg19
(dp61
g2
I1
sg4
I11
sg5
I1
sg6
I4
sS','
I76
sg7
I14
sg8
I7
sg9
I3
sg10
I5
sg11
I13
sg12
I2
sS'#'
I1
sS'"'
I46
sg13
I1
sS'$'
I1
sg14
I14
sg15
I76
sS')'
I1
sS'('
I1
sg16
I46
sg17
I1
sS'.'
I3
sg18
I7
sg19
I2
sg20
I11
sS':'
I6
sg21
I9
sg22
I1
sg23
I39
sg24
I12
sS'`'
I1
sg25
I33
sg26
I1
sg27
I1
sg28
I1
sg29
I1
sg30
I2
sg31
I1
sg32
I76
sg33
I1
sg34
I2
sg35
I1
sS"'"
I1
sg36
I1
sg37
I1
sg38
I1
sg39
I1
ssg20
(dp62
g2
I3
sg4
I20
sg5
I1
sg6
I32
sS','
I58
sg7
I65
sg8
I10
sg9
I8
sg10
I1
sg11
I66
sg12
I26
sS'#'
I1
sS'"'
I13
sg13
I2
sS'$'
I1
sg14
I44
sg15
I57
sS')'
I3
sS'('
I2
sg16
I69
sg17
I1
sS'.'
I2
sg18
I8
sg19
I34
sg20
I60
sS':'
I10
sg21
I57
sg22
I28
sg23
I41
sg24
I3
sS'`'
I1
sg25
I46
sg26
I1
sg27
I1
sg28
I1
sg29
I7
sg30
I3
sg31
I2
sg32
I32
sg33
I1
sg34
I45
sg35
I5
sS"'"
I1
sg36
I2
sg37
I2
sg38
I1
sg39
I1
ssS':'
(dp63
g2
I1
sg4
I1
sg5
I1
sg6
I1
sS','
I1
sg7
I4
sg8
I1
sg9
I10
sg10
I1
sg11
I1
sg12
I1
sS'#'
I1
sS'"'
I3
sg13
I1
sS'$'
I1
sg14
I54
sg15
I1
sS')'
I6
sS'('
I1
sg16
I3
sg17
I1
sS'.'
I1
sg18
I1
sg19
I4
sg20
I4
sS':'
I1
sg21
I54
sg22
I15
sg23
I5
sg24
I1
sS'`'
I1
sg25
I1
sg26
I1
sg27
I1
sg28
I1
sg29
I1
sg30
I3
sg31
I1
sg32
I2
sg33
I1
sg34
I1
sg35
I2
sS"'"
I1
sg36
I1
sg37
I3
sg38
I1
sg39
I1
ssg21
(dp64
g2
I69
sg4
I36
sg5
I2
sg6
I19
sS','
I32
sg7
I16
sg8
I3
sg9
I443
sg10
I1
sg11
I10
sg12
I200
sS'#'
I1
sS'"'
I15
sg13
I7
sS'$'
I1
sg14
I216
sg15
I35
sS')'
I1
sS'('
I2
sg16
I17
sg17
I27
sS'.'
I3
sg18
I13
sg19
I1
sg20
I5
sS':'
I6
sg21
I22
sg22
I58
sg23
I41
sg24
I5
sS'`'
I1
sg25
I47
sg26
I1
sg27
I1
sg28
I1
sg29
I1
sg30
I128
sg31
I1
sg32
I140
sg33
I2
sg34
I2
sg35
I4
sS"'"
I1
sg36
I8
sg37
I10
sg38
I1
sg39
I1
ssg22
(dp65
g2
I12
sg4
I14
sg5
I5
sg6
I17
sS','
I130
sg7
I3
sg8
I5
sg9
I68
sg10
I2
sg11
I31
sg12
I239
sS'#'
I1
sS'"'
I20
sg13
I2
sS'$'
I1
sg14
I38
sg15
I178
sS')'
I6
sS'('
I18
sg16
I33
sg17
I21
sS'.'
I1
sg18
I35
sg19
I1
sg20
I6
sS':'
I20
sg21
I6
sg22
I780
sg23
I23
sg24
I6
sS'`'
I1
sg25
I85
sg26
I1
sg27
I1
sg28
I1
sg29
I1
sg30
I13
sg31
I1
sg32
I346
sg33
I1
sg34
I2
sg35
I22
sS"'"
I1
sg36
I1
sg37
I1
sg38
I1
sg39
I1
ssg23
(dp66
g2
I1
sg4
I3
sg5
I1
sg6
I1
sS','
I8
sg7
I3
sg8
I1
sg9
I1
sg10
I1
sg11
I2
sg12
I2
sS'#'
I1
sS'"'
I4
sg13
I1
sS'$'
I1
sg14
I5
sg15
I10
sS')'
I1
sS'('
I2
sg16
I3
sg17
I1
sS'.'
I1
sg18
I331
sg19
I13
sg20
I95
sS':'
I2
sg21
I5
sg22
I4
sg23
I9
sg24
I1
sS'`'
I1
sg25
I31
sg26
I1
sg27
I1
sg28
I1
sg29
I1
sg30
I1
sg31
I1
sg32
I4
sg33
I1
sg34
I220
sg35
I1
sS"'"
I1
sg36
I2
sg37
I1
sg38
I1
sg39
I1
ssg24
(dp67
g2
I1
sg4
I1
sg5
I1
sg6
I3
sS','
I5
sg7
I2
sg8
I1
sg9
I3
sg10
I1
sg11
I1
sg12
I2
sS'#'
I1
sS'"'
I3
sg13
I2
sS'$'
I1
sg14
I7
sg15
I6
sS')'
I1
sS'('
I1
sg16
I4
sg17
I2
sS'.'
I1
sg18
I1
sg19
I3
sg20
I5
sS':'
I3
sg21
I2
sg22
I2
sg23
I5
sg24
I1
sS'`'
I1
sg25
I4
sg26
I1
sg27
I1
sg28
I1
sg29
I1
sg30
I2
sg31
I1
sg32
I8
sg33
I1
sg34
I1
sg35
I1
sS"'"
I1
sg36
I1
sg37
I1
sg38
I1
sg39
I1
ssS'`'
(dp68
g2
I1
sg4
I1
sg5
I1
sg6
I1
sS','
I1
sg7
I1
sg8
I1
sg9
I1
sg10
I1
sg11
I1
sg12
I1
sS'#'
I1
sS'"'
I1
sg13
I1
sS'$'
I1
sg14
I1
sg15
I1
sS')'
I1
sS'('
I1
sg16
I1
sg17
I1
sS'.'
I1
sg18
I1
sg19
I1
sg20
I1
sS':'
I1
sg21
I1
sg22
I1
sg23
I1
sg24
I1
sS'`'
I1
sg25
I1
sg26
I1
sg27
I1
sg28
I1
sg29
I1
sg30
I1
sg31
I1
sg32
I1
sg33
I1
sg34
I1
sg35
I1
sS"'"
I1
sg36
I1
sg37
I1
sg38
I1
sg39
I1
ssg25
(dp69
g2
I2
sg4
I4
sg5
I2
sg6
I6
sS','
I112
sg7
I2
sg8
I1
sg9
I40
sg10
I1
sg11
I4
sg12
I1
sS'#'
I1
sS'"'
I17
sg13
I1
sS'$'
I1
sg14
I142
sg15
I55
sS')'
I4
sS'('
I2
sg16
I5
sg17
I1
sS'.'
I2
sg18
I1
sg19
I9
sg20
I15
sS':'
I9
sg21
I98
sg22
I96
sg23
I12
sg24
I2
sS'`'
I1
sg25
I1
sg26
I1
sg27
I1
sg28
I1
sg29
I3
sg30
I21
sg31
I1
sg32
I6
sg33
I1
sg34
I1
sg35
I8
sS"'"
I1
sg36
I1
sg37
I1
sg38
I1
sg39
I1
ssg26
(dp70
g2
I1
sg4
I1
sg5
I1
sg6
I1
sS','
I1
sg7
I1
sg8
I1
sg9
I1
sg10
I1
sg11
I1
sg12
I1
sS'#'
I1
sS'"'
I1
sg13
I1
sS'$'
I1
sg14
I1
sg15
I4
sS')'
I1
sS'('
I1
sg16
I1
sg17
I1
sS'.'
I1
sg18
I1
sg19
I1
sg20
I1
sS':'
I1
sg21
I1
sg22
I1
sg23
I1
sg24
I1
sS'`'
I1
sg25
I1
sg26
I1
sg27
I1
sg28
I1
sg29
I1
sg30
I1
sg31
I1
sg32
I1
sg33
I1
sg34
I1
sg35
I1
sS"'"
I1
sg36
I1
sg37
I1
sg38
I1
sg39
I1
ssg27
(dp71
g2
I1
sg4
I1
sg5
I1
sg6
I1
sS','
I1
sg7
I1
sg8
I1
sg9
I1
sg10
I1
sg11
I1
sg12
I1
sS'#'
I1
sS'"'
I1
sg13
I1
sS'$'
I1
sg14
I1
sg15
I2
sS')'
I1
sS'('
I1
sg16
I1
sg17
I1
sS'.'
I1
sg18
I1
sg19
I1
sg20
I2
sS':'
I1
sg21
I1
sg22
I1
sg23
I2
sg24
I1
sS'`'
I1
sg25
I1
sg26
I1
sg27
I1
sg28
I1
sg29
I1
sg30
I1
sg31
I1
sg32
I2
sg33
I1
sg34
I1
sg35
I1
sS"'"
I1
sg36
I1
sg37
I1
sg38
I1
sg39
I1
ssg28
(dp72
g2
I1
sg4
I1
sg5
I1
sg6
I1
sS','
I1
sg7
I1
sg8
I1
sg9
I1
sg10
I1
sg11
I3
sg12
I3
sS'#'
I1
sS'"'
I1
sg13
I1
sS'$'
I1
sg14
I1
sg15
I1
sS')'
I1
sS'('
I1
sg16
I1
sg17
I3
sS'.'
I1
sg18
I2
sg19
I1
sg20
I2
sS':'
I1
sg21
I1
sg22
I1
sg23
I1
sg24
I1
sS'`'
I1
sg25
I1
sg26
I1
sg27
I1
sg28
I1
sg29
I1
sg30
I2
sg31
I1
sg32
I2
sg33
I1
sg34
I1
sg35
I1
sS"'"
I1
sg36
I1
sg37
I1
sg38
I1
sg39
I1
ssg29
(dp73
g2
I1
sg4
I2
sg5
I1
sg6
I8
sS','
I2
sg7
I4
sg8
I1
sg9
I1
sg10
I2
sg11
I2
sg12
I6
sS'#'
I1
sS'"'
I3
sg13
I1
sS'$'
I1
sg14
I1
sg15
I4
sS')'
I1
sS'('
I1
sg16
I4
sg17
I1
sS'.'
I1
sg18
I2
sg19
I2
sg20
I7
sS':'
I1
sg21
I3
sg22
I2
sg23
I4
sg24
I1
sS'`'
I1
sg25
I4
sg26
I1
sg27
I1
sg28
I1
sg29
I1
sg30
I1
sg31
I1
sg32
I2
sg33
I1
sg34
I2
sg35
I1
sS"'"
I1
sg36
I1
sg37
I1
sg38
I1
sg39
I1
ssg30
(dp74
g2
I4
sg4
I6
sg5
I1
sg6
I6
sS','
I34
sg7
I5
sg8
I1
sg9
I7
sg10
I1
sg11
I21
sg12
I39
sS'#'
I1
sS'"'
I4
sg13
I3
sS'$'
I110
sg14
I42
sg15
I12
sS')'
I3
sS'('
I1
sg16
I17
sg17
I7
sS'.'
I1
sg18
I34
sg19
I1
sg20
I16
sS':'
I47
sg21
I2
sg22
I40
sg23
I9
sg24
I1
sS'`'
I1
sg25
I19
sg26
I1
sg27
I1
sg28
I1
sg29
I1
sg30
I114
sg31
I1
sg32
I109
sg33
I1
sg34
I1
sg35
I1
sS"'"
I1
sg36
I3
sg37
I1
sg38
I1
sg39
I1
ssg31
(dp75
g2
I1
sg4
I1
sg5
I1
sg6
I1
sS','
I8
sg7
I2
sg8
I1
sg9
I1
sg10
I1
sg11
I1
sg12
I1
sS'#'
I1
sS'"'
I3
sg13
I1
sS'$'
I1
sg14
I1
sg15
I4
sS')'
I1
sS'('
I1
sg16
I1
sg17
I1
sS'.'
I1
sg18
I1
sg19
I1
sg20
I1
sS':'
I1
sg21
I1
sg22
I1
sg23
I1
sg24
I1
sS'`'
I1
sg25
I7
sg26
I1
sg27
I1
sg28
I1
sg29
I1
sg30
I1
sg31
I1
sg32
I5
sg33
I1
sg34
I1
sg35
I1
sS"'"
I1
sg36
I1
sg37
I1
sg38
I1
sg39
I1
ssg32
(dp76
g2
I1
sg4
I48
sg5
I1
sg6
I189
sS','
I95
sg7
I19
sg8
I5
sg9
I96
sg10
I2
sg11
I41
sg12
I15
sS'#'
I1
sS'"'
I36
sg13
I4
sS'$'
I1
sg14
I782
sg15
I120
sS')'
I5
sS'('
I6
sg16
I75
sg17
I1
sS'.'
I1
sg18
I2
sg19
I17
sg20
I109
sS':'
I12
sg21
I384
sg22
I82
sg23
I83
sg24
I1
sS'`'
I1
sg25
I29
sg26
I1
sg27
I1
sg28
I2
sg29
I6
sg30
I69
sg31
I1
sg32
I33
sg33
I1
sg34
I1
sg35
I9
sS"'"
I1
sg36
I4
sg37
I31
sg38
I1
sg39
I1
ssg33
(dp77
g2
I1
sg4
I1
sg5
I1
sg6
I1
sS','
I6
sg7
I1
sg8
I1
sg9
I1
sg10
I1
sg11
I1
sg12
I1
sS'#'
I1
sS'"'
I1
sg13
I1
sS'$'
I1
sg14
I2
sg15
I1
sS')'
I1
sS'('
I1
sg16
I1
sg17
I1
sS'.'
I1
sg18
I1
sg19
I1
sg20
I1
sS':'
I1
sg21
I1
sg22
I1
sg23
I1
sg24
I1
sS'`'
I1
sg25
I2
sg26
I1
sg27
I1
sg28
I1
sg29
I1
sg30
I1
sg31
I1
sg32
I1
sg33
I1
sg34
I1
sg35
I1
sS"'"
I1
sg36
I1
sg37
I1
sg38
I1
sg39
I1
ssg34
(dp78
g2
I1
sg4
I1
sg5
I2
sg6
I4
sS','
I14
sg7
I1
sg8
I19
sg9
I2
sg10
I3
sg11
I1
sg12
I6
sS'#'
I1
sS'"'
I9
sg13
I1
sS'$'
I1
sg14
I61
sg15
I1
sS')'
I2
sS'('
I1
sg16
I2
sg17
I1
sS'.'
I2
sg18
I1
sg19
I64
sg20
I12
sS':'
I2
sg21
I38
sg22
I31
sg23
I1
sg24
I1
sS'`'
I1
sg25
I8
sg26
I1
sg27
I1
sg28
I1
sg29
I1
sg30
I1
sg31
I6
sg32
I1
sg33
I1
sg34
I1
sg35
I4
sS"'"
I1
sg36
I1
sg37
I1
sg38
I1
sg39
I1
ssg35
(dp79
g2
I1
sg4
I1
sg5
I1
sg6
I1
sS','
I2
sg7
I1
sg8
I1
sg9
I4
sg10
I1
sg11
I2
sg12
I46
sS'#'
I1
sS'"'
I2
sg13
I1
sS'$'
I1
sg14
I1
sg15
I6
sS')'
I1
sS'('
I1
sg16
I2
sg17
I2
sS'.'
I1
sg18
I3
sg19
I1
sg20
I1
sS':'
I1
sg21
I1
sg22
I57
sg23
I1
sg24
I1
sS'`'
I1
sg25
I2
sg26
I1
sg27
I1
sg28
I1
sg29
I1
sg30
I3
sg31
I1
sg32
I5
sg33
I1
sg34
I1
sg35
I4
sS"'"
I1
sg36
I2
sg37
I1
sg38
I1
sg39
I1
ssS"'"
(dp80
g2
I1
sg4
I1
sg5
I1
sg6
I1
sS','
I1
sg7
I1
sg8
I1
sg9
I1
sg10
I1
sg11
I1
sg12
I1
sS'#'
I1
sS'"'
I1
sg13
I1
sS'$'
I1
sg14
I1
sg15
I1
sS')'
I1
sS'('
I1
sg16
I1
sg17
I1
sS'.'
I1
sg18
I1
sg19
I1
sg20
I1
sS':'
I1
sg21
I1
sg22
I1
sg23
I1
sg24
I1
sS'`'
I1
sg25
I1
sg26
I1
sg27
I1
sg28
I1
sg29
I1
sg30
I1
sg31
I1
sg32
I1
sg33
I1
sg34
I1
sg35
I1
sS"'"
I1
sg36
I1
sg37
I1
sg38
I1
sg39
I1
ssg36
(dp81
g2
I2
sg4
I1
sg5
I1
sg6
I1
sS','
I2
sg7
I2
sg8
I1
sg9
I1
sg10
I2
sg11
I1
sg12
I11
sS'#'
I1
sS'"'
I1
sg13
I2
sS'$'
I1
sg14
I1
sg15
I4
sS')'
I1
sS'('
I1
sg16
I2
sg17
I8
sS'.'
I1
sg18
I1
sg19
I2
sg20
I1
sS':'
I2
sg21
I1
sg22
I1
sg23
I1
sg24
I1
sS'`'
I1
sg25
I3
sg26
I1
sg27
I1
sg28
I1
sg29
I1
sg30
I1
sg31
I1
sg32
I13
sg33
I1
sg34
I1
sg35
I1
sS"'"
I1
sg36
I1
sg37
I1
sg38
I1
sg39
I1
ssg37
(dp82
g2
I1
sg4
I3
sg5
I1
sg6
I3
sS','
I2
sg7
I5
sg8
I1
sg9
I1
sg10
I1
sg11
I1
sg12
I12
sS'#'
I1
sS'"'
I1
sg13
I1
sS'$'
I1
sg14
I6
sg15
I3
sS')'
I1
sS'('
I1
sg16
I5
sg17
I1
sS'.'
I1
sg18
I2
sg19
I3
sg20
I9
sS':'
I1
sg21
I2
sg22
I1
sg23
I12
sg24
I1
sS'`'
I1
sg25
I9
sg26
I1
sg27
I1
sg28
I1
sg29
I1
sg30
I9
sg31
I1
sg32
I14
sg33
I1
sg34
I1
sg35
I1
sS"'"
I1
sg36
I1
sg37
I1
sg38
I1
sg39
I1
ssg38
(dp83
g2
I1
sg4
I1
sg5
I1
sg6
I1
sS','
I1
sg7
I1
sg8
I1
sg9
I1
sg10
I1
sg11
I1
sg12
I1
sS'#'
I1
sS'"'
I1
sg13
I1
sS'$'
I1
sg14
I1
sg15
I1
sS')'
I1
sS'('
I1
sg16
I1
sg17
I1
sS'.'
I1
sg18
I1
sg19
I1
sg20
I1
sS':'
I1
sg21
I1
sg22
I1
sg23
I1
sg24
I1
sS'`'
I1
sg25
I1
sg26
I1
sg27
I1
sg28
I1
sg29
I1
sg30
I1
sg31
I1
sg32
I1
sg33
I1
sg34
I1
sg35
I1
sS"'"
I1
sg36
I1
sg37
I1
sg38
I1
sg39
I1
ssg39
(dp84
g2
I1
sg4
I1
sg5
I1
sg6
I1
sS','
I2
sg7
I1
sg8
I1
sg9
I1
sg10
I1
sg11
I1
sg12
I1
sS'#'
I1
sS'"'
I1
sg13
I1
sS'$'
I1
sg14
I1
sg15
I1
sS')'
I1
sS'('
I1
sg16
I1
sg17
I1
sS'.'
I1
sg18
I1
sg19
I1
sg20
I1
sS':'
I1
sg21
I1
sg22
I1
sg23
I1
sg24
I1
sS'`'
I1
sg25
I1
sg26
I1
sg27
I1
sg28
I1
sg29
I1
sg30
I1
sg31
I1
sg32
I1
sg33
I1
sg34
I1
sg35
I1
sS"'"
I1
sg36
I1
sg37
I1
sg38
I1
sg39
I1
ss.