(dp1
S'PRP$'
p2
I231
sS'VBG'
p3
I355
sS'FW'
p4
I9
sS'VBN'
p5
I479
sS','
I1205
sS'VBP'
p6
I340
sS'WDT'
p7
I125
sS'JJ'
p8
I1775
sS'WP'
p9
I75
sS'VBZ'
p10
I514
sS'DT'
p11
I2099
sS'#'
I1
sS'"'
I327
sS'RP'
p12
I63
sS'$'
I110
sS'NN'
p13
I3190
sS'start'
p14
I986
sS')'
I39
sS'('
I43
sS'VBD'
p15
I654
sS'POS'
p16
I213
sS'.'
I978
sS'TO'
p17
I577
sS'PRP'
p18
I495
sS'RB'
p19
I832
sS':'
I158
sS'NNS'
p20
I1609
sS'NNP'
p21
I2156
sS'VB'
p22
I738
sS'WRB'
p23
I54
sS'`'
I1
sS'CC'
p24
I653
sS'LS'
p25
I4
sS'PDT'
p26
I5
sS'RBS'
p27
I11
sS'RBR'
p28
I47
sS'CD'
p29
I688
sS'EX'
p30
I24
sS'IN'
p31
I2380
sS'WP$'
p32
I8
sS'MD'
p33
I272
sS'NNPS'
p34
I128
sS"'"
I1
sS'JJS'
p35
I43
sS'JJR'
p36
I84
sS'SYM'
p37
I1
sS'UH'
p38
I2
s.