(dp1
S'limited'
p2
I7
sS'obstruction'
p3
I2
sS'shelf'
p4
I3
sS'wallingford'
p5
I2
sS'linsey'
p6
I2
sS'paralyzed'
p7
I3
sS'europeans'
p8
I2
sS'outlining'
p9
I2
sS'self-incrimination'
p10
I4
sS'four'
p11
I5
sS'facilities'
p12
I6
sS'protest'
p13
I5
sS'asian'
p14
I4
sS'controversial'
p15
I3
sS'aides'
p16
I5
sS'mansion'
p17
I2
sS'firms'
p18
I6
sS'oldest'
p19
I2
sS'relationships'
p20
I2
sS'whose'
p21
I8
sS'pedro'
p22
I2
sS'1.12'
p23
I2
sS'violate'
p24
I3
sS'eligible'
p25
I3
sS'paris'
p26
I2
sS'swan'
p27
I2
sS'1.18'
p28
I2
sS'edward'
p29
I3
sS'under'
p30
I20
sS'buyer'
p31
I3
sS'pride'
p32
I3
sS'magnetic'
p33
I10
sS'placed'
p34
I2
sS'alternating'
p35
I2
sS'pact'
p36
I2
sS'lure'
p37
I2
sS'u.s.-japan'
p38
I2
sS'legislators'
p39
I3
sS'risk'
p40
I4
sS'regional'
p41
I2
sS'flashpoint'
p42
I2
sS'georgia'
p43
I2
sS'every'
p44
I2
sS'midsized'
p45
I2
sS'reforms'
p46
I4
sS'classifications'
p47
I2
sS'multiple'
p48
I2
sS'postpone'
p49
I2
sS'missionary'
p50
I2
sS'get-togethers'
p51
I2
sS'disturb'
p52
I3
sS'moonies'
p53
I3
sS'investigator'
p54
I2
sS'companies'
p55
I13
sS'herbert'
p56
I2
sS'gaelic'
p57
I2
sS'convenience'
p58
I2
sS'specialties'
p59
I2
sS'red'
p60
I6
sS'cholesterol'
p61
I3
sS'muscles'
p62
I3
sS'heading'
p63
I2
sS'nwa'
p64
I2
sS'enjoy'
p65
I4
sS'chew'
p66
I2
sS'u.s.-philippine'
p67
I2
sS'expanded'
p68
I2
sS'force'
p69
I5
sS'leaders'
p70
I16
sS'awake'
p71
I2
sS'bankers'
p72
I3
sS'estimates'
p73
I6
sS'japanese'
p74
I31
sS'budget'
p75
I4
sS'270'
p76
I2
sS'elegant'
p77
I2
sS'likely'
p78
I5
sS'street'
p79
I6
sS'topped'
p80
I2
sS'kentucky'
p81
I2
sS'borrowings'
p82
I2
sS'summit'
p83
I7
sS'manner'
p84
I3
sS'afl-cio'
p85
I2
sS'estimated'
p86
I7
sS'panda'
p87
I2
sS'machines'
p88
I8
sS'even'
p89
I26
sS'anti-apartheid'
p90
I2
sS'spouses'
p91
I3
sS'hide'
p92
I2
sS'tempe'
p93
I2
sS'pace'
p94
I3
sS'decisions'
p95
I3
sS'contributed'
p96
I5
sS'profitability'
p97
I2
sS'asia'
p98
I8
sS'spokesman'
p99
I7
sS'liberated'
p100
I2
sS'179'
p101
I2
sS'hostile'
p102
I3
sS'above'
p103
I5
sS'dr.'
p104
I9
sS'new'
p105
I75
sS'net'
p106
I4
sS'reluctant'
p107
I2
sS'officially'
p108
I2
sS'seeks'
p109
I3
sS'told'
p110
I8
sS'specialist'
p111
I2
sS'simultaneously'
p112
I2
sS'never'
p113
I3
sS'disposable'
p114
I2
sS'here'
p115
I6
sS'hundreds'
p116
I3
sS'conglomerate'
p117
I3
sS'reported'
p118
I9
sS'protection'
p119
I3
sS'china'
p120
I12
sS'non-``'
p121
I2
sS'eg&g'
p122
I6
sS'100'
p123
I6
sS'practices'
p124
I2
sS'growing'
p125
I5
sS'contraction'
p126
I2
sS'obtained'
p127
I2
sS'watchers'
p128
I2
sS'credentials'
p129
I2
sS'auction'
p130
I5
sS'mitchell'
p131
I3
sS'study'
p132
I2
sS'marcos'
p133
I19
sS'reports'
p134
I5
sS'precede'
p135
I2
sS'electricity'
p136
I2
sS'harass'
p137
I2
sS'analysts'
p138
I6
sS'neurologist'
p139
I4
sS'military'
p140
I9
sS'chateau'
p141
I2
sS'suitable'
p142
I2
sS'changes'
p143
I11
sS'intruder'
p144
I2
sS'criticism'
p145
I2
sS'golden'
p146
I2
sS'spooks'
p147
I2
sS'avena'
p148
I2
sS'besides'
p149
I3
sS'campaign'
p150
I3
sS'owed'
p151
I2
sS'revenue-raising'
p152
I2
sS'reagan'
p153
I6
sS'highly'
p154
I6
sS'brought'
p155
I8
sS'shun'
p156
I2
sS'unix'
p157
I4
sS'ninety'
p158
I2
sS'turning'
p159
I4
sS'guests'
p160
I2
sS'stand'
p161
I3
sS'total'
p162
I9
sS'philip'
p163
I2
sS'unit'
p164
I9
sS'opponents'
p165
I2
sS'swings'
p166
I3
sS'marketers'
p167
I4
sS'would'
p168
I73
sS'pulp'
p169
I2
sS'hospital'
p170
I3
sS'indians'
p171
I3
sS'counterclaims'
p172
I2
sS'chooses'
p173
I2
sS'wordplay'
p174
I2
sS'slogans'
p175
I2
sS'cichan'
p176
I2
sS'program'
p177
I8
sS'music'
p178
I7
sS'asset'
p179
I2
sS'strike'
p180
I2
sS'survive'
p181
I2
sS'type'
p182
I2
sS'until'
p183
I8
sS'preserved'
p184
I2
sS'267'
p185
I2
sS'main'
p186
I3
sS'coupled'
p187
I2
sS'feminine-care'
p188
I2
sS'evening'
p189
I4
sS'composite'
p190
I3
sS'giovanni'
p191
I9
sS'naive'
p192
I2
sS'spirits'
p193
I2
sS'wars'
p194
I2
sS'aware'
p195
I2
sS'phone'
p196
I2
sS'berlin'
p197
I2
sS'kgb'
p198
I4
sS'adult'
p199
I2
sS'hurl'
p200
I2
sS'emeritus'
p201
I3
sS'90'
p202
I8
sS'hole'
p203
I2
sS'92'
p204
I3
sS'94'
p205
I2
sS'circumstances'
p206
I4
sS'me'
p207
I9
sS'1990'
p208
I6
sS'1992'
p209
I2
sS'join'
p210
I3
sS'trashing'
p211
I2
sS'player'
p212
I3
sS'pursue'
p213
I3
sS'self-styled'
p214
I2
sS'work'
p215
I12
sS'gasoline'
p216
I2
sS'crescott'
p217
I2
sS'theories'
p218
I2
sS'repaid'
p219
I3
sS'deficiencies'
p220
I2
sS'half-forgotten'
p221
I2
sS'era'
p222
I2
sS'install'
p223
I3
sS'19th-century'
p224
I2
sS'exceptions'
p225
I3
sS'upscale'
p226
I2
sS'elegantly'
p227
I2
sS'revenues'
p228
I2
sS'my'
p229
I8
sS'example'
p230
I4
sS'merchant'
p231
I2
sS'loosen'
p232
I2
sS'estate'
p233
I8
sS'give'
p234
I9
sS'florida'
p235
I4
sS'cited'
p236
I4
sS'floor'
p237
I2
sS'organized'
p238
I2
sS'honed'
p239
I2
sS'uaw'
p240
I4
sS'involve'
p241
I3
sS'10,000'
p242
I4
sS'foods'
p243
I2
sS'woman'
p244
I3
sS'caused'
p245
I4
sS'want'
p246
I9
sS'jetliner'
p247
I2
sS'2.2'
p248
I2
sS'automobile-parts'
p249
I2
sS'keep'
p250
I5
sS'attract'
p251
I2
sS'totaled'
p252
I2
sS'worse'
p253
I3
sS'chevy'
p254
I2
sS'biographical'
p255
I2
sS'end'
p256
I9
sS'recovery'
p257
I2
sS'carriers'
p258
I2
sS'provide'
p259
I4
sS'indirectly'
p260
I2
sS'damage'
p261
I6
sS'leaguers'
p262
I2
sS'all-important'
p263
I2
sS'machine'
p264
I3
sS'how'
p265
I15
sS'amazing'
p266
I3
sS'bunt'
p267
I2
sS'adjacent'
p268
I2
sS'high-grade'
p269
I3
sS'interview'
p270
I5
sS'ordinary'
p271
I3
sS'saint-saens'
p272
I3
sS'beach'
p273
I4
sS'aggressive'
p274
I4
sS'undesirable'
p275
I2
sS'badly'
p276
I3
sS'rise'
p277
I4
sS'minority'
p278
I3
sS'beauty'
p279
I2
sS'claptrap'
p280
I2
sS'glamorous'
p281
I2
sS'earlier'
p282
I12
sS'execution'
p283
I2
sS'caygill'
p284
I2
sS'lab'
p285
I4
sS'barriers'
p286
I2
sS'wrong'
p287
I2
sS'mph'
p288
I3
sS'president'
p289
I46
sS'law'
p290
I22
sS'types'
p291
I2
sS'purchase'
p292
I7
sS'retail'
p293
I2
sS'austere'
p294
I2
sS'third'
p295
I7
sS'sets'
p296
I2
sS'amid'
p297
I2
sS'homeowners'
p298
I2
sS'deutsche'
p299
I2
sS'stimulate'
p300
I2
sS'maintain'
p301
I3
sS'frequent'
p302
I5
sS'enter'
p303
I2
sS'fraudulently'
p304
I2
sS'civil-service'
p305
I2
sS'democratic'
p306
I4
sS'order'
p307
I7
sS'operations'
p308
I7
sS'senators'
p309
I2
sS'softened'
p310
I2
sS'office'
p311
I11
sS'devote'
p312
I2
sS'welcomed'
p313
I2
sS'over'
p314
I32
sS'misdemeanor'
p315
I2
sS'vary'
p316
I2
sS'expects'
p317
I5
sS'6.7'
p318
I2
sS'6.5'
p319
I3
sS'london'
p320
I8
sS'6.2'
p321
I2
sS'12.5'
p322
I2
sS'affect'
p323
I2
sS'japan'
p324
I28
sS'15*slashhere*16'
p325
I2
sS'mayor'
p326
I3
sS'before'
p327
I10
sS'ex-dividend'
p328
I2
sS'difference'
p329
I2
sS'fit'
p330
I2
sS'benign'
p331
I2
sS'personal'
p332
I5
sS'72-game'
p333
I2
sS'recreational'
p334
I2
sS','
I1205
sS'interfere'
p335
I2
sS'writing'
p336
I2
sS'better'
p337
I7
sS'production'
p338
I2
sS'encounter'
p339
I2
sS'accusatory'
p340
I2
sS'400'
p341
I3
sS'weeks'
p342
I4
sS'easier'
p343
I2
sS'overcome'
p344
I2
sS'seib'
p345
I2
sS'eventually'
p346
I5
sS'them'
p347
I24
sS'affected'
p348
I2
sS'powerful'
p349
I2
sS'workout'
p350
I2
sS'amenable'
p351
I2
sS'roost'
p352
I2
sS'break'
p353
I3
sS'9'
I7
sS'pooled'
p354
I2
sS'therapy'
p355
I3
sS'woodwind'
p356
I2
sS'they'
p357
I65
sS'brissette'
p358
I3
sS'26.125'
p359
I2
sS'autographed'
p360
I2
sS'slats'
p361
I3
sS'bank'
p362
I25
sS'30-year'
p363
I2
sS'pollution-control'
p364
I3
sS'alex'
p365
I2
sS'morley'
p366
I2
sS'regularly'
p367
I2
sS'debut'
p368
I2
sS'schieffelin'
p369
I2
sS'detroit'
p370
I3
sS'pleasantries'
p371
I2
sS'stimulus'
p372
I2
sS'filling'
p373
I2
sS'dollar-denominated'
p374
I2
sS'affiliate'
p375
I2
sS'doubleday'
p376
I2
sS'each'
p377
I11
sS'tacker'
p378
I4
sS'went'
p379
I5
sS'7.90'
p380
I2
sS'side'
p381
I4
sS'7.92'
p382
I2
sS'mean'
p383
I5
sS'pleadings'
p384
I2
sS'lifted'
p385
I2
sS'financial'
p386
I14
sS'fairly'
p387
I2
sS'series'
p388
I5
sS'unsurprising'
p389
I2
sS'crimes'
p390
I3
sS'autry'
p391
I2
sS'principles'
p392
I3
sS'january'
p393
I5
sS'marital'
p394
I5
sS'owner'
p395
I3
sS'milan'
p396
I2
sS'trading'
p397
I6
sS'magnets'
p398
I2
sS'stronger-than-expected'
p399
I2
sS'substantially'
p400
I2
sS'temporary'
p401
I4
sS'recognizable'
p402
I2
sS'saturday'
p403
I2
sS'brings'
p404
I2
sS'contend'
p405
I2
sS't.'
p406
I2
sS'precisely'
p407
I2
sS'velvet'
p408
I2
sS'network'
p409
I8
sS'sang'
p410
I2
sS'kingman'
p411
I2
sS'tried'
p412
I4
sS'cameras'
p413
I2
sS'vessels'
p414
I2
sS'george'
p415
I6
sS'collaborated'
p416
I2
sS'laid'
p417
I2
sS'got'
p418
I4
sS'newly'
p419
I3
sS'millions'
p420
I2
sS'imperialists'
p421
I2
sS'gop'
p422
I2
sS'tashi'
p423
I3
sS'sept.'
p424
I3
sS'disputed'
p425
I3
sS'love'
p426
I2
sS'written'
p427
I2
sS'veto'
p428
I3
sS'gumbel'
p429
I2
sS'u.s.'
p430
I63
sS'threatened'
p431
I2
sS'7.962'
p432
I2
sS'free'
p433
I8
sS'fred'
p434
I2
sS'admits'
p435
I2
sS'ramos'
p436
I2
sS'streamline'
p437
I2
sS'boosting'
p438
I2
sS'wanted'
p439
I4
sS'repeat'
p440
I2
sS'sheffield'
p441
I2
sS'chortled'
p442
I2
sS'baseman'
p443
I2
sS'created'
p444
I5
sS'fought'
p445
I4
sS'inexpensive'
p446
I2
sS'days'
p447
I28
sS'flown'
p448
I2
sS'oppose'
p449
I3
sS'delved'
p450
I2
sS'1970s'
p451
I4
sS'moving'
p452
I4
sS'r.'
p453
I4
sS'tactics'
p454
I2
sS'143,800'
p455
I2
sS'non-violent'
p456
I14
sS'200'
p457
I2
sS'already'
p458
I7
sS'features'
p459
I2
sS'economists'
p460
I3
sS'researcher'
p461
I5
sS'brazil'
p462
I2
sS'charter'
p463
I3
sS'hearing'
p464
I4
sS'featured'
p465
I3
sS'plurality'
p466
I2
sS'adopted'
p467
I2
sS'another'
p468
I21
sS'hear'
p469
I2
sS'comic'
p470
I2
sS'electronic'
p471
I3
sS'illustrate'
p472
I4
sS'seizures'
p473
I2
sS'36-year-old'
p474
I2
sS'service'
p475
I5
sS'wood-paneled'
p476
I2
sS'top'
p477
I6
sS'returns'
p478
I2
sS'carry'
p479
I4
sS'heights'
p480
I2
sS'38-year-old'
p481
I2
sS'airs'
p482
I2
sS'master'
p483
I5
sS'listed'
p484
I3
sS'burgess'
p485
I2
sS'wildly'
p486
I2
sS'percentage'
p487
I2
sS'john'
p488
I5
sS'bitter'
p489
I2
sS'chanted'
p490
I3
sS'employers'
p491
I3
sS'1991'
p492
I5
sS'90.5'
p493
I2
sS'tool'
p494
I3
sS'serve'
p495
I2
sS'took'
p496
I7
sS'negotiating'
p497
I3
sS'digs'
p498
I2
sS'predictable'
p499
I2
sS'western'
p500
I6
sS'somewhat'
p501
I2
sS'shortly'
p502
I2
sS'8.45'
p503
I2
sS'alberg'
p504
I2
sS'expanding'
p505
I2
sS'anxiety'
p506
I2
sS'guile'
p507
I2
sS'showed'
p508
I6
sS'magnet'
p509
I4
sS'weight'
p510
I2
sS'programs'
p511
I7
sS'tree'
p512
I2
sS'second'
p513
I14
sS'nations'
p514
I4
sS'project'
p515
I2
sS'matter'
p516
I2
sS'splendidly'
p517
I2
sS'friend'
p518
I3
sS'charlie'
p519
I2
sS'divisiveness'
p520
I2
sS'enables'
p521
I2
sS'powers'
p522
I2
sS'stimuli'
p523
I2
sS'acquisition'
p524
I5
sS'tangential'
p525
I2
sS'goya'
p526
I6
sS'bridge'
p527
I2
sS'fashion'
p528
I4
sS'sees'
p529
I2
sS'well-meaning'
p530
I2
sS'willingness'
p531
I3
sS'exploring'
p532
I2
sS'ran'
p533
I2
sS'boston'
p534
I3
sS'mind'
p535
I2
sS'eyes'
p536
I2
sS'500,000'
p537
I2
sS'formula'
p538
I2
sS'talking'
p539
I2
sS'advising'
p540
I2
sS'rap'
p541
I2
sS'seen'
p542
I2
sS'seem'
p543
I3
sS'seek'
p544
I3
sS'tells'
p545
I2
sS'seminar'
p546
I2
sS'relatively'
p547
I2
sS'grover'
p548
I2
sS'affairs'
p549
I4
sS'abroad'
p550
I4
sS'strength'
p551
I4
sS'mostly'
p552
I2
sS'hispanic'
p553
I5
sS'soared'
p554
I2
sS'thoroughly'
p555
I2
sS'1967'
p556
I2
sS'thorough'
p557
I2
sS'situated'
p558
I2
sS'bullhorns'
p559
I2
sS'subjects'
p560
I5
sS'luxury'
p561
I4
sS'forces'
p562
I4
sS'brains'
p563
I4
sS'transnational'
p564
I2
sS'283-132'
p565
I2
sS'completed'
p566
I3
sS'unsecured'
p567
I3
sS'concedes'
p568
I3
sS'sidley'
p569
I6
sS'acquire'
p570
I3
sS'6*slashhere*2'
p571
I2
sS'though'
p572
I8
sS'bruce'
p573
I2
sS'iceland'
p574
I2
sS'object'
p575
I2
sS'ziyang'
p576
I2
sS'strict'
p577
I3
sS'exercised'
p578
I2
sS'gabele'
p579
I2
sS'8.03'
p580
I2
sS'affirmation'
p581
I2
sS'germany'
p582
I5
sS'letter'
p583
I4
sS'hearts'
p584
I2
sS'exercises'
p585
I2
sS'8.09'
p586
I2
sS'alabama'
p587
I3
sS'holliger'
p588
I2
sS'maria'
p589
I2
sS'zealand'
p590
I11
sS'singer'
p591
I2
sS'don'
p592
I2
sS'treats'
p593
I2
sS'released'
p594
I3
sS'consumed'
p595
I2
sS'camp'
p596
I2
sS'flow'
p597
I4
sS'newcomers'
p598
I2
sS'musical'
p599
I3
sS'investing'
p600
I3
sS'points'
p601
I2
sS'overnight'
p602
I2
sS'principle'
p603
I2
sS'entertaining'
p604
I2
sS'voting'
p605
I2
sS'consumer'
p606
I4
sS'dow'
p607
I3
sS'came'
p608
I5
sS'reserve'
p609
I4
sS'd.'
p610
I7
sS'saying'
p611
I4
sS'sanctuary'
p612
I2
sS'asia-pacific'
p613
I3
sS'meetings'
p614
I5
sS'retire'
p615
I2
sS'sage'
p616
I2
sS'one-year'
p617
I3
sS'fingers'
p618
I5
sS'simple'
p619
I2
sS'religions'
p620
I2
sS'radio'
p621
I2
sS'liberty'
p622
I2
sS'reductions'
p623
I2
sS'fuzzy'
p624
I2
sS'hungary'
p625
I2
sS'mellow'
p626
I3
sS'die-hard'
p627
I2
sS'sunsets'
p628
I2
sS'finally'
p629
I4
sS'proposed'
p630
I11
sS'delays'
p631
I2
sS'debts'
p632
I4
sS'institution'
p633
I2
sS'glasnost'
p634
I2
sS'bush'
p635
I26
sS'version'
p636
I3
sS'rich'
p637
I2
sS'pursuing'
p638
I2
sS'gideon'
p639
I3
sS'announce'
p640
I3
sS'adequate'
p641
I2
sS'titans'
p642
I2
sS'oct'
p643
I2
sS'academics'
p644
I2
sS'personality'
p645
I2
sS'lady'
p646
I2
sS'do'
p647
I27
sS'exports'
p648
I2
sS'settlements'
p649
I3
sS'klein'
p650
I2
sS'wide'
p651
I2
sS'higher-fat'
p652
I2
sS'de'
p653
I3
sS'stop'
p654
I2
sS'television'
p655
I5
sS'cardinals'
p656
I2
sS'coast'
p657
I3
sS'criticized'
p658
I2
sS'25,000'
p659
I2
sS'12'
p660
I4
sS'christopher'
p661
I2
sS'12.75'
p662
I2
sS'altogether'
p663
I3
sS'report'
p664
I6
sS'vividly'
p665
I3
sS'u.n.'
p666
I4
sS'14'
p667
I2
sS'earl'
p668
I2
sS'runs'
p669
I2
sS'pearson'
p670
I2
sS'bar'
p671
I2
sS'sailing'
p672
I2
sS'countries'
p673
I6
sS'ever'
p674
I3
sS'16'
p675
I2
sS'amputation'
p676
I2
sS'super-user'
p677
I2
sS'pravda'
p678
I2
sS'book'
p679
I2
sS'financially'
p680
I2
sS'three-year'
p681
I3
sS'shots'
p682
I2
sS'18'
p683
I3
sS'shocks'
p684
I4
sS'explanations'
p685
I2
sS'mergers'
p686
I2
sS'saul'
p687
I2
sS'searching'
p688
I2
sS'ethical'
p689
I2
sS'etudes'
p690
I2
sS'leasing'
p691
I2
sS'car-crash'
p692
I2
sS'fascinating'
p693
I2
sS'habit'
p694
I2
sS'generally'
p695
I2
sS'liquor'
p696
I2
sS'testing'
p697
I2
sS'1960s'
p698
I2
sS'checks'
p699
I2
sS'keenan'
p700
I8
sS'allure'
p701
I2
sS'result'
p702
I12
sS'holding'
p703
I9
sS'fail'
p704
I3
sS'3*slashhere*8'
p705
I2
sS'resigned'
p706
I6
sS'alternative'
p707
I3
sS'best'
p708
I4
sS'techniques'
p709
I2
sS'pete'
p710
I3
sS'said'
p711
I112
sS'draws'
p712
I2
sS'fastballs'
p713
I2
sS'shupe'
p714
I2
sS'away'
p715
I6
sS'irs'
p716
I7
sS'patients'
p717
I3
sS'machinists'
p718
I2
sS'brushbacks'
p719
I2
sS'future'
p720
I7
sS'slate'
p721
I2
sS'yew'
p722
I2
sS'cooperation'
p723
I4
sS'8.12'
p724
I2
sS'approach'
p725
I4
sS'pirate'
p726
I2
sS'entrekin'
p727
I2
sS'co.'
p728
I15
sS'preserve'
p729
I2
sS'wage'
p730
I16
sS'we'
p731
I28
sS'men'
p732
I4
sS'terms'
p733
I5
sS'7.78'
p734
I2
sS'extend'
p735
I3
sS'vows'
p736
I2
sS'wo'
p737
I10
sS'cavalier'
p738
I2
sS'weak'
p739
I2
sS'however'
p740
I3
sS'boss'
p741
I2
sS'stripped'
p742
I2
sS'southeast'
p743
I2
sS'old-time'
p744
I2
sS'drew'
p745
I2
sS'censorship'
p746
I2
sS'disservice'
p747
I2
sS'news'
p748
I4
sS'picking'
p749
I2
sS'packages'
p750
I3
sS'downgraded'
p751
I2
sS'predates'
p752
I2
sS'improve'
p753
I6
sS'pity'
p754
I2
sS'received'
p755
I4
sS'filings'
p756
I5
sS'accident'
p757
I2
sS'whirlwinds'
p758
I2
sS'resistant'
p759
I2
sS'country'
p760
I7
sS'readers'
p761
I3
sS'against'
p762
I33
sS'players'
p763
I9
sS'else'
p764
I2
sS'games'
p765
I2
sS'planned'
p766
I5
sS'faces'
p767
I3
sS'exceeds'
p768
I2
sS'studio'
p769
I2
sS'requests'
p770
I3
sS'argue'
p771
I2
sS'asked'
p772
I7
sS'publicity-seeking'
p773
I2
sS'borden'
p774
I4
sS'41-lawyer'
p775
I2
sS'tough'
p776
I2
sS'c.d.s'
p777
I2
sS'agnellis'
p778
I3
sS'legs'
p779
I2
sS'irresponsible'
p780
I2
sS'berkeley'
p781
I7
sS'tiant'
p782
I3
sS'zellers'
p783
I2
sS'cult'
p784
I3
sS'tons'
p785
I2
sS'ballparks'
p786
I2
sS'initiative'
p787
I2
sS'39.125'
p788
I2
sS'trust'
p789
I5
sS'telecommunications'
p790
I2
sS'ana'
p791
I2
sS'conference'
p792
I3
sS'signals'
p793
I2
sS'knowns'
p794
I2
sS'petty'
p795
I3
sS'jobless'
p796
I2
sS'billing'
p797
I2
sS'basis'
p798
I3
sS'union'
p799
I9
sS'3.89'
p800
I2
sS'three'
p801
I15
sS'been'
p802
I45
sS'particulars'
p803
I2
sS'commission'
p804
I5
sS'beer'
p805
I5
sS'much'
p806
I23
sS'stadium'
p807
I3
sS'basic'
p808
I2
sS'expected'
p809
I13
sS'lovely'
p810
I3
sS'known'
p811
I3
sS'duties'
p812
I3
sS'threw'
p813
I3
sS'cutouts'
p814
I2
sS'dry'
p815
I2
sS'life'
p816
I3
sS'drogoul'
p817
I2
sS'deeper'
p818
I2
sS'eastern'
p819
I23
sS'39'
p820
I2
sS'dismiss'
p821
I2
sS'worker'
p822
I2
sS'enterprises'
p823
I2
sS'belgium'
p824
I2
sS'snap'
p825
I2
sS'dave'
p826
I2
sS'fireballs'
p827
I2
sS'lorded'
p828
I2
sS'personally'
p829
I3
sS'catch'
p830
I2
sS'aviation'
p831
I2
sS'worked'
p832
I2
sS'voices'
p833
I3
sS'pershare'
p834
I2
sS'applied'
p835
I6
sS'commerce'
p836
I2
sS'has'
p837
I80
sS'trespass'
p838
I2
sS'd.c'
p839
I2
sS'publicly'
p840
I3
sS'38.2'
p841
I2
sS'oboist'
p842
I2
sS'irreparable'
p843
I2
sS'brahms'
p844
I2
sS'economies'
p845
I4
sS'castro'
p846
I3
sS'air'
p847
I10
sS'citizens'
p848
I2
sS'near'
p849
I5
sS'suppose'
p850
I2
sS'surprised'
p851
I3
sS'money-market'
p852
I2
sS'appeals'
p853
I2
sS'aid'
p854
I3
sS'property'
p855
I2
sS'employees'
p856
I8
sS'launched'
p857
I3
sS'sincerity'
p858
I2
sS'upgrade'
p859
I2
sS'seven'
p860
I3
sS'losses'
p861
I4
sS'38.5'
p862
I2
sS'metropolitan'
p863
I3
sS'played'
p864
I3
sS'is'
p865
I161
sS'it'
p866
I146
sS'agenda'
p867
I3
sS'expenses'
p868
I2
sS'ii'
p869
I2
sS'skipping'
p870
I2
sS'tissue'
p871
I3
sS'experts'
p872
I3
sS'in'
p873
I393
sS'exile'
p874
I3
sS'victims'
p875
I3
sS'80,000'
p876
I2
sS'if'
p877
I32
sS'hong'
p878
I4
sS'bottles'
p879
I3
sS'credit'
p880
I3
sS'things'
p881
I6
sS'make'
p882
I19
sS'4.9'
p883
I2
sS'amount'
p884
I7
sS'linked'
p885
I2
sS'dean'
p886
I2
sS'complex'
p887
I2
sS'harmony'
p888
I2
sS'babies'
p889
I2
sS'isikoff'
p890
I2
sS'several'
p891
I11
sS'european'
p892
I4
sS'meets'
p893
I2
sS'hani'
p894
I2
sS'jerked'
p895
I2
sS'effortlessly'
p896
I2
sS'human-rights'
p897
I2
sS'gleeful'
p898
I2
sS'middle-aged'
p899
I2
sS'rain'
p900
I2
sS'lorenzo'
p901
I2
sS'liberties'
p902
I2
sS'greene'
p903
I2
sS'caution'
p904
I2
sS'8.62'
p905
I2
sS'ownership'
p906
I2
sS'advisers'
p907
I2
sS'workings'
p908
I2
sS'protected'
p909
I2
sS'opportunity'
p910
I3
sS'pacemakers'
p911
I2
sS'tune'
p912
I3
sS'kid'
p913
I2
sS'waggishly'
p914
I2
sS'kept'
p915
I5
sS'neurologists'
p916
I2
sS'1978'
p917
I3
sS'1976'
p918
I4
sS'1975'
p919
I3
sS'1973'
p920
I2
sS'milks'
p921
I2
sS'ragged'
p922
I2
sS'academic'
p923
I2
sS'materials'
p924
I2
sS'greatest'
p925
I3
sS'goals'
p926
I2
sS'mother'
p927
I2
sS'purged'
p928
I2
sS'claims'
p929
I6
sS'the'
p930
I1224
sS'800'
p931
I4
sS'corporate'
p932
I9
sS'investments'
p933
I6
sS'left'
p934
I6
sS'arousing'
p935
I2
sS'unified'
p936
I2
sS'gov.'
p937
I2
sS'departed'
p938
I2
sS'just'
p939
I18
sS'sentence'
p940
I2
sS'gods'
p941
I2
sS'sporting'
p942
I2
sS'effects'
p943
I2
sS'ideas'
p944
I3
sS'proposes'
p945
I2
sS'vivaldi-at-brunch'
p946
I2
sS'thanks'
p947
I2
sS'human'
p948
I4
sS'resigning'
p949
I2
sS'plight'
p950
I2
sS'october'
p951
I8
sS'yet'
p952
I7
sS'succeeding'
p953
I4
sS'previous'
p954
I3
sS'adding'
p955
I2
sS'comparisons'
p956
I2
sS'orange-and-blue'
p957
I2
sS'hills'
p958
I2
sS'flooring'
p959
I2
sS'similarities'
p960
I2
sS'ease'
p961
I3
sS'had'
p962
I37
sS'ideal'
p963
I3
sS'postal'
p964
I3
sS'passive'
p965
I2
sS'spread'
p966
I2
sS'board'
p967
I11
sS'easy'
p968
I3
sS'prison'
p969
I2
sS'unpleasant'
p970
I2
sS'east'
p971
I5
sS'interprets'
p972
I2
sS'gave'
p973
I6
sS'119'
p974
I2
sS'casting'
p975
I2
sS'municipal'
p976
I2
sS'braumeisters'
p977
I2
sS'mayo'
p978
I2
sS'posed'
p979
I2
sS'possible'
p980
I7
sS'bridgers'
p981
I2
sS'possibly'
p982
I3
sS'supervisors'
p983
I2
sS'unification'
p984
I6
sS'background'
p985
I2
sS'wanting'
p986
I2
sS'judge'
p987
I17
sS'59'
p988
I2
sS'unique'
p989
I2
sS'retreat'
p990
I2
sS'apart'
p991
I3
sS'desire'
p992
I2
sS'dignity'
p993
I2
sS'quickly'
p994
I2
sS'appearing'
p995
I2
sS'gift'
p996
I2
sS'55'
p997
I3
sS'54'
p998
I2
sS'hunt'
p999
I14
sS'unnecessary'
p1000
I3
sS'53'
p1001
I3
sS'securities'
p1002
I35
sS'offices'
p1003
I2
sS'officer'
p1004
I15
sS'polished'
p1005
I2
sS'bottle'
p1006
I2
sS'security'
p1007
I6
sS'introduce'
p1008
I2
sS'private-sector'
p1009
I2
sS'misdemeanors'
p1010
I2
sS'webb'
p1011
I2
sS'beneficial'
p1012
I3
sS'right'
p1013
I9
sS'old'
p1014
I12
sS'deal'
p1015
I6
sS'people'
p1016
I16
sS'successfully'
p1017
I3
sS'ironically'
p1018
I2
sS'soundings'
p1019
I2
sS'transaction'
p1020
I8
sS'consultants'
p1021
I3
sS'election'
p1022
I3
sS'duels'
p1023
I2
sS'indirect'
p1024
I2
sS'remarks'
p1025
I2
sS'hartt'
p1026
I3
sS'short-term'
p1027
I3
sS'strategic'
p1028
I3
sS'separately'
p1029
I3
sS'leery'
p1030
I2
sS'humor'
p1031
I2
sS'clash'
p1032
I3
sS'for'
p1033
I217
sS'collect'
p1034
I2
sS'66'
p1035
I2
sS'myung'
p1036
I2
sS'reinvest'
p1037
I3
sS'jolt'
p1038
I2
sS'creative'
p1039
I3
sS'everything'
p1040
I7
sS'gems'
p1041
I2
sS'continue'
p1042
I7
sS'first-mortgage'
p1043
I2
sS'motor-control'
p1044
I3
sS'yields'
p1045
I4
sS'clifford'
p1046
I3
sS'robertson'
p1047
I2
sS'participation'
p1048
I5
sS'gandhi'
p1049
I3
sS'core'
p1050
I3
sS'specifically'
p1051
I2
sS'bold'
p1052
I2
sS'bank-backed'
p1053
I2
sS'marketing'
p1054
I7
sS'corn'
p1055
I2
sS'burn'
p1056
I2
sS'eduard'
p1057
I3
sS'illustration'
p1058
I2
sS'6,000'
p1059
I2
sS'popular'
p1060
I2
sS'criminals'
p1061
I2
sS'corp'
p1062
I2
sS'confrontation'
p1063
I3
sS'losing'
p1064
I2
sS'khan'
p1065
I7
sS'post'
p1066
I3
sS'manufacturing'
p1067
I3
sS'properties'
p1068
I4
sS'shaken'
p1069
I2
sS'yuppie'
p1070
I2
sS'chapter'
p1071
I3
sS'soaking'
p1072
I2
sS'filipino'
p1073
I2
sS'dollars'
p1074
I6
sS'months'
p1075
I29
sS'bicentennial'
p1076
I2
sS'annualized'
p1077
I2
sS'magazine'
p1078
I3
sS'misleading'
p1079
I2
sS'canonie'
p1080
I3
sS'afternoon'
p1081
I2
sS'steadily'
p1082
I2
sS'efforts'
p1083
I7
sS'twitch'
p1084
I2
sS'lifland'
p1085
I2
sS'automatically'
p1086
I2
sS'nixon'
p1087
I3
sS'nerve'
p1088
I4
sS'consulting'
p1089
I2
sS'm.'
p1090
I2
sS'managers'
p1091
I5
sS'financiers'
p1092
I2
sS'formerly'
p1093
I4
sS'presence'
p1094
I6
sS'civil'
p1095
I17
sS'material'
p1096
I3
sS'attorney'
p1097
I6
sS'arms'
p1098
I5
sS'down'
p1099
I18
sS'presenters'
p1100
I2
sS'rome-based'
p1101
I2
sS'magazines'
p1102
I3
sS'capped'
p1103
I3
sS'approximately'
p1104
I3
sS'sox'
p1105
I4
sS'defendants'
p1106
I3
sS'positive'
p1107
I2
sS'schimberg'
p1108
I2
sS'kimberly-clark'
p1109
I4
sS'crowd'
p1110
I3
sS'labels'
p1111
I4
sS'intrinsic'
p1112
I2
sS'support'
p1113
I6
sS'tennis'
p1114
I2
sS'legislation'
p1115
I3
sS'transform'
p1116
I2
sS'one-time'
p1117
I3
sS'payment'
p1118
I3
sS'clinical'
p1119
I2
sS'editor'
p1120
I4
sS'way'
p1121
I15
sS'obliged'
p1122
I2
sS'resulted'
p1123
I4
sS'call'
p1124
I4
sS'was'
p1125
I96
sS'war'
p1126
I6
sS'purposely'
p1127
I2
sS'at-bat'
p1128
I2
sS'flying'
p1129
I2
sS'bert'
p1130
I2
sS'head'
p1131
I5
sS'chiappa'
p1132
I2
sS'amateur'
p1133
I3
sS'fragrance'
p1134
I2
sS'offering'
p1135
I3
sS'offer'
p1136
I8
sS'dataproducts'
p1137
I3
sS'laboratory'
p1138
I3
sS'becoming'
p1139
I2
sS'libel'
p1140
I3
sS'removes'
p1141
I2
sS'nonvoting'
p1142
I2
sS'oil'
p1143
I3
sS'somehow'
p1144
I3
sS'mysterious'
p1145
I2
sS'heat'
p1146
I2
sS'unamended'
p1147
I2
sS'odyssey'
p1148
I2
sS'incriminating'
p1149
I2
sS'alliance'
p1150
I2
sS'insider-trading'
p1151
I3
sS'2,750'
p1152
I2
sS'true'
p1153
I2
sS'reset'
p1154
I2
sS'nov.'
p1155
I6
sS'counsel'
p1156
I2
sS'high-quality'
p1157
I2
sS'programmatic'
p1158
I2
sS'versions'
p1159
I4
sS'compositional'
p1160
I2
sS'itel'
p1161
I3
sS'inside'
p1162
I2
sS'departments'
p1163
I2
sS'clause'
p1164
I3
sS'maximum'
p1165
I2
sS'devices'
p1166
I12
sS'monitored'
p1167
I2
sS'statements'
p1168
I2
sS'crystal'
p1169
I2
sS'stolzman'
p1170
I2
sS'3.5'
p1171
I2
sS'chivas'
p1172
I8
sS'disturbances'
p1173
I2
sS'unusually'
p1174
I2
sS'stages'
p1175
I2
sS'average'
p1176
I9
sS'refillable'
p1177
I3
sS'pricing'
p1178
I2
sS'trim'
p1179
I2
sS'150'
p1180
I4
sS'promises'
p1181
I3
sS'later'
p1182
I6
sS'proved'
p1183
I2
sS'157'
p1184
I2
sS'countercultural'
p1185
I2
sS'peruvian'
p1186
I2
sS'request'
p1187
I2
sS'hard-line'
p1188
I2
sS'store'
p1189
I3
sS'suspicions'
p1190
I2
sS'drive'
p1191
I3
sS"''"
p1192
I137
sS'proves'
p1193
I2
sS'promised'
p1194
I2
sS'fiduciary'
p1195
I2
sS'petition'
p1196
I2
sS'trip'
p1197
I2
sS'negotiations'
p1198
I4
sS'physical'
p1199
I3
sS'1,000'
p1200
I2
sS'marking'
p1201
I2
sS'propagandists'
p1202
I2
sS'faithful'
p1203
I2
sS'weakened'
p1204
I2
sS'no'
p1205
I28
sS'million-dollar'
p1206
I2
sS'stake'
p1207
I8
sS'when'
p1208
I29
sS'consorting'
p1209
I2
sS'cambodia'
p1210
I3
sS'successful'
p1211
I3
sS'faux'
p1212
I2
sS'setting'
p1213
I4
sS'role'
p1214
I5
sS'3.8'
p1215
I2
sS'overturning'
p1216
I2
sS'papers'
p1217
I2
sS'joni'
p1218
I2
sS'developers'
p1219
I2
sS'roll'
p1220
I2
sS'picture'
p1221
I2
sS"'s"
p1222
I225
sS'brothers'
p1223
I2
sS'get-together'
p1224
I3
sS'stoll'
p1225
I12
sS'dies'
p1226
I2
sS'felt'
p1227
I4
sS'stealing'
p1228
I2
sS'utilities'
p1229
I2
sS'pitcher-coach'
p1230
I2
sS"'d"
p1231
I4
sS'invested'
p1232
I2
sS'rising'
p1233
I2
sS'scores'
p1234
I3
sS'authorities'
p1235
I3
sS"'m"
p1236
I5
sS'seeing'
p1237
I3
sS'died'
p1238
I4
sS'source'
p1239
I4
sS'jones'
p1240
I3
sS'reorganization'
p1241
I3
sS'longer'
p1242
I4
sS'excuse'
p1243
I3
sS'assume'
p1244
I5
sS'normally'
p1245
I2
sS'lowered'
p1246
I2
sS'comfortable'
p1247
I2
sS'changed'
p1248
I3
sS'affidavit'
p1249
I2
sS'daily'
p1250
I4
sS'uncovered'
p1251
I2
sS'warm'
p1252
I2
sS'time'
p1253
I21
sS'n.j.'
p1254
I2
sS'campaneris'
p1255
I5
sS'overturned'
p1256
I2
sS'gnu-emacs'
p1257
I3
sS'parcels'
p1258
I2
sS'profits'
p1259
I2
sS'overdue'
p1260
I3
sS'house-painting'
p1261
I2
sS'cincinnati'
p1262
I3
sS'broke'
p1263
I2
sS'remarkable'
p1264
I3
sS'diplomacy'
p1265
I2
sS'resources'
p1266
I4
sS'alternatives'
p1267
I2
sS'172.5'
p1268
I2
sS'invent'
p1269
I2
sS'91-day'
p1270
I2
sS'roy'
p1271
I2
sS'manager'
p1272
I6
sS'anti-western'
p1273
I2
sS'dalton'
p1274
I2
sS'mill'
p1275
I2
sS'93'
p1276
I2
sS'superpower'
p1277
I2
sS'row'
p1278
I2
sS'certainly'
p1279
I3
sS'hold'
p1280
I6
sS'757-200s'
p1281
I3
sS'disorders'
p1282
I2
sS'promote'
p1283
I4
sS'technique'
p1284
I3
sS'father'
p1285
I3
sS'editors'
p1286
I2
sS'blocking'
p1287
I3
sS'environment'
p1288
I4
sS'german'
p1289
I3
sS'charge'
p1290
I7
sS'asking'
p1291
I4
sS'promoting'
p1292
I2
sS'e.'
p1293
I4
sS'marks'
p1294
I3
sS'discovering'
p1295
I2
sS'phil'
p1296
I2
sS'must'
p1297
I7
sS"l'heureux"
p1298
I2
sS'bogus'
p1299
I2
sS'division'
p1300
I3
sS'keck'
p1301
I2
sS'charles'
p1302
I3
sS'string'
p1303
I2
sS'prepaid'
p1304
I3
sS'trimming'
p1305
I2
sS'none'
p1306
I4
sS'choice'
p1307
I3
sS'morally'
p1308
I2
sS'remora'
p1309
I2
sS'cook'
p1310
I2
sS'word'
p1311
I3
sS'trouble'
p1312
I4
sS'corp.'
p1313
I13
sS'66-year-old'
p1314
I2
sS'governments'
p1315
I6
sS'clouds'
p1316
I2
sS'impressive'
p1317
I2
sS'safeguarded'
p1318
I2
sS'level'
p1319
I6
sS'did'
p1320
I17
sS'killed'
p1321
I2
sS'philippines'
p1322
I6
sS'camaraderie'
p1323
I2
sS'proposals'
p1324
I3
sS'hawaii'
p1325
I2
sS'unificationism'
p1326
I2
sS'standards'
p1327
I7
sS'leave'
p1328
I5
sS'presenter'
p1329
I2
sS'settle'
p1330
I2
sS'team'
p1331
I9
sS'quick'
p1332
I2
sS'1969'
p1333
I2
sS'guy'
p1334
I2
sS'59-dealer'
p1335
I2
sS'obfuscation'
p1336
I2
sS'attracting'
p1337
I3
sS'prevent'
p1338
I3
sS'babelists'
p1339
I2
sS'revolution'
p1340
I2
sS'says'
p1341
I46
sS'chickens'
p1342
I2
sS'findings'
p1343
I2
sS'tougher'
p1344
I2
sS'trend'
p1345
I2
sS'dealing'
p1346
I2
sS'imelda'
p1347
I2
sS'soft-spoken'
p1348
I2
sS'copy'
p1349
I2
sS'whimsical'
p1350
I2
sS'sign'
p1351
I5
sS'utility'
p1352
I2
sS'neglect'
p1353
I2
sS'journalistic'
p1354
I2
sS'delight'
p1355
I2
sS'unconnected'
p1356
I2
sS'patient'
p1357
I4
sS'889,000'
p1358
I2
sS'substitute'
p1359
I4
sS'stennett'
p1360
I2
sS'majors'
p1361
I5
sS'adds'
p1362
I3
sS'stands'
p1363
I3
sS'page-one'
p1364
I2
sS'norris'
p1365
I4
sS'shares'
p1366
I16
sS'minikes'
p1367
I2
sS'current'
p1368
I10
sS'health'
p1369
I4
sS'goes'
p1370
I3
sS'del'
p1371
I3
sS'falling'
p1372
I2
sS'staff'
p1373
I4
sS'boost'
p1374
I5
sS'4,300'
p1375
I2
sS'13*slashhere*16'
p1376
I2
sS'satisfy'
p1377
I2
sS'drafted'
p1378
I2
sS'proclaiming'
p1379
I2
sS'transportation'
p1380
I3
sS'wain'
p1381
I2
sS'wail'
p1382
I2
sS'involuntarily'
p1383
I2
sS'french'
p1384
I2
sS'agreement'
p1385
I13
sS'guise'
p1386
I2
sS'polyrhythms'
p1387
I2
sS'promise'
p1388
I2
sS'baseball'
p1389
I8
sS'shivers'
p1390
I2
sS'groups'
p1391
I5
sS'address'
p1392
I2
sS'alone'
p1393
I2
sS'along'
p1394
I5
sS'earthquake'
p1395
I2
sS'change'
p1396
I6
sS'box'
p1397
I2
sS'sending'
p1398
I2
sS'incoming'
p1399
I2
sS'cuckoo'
p1400
I4
sS'jazzy'
p1401
I2
sS'brilliant'
p1402
I2
sS'salvage'
p1403
I2
sS'overflowing'
p1404
I2
sS'trial'
p1405
I3
sS'accomplished'
p1406
I2
sS'chemical'
p1407
I2
sS'suggestion'
p1408
I2
sS'usually'
p1409
I3
sS'studies'
p1410
I4
sS'reclaim'
p1411
I2
sS'cloak'
p1412
I2
sS'adjustable'
p1413
I3
sS'regardless'
p1414
I2
sS'raise'
p1415
I10
sS'merely'
p1416
I2
sS'hindemith'
p1417
I2
sS'prefer'
p1418
I2
sS'paragon'
p1419
I2
sS'bloody'
p1420
I2
sS'89'
p1421
I2
sS'licensing'
p1422
I2
sS'tidal'
p1423
I2
sS'pianist*slashhere*bassoonist*slashhere*composer'
p1424
I2
sS'tuesday'
p1425
I5
sS'rarely'
p1426
I3
sS'crisis'
p1427
I2
sS'market'
p1428
I21
sS'sky'
p1429
I2
sS'yourself'
p1430
I2
sS'angell'
p1431
I2
sS'wealth'
p1432
I2
sS'working'
p1433
I5
sS'prove'
p1434
I2
sS'developed'
p1435
I4
sS'angry'
p1436
I2
sS'third-quarter'
p1437
I4
sS'sports'
p1438
I3
sS'insider'
p1439
I3
sS'handles'
p1440
I2
sS'jam'
p1441
I3
sS'opposed'
p1442
I3
sS'memory'
p1443
I5
sS'scope'
p1444
I3
sS'harms'
p1445
I2
sS'chores'
p1446
I2
sS'household'
p1447
I2
sS'today'
p1448
I10
sS'unwarranted'
p1449
I2
sS'cockpit'
p1450
I2
sS'``'
p1451
I180
sS'sharing'
p1452
I2
sS'penn'
p1453
I2
sS'faith'
p1454
I2
sS'club'
p1455
I2
sS'subsistence'
p1456
I2
sS'acceptable'
p1457
I2
sS'apparent'
p1458
I2
sS'state-funded'
p1459
I2
sS'non-family'
p1460
I2
sS'visual'
p1461
I2
sS'virtue'
p1462
I2
sS'employed'
p1463
I4
sS'cases'
p1464
I6
sS'given'
p1465
I3
sS'effort'
p1466
I3
sS'piano'
p1467
I2
sS'behalf'
p1468
I3
sS'canadian'
p1469
I8
sS'fly'
p1470
I2
sS'organizations'
p1471
I4
sS'tokyo'
p1472
I6
sS'car'
p1473
I5
sS'originally'
p1474
I2
sS'pretend'
p1475
I2
sS'soul'
p1476
I2
sS'believes'
p1477
I4
sS'ms.'
p1478
I7
sS'zhao'
p1479
I2
sS'printing'
p1480
I3
sS'audience-friendly'
p1481
I2
sS'can'
p1482
I28
sS'stature'
p1483
I2
sS'following'
p1484
I3
sS'making'
p1485
I8
sS'cleverly'
p1486
I2
sS'trans'
p1487
I4
sS'newspapers'
p1488
I5
sS'stimulating'
p1489
I2
sS'1*slashhere*2'
p1490
I4
sS'heart'
p1491
I4
sS'performer'
p1492
I2
sS'degenerate'
p1493
I2
sS'figure'
p1494
I4
sS'uruguay'
p1495
I2
sS'lobbying'
p1496
I2
sS'december'
p1497
I8
sS'apt'
p1498
I2
sS'8.30'
p1499
I2
sS'1980s'
p1500
I2
sS'heard'
p1501
I2
sS'stroke'
p1502
I2
sS'chicago-based'
p1503
I2
sS'dropped'
p1504
I3
sS'allowed'
p1505
I3
sS'electromagnets'
p1506
I2
sS'spanning'
p1507
I2
sS'230'
p1508
I2
sS'gimmickry'
p1509
I2
sS'gentler'
p1510
I2
sS'domenici'
p1511
I2
sS'requirements'
p1512
I3
sS'fiscal'
p1513
I2
sS'steve'
p1514
I3
sS'savor'
p1515
I2
sS'discussion'
p1516
I3
sS'bonds'
p1517
I9
sS'buttoned-up'
p1518
I2
sS'pro-'
p1519
I2
sS'galbani'
p1520
I2
sS'write'
p1521
I2
sS'unjust'
p1522
I2
sS'47-year-old'
p1523
I2
sS's.'
p1524
I2
sS'fourth'
p1525
I3
sS'accessories'
p1526
I2
sS'coleman'
p1527
I2
sS'8.38'
p1528
I2
sS'economy'
p1529
I5
sS'answer'
p1530
I3
sS'inputs'
p1531
I2
sS'3.45'
p1532
I2
sS'145'
p1533
I2
sS's.p'
p1534
I4
sS'140'
p1535
I2
sS'information'
p1536
I6
sS'may'
p1537
I22
sS'forth'
p1538
I2
sS'spot'
p1539
I2
sS'149'
p1540
I2
sS'kalison'
p1541
I2
sS'tyler'
p1542
I2
sS'membership'
p1543
I5
sS'birthday'
p1544
I2
sS'mae'
p1545
I8
sS'designed'
p1546
I3
sS'epileptics'
p1547
I2
sS'vases'
p1548
I2
sS'date'
p1549
I4
sS'such'
p1550
I35
sS'heroes'
p1551
I2
sS'iraq'
p1552
I2
sS'data'
p1553
I3
sS'grow'
p1554
I3
sS'pressuring'
p1555
I2
sS'man'
p1556
I6
sS'120'
p1557
I3
sS'hannover'
p1558
I2
sS'natural'
p1559
I3
sS'rollie'
p1560
I2
sS'sectors'
p1561
I2
sS'maybe'
p1562
I5
sS'futures'
p1563
I2
sS'sclerosis'
p1564
I2
sS'tale'
p1565
I3
sS'subminimum'
p1566
I4
sS'switch'
p1567
I2
sS'so'
p1568
I32
sS'deposit'
p1569
I2
sS'african'
p1570
I2
sS'skirmish'
p1571
I2
sS'pollution'
p1572
I2
sS'pulled'
p1573
I2
sS'talk'
p1574
I4
sS'outlet'
p1575
I2
sS'refund'
p1576
I2
sS'acts'
p1577
I2
sS'shoes'
p1578
I2
sS'canberra'
p1579
I2
sS'furnished'
p1580
I2
sS'indeed'
p1581
I3
sS'toward'
p1582
I4
sS'midnight'
p1583
I2
sS'flips'
p1584
I2
sS'years'
p1585
I32
sS'ended'
p1586
I3
sS'bucking'
p1587
I2
sS'hacker'
p1588
I8
sS'cuts'
p1589
I2
sS'argued'
p1590
I4
sS'dilemma'
p1591
I2
sS'still'
p1592
I13
sS'birds'
p1593
I2
sS'tendency'
p1594
I2
sS'8.0087'
p1595
I2
sS'middle-management'
p1596
I2
sS'accepted'
p1597
I5
sS'swank'
p1598
I3
sS'group'
p1599
I20
sS'monitor'
p1600
I4
sS'jim'
p1601
I2
sS'troubles'
p1602
I2
sS'wasting'
p1603
I2
sS'window'
p1604
I3
sS'offers'
p1605
I3
sS'suspicion'
p1606
I2
sS'maxwell'
p1607
I2
sS'policy'
p1608
I5
sS'mail'
p1609
I5
sS'mcenaney'
p1610
I3
sS'troubled'
p1611
I4
sS'norway'
p1612
I2
sS'inefficiency'
p1613
I2
sS'militant'
p1614
I2
sS'finance'
p1615
I7
sS'thereby'
p1616
I2
sS'views'
p1617
I3
sS'impulses'
p1618
I3
sS'100,000'
p1619
I2
sS'undisclosed'
p1620
I2
sS'prebon'
p1621
I2
sS'sooner'
p1622
I2
sS'nation'
p1623
I7
sS'1955'
p1624
I2
sS'1954'
p1625
I2
sS'concocts'
p1626
I2
sS'compelled'
p1627
I3
sS'motor'
p1628
I7
sS'disarmament'
p1629
I2
sS'half'
p1630
I8
sS'not'
p1631
I53
sS'78,600'
p1632
I2
sS'now'
p1633
I24
sS'provision'
p1634
I2
sS'discuss'
p1635
I2
sS'nor'
p1636
I4
sS'31.25'
p1637
I2
sS'administer'
p1638
I2
sS'8.49'
p1639
I2
sS'attorneys'
p1640
I3
sS'name'
p1641
I2
sS'1.9'
p1642
I2
sS'james'
p1643
I5
sS'drop'
p1644
I2
sS'lighting'
p1645
I5
sS'possibilities'
p1646
I2
sS'pinpointed'
p1647
I2
sS'careless'
p1648
I2
sS'gamble'
p1649
I3
sS'rock'
p1650
I2
sS'tribune'
p1651
I2
sS'quarter'
p1652
I8
sS'quartet'
p1653
I3
sS'el'
p1654
I2
sS'square'
p1655
I3
sS'retrieve'
p1656
I2
sS'mixed-up'
p1657
I2
sS'revised'
p1658
I2
sS'agnew'
p1659
I2
sS'consumer-products'
p1660
I2
sS'taxes'
p1661
I3
sS'year'
p1662
I48
sS'distributor'
p1663
I2
sS'naming'
p1664
I2
sS'teams'
p1665
I3
sS'obsession'
p1666
I2
sS'8.75'
p1667
I2
sS'plans'
p1668
I7
sS'album'
p1669
I2
sS'ultimately'
p1670
I4
sS'enjoyable'
p1671
I2
sS'factors'
p1672
I2
sS'profit'
p1673
I3
sS'truly'
p1674
I3
sS'uncombed'
p1675
I2
sS'factory'
p1676
I2
sS'drinker'
p1677
I3
sS'owned'
p1678
I4
sS'increase'
p1679
I11
sS'attracted'
p1680
I3
sS'seriously'
p1681
I2
sS'protections'
p1682
I2
sS'rational'
p1683
I2
sS'suggesting'
p1684
I3
sS'churches'
p1685
I2
sS'ploys'
p1686
I2
sS'viable'
p1687
I2
sS'indicating'
p1688
I2
sS'shows'
p1689
I4
sS'rebuilding'
p1690
I2
sS'odds'
p1691
I3
sS'attended'
p1692
I2
sS'mercantile'
p1693
I2
sS'strengthens'
p1694
I2
sS'uptempo'
p1695
I2
sS'mail-sorting'
p1696
I2
sS'cars'
p1697
I5
sS'wildbad'
p1698
I2
sS'million'
p1699
I66
sS'face-to-face'
p1700
I3
sS'possibility'
p1701
I2
sS'loyalty'
p1702
I2
sS'ontario'
p1703
I3
sS'california'
p1704
I3
sS'carl'
p1705
I3
sS'obligation'
p1706
I3
sS'keith'
p1707
I2
sS'grab'
p1708
I2
sS'rolls-royce'
p1709
I2
sS'220,000'
p1710
I2
sS'partner'
p1711
I6
sS'advance'
p1712
I2
sS'training'
p1713
I16
sS'distilled'
p1714
I2
sS'carnival'
p1715
I2
sS'selections'
p1716
I2
sS'discussing'
p1717
I3
sS'3.2'
p1718
I2
sS'dirk'
p1719
I2
sS'vehemently'
p1720
I2
sS'british'
p1721
I5
sS'motion'
p1722
I2
sS'turn'
p1723
I5
sS'tangled'
p1724
I2
sS'gordon'
p1725
I2
sS'invitation'
p1726
I2
sS'styles'
p1727
I2
sS'turf'
p1728
I2
sS'promotion'
p1729
I8
sS'global'
p1730
I3
sS'515'
p1731
I2
sS'think'
p1732
I8
sS'delighted'
p1733
I2
sS'first'
p1734
I23
sS'exotic'
p1735
I2
sS'concertos'
p1736
I2
sS'wad'
p1737
I2
sS'merrill'
p1738
I2
sS'striking'
p1739
I2
sS'question'
p1740
I4
sS'one'
p1741
I54
sS'insist'
p1742
I3
sS'reykjavik'
p1743
I2
sS'americans'
p1744
I7
sS'minor-leaguer'
p1745
I2
sS'directly'
p1746
I5
sS'spanish'
p1747
I2
sS'vote'
p1748
I4
sS'corporations'
p1749
I3
sS'sounds'
p1750
I2
sS'drove'
p1751
I2
sS'open'
p1752
I9
sS'kuan'
p1753
I2
sS'size'
p1754
I3
sS'politician'
p1755
I2
sS'city'
p1756
I2
sS'little'
p1757
I7
sS'necessarily'
p1758
I2
sS'wrath'
p1759
I2
sS'district'
p1760
I5
sS'23'
p1761
I3
sS'bite'
p1762
I2
sS'trillion'
p1763
I4
sS'anyone'
p1764
I3
sS'indicate'
p1765
I2
sS'free-lance'
p1766
I2
sS'2'
I5
sS'draft'
p1767
I2
sS'tell'
p1768
I2
sS'white'
p1769
I13
sS'anesthetized'
p1770
I2
sS'speaking'
p1771
I2
sS'3'
I6
sS'acquisitions'
p1772
I5
sS'excellent'
p1773
I2
sS'zayadi'
p1774
I3
sS'allegedly'
p1775
I3
sS'that'
p1776
I215
sS'pittsburgh'
p1777
I3
sS'season'
p1778
I7
sS'hun'
p1779
I3
sS'suit'
p1780
I4
sS'alan'
p1781
I2
sS'pompano'
p1782
I2
sS's.c.'
p1783
I2
sS'ridiculous'
p1784
I2
sS'specialists'
p1785
I2
sS'flowers'
p1786
I2
sS'once-cozy'
p1787
I2
sS'than'
p1788
I47
sS'bio-analytical'
p1789
I2
sS'11'
p1790
I6
sS'10'
p1791
I17
sS'13'
p1792
I3
sS':'
I51
sS'15'
p1793
I9
sS'unfortunately'
p1794
I4
sS'17'
p1795
I4
sS'edition'
p1796
I2
sS'19'
p1797
I3
sS'structured'
p1798
I2
sS'require'
p1799
I5
sS'transferred'
p1800
I2
sS'spokeswoman'
p1801
I2
sS'officials'
p1802
I12
sS'glossy'
p1803
I3
sS'venture'
p1804
I7
sS'were'
p1805
I47
sS'cards'
p1806
I2
sS'agnelli-related'
p1807
I2
sS'respectability'
p1808
I2
sS'subcommittee'
p1809
I3
sS'and'
p1810
I472
sS'manufacture'
p1811
I3
sS'gathering'
p1812
I2
sS'san'
p1813
I2
sS'investors'
p1814
I22
sS'remained'
p1815
I3
sS'pro'
p1816
I2
sS'premier'
p1817
I2
sS'turned'
p1818
I2
sS'argument'
p1819
I3
sS'jewels'
p1820
I2
sS'sad'
p1821
I2
sS'medical'
p1822
I4
sS'say'
p1823
I19
sS'conspiracy'
p1824
I2
sS'rent'
p1825
I6
sS'neurosurgeon'
p1826
I3
sS'sells'
p1827
I4
sS'recover'
p1828
I2
sS'dewar'
p1829
I2
sS'any'
p1830
I18
sS'warsaw'
p1831
I2
sS'serials'
p1832
I2
sS'prosperity'
p1833
I2
sS'conversion'
p1834
I2
sS'form'
p1835
I2
sS'fashionable'
p1836
I3
sS'brewed'
p1837
I2
sS'veteran'
p1838
I2
sS'immorality'
p1839
I2
sS'aside'
p1840
I4
sS'bigger'
p1841
I2
sS'note'
p1842
I5
sS'sciences'
p1843
I2
sS'mr.'
p1844
I131
sS'18th'
p1845
I2
sS'take'
p1846
I10
sS'objective'
p1847
I2
sS'performance'
p1848
I4
sS'encouraged'
p1849
I2
sS'projects'
p1850
I4
sS'1,250'
p1851
I2
sS'channel'
p1852
I2
sS'urge'
p1853
I2
sS'begin'
p1854
I8
sS'sure'
p1855
I2
sS'altered'
p1856
I2
sS'trace'
p1857
I2
sS'normal'
p1858
I2
sS'price'
p1859
I4
sS'functionaries'
p1860
I2
sS'fails'
p1861
I2
sS'paid'
p1862
I8
sS'feuding'
p1863
I2
sS'teachers'
p1864
I2
sS'exploited'
p1865
I2
sS'airing'
p1866
I3
sS'pair'
p1867
I2
sS'knee'
p1868
I2
sS'america'
p1869
I14
sS'pages'
p1870
I3
sS'12,500'
p1871
I2
sS'probes'
p1872
I2
sS'especially'
p1873
I2
sS'failure'
p1874
I3
sS'considered'
p1875
I3
sS'egg'
p1876
I3
sS'broberg'
p1877
I4
sS'tackling'
p1878
I2
sS'steady'
p1879
I3
sS'sale'
p1880
I8
sS'pores'
p1881
I2
sS'wing'
p1882
I2
sS'managing'
p1883
I4
sS'mid-november'
p1884
I2
sS'obligatto'
p1885
I2
sS'professional'
p1886
I3
sS'senior'
p1887
I14
sS'mass.'
p1888
I4
sS'typically'
p1889
I3
sS'liquidity'
p1890
I2
sS'atlantic'
p1891
I2
sS'laws'
p1892
I2
sS'rating'
p1893
I6
sS'stimulator'
p1894
I2
sS'drastically'
p1895
I2
sS'brainchild'
p1896
I2
sS'show'
p1897
I9
sS'ginseng'
p1898
I2
sS'retains'
p1899
I2
sS'allegations'
p1900
I2
sS'contemporary'
p1901
I4
sS'commitments'
p1902
I5
sS'discovered'
p1903
I4
sS'rep.'
p1904
I4
sS'cambodian'
p1905
I3
sS'motivate'
p1906
I2
sS'soviets'
p1907
I12
sS'forecast'
p1908
I2
sS'brokers'
p1909
I2
sS'maine'
p1910
I2
sS'fifth'
p1911
I2
sS'hustles'
p1912
I2
sS'slow'
p1913
I3
sS'j&b'
p1914
I2
sS'dice'
p1915
I2
sS'title'
p1916
I3
sS'thriller'
p1917
I2
sS'ashurst'
p1918
I5
sS'industrialize'
p1919
I2
sS'behind'
p1920
I3
sS'crime'
p1921
I2
sS'filipinos'
p1922
I4
sS'only'
p1923
I28
sS'going'
p1924
I11
sS'black'
p1925
I4
sS'messiaen'
p1926
I2
sS'inventions'
p1927
I2
sS'outrage'
p1928
I2
sS'cautioned'
p1929
I2
sS'karim'
p1930
I2
sS'dreaded'
p1931
I2
sS'awareness'
p1932
I2
sS'dispute'
p1933
I7
sS'ranking'
p1934
I2
sS'savoring'
p1935
I2
sS'get'
p1936
I11
sS'contracts'
p1937
I2
sS'assistant'
p1938
I4
sS'jazz'
p1939
I5
sS'begging'
p1940
I2
sS'expectation'
p1941
I2
sS'soon'
p1942
I4
sS'nominees'
p1943
I3
sS'hailed'
p1944
I2
sS'procreation'
p1945
I2
sS'conjunction'
p1946
I2
sS'neither'
p1947
I3
sS'stroll'
p1948
I2
sS'secondary'
p1949
I3
sS'prime'
p1950
I6
sS'reveal'
p1951
I2
sS'regarding'
p1952
I2
sS'clout'
p1953
I2
sS'borrow'
p1954
I2
sS'morning'
p1955
I2
sS'stupid'
p1956
I2
sS'roger'
p1957
I3
sS'predicted'
p1958
I2
sS'reorganizes'
p1959
I2
sS'scott'
p1960
I2
sS'congressional'
p1961
I5
sS'bought'
p1962
I3
sS'where'
p1963
I10
sS'husband'
p1964
I2
sS'user'
p1965
I3
sS'ignored'
p1966
I2
sS'declared'
p1967
I2
sS'concert'
p1968
I3
sS'encourages'
p1969
I3
sS'bids'
p1970
I5
sS'violated'
p1971
I2
sS'innovative'
p1972
I2
sS'comparable'
p1973
I3
sS'baseball-loving'
p1974
I2
sS'color-coding'
p1975
I2
sS'elected'
p1976
I5
sS'j.'
p1977
I4
sS'sandor'
p1978
I2
sS'college'
p1979
I4
sS'stigma'
p1980
I2
sS'surgery'
p1981
I7
sS'sport'
p1982
I2
sS'reputed'
p1983
I2
sS'concern'
p1984
I10
sS'kitschy'
p1985
I2
sS'staffed'
p1986
I2
sS'8.40'
p1987
I2
sS'mortgage'
p1988
I26
sS'farmers'
p1989
I2
sS'federal'
p1990
I19
sS'willard'
p1991
I2
sS'representatives'
p1992
I2
sS'serkin'
p1993
I2
sS'label'
p1994
I2
sS'weapons'
p1995
I3
sS'outside'
p1996
I2
sS'moslems'
p1997
I2
sS'between'
p1998
I16
sS'import'
p1999
I2
sS'geometric'
p2000
I2
sS'reading'
p2001
I2
sS'across'
p2002
I2
sS'fight'
p2003
I2
sS'8.44'
p2004
I2
sS'infrastructure'
p2005
I2
sS'jobs'
p2006
I7
sS'august'
p2007
I5
sS'parent'
p2008
I2
sS'gardiner'
p2009
I2
sS'screen'
p2010
I2
sS'rapidly'
p2011
I2
sS'oberstar'
p2012
I2
sS'marietta'
p2013
I3
sS'now-defunct'
p2014
I2
sS'zoo'
p2015
I2
sS'jets'
p2016
I2
sS'article'
p2017
I5
sS'spark'
p2018
I2
sS'cities'
p2019
I2
sS'come'
p2020
I8
sS'abramson'
p2021
I2
sS'undermine'
p2022
I2
sS'recall'
p2023
I2
sS'bite-sized'
p2024
I2
sS'missions'
p2025
I2
sS'mob'
p2026
I2
sS'embarrassment'
p2027
I2
sS'many'
p2028
I14
sS'region'
p2029
I2
sS'trades'
p2030
I3
sS'hours'
p2031
I2
sS'according'
p2032
I8
sS'contract'
p2033
I7
sS'called'
p2034
I6
sS'somewhere'
p2035
I2
sS'probable'
p2036
I2
sS'concentrates'
p2037
I2
sS'75'
p2038
I2
sS'senator'
p2039
I2
sS'holders'
p2040
I3
sS'traded'
p2041
I3
sS'ntsb'
p2042
I2
sS'comes'
p2043
I3
sS'among'
p2044
I10
sS'cabal'
p2045
I2
sS'passenger'
p2046
I3
sS'color'
p2047
I3
sS'effective'
p2048
I7
sS'moscow'
p2049
I7
sS'period'
p2050
I9
sS'pop'
p2051
I4
sS'expectations'
p2052
I2
sS'satisfaction'
p2053
I2
sS'61'
p2054
I3
sS'maintained'
p2055
I2
sS'white-haired'
p2056
I2
sS'65'
p2057
I2
sS'scanning'
p2058
I2
sS'approval'
p2059
I5
sS'68'
p2060
I3
sS'associated'
p2061
I2
sS'bizarre'
p2062
I2
sS'novametrix'
p2063
I2
sS'procter'
p2064
I2
sS'specializing'
p2065
I2
sS'squaring'
p2066
I2
sS'unusual'
p2067
I3
sS'eight-team'
p2068
I2
sS'testimonial'
p2069
I2
sS'howard'
p2070
I2
sS'specific'
p2071
I3
sS'west'
p2072
I10
sS'156'
p2073
I3
sS'informed'
p2074
I2
sS'airlines'
p2075
I8
sS'quake-relief'
p2076
I2
sS'cecelia'
p2077
I2
sS'ed'
p2078
I2
sS'combined'
p2079
I2
sS'motives'
p2080
I3
sS'peaceful'
p2081
I2
sS'women'
p2082
I2
sS'prototype'
p2083
I2
sS'hardly'
p2084
I4
sS'500'
p2085
I4
sS'disclosed'
p2086
I6
sS'engine'
p2087
I2
sS'enable'
p2088
I3
sS'shopping'
p2089
I2
sS'disagrees'
p2090
I2
sS'4.875'
p2091
I2
sS'75-cent'
p2092
I2
sS'offered'
p2093
I11
sS'blessing'
p2094
I4
sS'andrew'
p2095
I2
sS'thomas'
p2096
I2
sS'centerpiece'
p2097
I2
sS'photos'
p2098
I2
sS'dramatic'
p2099
I2
sS'wake'
p2100
I2
sS'minister'
p2101
I6
sS'asks'
p2102
I2
sS'spring-early'
p2103
I2
sS'suspected'
p2104
I2
sS'thing'
p2105
I2
sS'evidence'
p2106
I3
sS'prof.'
p2107
I2
sS'former'
p2108
I16
sS'those'
p2109
I21
sS'pilot'
p2110
I2
sS'sound'
p2111
I2
sS'lashed'
p2112
I2
sS'stacked'
p2113
I2
sS'developing'
p2114
I3
sS'these'
p2115
I15
sS'consultant'
p2116
I3
sS'worried'
p2117
I4
sS'thigh'
p2118
I2
sS'cash'
p2119
I8
sS"n't"
p2120
I84
sS'blinkers'
p2121
I2
sS'warning'
p2122
I2
sS'rancor'
p2123
I2
sS'policies'
p2124
I3
sS'newspaper'
p2125
I2
sS'situation'
p2126
I4
sS'mound'
p2127
I2
sS'invited'
p2128
I2
sS'inadvertence'
p2129
I2
sS'handy'
p2130
I2
sS'conferences'
p2131
I5
sS'then'
p2132
I17
sS'brow'
p2133
I2
sS'health-care'
p2134
I3
sS'ambulance'
p2135
I2
sS'telephone'
p2136
I5
sS'discrepancy'
p2137
I2
sS'berra'
p2138
I2
sS'someone'
p2139
I4
sS'converts'
p2140
I2
sS'minds'
p2141
I3
sS'three-to-five-year'
p2142
I2
sS'mcgregor'
p2143
I2
sS'tastes'
p2144
I3
sS'engages'
p2145
I2
sS'technology'
p2146
I3
sS'appellate'
p2147
I2
sS'79.18'
p2148
I2
sS'different'
p2149
I7
sS'dragging'
p2150
I2
sS'develop'
p2151
I2
sS'harsh'
p2152
I2
sS'author'
p2153
I2
sS'pay'
p2154
I24
sS'granted'
p2155
I3
sS'liquidating'
p2156
I3
sS'same'
p2157
I5
sS'check'
p2158
I2
sS'thinning'
p2159
I2
sS'followers'
p2160
I2
sS'arguments'
p2161
I3
sS'otto'
p2162
I2
sS'buys'
p2163
I2
sS'1900s'
p2164
I2
sS'events'
p2165
I3
sS'porter'
p2166
I2
sS'status'
p2167
I3
sS'buy-outs'
p2168
I2
sS'safe'
p2169
I3
sS'oceanographic'
p2170
I2
sS'singapore'
p2171
I8
sS'squatted'
p2172
I2
sS'refusal'
p2173
I2
sS'consumers'
p2174
I5
sS'director'
p2175
I14
sS'running'
p2176
I4
sS'tamer'
p2177
I2
sS'equities'
p2178
I2
sS'delicate'
p2179
I3
sS'changing'
p2180
I2
sS'racketeering'
p2181
I2
sS'totally'
p2182
I5
sS'tradition'
p2183
I2
sS'recapture'
p2184
I2
sS'complained'
p2185
I2
sS'drain'
p2186
I3
sS'perennial'
p2187
I2
sS'educating'
p2188
I3
sS'charges'
p2189
I5
sS'markus'
p2190
I3
sS'summon'
p2191
I2
sS'constitutional'
p2192
I3
sS'wellington'
p2193
I5
sS'mortgages'
p2194
I13
sS'severe'
p2195
I2
sS'without'
p2196
I11
sS'relief'
p2197
I2
sS'components'
p2198
I2
sS'trains'
p2199
I3
sS'minpeco'
p2200
I3
sS'accessible'
p2201
I2
sS'laboratories'
p2202
I2
sS'researchers'
p2203
I8
sS'charged'
p2204
I5
sS'summer'
p2205
I6
sS'flaps'
p2206
I3
sS'monet'
p2207
I2
sS'koreagate'
p2208
I2
sS'asset-backed'
p2209
I2
sS'being'
p2210
I13
sS'money'
p2211
I22
sS'adjustments'
p2212
I3
sS'rest'
p2213
I5
sS'safeguards'
p2214
I2
sS'lavish'
p2215
I2
sS'toronto'
p2216
I4
sS'leeway'
p2217
I2
sS'touch'
p2218
I4
sS'polish'
p2219
I2
sS'melton'
p2220
I2
sS'speed'
p2221
I3
sS'multiples'
p2222
I2
sS'statesmen'
p2223
I2
sS'blow'
p2224
I2
sS'announcement'
p2225
I2
sS'renewed'
p2226
I2
sS'dipped'
p2227
I2
sS'flood'
p2228
I2
sS'thinking'
p2229
I2
sS'rose'
p2230
I8
sS'billion-yen'
p2231
I2
sS'seems'
p2232
I5
sS'except'
p2233
I2
sS'interested'
p2234
I4
sS'bloc'
p2235
I3
sS'4'
I6
sS'brezinski'
p2236
I2
sS'plenty'
p2237
I2
sS'preflight'
p2238
I2
sS'struck'
p2239
I2
sS'disrupt'
p2240
I2
sS'fostering'
p2241
I2
sS'agnelli'
p2242
I16
sS'ross'
p2243
I2
sS'real'
p2244
I8
sS'trade-off'
p2245
I2
sS'570'
p2246
I2
sS'aspects'
p2247
I4
sS'around'
p2248
I5
sS'spectacular'
p2249
I2
sS'marcus'
p2250
I2
sS'rules'
p2251
I8
sS'rejoin'
p2252
I3
sS'swig'
p2253
I2
sS'65,200'
p2254
I2
sS'implications'
p2255
I3
sS'virginia'
p2256
I4
sS'loaned'
p2257
I2
sS'early'
p2258
I11
sS'libor'
p2259
I2
sS'traffic'
p2260
I4
sS'mirroring'
p2261
I2
sS'listening'
p2262
I2
sS'hees'
p2263
I7
sS'world'
p2264
I20
sS'railroad'
p2265
I2
sS'over-the-counter'
p2266
I3
sS'disappointed'
p2267
I4
sS'unwilling'
p2268
I2
sS'dare'
p2269
I2
sS'ruled'
p2270
I4
sS'60'
p2271
I7
sS'proponent'
p2272
I2
sS'acquainted'
p2273
I2
sS'standstill'
p2274
I3
sS'utterances'
p2275
I2
sS'kennedy'
p2276
I3
sS'clad'
p2277
I2
sS'serves'
p2278
I2
sS"'ve"
p2279
I3
sS'chamber'
p2280
I4
sS'benefit'
p2281
I5
sS'serious'
p2282
I2
sS'full-scale'
p2283
I2
sS'either'
p2284
I4
sS'retailers'
p2285
I3
sS'offenders'
p2286
I2
sS'served'
p2287
I3
sS'dilution'
p2288
I2
sS'credit-card'
p2289
I2
sS'geraldo'
p2290
I2
sS'reduced'
p2291
I5
sS'5*slashhere*8'
p2292
I3
sS'sharp'
p2293
I2
sS'1989'
p2294
I6
sS'shunned'
p2295
I2
sS'burdens'
p2296
I2
sS'apologists'
p2297
I2
sS'greenery'
p2298
I3
sS'imprisonment'
p2299
I2
sS'muddled'
p2300
I2
sS'competition'
p2301
I2
sS'calculated'
p2302
I2
sS'eddie'
p2303
I3
sS'elements'
p2304
I2
sS'lackeys'
p2305
I2
sS'images'
p2306
I3
sS'construe'
p2307
I2
sS'intact'
p2308
I2
sS'top-secret'
p2309
I2
sS'o.'
p2310
I2
sS'primary'
p2311
I3
sS'mood'
p2312
I3
sS'illustrated'
p2313
I2
sS'substance'
p2314
I2
sS'13.50'
p2315
I2
sS'memories'
p2316
I2
sS'recorded'
p2317
I2
sS'legal'
p2318
I3
sS'conservative'
p2319
I2
sS'currier'
p2320
I2
sS'fringes'
p2321
I2
sS'provides'
p2322
I3
sS'provider'
p2323
I2
sS'7.98'
p2324
I2
sS'8.27'
p2325
I2
sS'content'
p2326
I3
sS'yielded'
p2327
I2
sS'lucid'
p2328
I2
sS'payable'
p2329
I4
sS'measuring'
p2330
I2
sS'considering'
p2331
I2
sS'tomorrow'
p2332
I2
sS'scientific'
p2333
I3
sS'power'
p2334
I12
sS'industrialized'
p2335
I2
sS'equivalent'
p2336
I2
sS'notable'
p2337
I2
sS'leadership'
p2338
I3
sS'70'
p2339
I2
sS'found'
p2340
I4
sS'sixty'
p2341
I2
sS'exciting'
p2342
I2
sS'aide'
p2343
I2
sS'throw'
p2344
I2
sS'beaches'
p2345
I2
sS'on'
p2346
I131
sS'conducting'
p2347
I4
sS'central'
p2348
I3
sS'40,800'
p2349
I2
sS'of'
p2350
I564
sS'industry'
p2351
I5
sS'capable'
p2352
I2
sS'discussed'
p2353
I2
sS'drag'
p2354
I2
sS'thousands'
p2355
I3
sS'ideology'
p2356
I2
sS'mutually'
p2357
I2
sS'fell'
p2358
I3
sS'nothing'
p2359
I4
sS'airline'
p2360
I7
sS'act'
p2361
I4
sS'tariffs'
p2362
I2
sS'lasting'
p2363
I2
sS'or'
p2364
I80
sS'road'
p2365
I3
sS'heavy'
p2366
I2
sS'client'
p2367
I2
sS'cambridge'
p2368
I2
sS'8.55'
p2369
I3
sS'followed'
p2370
I2
sS'operator'
p2371
I2
sS'abuse'
p2372
I2
sS'instruments'
p2373
I6
sS'spreading'
p2374
I2
sS'reacting'
p2375
I2
sS'spinal'
p2376
I5
sS'accounts'
p2377
I4
sS'determine'
p2378
I3
sS'burton'
p2379
I2
sS'gomez'
p2380
I4
sS'your'
p2381
I9
sS'fast'
p2382
I3
sS'shags'
p2383
I2
sS'her'
p2384
I17
sS'area'
p2385
I5
sS'weekend'
p2386
I2
sS'there'
p2387
I27
sS'discounting'
p2388
I2
sS'philadelphia'
p2389
I3
sS'christianity'
p2390
I2
sS'los'
p2391
I3
sS'appears'
p2392
I2
sS'ever-growing'
p2393
I2
sS'low'
p2394
I4
sS'lot'
p2395
I6
sS'capital-raising'
p2396
I2
sS'somerset'
p2397
I2
sS'fastball'
p2398
I3
sS'consists'
p2399
I2
sS'billion'
p2400
I23
sS'tycoon'
p2401
I2
sS'complete'
p2402
I4
sS'enough'
p2403
I3
sS'pleased'
p2404
I3
sS'tailored'
p2405
I2
sS'philosophers'
p2406
I2
sS'brain'
p2407
I19
sS'survived'
p2408
I2
sS'two-thirds'
p2409
I2
sS'elimination'
p2410
I3
sS'technologies'
p2411
I5
sS'trying'
p2412
I3
sS'with'
p2413
I133
sS'buying'
p2414
I3
sS'theocracy'
p2415
I2
sS'pull'
p2416
I2
sS'fraud'
p2417
I3
sS'arranged'
p2418
I2
sS'proof-of-purchases'
p2419
I2
sS'street-corner'
p2420
I3
sS'recurring'
p2421
I2
sS'centerfielder'
p2422
I2
sS're-election'
p2423
I2
sS'annuity'
p2424
I3
sS'organize'
p2425
I2
sS'8.019'
p2426
I2
sS'compromise'
p2427
I13
sS'agree'
p2428
I4
sS'detailed'
p2429
I2
sS'gone'
p2430
I3
sS'non-japanese'
p2431
I2
sS'ad'
p2432
I2
sS'second-level'
p2433
I2
sS'certain'
p2434
I7
sS'totaling'
p2435
I3
sS'combining'
p2436
I2
sS'am'
p2437
I5
sS'sales'
p2438
I25
sS'mundo'
p2439
I2
sS'general'
p2440
I13
sS'alarm'
p2441
I2
sS'as'
p2442
I112
sS'ensuing'
p2443
I2
sS'at'
p2444
I98
sS'file'
p2445
I7
sS'ingeniously'
p2446
I2
sS'politics'
p2447
I2
sS'moves'
p2448
I3
sS'scotches'
p2449
I2
sS'fill'
p2450
I2
sS'again'
p2451
I6
sS'nomura'
p2452
I11
sS'raised'
p2453
I3
sS'englishman'
p2454
I2
sS'4.2'
p2455
I4
sS'retiring'
p2456
I2
sS'drivers'
p2457
I2
sS'yogi'
p2458
I2
sS'narcotics'
p2459
I2
sS'field'
p2460
I9
sS'182-day'
p2461
I2
sS'5'
I3
sS'rioting'
p2462
I2
sS'undermined'
p2463
I2
sS'acceptance'
p2464
I2
sS'you'
p2465
I16
sS'trash'
p2466
I2
sS'deterrant'
p2467
I2
sS'outfield'
p2468
I2
sS'formed'
p2469
I3
sS'congress'
p2470
I6
sS'separate'
p2471
I4
sS'students'
p2472
I3
sS'cosmetics'
p2473
I5
sS'forgettable'
p2474
I2
sS'reached'
p2475
I6
sS'initiatives'
p2476
I2
sS'3.53'
p2477
I2
sS'a.'
p2478
I9
sS'walker'
p2479
I2
sS'important'
p2480
I4
sS'massachusetts'
p2481
I4
sS'coverage'
p2482
I3
sS'studied'
p2483
I2
sS'brands'
p2484
I7
sS'creditor'
p2485
I3
sS'stocks'
p2486
I4
sS'unless'
p2487
I2
sS'chose'
p2488
I2
sS'alcohol'
p2489
I2
sS'building'
p2490
I5
sS'eight-time'
p2491
I2
sS'slowball'
p2492
I2
sS'assets'
p2493
I6
sS'calls'
p2494
I3
sS'refinanced'
p2495
I2
sS'intentional'
p2496
I2
sS'tricks'
p2497
I3
sS'having'
p2498
I2
sS'seat'
p2499
I2
sS'posts'
p2500
I2
sS'directors'
p2501
I3
sS'requisition'
p2502
I2
sS'mass'
p2503
I3
sS'lawsuits'
p2504
I5
sS'dyes'
p2505
I2
sS'overseas'
p2506
I2
sS'bolton'
p2507
I2
sS'original'
p2508
I5
sS'7.14'
p2509
I2
sS'represent'
p2510
I2
sS'all'
p2511
I26
sS'suny'
p2512
I3
sS'consider'
p2513
I3
sS'chinese'
p2514
I9
sS'aids'
p2515
I2
sS'suns'
p2516
I4
sS'daignault'
p2517
I2
sS'400,000'
p2518
I2
sS'dollar'
p2519
I3
sS'48-year-old'
p2520
I2
sS'month'
p2521
I11
sS'founded'
p2522
I2
sS'unrest'
p2523
I2
sS'co-author'
p2524
I2
sS'tours'
p2525
I3
sS'publish'
p2526
I2
sS'renege'
p2527
I2
sS'talks'
p2528
I4
sS'managed'
p2529
I2
sS'mason'
p2530
I4
sS'religious'
p2531
I2
sS'jerome'
p2532
I2
sS'carpet'
p2533
I5
sS'dreadful'
p2534
I2
sS'rights'
p2535
I14
sS'chain'
p2536
I4
sS'tv'
p2537
I5
sS'high-security'
p2538
I2
sS'1.76'
p2539
I2
sS'realities'
p2540
I2
sS'riots'
p2541
I2
sS'to'
p2542
I577
sS'modernization'
p2543
I2
sS'lavoro'
p2544
I2
sS'wants'
p2545
I2
sS'present'
p2546
I3
sS'sustain'
p2547
I3
sS'passed'
p2548
I2
sS'activities'
p2549
I6
sS'khmer'
p2550
I4
sS'calif.'
p2551
I3
sS'7'
I4
sS'confidential'
p2552
I2
sS'very'
p2553
I12
sS'caught'
p2554
I2
sS'myself'
p2555
I2
sS'fat'
p2556
I3
sS'resistance'
p2557
I2
sS'knowledgeable'
p2558
I2
sS'candid'
p2559
I2
sS'worst'
p2560
I2
sS'decide'
p2561
I3
sS'surprise'
p2562
I3
sS'sony'
p2563
I2
sS'existing'
p2564
I2
sS'rehearing'
p2565
I2
sS'condition'
p2566
I2
sS'fresca'
p2567
I4
sS'`'
I6
sS'long-simmering'
p2568
I2
sS'obvious'
p2569
I2
sS'cable'
p2570
I2
sS'8.05'
p2571
I2
sS'--'
p2572
I45
sS'louis'
p2573
I2
sS'celebrity'
p2574
I2
sS'wsj'
p2575
I2
sS'laying'
p2576
I2
sS'worded'
p2577
I2
sS'large'
p2578
I4
sS'deja'
p2579
I2
sS'donovan'
p2580
I3
sS'harry'
p2581
I2
sS'small'
p2582
I11
sS'kavanagh'
p2583
I2
sS'economically'
p2584
I3
sS'20th'
p2585
I2
sS'webster'
p2586
I2
sS'preference'
p2587
I2
sS'headache'
p2588
I2
sS'employing'
p2589
I2
sS'neighborhood'
p2590
I2
sS'portable'
p2591
I2
sS'solicitations'
p2592
I2
sS'anti-abortionists'
p2593
I2
sS'paso'
p2594
I2
sS'ritter'
p2595
I2
sS'lending'
p2596
I4
sS'unable'
p2597
I4
sS'7*slashhere*8'
p2598
I2
sS'past'
p2599
I11
sS'go'
p2600
I3
sS'rate'
p2601
I15
sS'perception'
p2602
I2
sS'editing*slashhere*electronic'
p2603
I2
sS'lawyer'
p2604
I5
sS'pass'
p2605
I3
sS'further'
p2606
I4
sS'choices'
p2607
I2
sS'investment'
p2608
I13
sS'returned'
p2609
I2
sS'bass'
p2610
I2
sS'prime-1'
p2611
I2
sS'what'
p2612
I16
sS'stood'
p2613
I2
sS'richard'
p2614
I7
sS'raw-material'
p2615
I2
sS'sun'
p2616
I3
sS'section'
p2617
I2
sS'induce'
p2618
I5
sS'brief'
p2619
I2
sS'judiciary'
p2620
I2
sS'milk'
p2621
I8
sS'prime-2'
p2622
I2
sS'scientists'
p2623
I6
sS'certificates'
p2624
I3
sS'learned'
p2625
I2
sS'public'
p2626
I10
sS'contrast'
p2627
I2
sS'movement'
p2628
I8
sS'multinational'
p2629
I2
sS'turmoil'
p2630
I2
sS'full'
p2631
I7
sS'christian'
p2632
I2
sS'teodorani'
p2633
I2
sS'ranged'
p2634
I3
sS'sincere'
p2635
I2
sS'5.4'
p2636
I2
sS'component'
p2637
I2
sS'diapers'
p2638
I2
sS'prepayment'
p2639
I4
sS'ranges'
p2640
I2
sS'citicorp'
p2641
I3
sS'tracks'
p2642
I3
sS'operating'
p2643
I7
sS'excess'
p2644
I2
sS'treasury'
p2645
I5
sS'november'
p2646
I5
sS'strong'
p2647
I5
sS'table'
p2648
I2
sS'tragedy'
p2649
I2
sS'social'
p2650
I3
sS'sensory'
p2651
I3
sS'900'
p2652
I3
sS'prosecutors'
p2653
I4
sS'naval'
p2654
I4
sS'ahead'
p2655
I4
sS'inspired'
p2656
I2
sS'compliance'
p2657
I2
sS'johnnie'
p2658
I2
sS'experience'
p2659
I2
sS'spotlight'
p2660
I2
sS'mac'
p2661
I4
sS'airport'
p2662
I3
sS'disputes'
p2663
I2
sS'spy-chasing'
p2664
I2
sS'scolded'
p2665
I2
sS'published'
p2666
I2
sS'action'
p2667
I3
sS'jr.'
p2668
I2
sS'albert'
p2669
I2
sS'options'
p2670
I7
sS'authorize'
p2671
I2
sS'arms-control'
p2672
I2
sS'tiananmen'
p2673
I3
sS'via'
p2674
I2
sS'depart'
p2675
I2
sS'toughness'
p2676
I2
sS'family'
p2677
I7
sS'france'
p2678
I2
sS'cowardly'
p2679
I2
sS'africa'
p2680
I2
sS'models'
p2681
I2
sS'tracking'
p2682
I2
sS'ask'
p2683
I3
sS'mohandas'
p2684
I2
sS'trained'
p2685
I2
sS'pulls'
p2686
I2
sS'fla.'
p2687
I2
sS'orwellian'
p2688
I2
sS'legislator'
p2689
I2
sS'readily'
p2690
I2
sS'intensive'
p2691
I2
sS'conventional'
p2692
I4
sS'twa'
p2693
I2
sS'eye'
p2694
I2
sS'takes'
p2695
I2
sS'montgoris'
p2696
I2
sS'interest-bearing'
p2697
I2
sS'two'
p2698
I42
sS'strauss'
p2699
I2
sS'seaborne'
p2700
I2
sS'captain'
p2701
I2
sS'resident'
p2702
I2
sS'anger'
p2703
I2
sS'compensate'
p2704
I2
sS'80%-owned'
p2705
I2
sS'pitching'
p2706
I2
sS'6'
I3
sS'taken'
p2707
I8
sS'dissatisfied'
p2708
I2
sS'injury'
p2709
I2
sS'markets'
p2710
I10
sS'achieving'
p2711
I2
sS'minor'
p2712
I3
sS'more'
p2713
I66
sS'flat'
p2714
I4
sS'pawing'
p2715
I2
sS'fellow'
p2716
I2
sS'knows'
p2717
I2
sS'initiated'
p2718
I2
sS'ejected'
p2719
I2
sS'thus'
p2720
I2
sS'company'
p2721
I39
sS'enormous'
p2722
I2
sS'tested'
p2723
I3
sS'germans'
p2724
I3
sS'cadwell'
p2725
I2
sS'controlling'
p2726
I2
sS'nz$'
p2727
I2
sS'cluttered'
p2728
I2
sS'big-time'
p2729
I2
sS'telerate'
p2730
I3
sS'objections'
p2731
I2
sS'factories'
p2732
I2
sS'producing'
p2733
I3
sS'keeping'
p2734
I5
sS'borrowing'
p2735
I2
sS'hour'
p2736
I8
sS'science'
p2737
I2
sS'phrasing'
p2738
I2
sS'remain'
p2739
I5
sS'nine'
p2740
I6
sS'budgets'
p2741
I2
sS'eichof'
p2742
I2
sS'brain-wave'
p2743
I2
sS'marble'
p2744
I2
sS'history'
p2745
I4
sS'jahn'
p2746
I3
sS'purchases'
p2747
I8
sS'mosher'
p2748
I2
sS'computers'
p2749
I11
sS'prompt'
p2750
I2
sS'lerman'
p2751
I2
sS'brown'
p2752
I3
sS'lightweight'
p2753
I2
sS'share'
p2754
I20
sS'accept'
p2755
I3
sS'states'
p2756
I5
sS'4.55'
p2757
I2
sS'minimum'
p2758
I6
sS'protects'
p2759
I2
sS'quartets'
p2760
I2
sS'purchased'
p2761
I3
sS'sense'
p2762
I2
sS'depressed'
p2763
I2
sS'pond'
p2764
I2
sS'talents'
p2765
I2
sS'greenwich'
p2766
I2
sS'f.'
p2767
I4
sS'narrowly'
p2768
I2
sS'huge'
p2769
I3
sS'needs'
p2770
I4
sS'english-language'
p2771
I2
sS'court'
p2772
I15
sS'goal'
p2773
I2
sS'rather'
p2774
I9
sS'5.9'
p2775
I2
sS'brokerage'
p2776
I2
sS'breaking'
p2777
I9
sS'conducted'
p2778
I2
sS'stayed'
p2779
I2
sS'occasionally'
p2780
I2
sS'stemming'
p2781
I2
sS'earnings'
p2782
I12
sS'speeding'
p2783
I2
sS'7*slashhere*16'
p2784
I5
sS'explains'
p2785
I2
sS'vietnam'
p2786
I4
sS'plant'
p2787
I5
sS'intended'
p2788
I4
sS'includes'
p2789
I2
sS'advice'
p2790
I3
sS'signature'
p2791
I2
sS'mapping'
p2792
I2
sS'santa'
p2793
I2
sS'replace'
p2794
I3
sS'tries'
p2795
I2
sS'plane'
p2796
I3
sS'dec.'
p2797
I5
sS'deprogrammings'
p2798
I2
sS'coming'
p2799
I4
sS'remediation'
p2800
I2
sS'deukmejian'
p2801
I2
sS'concentrating'
p2802
I2
sS'hooliganism'
p2803
I2
sS'a'
I509
sS'refuse'
p2804
I2
sS'short'
p2805
I3
sS'worcester'
p2806
I2
sS'quoted'
p2807
I3
sS'register'
p2808
I2
sS'crippling'
p2809
I2
sS'anytime'
p2810
I2
sS'perhaps'
p2811
I4
sS'shore'
p2812
I2
sS'fundamental'
p2813
I2
sS'media'
p2814
I5
sS'banks'
p2815
I18
sS'putting'
p2816
I2
sS'dream'
p2817
I2
sS'playing'
p2818
I5
sS'turnover'
p2819
I2
sS'greats'
p2820
I3
sS'rifles'
p2821
I2
sS'rounded'
p2822
I2
sS'help'
p2823
I14
sS'watergate-beleaguered'
p2824
I2
sS'september'
p2825
I6
sS'reform'
p2826
I2
sS'dons'
p2827
I2
sS'u.s.-soviet'
p2828
I2
sS'trade'
p2829
I8
sS'show-piece'
p2830
I2
sS'held'
p2831
I7
sS'industrial'
p2832
I9
sS'through'
p2833
I13
sS'committee'
p2834
I6
sS'signs'
p2835
I3
sS'dozens'
p2836
I2
sS'clarinet'
p2837
I4
sS'atrun'
p2838
I2
sS'its'
p2839
I67
sS'developer'
p2840
I2
sS'24'
p2841
I2
sS'25'
p2842
I5
sS'26'
p2843
I3
sS'8.63'
p2844
I2
sS'20'
p2845
I6
sS'21'
p2846
I2
sS'shortstop'
p2847
I2
sS'environmentalist'
p2848
I2
sS'gerald'
p2849
I2
sS'w.a.'
p2850
I2
sS'28'
p2851
I2
sS'29'
p2852
I2
sS'actually'
p2853
I7
sS'late'
p2854
I10
sS'harmless'
p2855
I2
sS'detected'
p2856
I2
sS'parts'
p2857
I4
sS'systems'
p2858
I7
sS'high-ranking'
p2859
I2
sS'conn.'
p2860
I3
sS'stephen'
p2861
I2
sS'peanuts'
p2862
I3
sS'might'
p2863
I15
sS'lire'
p2864
I7
sS'550,000'
p2865
I2
sS'hurting'
p2866
I2
sS'good'
p2867
I12
sS'return'
p2868
I6
sS'calm'
p2869
I2
sS'seeking'
p2870
I7
sS'food'
p2871
I3
sS'subtitled'
p2872
I2
sS'19-year-olds'
p2873
I2
sS'males'
p2874
I2
sS'hunter'
p2875
I2
sS'reigning'
p2876
I2
sS'reflected'
p2877
I2
sS'permissible'
p2878
I2
sS'anticipates'
p2879
I3
sS'fbi'
p2880
I2
sS'executions'
p2881
I3
sS'bancorp'
p2882
I2
sS'embezzled'
p2883
I2
sS'association'
p2884
I7
sS'mystery'
p2885
I2
sS'easily'
p2886
I3
sS'stopper'
p2887
I2
sS'purdue'
p2888
I2
sS'always'
p2889
I3
sS'assemblies'
p2890
I2
sS'loosely'
p2891
I2
sS'semiannual'
p2892
I3
sS'depository'
p2893
I2
sS'spy'
p2894
I4
sS'courses'
p2895
I2
sS'65.7'
p2896
I2
sS'habits'
p2897
I2
sS'stopped'
p2898
I3
sS'resnick'
p2899
I2
sS'repeating'
p2900
I3
sS'14-judge'
p2901
I2
sS'characterized'
p2902
I2
sS'groundball'
p2903
I2
sS'week'
p2904
I7
sS'harm'
p2905
I2
sS'everyone'
p2906
I3
sS'england'
p2907
I2
sS'savored'
p2908
I2
sS'8.337'
p2909
I2
sS'museum'
p2910
I2
sS'generation'
p2911
I2
sS'house'
p2912
I16
sS'energy'
p2913
I3
sS'hard'
p2914
I6
sS'positioned'
p2915
I2
sS'idea'
p2916
I6
sS'police'
p2917
I3
sS'kidnapping'
p2918
I2
sS'expect'
p2919
I8
sS'kuehn'
p2920
I4
sS'advertisers'
p2921
I2
sS'operation'
p2922
I7
sS'beyond'
p2923
I5
sS'insurance'
p2924
I5
sS'britain'
p2925
I5
sS'really'
p2926
I8
sS'deals'
p2927
I2
sS'spouse'
p2928
I2
sS'funding'
p2929
I2
sS'telltale'
p2930
I2
sS's.a.'
p2931
I3
sS'item'
p2932
I2
sS'enfield'
p2933
I8
sS'scoops'
p2934
I2
sS'robert'
p2935
I4
sS'since'
p2936
I12
sS'testify'
p2937
I2
sS'douglas'
p2938
I14
sS'research'
p2939
I5
sS'overused'
p2940
I2
sS'participants'
p2941
I4
sS'equate'
p2942
I2
sS'safety'
p2943
I4
sS'longtime'
p2944
I2
sS'ministerial'
p2945
I2
sS'boosted'
p2946
I2
sS'congenial'
p2947
I2
sS'compounding'
p2948
I2
sS'feb.'
p2949
I2
sS'issue'
p2950
I12
sS'drink'
p2951
I3
sS'disobedience'
p2952
I15
sS'crouched'
p2953
I2
sS'lawrence'
p2954
I3
sS'disagree'
p2955
I2
sS'unificationist'
p2956
I3
sS'attempt'
p2957
I2
sS'abounds'
p2958
I2
sS'mikhail'
p2959
I3
sS'extraordinary'
p2960
I3
sS'reason'
p2961
I2
sS'base'
p2962
I4
sS'included'
p2963
I2
sS'proxy'
p2964
I2
sS'members'
p2965
I10
sS'four-month'
p2966
I2
sS'put'
p2967
I9
sS'matthews'
p2968
I2
sS'beginning'
p2969
I5
sS'generate'
p2970
I2
sS'improved'
p2971
I2
sS'fiat'
p2972
I6
sS'benefits'
p2973
I2
sS'income'
p2974
I2
sS'flier'
p2975
I2
sS'english'
p2976
I2
sS'similarly'
p2977
I2
sS'diversion'
p2978
I2
sS'rice'
p2979
I2
sS'american'
p2980
I23
sS'businessmen'
p2981
I2
sS'threat'
p2982
I2
sS'criticize'
p2983
I2
sS'pilots'
p2984
I20
sS'throws'
p2985
I2
sS'major'
p2986
I12
sS'amounted'
p2987
I2
sS'feel'
p2988
I7
sS'mistakenly'
p2989
I2
sS'number'
p2990
I7
sS'fancy'
p2991
I3
sS'traveled'
p2992
I2
sS'feet'
p2993
I3
sS'heinz'
p2994
I2
sS'done'
p2995
I5
sS'embraced'
p2996
I2
sS'slower'
p2997
I3
sS'wages'
p2998
I2
sS'financing'
p2999
I4
sS'carter'
p3000
I2
sS'arbitration'
p3001
I2
sS'passes'
p3002
I3
sS'story'
p3003
I2
sS'heads'
p3004
I3
sS'laboratorium'
p3005
I2
sS'frankel'
p3006
I2
sS'leading'
p3007
I5
sS'st.'
p3008
I2
sS'threatening'
p3009
I2
sS'180'
p3010
I3
sS'least'
p3011
I7
sS'obligatory'
p3012
I2
sS'regulation'
p3013
I2
sS'station'
p3014
I2
sS'pins'
p3015
I2
sS'statement'
p3016
I4
sS'justified'
p3017
I2
sS'rates'
p3018
I11
sS'founder'
p3019
I2
sS'hundred'
p3020
I2
sS'southern'
p3021
I2
sS'finances'
p3022
I2
sS'recovered'
p3023
I2
sS'too'
p3024
I11
sS'grass-roots'
p3025
I2
sS'selling'
p3026
I10
sS'erupted'
p3027
I2
sS'relationship'
p3028
I6
sS'seagram'
p3029
I7
sS'hotel'
p3030
I2
sS'praised'
p3031
I2
sS'sensation'
p3032
I2
sS'enemy'
p3033
I2
sS'sizable'
p3034
I2
sS'treasurer'
p3035
I2
sS'part'
p3036
I14
sS'surrogate'
p3037
I2
sS'doctors'
p3038
I3
sS'recourse'
p3039
I2
sS'believe'
p3040
I4
sS'inaugurated'
p3041
I2
sS'grace'
p3042
I2
sS'reliever'
p3043
I2
sS'linking'
p3044
I2
sS'mclaughlin'
p3045
I4
sS'scheme'
p3046
I2
sS'nagging'
p3047
I2
sS'state-owned'
p3048
I3
sS'gotten'
p3049
I2
sS'largely'
p3050
I5
sS'youth'
p3051
I3
sS'cost'
p3052
I3
sS'marriage'
p3053
I3
sS'dfc'
p3054
I2
sS'sole'
p3055
I2
sS'elaborate'
p3056
I2
sS'lease'
p3057
I3
sS'midmorning'
p3058
I2
sS'risky'
p3059
I2
sS'108.8'
p3060
I2
sS'lilting'
p3061
I2
sS'aug.'
p3062
I2
sS'outstanding'
p3063
I2
sS'strengthen'
p3064
I5
sS'imports'
p3065
I2
sS'berthold'
p3066
I4
sS'takeoff'
p3067
I3
sS'defect'
p3068
I2
sS'direct'
p3069
I4
sS'guarding'
p3070
I2
sS'substantial'
p3071
I5
sS'perestroika'
p3072
I2
sS'opposing'
p3073
I3
sS'stretch'
p3074
I2
sS'oriole'
p3075
I2
sS'orders'
p3076
I2
sS'1.175'
p3077
I2
sS'sell'
p3078
I6
sS'lie'
p3079
I2
sS'u.s'
p3080
I4
sS'built'
p3081
I3
sS'evasion'
p3082
I2
sS'discounts'
p3083
I2
sS'gorbachev'
p3084
I14
sS'jeopardize'
p3085
I2
sS'accountable'
p3086
I2
sS'targets'
p3087
I2
sS'conforming'
p3088
I2
sS'majority'
p3089
I3
sS'costs'
p3090
I6
sS'build'
p3091
I7
sS'finding'
p3092
I3
sS'sherry'
p3093
I2
sS'kim'
p3094
I2
sS'collateralized'
p3095
I3
sS'province'
p3096
I2
sS'play'
p3097
I7
sS'added'
p3098
I6
sS'critics'
p3099
I2
sS'electric'
p3100
I2
sS'monastery'
p3101
I2
sS'eggs'
p3102
I2
sS'measures'
p3103
I3
sS'reach'
p3104
I3
sS'walt'
p3105
I2
sS'subjective'
p3106
I2
sS'most'
p3107
I24
sS'brooklyn'
p3108
I2
sS'hired'
p3109
I2
sS'shareholder'
p3110
I4
sS'plan'
p3111
I15
sS'significant'
p3112
I7
sS'nondemocratic'
p3113
I2
sS'services'
p3114
I3
sS'pittance'
p3115
I2
sS'prestige'
p3116
I2
sS'extremely'
p3117
I3
sS'approved'
p3118
I8
sS'kiddies'
p3119
I3
sS'appear'
p3120
I3
sS'hormone'
p3121
I2
sS'gas-tax-increasing'
p3122
I2
sS'toronto-based'
p3123
I2
sS'dealers'
p3124
I2
sS'arson'
p3125
I2
sS'appreciation'
p3126
I2
sS'mobile'
p3127
I2
sS'performances'
p3128
I2
sS'clear'
p3129
I4
sS'sometimes'
p3130
I2
sS'cover'
p3131
I4
sS'rockefeller'
p3132
I2
sS'concepts'
p3133
I2
sS'giving'
p3134
I3
sS'three-month'
p3135
I2
sS'pa.'
p3136
I2
sS'tymnet'
p3137
I2
sS'velocity'
p3138
I2
sS'justify'
p3139
I3
sS'physics'
p3140
I2
sS'institutions'
p3141
I10
sS'lying'
p3142
I2
sS'joining'
p3143
I2
sS'stones'
p3144
I2
sS'guzzle'
p3145
I2
sS'7,400'
p3146
I2
sS'directorate'
p3147
I3
sS'golf'
p3148
I3
sS'pottery'
p3149
I2
sS'hovered'
p3150
I2
sS'bromley'
p3151
I3
sS'gas-tax'
p3152
I2
sS'commissions'
p3153
I4
sS'lay'
p3154
I2
sS'restarters'
p3155
I2
sS'session'
p3156
I5
sS'businesses'
p3157
I7
sS'battle'
p3158
I2
sS'jury'
p3159
I3
sS'carefully'
p3160
I2
sS'stores'
p3161
I5
sS'uniform'
p3162
I2
sS'11*slashhere*16'
p3163
I3
sS'church-owned'
p3164
I2
sS'occupation'
p3165
I2
sS'impact'
p3166
I4
sS'keychain'
p3167
I2
sS'deserts'
p3168
I2
sS'northern'
p3169
I2
sS'justice'
p3170
I3
sS'less'
p3171
I11
sS'unhappy'
p3172
I2
sS'failed'
p3173
I7
sS'flights'
p3174
I2
sS'comparison'
p3175
I2
sS'stirs'
p3176
I2
sS'equity'
p3177
I2
sS'override'
p3178
I3
sS'8'
I23
sS'distributes'
p3179
I2
sS'indifference'
p3180
I2
sS'merged'
p3181
I2
sS'ifi'
p3182
I7
sS'enhanced'
p3183
I2
sS'begins'
p3184
I2
sS'counterpoint'
p3185
I3
sS'his'
p3186
I67
sS'hit'
p3187
I2
sS'gains'
p3188
I4
sS'permission'
p3189
I2
sS'flowing'
p3190
I2
sS'brauerei'
p3191
I2
sS'kind'
p3192
I3
sS'mortgage-backed'
p3193
I3
sS'observatory'
p3194
I2
sS'interviews'
p3195
I2
sS'actions'
p3196
I2
sS'closely'
p3197
I4
sS'reporters'
p3198
I4
sS'encore'
p3199
I2
sS'during'
p3200
I9
sS'items'
p3201
I2
sS'him'
p3202
I13
sS'merchandise'
p3203
I3
sS'alexander'
p3204
I2
sS'grievances'
p3205
I3
sS'appeal'
p3206
I6
sS'left-wing'
p3207
I2
sS'roles'
p3208
I2
sS'railbikes'
p3209
I2
sS'interbank'
p3210
I3
sS'transgenic'
p3211
I4
sS'alisarda'
p3212
I2
sS'statism'
p3213
I2
sS'violent'
p3214
I3
sS'alert'
p3215
I4
sS'watched'
p3216
I2
sS'banking'
p3217
I6
sS'investigate'
p3218
I2
sS'mistakes'
p3219
I2
sS'common'
p3220
I5
sS'activity'
p3221
I3
sS'switzerland'
p3222
I2
sS'weaver'
p3223
I4
sS'river'
p3224
I2
sS'66.50'
p3225
I2
sS'wrote'
p3226
I5
sS'manger'
p3227
I2
sS'growls'
p3228
I2
sS'natural-resources'
p3229
I2
sS'set'
p3230
I12
sS'collateral'
p3231
I2
sS'throwing'
p3232
I3
sS'accompanied'
p3233
I2
sS'shareholders'
p3234
I5
sS'evangelist-industrialist'
p3235
I2
sS'potent'
p3236
I2
sS'sex'
p3237
I2
sS'culture'
p3238
I3
sS'see'
p3239
I7
sS'individual'
p3240
I5
sS'sec'
p3241
I13
sS'are'
p3242
I103
sS'sea'
p3243
I5
sS'tender'
p3244
I2
sS'close'
p3245
I6
sS'institutes'
p3246
I4
sS'2.7'
p3247
I2
sS'arm'
p3248
I4
sS'declined'
p3249
I3
sS'feared'
p3250
I2
sS'alcoholic'
p3251
I2
sS'repairs'
p3252
I2
sS'fine-tuned'
p3253
I2
sS'invest*slashhere*net'
p3254
I2
sS'1,214'
p3255
I2
sS'pictures'
p3256
I4
sS'century'
p3257
I4
sS'currently'
p3258
I5
sS'please'
p3259
I2
sS'precocious'
p3260
I2
sS'case'
p3261
I18
sS'fans'
p3262
I4
sS'won'
p3263
I3
sS'various'
p3264
I6
sS'certificate'
p3265
I2
sS'woe'
p3266
I2
sS'probably'
p3267
I6
sS'burned'
p3268
I2
sS'weekly'
p3269
I2
sS'corruption'
p3270
I2
sS'favor'
p3271
I2
sS'risks'
p3272
I2
sS'europe'
p3273
I11
sS'solo'
p3274
I2
sS'korea'
p3275
I9
sS'recently'
p3276
I12
sS'unconscious'
p3277
I2
sS'missing'
p3278
I2
sS'targeted'
p3279
I3
sS'dividends'
p3280
I4
sS'sold'
p3281
I10
sS'attention'
p3282
I3
sS'subject'
p3283
I5
sS'labella'
p3284
I2
sS'aircraft'
p3285
I5
sS'succeed'
p3286
I3
sS'bnl'
p3287
I7
sS'opposition'
p3288
I2
sS'percent'
p3289
I2
sS'franchise'
p3290
I4
sS'assemblages'
p3291
I2
sS'arrears'
p3292
I2
sS'legislature'
p3293
I2
sS'both'
p3294
I15
sS'full-time'
p3295
I3
sS'rennie'
p3296
I2
sS'last'
p3297
I19
sS'license'
p3298
I2
sS'secrets'
p3299
I2
sS'ousted'
p3300
I2
sS'annual'
p3301
I8
sS'assumed'
p3302
I2
sS'rubendall'
p3303
I4
sS'foreign'
p3304
I21
sS'timorous'
p3305
I2
sS'sensitive'
p3306
I2
sS'became'
p3307
I4
sS'redemptions'
p3308
I2
sS'residential'
p3309
I2
sS'long-term'
p3310
I3
sS'toxicology'
p3311
I2
sS'bond'
p3312
I7
sS'whole'
p3313
I7
sS'messiah'
p3314
I2
sS'healing'
p3315
I2
sS'upgraded'
p3316
I2
sS'flies'
p3317
I2
sS'regulates'
p3318
I2
sS'electrician'
p3319
I2
sS'point'
p3320
I3
sS'reasons'
p3321
I5
sS'sweet'
p3322
I2
sS'prosecuting'
p3323
I2
sS'whatever'
p3324
I2
sS'rosa'
p3325
I2
sS'ga.'
p3326
I2
sS'simply'
p3327
I4
sS'tapestry'
p3328
I2
sS'church'
p3329
I16
sS'vessel'
p3330
I2
sS'slots'
p3331
I2
sS'throughout'
p3332
I3
sS'expensive'
p3333
I2
sS'headaches'
p3334
I2
sS'bolster'
p3335
I3
sS'described'
p3336
I2
sS'publishing'
p3337
I2
sS'arrest'
p3338
I2
sS'monthly'
p3339
I6
sS'create'
p3340
I3
sS'strings'
p3341
I2
sS'political'
p3342
I10
sS'add'
p3343
I2
sS'strategy'
p3344
I2
sS'rivals'
p3345
I2
sS'trespasses'
p3346
I2
sS'association-college'
p3347
I2
sS'3*slashhere*4'
p3348
I5
sS'collected'
p3349
I2
sS'orioles'
p3350
I2
sS'reduced-fat'
p3351
I2
sS'meeting'
p3352
I28
sS'woke'
p3353
I2
sS'walter'
p3354
I2
sS'firm'
p3355
I8
sS'dialogue'
p3356
I2
sS'partly'
p3357
I2
sS'assorted'
p3358
I2
sS'fire'
p3359
I3
sS'then-21'
p3360
I2
sS'gas'
p3361
I3
sS'convert'
p3362
I2
sS'gap'
p3363
I2
sS'fund'
p3364
I24
sS'vaguely'
p3365
I2
sS'understand'
p3366
I4
sS'representative'
p3367
I4
sS'bidding'
p3368
I2
sS'demand'
p3369
I4
sS'prices'
p3370
I5
sS'insiders'
p3371
I9
sS'despite'
p3372
I5
sS'plants'
p3373
I3
sS'stolen'
p3374
I2
sS'anticult'
p3375
I2
sS'look'
p3376
I4
sS'solid'
p3377
I2
sS'straight'
p3378
I2
sS'bill'
p3379
I12
sS'elections'
p3380
I4
sS'governor'
p3381
I2
sS'unprecedented'
p3382
I2
sS'institute'
p3383
I3
sS'while'
p3384
I12
sS'3.35'
p3385
I2
sS'tweaking'
p3386
I2
sS'bebop'
p3387
I2
sS'32'
p3388
I3
sS'fun'
p3389
I3
sS'fleet'
p3390
I2
sS'p.'
p3391
I3
sS'morsels'
p3392
I2
sS'pack'
p3393
I2
sS'miles'
p3394
I2
sS'scheduled'
p3395
I4
sS'adjusts'
p3396
I2
sS'voters'
p3397
I3
sS'cents'
p3398
I11
sS'violently'
p3399
I2
sS'dotting'
p3400
I2
sS'motors'
p3401
I3
sS'alaska'
p3402
I2
sS'disappointing'
p3403
I2
sS'itself'
p3404
I4
sS'headway'
p3405
I2
sS'centennial'
p3406
I2
sS'owes'
p3407
I2
sS'ready'
p3408
I2
sS'fannie'
p3409
I8
sS'attach'
p3410
I2
sS'examine'
p3411
I2
sS'lengthy'
p3412
I2
sS'italy'
p3413
I6
sS'shaw'
p3414
I5
sS'anymore'
p3415
I3
sS'grant'
p3416
I2
sS'sociologist'
p3417
I2
sS'priced'
p3418
I2
sS'872'
p3419
I2
sS'shorter'
p3420
I2
sS'read'
p3421
I5
sS'discourse'
p3422
I2
sS'virtually'
p3423
I2
sS'widely'
p3424
I4
sS'peoples'
p3425
I3
sS'well-hit'
p3426
I2
sS'resulting'
p3427
I2
sS'advise'
p3428
I3
sS'conflict'
p3429
I4
sS'higher'
p3430
I6
sS'development'
p3431
I2
sS'used'
p3432
I8
sS'lawyers'
p3433
I4
sS'biochemist'
p3434
I2
sS'healthvest'
p3435
I13
sS'forced'
p3436
I2
sS'blair'
p3437
I9
sS'cardholders'
p3438
I2
sS'yesterday'
p3439
I13
sS'sidley-ashurst'
p3440
I2
sS'mosbacher'
p3441
I2
sS'moment'
p3442
I4
sS'levels'
p3443
I5
sS'uses'
p3444
I5
sS'purpose'
p3445
I4
sS'brussels'
p3446
I2
sS'80'
p3447
I3
sS'recent'
p3448
I8
sS'gestures'
p3449
I2
sS'lower'
p3450
I9
sS'older'
p3451
I3
sS'anxious'
p3452
I2
sS'poland'
p3453
I2
sS'cheek'
p3454
I2
sS'bounces'
p3455
I2
sS'spent'
p3456
I2
sS'double'
p3457
I2
sS'person'
p3458
I3
sS'cheer'
p3459
I2
sS'edge'
p3460
I2
sS'machinery'
p3461
I4
sS'ltd.'
p3462
I4
sS'swiss'
p3463
I2
sS'organization'
p3464
I3
sS'meanwhile'
p3465
I3
sS'7.62'
p3466
I2
sS'yankees'
p3467
I2
sS'grievance'
p3468
I3
sS'watching'
p3469
I2
sS'responsible'
p3470
I4
sS'hypothesized'
p3471
I2
sS'desk'
p3472
I2
sS'proxies'
p3473
I2
sS'officers'
p3474
I2
sS'distracting'
p3475
I2
sS'sam'
p3476
I2
sS'immediately'
p3477
I2
sS'retired'
p3478
I3
sS'taiwan'
p3479
I3
sS'predominantly'
p3480
I2
sS'prince'
p3481
I3
sS'profitable'
p3482
I4
sS'superficial'
p3483
I2
sS'cut'
p3484
I12
sS'helping'
p3485
I2
sS'$'
I106
sS'also'
p3486
I33
sS'informal'
p3487
I10
sS'surprises'
p3488
I3
sS'workers'
p3489
I8
sS'deputy'
p3490
I2
sS'guaranteed'
p3491
I3
sS'contractor'
p3492
I2
sS'revenue'
p3493
I4
sS'rangers'
p3494
I2
sS'internal'
p3495
I4
sS'parents'
p3496
I4
sS"tong'il"
p3497
I2
sS'homeland'
p3498
I2
sS'waleson'
p3499
I2
sS'guarantees'
p3500
I2
sS'administrative'
p3501
I3
sS'remaining'
p3502
I4
sS'frustrate'
p3503
I2
sS'chairman'
p3504
I12
sS'...'
p3505
I7
sS'customers'
p3506
I8
sS'australia'
p3507
I3
sS'march'
p3508
I6
sS'emergency'
p3509
I3
sS'demands'
p3510
I2
sS'big'
p3511
I9
sS'bid'
p3512
I3
sS'discriminatory'
p3513
I2
sS'regal'
p3514
I2
sS'matters'
p3515
I3
sS'game'
p3516
I5
sS'thousand-person'
p3517
I2
sS'333'
p3518
I2
sS'foreigners'
p3519
I3
sS'guide'
p3520
I2
sS'necessary'
p3521
I3
sS'bit'
p3522
I2
sS'buddy'
p3523
I2
sS'royalties'
p3524
I2
sS'formal'
p3525
I5
sS'stimulators'
p3526
I7
sS'knock'
p3527
I2
sS'outright'
p3528
I2
sS'sorting'
p3529
I2
sS'success'
p3530
I3
sS'spine'
p3531
I2
sS'follows'
p3532
I3
sS'alltel'
p3533
I4
sS'glove'
p3534
I2
sS'kremlin'
p3535
I2
sS'consensus'
p3536
I2
sS'communications'
p3537
I3
sS'individuals'
p3538
I2
sS'recycled'
p3539
I4
sS'yorker'
p3540
I3
sS'jolted'
p3541
I2
sS'fault'
p3542
I2
sS'54.5'
p3543
I2
sS'healthy'
p3544
I2
sS'spins'
p3545
I2
sS'privately'
p3546
I3
sS'circles'
p3547
I2
sS'unesco'
p3548
I9
sS'often'
p3549
I3
sS'senate'
p3550
I6
sS'spring'
p3551
I5
sS'30s'
p3552
I2
sS'some'
p3553
I41
sS'back'
p3554
I17
sS'bach'
p3555
I3
sS'redistributionism'
p3556
I2
sS'3.6'
p3557
I2
sS'understood'
p3558
I2
sS'economic'
p3559
I15
sS'palm'
p3560
I2
sS'fabric'
p3561
I2
sS'hispanics'
p3562
I2
sS'apply'
p3563
I6
sS'renk'
p3564
I3
sS'pardoned'
p3565
I2
sS'fanfare'
p3566
I3
sS'vietnamese-backed'
p3567
I2
sS'67-year-old'
p3568
I2
sS'3.9'
p3569
I2
sS'delivered'
p3570
I3
sS'scale'
p3571
I2
sS'jewelry'
p3572
I9
sS'decision'
p3573
I8
sS'transactions'
p3574
I5
sS'audience'
p3575
I8
sS'per'
p3576
I2
sS'seller'
p3577
I2
sS'religion'
p3578
I4
sS'bankruptcy-law'
p3579
I2
sS'eliminate'
p3580
I3
sS'313.2'
p3581
I2
sS'innovation'
p3582
I2
sS'imploring'
p3583
I2
sS'superiority'
p3584
I2
sS'anne'
p3585
I2
sS'durables'
p3586
I2
sS'approves'
p3587
I2
sS'payments'
p3588
I11
sS'be'
p3589
I101
sS'run'
p3590
I4
sS'300'
p3591
I3
sS'innovated'
p3592
I2
sS'martin'
p3593
I3
sS'continuing'
p3594
I3
sS'use'
p3595
I14
sS'refused'
p3596
I3
sS'feelings'
p3597
I2
sS'restrictive'
p3598
I2
sS'step'
p3599
I3
sS'4.67'
p3600
I2
sS'concealed'
p3601
I2
sS'lasts'
p3602
I2
sS'elixir'
p3603
I2
sS'at&t'
p3604
I2
sS'pitchers'
p3605
I3
sS'by'
p3606
I115
sS'handled'
p3607
I2
sS'dormant'
p3608
I2
sS'freddie'
p3609
I4
sS'1,200'
p3610
I2
sS'consumption'
p3611
I2
sS'anything'
p3612
I5
sS'exaggerated'
p3613
I3
sS'tracing'
p3614
I2
sS'weatherbeaten'
p3615
I2
sS'in-depth'
p3616
I2
sS'mrs.'
p3617
I13
sS'range'
p3618
I3
sS'involving'
p3619
I4
sS'kucharski'
p3620
I2
sS'biennial'
p3621
I2
sS'together'
p3622
I2
sS'blackmailed'
p3623
I2
sS'hatred'
p3624
I2
sS'block'
p3625
I7
sS'72'
p3626
I3
sS'disclosure'
p3627
I2
sS'colorado'
p3628
I3
sS'garbage'
p3629
I2
sS'nsa'
p3630
I2
sS'into'
p3631
I23
sS'within'
p3632
I7
sS'seating'
p3633
I2
sS'defections'
p3634
I3
sS'racism'
p3635
I2
sS'primarily'
p3636
I2
sS'seasons'
p3637
I2
sS'guangdong'
p3638
I2
sS'bankruptcy'
p3639
I10
sS'statistics'
p3640
I2
sS'computer'
p3641
I7
sS'traduce'
p3642
I2
sS'introverted'
p3643
I2
sS'spending'
p3644
I2
sS'conduits'
p3645
I2
sS'creamier'
p3646
I2
sS'bargaining'
p3647
I2
sS'live'
p3648
I5
sS'long'
p3649
I8
sS'fully'
p3650
I2
sS'eurobond'
p3651
I2
sS'1.50'
p3652
I2
sS'crackdown'
p3653
I2
sS'back-pay'
p3654
I2
sS'pixie-like'
p3655
I2
sS'fund-raisers'
p3656
I2
sS'forward'
p3657
I2
sS'conrail'
p3658
I2
sS'mounting'
p3659
I2
sS'disallowed'
p3660
I2
sS'files'
p3661
I4
sS'considerably'
p3662
I3
sS'himself'
p3663
I4
sS'ireland'
p3664
I2
sS'q.'
p3665
I2
sS'registered'
p3666
I3
sS'ways'
p3667
I4
sS'specialty'
p3668
I2
sS'hoped'
p3669
I2
sS'boys'
p3670
I2
sS'properly'
p3671
I2
sS'two-part'
p3672
I2
sS'filed'
p3673
I12
sS'hopes'
p3674
I3
sS'subsidiary'
p3675
I5
sS'line'
p3676
I7
sS'active'
p3677
I3
sS'considerable'
p3678
I2
sS'raising'
p3679
I4
sS'posted'
p3680
I4
sS'directed'
p3681
I2
sS'ideals'
p3682
I2
sS'cia'
p3683
I5
sS'rejection'
p3684
I2
sS'circuits'
p3685
I2
sS'testaments'
p3686
I2
sS'generating'
p3687
I2
sS'up'
p3688
I47
sS'us'
p3689
I3
sS'par'
p3690
I2
sS'maturity'
p3691
I3
sS"'re"
p3692
I12
sS'cautiously'
p3693
I2
sS'defendant'
p3694
I2
sS'planes'
p3695
I2
sS'unexpected'
p3696
I2
sS'mortgage-securities'
p3697
I2
sS'concessions'
p3698
I2
sS'similar'
p3699
I7
sS'45-year-old'
p3700
I3
sS'painfully'
p3701
I2
sS'socially'
p3702
I2
sS'39-year-old'
p3703
I2
sS'curt'
p3704
I2
sS'ordered'
p3705
I4
sS'adults'
p3706
I3
sS'armstrong'
p3707
I9
sS'pilgrim'
p3708
I3
sS'likewise'
p3709
I2
sS'start-up'
p3710
I3
sS'multimillion-dollar'
p3711
I2
sS'influence'
p3712
I2
sS'commissioner'
p3713
I2
sS'u.s.a'
p3714
I2
sS'204.3'
p3715
I2
sS'quantification'
p3716
I2
sS'single'
p3717
I2
sS'associates'
p3718
I4
sS'rally'
p3719
I2
sS'treaty'
p3720
I3
sS'novelist'
p3721
I2
sS'metric'
p3722
I2
sS'liberalize'
p3723
I2
sS'%'
I118
sS'amounts'
p3724
I4
sS'employment'
p3725
I2
sS'peace'
p3726
I5
sS'spokesmen'
p3727
I2
sS'barred'
p3728
I2
sS'occasional'
p3729
I2
sS'politicians'
p3730
I3
sS'electrical'
p3731
I3
sS'minimum-wage'
p3732
I5
sS'department'
p3733
I11
sS'mcdonnell'
p3734
I4
sS'wellesley'
p3735
I2
sS'manhattan'
p3736
I3
sS'draw'
p3737
I3
sS'spanish-language'
p3738
I2
sS'clean'
p3739
I2
sS'provided'
p3740
I2
sS'oat'
p3741
I3
sS'sided'
p3742
I2
sS'six-cent'
p3743
I2
sS'problems'
p3744
I5
sS'robots'
p3745
I2
sS'visits'
p3746
I2
sS'prepared'
p3747
I2
sS'william'
p3748
I5
sS'generated'
p3749
I3
sS'allowing'
p3750
I2
sS'prepares'
p3751
I2
sS'hazardous-waste-site'
p3752
I2
sS'sider'
p3753
I3
sS'sides'
p3754
I6
sS'structure'
p3755
I2
sS'ago'
p3756
I9
sS'worsened'
p3757
I2
sS'lane'
p3758
I7
sS'land'
p3759
I3
sS'abetted'
p3760
I2
sS'vice'
p3761
I18
sS'scotch'
p3762
I3
sS'age'
p3763
I4
sS'required'
p3764
I9
sS'backed'
p3765
I4
sS'maturities'
p3766
I2
sS'walked'
p3767
I2
sS'responded'
p3768
I2
sS'norwegians'
p3769
I2
sS'circuit'
p3770
I2
sS'6.25'
p3771
I2
sS'2005'
p3772
I2
sS'far'
p3773
I8
sS'international'
p3774
I17
sS'requires'
p3775
I2
sS'leveraged'
p3776
I3
sS'once'
p3777
I9
sS'magnetically'
p3778
I2
sS'regroup'
p3779
I2
sS'code'
p3780
I3
sS'minors'
p3781
I2
sS'fixed-rate'
p3782
I3
sS'unemployment'
p3783
I4
sS'issued'
p3784
I5
sS'results'
p3785
I5
sS'soften'
p3786
I2
sS'oct.'
p3787
I5
sS'retreating'
p3788
I2
sS'ga'
p3789
I2
sS'kato'
p3790
I3
sS'intricate'
p3791
I2
sS'particularly'
p3792
I3
sS'moon'
p3793
I18
sS'15,000'
p3794
I3
sS'issues'
p3795
I7
sS'seemed'
p3796
I5
sS'compact'
p3797
I2
sS'excludes'
p3798
I2
sS'scuttle'
p3799
I2
sS'gold'
p3800
I3
sS'animal'
p3801
I3
sS'boom-or-bust'
p3802
I2
sS'disposal'
p3803
I2
sS'concerned'
p3804
I2
sS'avoid'
p3805
I5
sS'young'
p3806
I8
sS'send'
p3807
I2
sS'appointed'
p3808
I2
sS'uninformative'
p3809
I2
sS'magisterially'
p3810
I2
sS'chaps'
p3811
I2
sS'excluded'
p3812
I2
sS'stable'
p3813
I2
sS'quarterly'
p3814
I6
sS'breach'
p3815
I2
sS'dislike'
p3816
I2
sS'include'
p3817
I2
sS'sent'
p3818
I5
sS'probe'
p3819
I4
sS'murderous'
p3820
I2
sS'tribunal'
p3821
I2
sS'lynch'
p3822
I2
sS'continues'
p3823
I3
sS'wave'
p3824
I2
sS'nixed'
p3825
I2
sS'wash.'
p3826
I2
sS'cellular'
p3827
I2
sS'abduction'
p3828
I2
sS'g.'
p3829
I2
sS'drinking'
p3830
I2
sS'continued'
p3831
I3
sS'minerals'
p3832
I2
sS'720,000'
p3833
I2
sS'posture'
p3834
I2
sS'timely'
p3835
I2
sS'ariz.'
p3836
I2
sS'positions'
p3837
I2
sS'notes'
p3838
I3
sS'michael'
p3839
I5
sS'watered'
p3840
I2
sS'fewer'
p3841
I2
sS'try'
p3842
I3
sS'race'
p3843
I2
sS'reich'
p3844
I5
sS'three-judge'
p3845
I2
sS'md-80'
p3846
I2
sS'butterfat'
p3847
I4
sS'2.25'
p3848
I2
sS'concluded'
p3849
I2
sS'someday'
p3850
I2
sS'smaller'
p3851
I2
sS'victim'
p3852
I2
sS'stepping'
p3853
I2
sS'picket'
p3854
I2
sS'vitally'
p3855
I2
sS'visuals'
p3856
I2
sS'1982'
p3857
I2
sS'participate'
p3858
I2
sS'mediterranean'
p3859
I2
sS'malice'
p3860
I2
sS'demonstrations'
p3861
I7
sS'noticias'
p3862
I2
sS'recruitment'
p3863
I2
sS'carla'
p3864
I2
sS'graying'
p3865
I2
sS'picked'
p3866
I2
sS'expense'
p3867
I2
sS'licenses'
p3868
I3
sS'beanballs'
p3869
I2
sS'traced'
p3870
I2
sS'nests'
p3871
I2
sS'makers'
p3872
I7
sS'index'
p3873
I5
sS'edison'
p3874
I2
sS'heavens'
p3875
I2
sS'plays'
p3876
I4
sS'business'
p3877
I13
sS'chicago'
p3878
I5
sS'sherblom'
p3879
I2
sS'bail'
p3880
I2
sS'bluntly'
p3881
I2
sS'judy'
p3882
I2
sS'expressed'
p3883
I2
sS'find'
p3884
I2
sS'access'
p3885
I5
sS'consistently'
p3886
I2
sS'waiting'
p3887
I2
sS'indian'
p3888
I2
sS'gubernatorial'
p3889
I2
sS'capital'
p3890
I9
sS'collins'
p3891
I5
sS';'
I58
sS'nights'
p3892
I2
sS'exercise'
p3893
I2
sS'body'
p3894
I2
sS'n.m'
p3895
I2
sS'focuses'
p3896
I2
sS'led'
p3897
I6
sS'lee'
p3898
I10
sS'exchange'
p3899
I11
sS'commercial'
p3900
I12
sS'save'
p3901
I2
sS'believed'
p3902
I2
sS'puckish'
p3903
I2
sS'objects'
p3904
I2
sS'let'
p3905
I12
sS'spring-training'
p3906
I2
sS'jeans'
p3907
I2
sS'others'
p3908
I10
sS'luis'
p3909
I2
sS'safer'
p3910
I2
sS'b'
I2
sS'extreme'
p3911
I2
sS'waste'
p3912
I2
sS'great'
p3913
I11
sS'engage'
p3914
I2
sS'mid-to-late'
p3915
I2
sS'receive'
p3916
I4
sS'involved'
p3917
I6
sS'31'
p3918
I4
sS'30'
p3919
I16
sS'37'
p3920
I4
sS'dabney'
p3921
I2
sS'35'
p3922
I2
sS'merger'
p3923
I3
sS'products'
p3924
I14
sS'fulton'
p3925
I2
sS'oversees'
p3926
I2
sS'opinion'
p3927
I3
sS'{'
I10
sS'gene'
p3928
I2
sS'makes'
p3929
I3
sS'maker'
p3930
I10
sS'fake'
p3931
I3
sS'examining'
p3932
I2
sS'named'
p3933
I11
sS'writer'
p3934
I3
sS'claim'
p3935
I10
sS'win'
p3936
I2
sS'kennewick'
p3937
I2
sS'manage'
p3938
I2
sS'7.55'
p3939
I2
sS'private'
p3940
I3
sS'decrease'
p3941
I2
sS'names'
p3942
I3
sS'composer'
p3943
I3
sS'limb'
p3944
I2
sS'scandal'
p3945
I2
sS'canada'
p3946
I5
sS'cloud'
p3947
I2
sS'120-day'
p3948
I3
sS'confidence'
p3949
I2
sS'from'
p3950
I99
sS'hippie'
p3951
I2
sS'zip'
p3952
I3
sS'&'
I12
sS'remains'
p3953
I2
sS'illegal'
p3954
I2
sS'hudson'
p3955
I3
sS'theme'
p3956
I2
sS'27.4'
p3957
I2
sS'next'
p3958
I17
sS'few'
p3959
I11
sS'camera'
p3960
I2
sS'year-ago'
p3961
I2
sS'themselves'
p3962
I8
sS'historically'
p3963
I2
sS'midday'
p3964
I2
sS'bureaucracy'
p3965
I3
sS'journalists'
p3966
I3
sS'infamy'
p3967
I2
sS'bronfman'
p3968
I2
sS'started'
p3969
I6
sS'sihanouk'
p3970
I3
sS'sister'
p3971
I2
sS'visibility'
p3972
I2
sS'missile'
p3973
I2
sS'dealings'
p3974
I2
sS'federally'
p3975
I2
sS'arranging'
p3976
I2
sS'actual'
p3977
I3
sS'shostakovich'
p3978
I2
sS'iii'
p3979
I3
sS'potential'
p3980
I4
sS'carried'
p3981
I2
sS'non-communist'
p3982
I2
sS'topic'
p3983
I2
sS'account'
p3984
I5
sS'us$'
p3985
I3
sS'animals'
p3986
I3
sS'63.6'
p3987
I2
sS'announcing'
p3988
I2
sS'improperly'
p3989
I2
sS'this'
p3990
I63
sS'challenge'
p3991
I2
sS'clients'
p3992
I4
sS'critic'
p3993
I2
sS'erwin'
p3994
I2
sS'unknowns'
p3995
I2
sS'condominium'
p3996
I2
sS'crossed'
p3997
I2
sS'publications'
p3998
I3
sS'servants'
p3999
I2
sS'uninspired'
p4000
I2
sS'1.45'
p4001
I2
sS'meet'
p4002
I4
sS'closing'
p4003
I2
sS'5*slashhere*16'
p4004
I2
sS'rehabilitation'
p4005
I3
sS'painless'
p4006
I2
sS'performed'
p4007
I2
sS'control'
p4008
I11
sS'beijing'
p4009
I2
sS'tap'
p4010
I2
sS'employs'
p4011
I3
sS'links'
p4012
I2
sS'plate'
p4013
I3
sS'process'
p4014
I3
sS'favorite'
p4015
I4
sS'authorized'
p4016
I2
sS'tax'
p4017
I11
sS'purposes'
p4018
I3
sS'evans-black'
p4019
I2
sS'pieces'
p4020
I5
sS'high'
p4021
I12
sS'tobacco'
p4022
I3
sS'reserves'
p4023
I2
sS'exclaims'
p4024
I2
sS'something'
p4025
I5
sS'slip'
p4026
I2
sS'sought'
p4027
I4
sS'founding'
p4028
I3
sS'standard'
p4029
I3
sS'manfred'
p4030
I2
sS'fearsome'
p4031
I2
sS'dairy'
p4032
I2
sS'summers'
p4033
I2
sS'stadiums'
p4034
I2
sS'sit'
p4035
I3
sS'protect'
p4036
I4
sS'holds'
p4037
I2
sS'arrangement'
p4038
I2
sS'bodegas'
p4039
I2
sS'brian'
p4040
I2
sS'responsibilities'
p4041
I2
sS'23.4'
p4042
I2
sS'stimulation'
p4043
I3
sS'instead'
p4044
I3
sS'ferdinand'
p4045
I2
sS'blackstone'
p4046
I3
sS'immoral'
p4047
I2
sS'stock'
p4048
I20
sS'vintage'
p4049
I2
sS'restructured'
p4050
I2
sS'express'
p4051
I8
sS'baa-1'
p4052
I2
sS'impasse'
p4053
I2
sS'tied'
p4054
I4
sS'bothered'
p4055
I2
sS'ronald'
p4056
I2
sS'most-favored'
p4057
I2
sS'independent'
p4058
I2
sS'united'
p4059
I6
sS'preferred'
p4060
I6
sS'debt'
p4061
I4
sS'ethnic'
p4062
I2
sS'ties'
p4063
I4
sS'industrywide'
p4064
I2
sS'wisecracks'
p4065
I2
sS'referring'
p4066
I2
sS'7.80'
p4067
I2
sS'improviser'
p4068
I2
sS'pocket'
p4069
I2
sS'retirement'
p4070
I3
sS'boeing'
p4071
I2
sS'rev.'
p4072
I2
sS'light'
p4073
I7
sS'lines'
p4074
I4
sS'chief'
p4075
I18
sS'increasing'
p4076
I2
sS'allow'
p4077
I4
sS'healthcare'
p4078
I15
sS'intellectuals'
p4079
I2
sS'kinji'
p4080
I2
sS'testament-style'
p4081
I2
sS'looking'
p4082
I2
sS'secured'
p4083
I2
sS'genial'
p4084
I2
sS'houston'
p4085
I7
sS'six'
p4086
I8
sS'creation'
p4087
I3
sS'aiken'
p4088
I2
sS'producer'
p4089
I2
sS'8.50'
p4090
I3
sS'institutional'
p4091
I2
sS'tropics'
p4092
I4
sS'insight'
p4093
I2
sS'8.53'
p4094
I2
sS'feeling'
p4095
I2
sS'produced'
p4096
I5
sS'contractions'
p4097
I3
sS'including'
p4098
I14
sS'directs'
p4099
I3
sS'quake'
p4100
I2
sS'finanziario'
p4101
I2
sS'mentioned'
p4102
I2
sS'agricultural'
p4103
I2
sS'year-earlier'
p4104
I3
sS'industries'
p4105
I6
sS'1'
I11
sS'negotiated'
p4106
I3
sS'complicate'
p4107
I2
sS'la'
p4108
I3
sS'chosen'
p4109
I2
sS'temporal'
p4110
I2
sS'concept'
p4111
I4
sS'dispose'
p4112
I2
sS'anti-nuclear'
p4113
I2
sS'labor'
p4114
I7
sS'owe'
p4115
I3
sS'willing'
p4116
I4
sS'melloan'
p4117
I2
sS'clusters'
p4118
I2
sS'criminal'
p4119
I3
sS'crowds'
p4120
I2
sS'image'
p4121
I4
sS'alleging'
p4122
I3
sS'8.3875'
p4123
I2
sS'non-invasive'
p4124
I3
sS'crash'
p4125
I8
sS'greater'
p4126
I4
sS'orthodox'
p4127
I2
sS'wells'
p4128
I2
sS'auto'
p4129
I5
sS'outlined'
p4130
I2
sS'practice'
p4131
I4
sS'looting'
p4132
I2
sS'federico'
p4133
I2
sS'flash'
p4134
I2
sS'resolve'
p4135
I3
sS'legendary'
p4136
I2
sS'hands'
p4137
I4
sS'front'
p4138
I4
sS'insisting'
p4139
I2
sS'republican'
p4140
I3
sS'investor'
p4141
I3
sS'day'
p4142
I4
sS'capital-gains'
p4143
I2
sS'literacy'
p4144
I2
sS'relax'
p4145
I2
sS'sales-tax'
p4146
I2
sS'toes'
p4147
I2
sS'earring'
p4148
I2
sS'warned'
p4149
I4
sS'university'
p4150
I11
sS'cellists'
p4151
I2
sS'136,800'
p4152
I2
sS'boringly'
p4153
I2
sS'registrations'
p4154
I3
sS'slide'
p4155
I4
sS'issuers'
p4156
I3
sS'fields'
p4157
I2
sS'references'
p4158
I2
sS'bickford'
p4159
I2
sS'bills'
p4160
I3
sS'discount'
p4161
I3
sS'commonwealth'
p4162
I2
sS'ratings'
p4163
I2
sS'activate'
p4164
I2
sS'doing'
p4165
I4
sS'11-member'
p4166
I2
sS'chunk'
p4167
I2
sS'registration'
p4168
I3
sS'700'
p4169
I3
sS'levy'
p4170
I5
sS'related'
p4171
I2
sS'society'
p4172
I2
sS'books'
p4173
I3
sS'sands'
p4174
I2
sS'astronomer'
p4175
I2
sS'measure'
p4176
I3
sS'83'
p4177
I2
sS'margins'
p4178
I3
sS'bay'
p4179
I2
sS'salesman'
p4180
I2
sS'special'
p4181
I7
sS'out'
p4182
I20
sS'gallant'
p4183
I2
sS'six-month'
p4184
I2
sS'trifari'
p4185
I4
sS'honorably'
p4186
I2
sS"'"
I28
sS'entertainment'
p4187
I3
sS'aga'
p4188
I7
sS'dismissal'
p4189
I3
sS'unencumbered'
p4190
I2
sS'settlement'
p4191
I6
sS'strokes'
p4192
I2
sS'superbly'
p4193
I2
sS'motifs'
p4194
I2
sS'istituto'
p4195
I2
sS'electronics'
p4196
I2
sS'steered'
p4197
I2
sS'cause'
p4198
I5
sS'maccabee'
p4199
I2
sS'announced'
p4200
I11
sS'statist'
p4201
I2
sS'harold'
p4202
I2
sS'alleged'
p4203
I3
sS'dictionary'
p4204
I2
sS'unwieldy'
p4205
I2
sS'frank'
p4206
I3
sS'opinion-makers'
p4207
I2
sS'delegates'
p4208
I2
sS'fourteen'
p4209
I2
sS'ill.'
p4210
I2
sS'completely'
p4211
I2
sS'1985'
p4212
I4
sS'provident'
p4213
I2
sS'york'
p4214
I16
sS'improvisational'
p4215
I2
sS'regulatory'
p4216
I2
sS'indicates'
p4217
I3
sS'232.4'
p4218
I2
sS'20,000'
p4219
I2
sS'afterward'
p4220
I2
sS'additional'
p4221
I4
sS'allies'
p4222
I3
sS'segregated'
p4223
I2
sS'displays'
p4224
I2
sS'sardinia'
p4225
I2
sS'dubbed'
p4226
I4
sS'determining'
p4227
I2
sS'could'
p4228
I29
sS'diminished'
p4229
I3
sS'whacker'
p4230
I2
sS'times'
p4231
I5
sS'length'
p4232
I2
sS'pigs'
p4233
I2
sS'navies'
p4234
I2
sS'ltd'
p4235
I2
sS'timed'
p4236
I2
sS'retain'
p4237
I4
sS'discussions'
p4238
I2
sS'secretary'
p4239
I3
sS'austin'
p4240
I3
sS'scare'
p4241
I2
sS'south'
p4242
I7
sS'prospective'
p4243
I2
sS'plastics'
p4244
I3
sS'plainly'
p4245
I2
sS'succeeds'
p4246
I3
sS'zero-sum'
p4247
I2
sS'2,000'
p4248
I2
sS'baby-faced'
p4249
I2
sS'scene'
p4250
I2
sS'unsupported'
p4251
I2
sS'minn.'
p4252
I2
sS'embarrassed'
p4253
I2
sS'cardiac'
p4254
I2
sS'galvanized'
p4255
I2
sS'puppet'
p4256
I2
sS'proposing'
p4257
I2
sS'aisles'
p4258
I2
sS'rusticated'
p4259
I2
sS'probation'
p4260
I2
sS'awarded'
p4261
I2
sS'quality'
p4262
I3
sS'legislative'
p4263
I2
sS'vetoed'
p4264
I3
sS'explain'
p4265
I2
sS'management'
p4266
I6
sS'publication'
p4267
I2
sS'nerves'
p4268
I7
sS'single-a-3'
p4269
I6
sS'single-a-2'
p4270
I5
sS'demonstration'
p4271
I5
sS'assure'
p4272
I2
sS'grip'
p4273
I2
sS'system'
p4274
I13
sS'relations'
p4275
I5
sS'ponied'
p4276
I2
sS'their'
p4277
I63
sS'attack'
p4278
I3
sS'w.'
p4279
I2
sS'bosco'
p4280
I2
sS'final'
p4281
I5
sS'interests'
p4282
I4
sS'tidbit'
p4283
I2
sS'activists'
p4284
I2
sS'tator'
p4285
I3
sS'12-month'
p4286
I2
sS'quarry'
p4287
I2
sS'smolder'
p4288
I2
sS'doomed'
p4289
I2
sS'exactly'
p4290
I2
sS'picturesquely'
p4291
I2
sS'7.45'
p4292
I2
sS'slides'
p4293
I2
sS'environmental'
p4294
I3
sS'tsunami'
p4295
I2
sS'counterespionage'
p4296
I2
sS'bassist'
p4297
I2
sS'manipulation'
p4298
I2
sS'branches'
p4299
I4
sS'july'
p4300
I7
sS'completes'
p4301
I2
sS'remember'
p4302
I3
sS'colleagues'
p4303
I4
sS'liquid'
p4304
I2
sS'cash-flush'
p4305
I2
sS'marston'
p4306
I3
sS'shevardnadze'
p4307
I4
sS'employer'
p4308
I2
sS'lecheria'
p4309
I3
sS'creators'
p4310
I2
sS'submitted'
p4311
I3
sS'potpourri'
p4312
I2
sS'16-year-olds'
p4313
I2
sS'asean'
p4314
I2
sS'appealing'
p4315
I2
sS'decided'
p4316
I3
sS'circumspect'
p4317
I2
sS'bind'
p4318
I3
sS'flashes'
p4319
I3
sS'india'
p4320
I3
sS'providing'
p4321
I2
sS'downpayments'
p4322
I2
sS'creditors'
p4323
I7
sS'1.4'
p4324
I2
sS'imaginative'
p4325
I2
sS'1.6'
p4326
I2
sS'1.1'
p4327
I2
sS'1.2'
p4328
I2
sS'survives'
p4329
I2
sS'julian'
p4330
I2
sS'unchanged'
p4331
I2
sS'partnership'
p4332
I3
sS'1.8'
p4333
I2
sS'teenagers'
p4334
I2
sS'westward'
p4335
I2
sS'tide'
p4336
I2
sS'corrupt'
p4337
I2
sS'civilized'
p4338
I2
sS'ornette'
p4339
I2
sS'9.78'
p4340
I2
sS'unlikely'
p4341
I4
sS'have'
p4342
I87
sS'sen'
p4343
I3
sS'need'
p4344
I4
sS'9.75'
p4345
I2
sS'apparently'
p4346
I4
sS'clearly'
p4347
I4
sS'pallor'
p4348
I2
sS'instrumentation'
p4349
I2
sS'tomash'
p4350
I4
sS'documents'
p4351
I9
sS'how-to'
p4352
I2
sS'bassoon'
p4353
I2
sS'studying'
p4354
I2
sS'agency'
p4355
I15
sS'able'
p4356
I12
sS'parks'
p4357
I2
sS'2.6'
p4358
I2
sS'instance'
p4359
I3
sS'relatives'
p4360
I2
sS'concerns'
p4361
I4
sS'326'
p4362
I2
sS'which'
p4363
I60
sS'bus'
p4364
I2
sS'souled'
p4365
I2
sS'korean'
p4366
I3
sS'martha'
p4367
I2
sS'1.35'
p4368
I2
sS'1.37'
p4369
I2
sS'refocusing'
p4370
I2
sS'rejoining'
p4371
I2
sS'picketing'
p4372
I2
sS'first-quarter'
p4373
I2
sS'improvised'
p4374
I2
sS'combat'
p4375
I2
sS'passionately'
p4376
I2
sS'collaboration'
p4377
I2
sS'who'
p4378
I61
sS'mandatory'
p4379
I4
sS'accountants'
p4380
I4
sS'useful'
p4381
I3
sS'learns'
p4382
I2
sS'acceptances'
p4383
I2
sS'preliminary'
p4384
I5
sS'device'
p4385
I3
sS'finery'
p4386
I2
sS'nuisance'
p4387
I2
sS'sfe'
p4388
I4
sS'reveling'
p4389
I2
sS'why'
p4390
I3
sS'gurus'
p4391
I2
sS'so-called'
p4392
I4
sS'quotations'
p4393
I2
sS'410,000'
p4394
I2
sS'consequences'
p4395
I3
sS'8.25'
p4396
I2
sS'enthusiastic'
p4397
I2
sS'stronger'
p4398
I3
sS'face'
p4399
I5
sS'looked'
p4400
I3
sS'1,001'
p4401
I2
sS'agencies'
p4402
I3
sS'construction'
p4403
I3
sS'error'
p4404
I2
sS'guinea'
p4405
I2
sS'brew'
p4406
I2
sS'wealthier'
p4407
I2
sS'disobey'
p4408
I2
sS'typical'
p4409
I2
sS'}'
I10
sS'fact'
p4410
I3
sS'50'
p4411
I10
sS'impression'
p4412
I2
sS'parker'
p4413
I2
sS'money-fund'
p4414
I3
sS'leche'
p4415
I4
sS'chances'
p4416
I2
sS'galvanizing'
p4417
I2
sS'agreed'
p4418
I11
sS'supported'
p4419
I3
sS'quarter-to-quarter'
p4420
I2
sS'brother'
p4421
I2
sS'vacancy'
p4422
I2
sS'bring'
p4423
I4
sS'planning'
p4424
I2
sS'democrats'
p4425
I6
sS'rouge'
p4426
I4
sS'argues'
p4427
I2
sS'portfolio'
p4428
I2
sS'rough'
p4429
I2
sS'thicket'
p4430
I2
sS'feat'
p4431
I2
sS'debate'
p4432
I6
sS'leg'
p4433
I2
sS'principal'
p4434
I2
sS'litigation'
p4435
I2
sS'partners'
p4436
I2
sS'c$'
p4437
I2
sS'communism'
p4438
I2
sS'based'
p4439
I10
sS'comfort'
p4440
I2
sS'('
I34
sS'95.2'
p4441
I2
sS'winner'
p4442
I2
sS'pickup'
p4443
I2
sS'controls'
p4444
I4
sS'should'
p4445
I8
sS'terminal'
p4446
I3
sS'secaucus'
p4447
I2
sS'bases'
p4448
I4
sS'tape'
p4449
I2
sS'newsprint'
p4450
I7
sS'printers'
p4451
I2
sS'employee'
p4452
I2
sS'riding'
p4453
I2
sS'communist'
p4454
I2
sS'beeper'
p4455
I2
sS'local'
p4456
I2
sS'hope'
p4457
I7
sS'finger'
p4458
I2
sS'meant'
p4459
I3
sS'move'
p4460
I9
sS'means'
p4461
I4
sS'cigar-chomping'
p4462
I2
sS'michigan'
p4463
I3
sS'massacre'
p4464
I2
sS'overall'
p4465
I4
sS'sipping'
p4466
I2
sS'listener'
p4467
I2
sS'joint'
p4468
I8
sS'community'
p4469
I2
sS'ones'
p4470
I4
sS'legitimate'
p4471
I2
sS'joins'
p4472
I2
sS'downturn'
p4473
I2
sS'timing'
p4474
I3
sS'penetrate'
p4475
I2
sS'kong'
p4476
I4
sS'procedures'
p4477
I2
sS'nearly'
p4478
I7
sS'areas'
p4479
I3
sS'j.e.'
p4480
I2
sS'gray'
p4481
I2
sS'processes'
p4482
I2
sS'pursued'
p4483
I2
sS'unauthorized'
p4484
I2
sS'course'
p4485
I4
sS'tolerance'
p4486
I2
sS'evaders'
p4487
I2
sS'one-quarter-cent'
p4488
I2
sS'calling'
p4489
I5
sS'intermission'
p4490
I2
sS'stuff'
p4491
I3
sS'dpc'
p4492
I2
sS'she'
p4493
I7
sS'allegation'
p4494
I2
sS'ballplayers'
p4495
I2
sS'laughs'
p4496
I2
sS'medium-grade'
p4497
I2
sS'conduct'
p4498
I2
sS'costume'
p4499
I3
sS'available'
p4500
I2
sS'official'
p4501
I5
sS'acquired'
p4502
I3
sS'national'
p4503
I15
sS'juxtapose'
p4504
I2
sS'grudging'
p4505
I2
sS'travis'
p4506
I2
sS'legacy'
p4507
I2
sS'usefulness'
p4508
I2
sS'desperate'
p4509
I2
sS'operated'
p4510
I2
sS'36.6'
p4511
I2
sS'425,000'
p4512
I2
sS'tumor'
p4513
I2
sS'amtran'
p4514
I2
sS'hiring'
p4515
I2
sS'80-plus'
p4516
I2
sS'attempting'
p4517
I3
sS'clearing'
p4518
I2
sS'nature'
p4519
I3
sS'thumb'
p4520
I2
sS'brunt'
p4521
I2
sS'solicitors'
p4522
I2
sS'genius'
p4523
I2
sS'state'
p4524
I17
sS'closed'
p4525
I6
sS'demanded'
p4526
I2
sS'tens'
p4527
I2
sS'nuclear'
p4528
I6
sS'pure-voiced'
p4529
I2
sS'theft'
p4530
I2
sS'environmentalists'
p4531
I2
sS'wiry'
p4532
I2
sS'obeisance'
p4533
I2
sS'ends'
p4534
I3
sS'handful'
p4535
I2
sS'ability'
p4536
I3
sS'spares'
p4537
I2
sS'opening'
p4538
I5
sS'importance'
p4539
I2
sS'packaged'
p4540
I2
sS'beverages'
p4541
I2
sS'antics'
p4542
I2
sS'limbs'
p4543
I2
sS'ifint'
p4544
I4
sS'efficiency'
p4545
I2
sS'job'
p4546
I3
sS'joe'
p4547
I2
sS'key'
p4548
I4
sS'200,000'
p4549
I2
sS'probing'
p4550
I2
sS'one-stop'
p4551
I2
sS'precious'
p4552
I2
sS'declining'
p4553
I3
sS'david'
p4554
I6
sS'restrictions'
p4555
I2
sS'hits'
p4556
I3
sS'figured'
p4557
I2
sS'drum'
p4558
I2
sS'buster'
p4559
I2
sS'limits'
p4560
I5
sS'42.9'
p4561
I2
sS'taking'
p4562
I2
sS'deficits'
p4563
I2
sS'drug'
p4564
I5
sS'popularize'
p4565
I2
sS'etc'
p4566
I2
sS'admit'
p4567
I2
sS'figures'
p4568
I3
sS'urging'
p4569
I3
sS'attributes'
p4570
I2
sS'kinds'
p4571
I3
sS'jersey'
p4572
I4
sS'fear'
p4573
I2
sS'comment'
p4574
I6
sS'unclear'
p4575
I2
sS'co'
p4576
I3
sS'wall'
p4577
I5
sS'ships'
p4578
I2
sS'ca'
p4579
I7
sS'clues'
p4580
I2
sS'wonder'
p4581
I3
sS'supreme'
p4582
I3
sS'health-conscious'
p4583
I2
sS'packaging'
p4584
I2
sS'invisible'
p4585
I2
sS'9*slashhere*16'
p4586
I3
sS'greg'
p4587
I2
sS'recognized'
p4588
I2
sS'dividend'
p4589
I2
sS'manhood'
p4590
I2
sS'oakland'
p4591
I3
sS'appeared'
p4592
I2
sS'indications'
p4593
I2
sS'april'
p4594
I3
sS'quit'
p4595
I2
sS'yastrzemski'
p4596
I2
sS'8.5'
p4597
I2
sS'7.875'
p4598
I2
sS'addition'
p4599
I4
sS'industriale'
p4600
I2
sS'wills'
p4601
I2
sS'trademark'
p4602
I2
sS'8.04'
p4603
I2
sS'730'
p4604
I2
sS'arbitrator'
p4605
I8
sS'permanent'
p4606
I2
sS'slowly'
p4607
I2
sS'agreements'
p4608
I4
sS'bewkes'
p4609
I2
sS'indicators'
p4610
I2
sS'proposal'
p4611
I7
sS'yale'
p4612
I3
sS'louisiana'
p4613
I2
sS'partial'
p4614
I2
sS'remedies'
p4615
I2
sS'suggested'
p4616
I2
sS'tissues'
p4617
I2
sS'controlled'
p4618
I2
sS'c.'
p4619
I3
sS'league'
p4620
I8
sS'moved'
p4621
I3
sS'thrusting'
p4622
I2
sS'defunct'
p4623
I3
sS'scrutiny'
p4624
I2
sS'launching'
p4625
I2
sS'deep'
p4626
I5
sS'terminated'
p4627
I2
sS'atlanta'
p4628
I2
sS'an'
p4629
I91
sS'locales'
p4630
I2
sS'divisions'
p4631
I2
sS'bipartisan'
p4632
I2
sS'wily'
p4633
I2
sS'overuse'
p4634
I2
sS'slept'
p4635
I2
sS'appearance'
p4636
I5
sS'harriton'
p4637
I2
sS'value'
p4638
I5
sS'augusta'
p4639
I2
sS'will'
p4640
I83
sS'instigated'
p4641
I2
sS'texas'
p4642
I12
sS'owns'
p4643
I6
sS'rigged'
p4644
I2
sS'campaigns'
p4645
I2
sS'stuffing'
p4646
I2
sS'19.95'
p4647
I2
sS'7.96'
p4648
I2
sS'almost'
p4649
I4
sS"m'bow"
p4650
I4
sS'murphy'
p4651
I2
sS'norodom'
p4652
I2
sS'lush'
p4653
I2
sS'site'
p4654
I2
sS'landfills'
p4655
I2
sS'audiences'
p4656
I3
sS'vu'
p4657
I2
sS'dual'
p4658
I2
sS'winnetka'
p4659
I2
sS'claimed'
p4660
I2
sS'co-edited'
p4661
I2
sS'19.7'
p4662
I2
sS'wage-floor'
p4663
I2
sS'underwriters'
p4664
I2
sS'contention'
p4665
I2
sS'amadou-mahtar'
p4666
I2
sS'education'
p4667
I3
sS')'
I30
sS'marcoses'
p4668
I2
sS'privileges'
p4669
I3
sS'administration'
p4670
I6
sS'proceeds'
p4671
I2
sS'member'
p4672
I4
sS'strange'
p4673
I2
sS'mahatma'
p4674
I2
sS'northwest'
p4675
I5
sS'largest'
p4676
I10
sS'units'
p4677
I4
sS'party'
p4678
I4
sS'terrorism'
p4679
I2
sS'burnouts'
p4680
I2
sS'start'
p4681
I3
sS'frivolous'
p4682
I2
sS'difficult'
p4683
I6
sS'injured'
p4684
I2
sS'spirited'
p4685
I2
sS'ball'
p4686
I2
sS'columbia'
p4687
I3
sS'raymond'
p4688
I2
sS'emotionally'
p4689
I2
sS'innings'
p4690
I2
sS'promoters'
p4691
I2
sS'premiere'
p4692
I2
sS'appearances'
p4693
I2
sS'reporting'
p4694
I3
sS'upon'
p4695
I3
sS'effect'
p4696
I5
sS'mediobanca'
p4697
I3
sS'm.w.'
p4698
I2
sS'taste'
p4699
I2
sS'frequently'
p4700
I2
sS'spree'
p4701
I2
sS'impeccable'
p4702
I2
sS'expand'
p4703
I2
sS'destruction'
p4704
I2
sS'correspondent'
p4705
I2
sS'off'
p4706
I15
sS'center'
p4707
I5
sS'records'
p4708
I2
sS'i'
I40
sS'approve'
p4709
I2
sS'modeled'
p4710
I2
sS'well'
p4711
I11
sS'fighting'
p4712
I2
sS'bran'
p4713
I3
sS'thought'
p4714
I4
sS'patterns'
p4715
I2
sS'cutting'
p4716
I2
sS'352'
p4717
I2
sS'standing-room-only'
p4718
I2
sS'position'
p4719
I5
sS'limp'
p4720
I2
sS'muscle'
p4721
I3
sS'soviet'
p4722
I20
sS'inc.'
p4723
I24
sS'latest'
p4724
I3
sS'spy-chaser'
p4725
I2
sS'laid-back'
p4726
I2
sS'routinely'
p4727
I3
sS'sonata'
p4728
I2
sS'heavily'
p4729
I3
sS'increasingly'
p4730
I2
sS'ious'
p4731
I2
sS'executive'
p4732
I14
sS'domestic'
p4733
I5
sS'reflects'
p4734
I2
sS'detail'
p4735
I2
sS'clinic'
p4736
I3
sS'interim'
p4737
I2
sS'fishing'
p4738
I2
sS'seats'
p4739
I2
sS'tone'
p4740
I2
sS'paul'
p4741
I3
sS'hess'
p4742
I4
sS'topping'
p4743
I2
sS'non-brain'
p4744
I2
sS'ads'
p4745
I2
sS'stoltzman'
p4746
I11
sS'stock-picking'
p4747
I2
sS'bell'
p4748
I3
sS'smith'
p4749
I3
sS'deposits'
p4750
I2
sS'fled'
p4751
I3
sS'288'
p4752
I2
sS'clyde'
p4753
I2
sS'valid'
p4754
I2
sS'attractive'
p4755
I2
sS'exempt'
p4756
I2
sS'mitre'
p4757
I2
sS'sventek'
p4758
I3
sS'advanced'
p4759
I2
sS'loan'
p4760
I6
sS'ought'
p4761
I2
sS'tests'
p4762
I7
sS'increased'
p4763
I6
sS'ample'
p4764
I2
sS'government'
p4765
I26
sS'devised'
p4766
I2
sS'suggestions'
p4767
I2
sS'protesters'
p4768
I5
sS'low-paid'
p4769
I2
sS'increases'
p4770
I2
sS'historic'
p4771
I2
sS'five'
p4772
I11
sS'know'
p4773
I4
sS'burden'
p4774
I3
sS'catchers'
p4775
I2
sS'press'
p4776
I8
sS'turbulence'
p4777
I2
sS'reginald'
p4778
I2
sS'prominent'
p4779
I2
sS'loss'
p4780
I3
sS'displaced'
p4781
I2
sS'forcing'
p4782
I2
sS'crisp'
p4783
I2
sS'like'
p4784
I15
sS'lost'
p4785
I7
sS'miami'
p4786
I2
sS'perpetual'
p4787
I2
sS'karen'
p4788
I2
sS'admitted'
p4789
I3
sS'loses'
p4790
I2
sS'taxpayers'
p4791
I2
sS'hosts'
p4792
I2
sS'clarinetist'
p4793
I4
sS'lose'
p4794
I5
sS'become'
p4795
I10
sS'works'
p4796
I2
sS'stain-resistant'
p4797
I2
sS'replacement'
p4798
I3
sS'amendment'
p4799
I5
sS'parity'
p4800
I4
sS'mccartin'
p4801
I2
sS'because'
p4802
I25
sS'classical'
p4803
I3
sS'foreseeable'
p4804
I2
sS'scottish'
p4805
I2
sS'wounds'
p4806
I2
sS'thief'
p4807
I2
sS'authority'
p4808
I2
sS'hair'
p4809
I3
sS'aligned'
p4810
I2
sS'growth'
p4811
I6
sS'cleveland'
p4812
I2
sS'home'
p4813
I15
sS'empire'
p4814
I2
sS'peter'
p4815
I5
sS'ballot'
p4816
I3
sS'250'
p4817
I3
sS'righthander'
p4818
I2
sS'251'
p4819
I2
sS'lead'
p4820
I5
sS'severance'
p4821
I2
sS'garrett'
p4822
I2
sS'lean'
p4823
I2
sS'morris'
p4824
I2
sS'salaries'
p4825
I2
sS'demonstrators'
p4826
I2
sS'does'
p4827
I13
sS'passion'
p4828
I2
sS'assuming'
p4829
I2
sS'york-based'
p4830
I2
sS'intersections'
p4831
I2
sS'leader'
p4832
I12
sS'?'
I12
sS'extraordinarily'
p4833
I2
sS'mania'
p4834
I2
sS'subverted'
p4835
I2
sS'thoroughfare'
p4836
I2
sS'journal'
p4837
I8
sS'expansion'
p4838
I2
sS'outlets'
p4839
I2
sS'paper'
p4840
I10
sS'pressure'
p4841
I3
sS'host'
p4842
I3
sS'expire'
p4843
I2
sS'eurodollars'
p4844
I2
sS'although'
p4845
I4
sS'hospitable'
p4846
I2
sS'stay'
p4847
I3
sS'loans'
p4848
I6
sS'handling'
p4849
I2
sS'after'
p4850
I29
sS'panel'
p4851
I3
sS'about'
p4852
I37
sS'rare'
p4853
I2
sS'puts'
p4854
I2
sS'getting'
p4855
I5
sS'freedom'
p4856
I3
sS'cleans'
p4857
I2
sS'location'
p4858
I2
sS'urged'
p4859
I3
sS'concerts'
p4860
I2
sS'angeles'
p4861
I3
sS'carries'
p4862
I2
sS'carrier'
p4863
I6
sS'sweat'
p4864
I2
sS'liquidated'
p4865
I2
sS'discard'
p4866
I2
sS'introduced'
p4867
I4
sS'damp'
p4868
I2
sS'executives'
p4869
I10
sS'seniors'
p4870
I2
sS'equally'
p4871
I2
sS'own'
p4872
I10
sS'letters'
p4873
I7
sS'tourists'
p4874
I2
sS'title-insurance'
p4875
I2
sS'previously'
p4876
I6
sS'hashidate'
p4877
I2
sS'warrants'
p4878
I2
sS'washington'
p4879
I8
sS'billions'
p4880
I2
sS'due'
p4881
I3
sS'ismaili'
p4882
I2
sS'banca'
p4883
I2
sS'h.'
p4884
I2
sS'female'
p4885
I3
sS'lawful'
p4886
I5
sS'luxembourg-based'
p4887
I2
sS'.'
I967
sS'initially'
p4888
I2
sS'mere'
p4889
I2
sS'negotiable'
p4890
I3
sS'yankee'
p4891
I2
sS'1986'
p4892
I4
sS'1987'
p4893
I5
sS'1984'
p4894
I2
sS'permits'
p4895
I2
sS'accused'
p4896
I2
sS'1983'
p4897
I2
sS'off-speed'
p4898
I2
sS'transfer'
p4899
I2
sS'justifying'
p4900
I2
sS'outline'
p4901
I2
sS'ricca'
p4902
I2
sS'general-practice'
p4903
I2
sS'1988'
p4904
I3
sS'imperial'
p4905
I2
sS'continental'
p4906
I2
sS'intention'
p4907
I2
sS'inner'
p4908
I3
sS'obstacle'
p4909
I2
sS'biggest'
p4910
I5
sS'pretax'
p4911
I2
sS'jealously'
p4912
I2
sS'function'
p4913
I3
sS'tricky'
p4914
I2
sS'buy'
p4915
I5
sS'north'
p4916
I6
sS'interest'
p4917
I16
sS'triggered'
p4918
I4
sS'funds'
p4919
I12
sS'brand'
p4920
I5
sS'sequel'
p4921
I2
sS'but'
p4922
I88
sS'attributed'
p4923
I2
sS'delivery'
p4924
I4
sS'privilege'
p4925
I6
sS'mcbride'
p4926
I2
sS'fishing*slashhere*processing'
p4927
I2
sS'gain'
p4928
I4
sS'courts'
p4929
I2
sS'automated'
p4930
I2
sS'squeeze'
p4931
I2
sS'25-year-old'
p4932
I2
sS'strident'
p4933
I2
sS'witness'
p4934
I2
sS'he'
p4935
I135
sS'made'
p4936
I15
sS'wise'
p4937
I2
sS'evident'
p4938
I2
sS'chained'
p4939
I2
sS'whether'
p4940
I7
sS'dangerous'
p4941
I2
sS'mozart'
p4942
I2
sS'flip'
p4943
I2
sS'excitement'
p4944
I2
sS'record'
p4945
I7
sS'below'
p4946
I3
sS'converted'
p4947
I2
sS'limit'
p4948
I3
sS'ruling'
p4949
I9
sS'hand'
p4950
I4
sS'invest'
p4951
I3
sS'static'
p4952
I2
sS'problem'
p4953
I8
sS'piece'
p4954
I4
sS'minutes'
p4955
I4
sS'display'
p4956
I2
sS'8.395'
p4957
I2
sS'wage-discrimination'
p4958
I2
sS'settled'
p4959
I3
sS'kowtow'
p4960
I2
sS'devise'
p4961
I2
sS'recognize'
p4962
I2
sS'recounts'
p4963
I2
sS'911,606'
p4964
I2
sS'sweetheart'
p4965
I2
sS'rome'
p4966
I2
sS'crusade'
p4967
I2
sS'our'
p4968
I7
sS'nazionale'
p4969
I2
sS'moonie'
p4970
I2
sS'campus'
p4971
I2
sS'inc'
p4972
I4
sS'diego'
p4973
I2
sS'mutual'
p4974
I2
sS'compared'
p4975
I4
sS"'ll"
p4976
I2
sS'nonetheless'
p4977
I3
sS'46'
p4978
I2
sS'47'
p4979
I2
sS'44'
p4980
I4
sS'45'
p4981
I4
sS'42'
p4982
I2
sS'repay'
p4983
I2
sS'40'
p4984
I2
sS'lately'
p4985
I3
sS'surreal'
p4986
I2
sS'other'
p4987
I43
sS'compares'
p4988
I2
sS'policy-making'
p4989
I2
sS'branch'
p4990
I6
sS'relive'
p4991
I2
sS'hand-held'
p4992
I2
sS'sued'
p4993
I2
sS'republicans'
p4994
I2
sS'tight'
p4995
I2
sS'monday'
p4996
I4
sS'moody'
p4997
I5
sS'class'
p4998
I7
sS'475'
p4999
I2
sS'june'
p5000
I6
sS'shown'
p5001
I3
sS'precision'
p5002
I2
sS'chance'
p5003
I6
sS'income-tax'
p5004
I2
sS'biotechnology'
p5005
I2
sS'283.9'
p5006
I2
sS'catering'
p5007
I2
sS'friends'
p5008
I2
sS'4.25'
p5009
I5
sS'4.27'
p5010
I2
sS'constant'
p5011
I2
sS'stirred'
p5012
I2
sS'using'
p5013
I4
sS'repertoire'
p5014
I3
sS'space'
p5015
I2
sS'rule'
p5016
I8
sS'intentionally'
p5017
I2
sS'impair'
p5018
I2
sS'compete'
p5019
I3
sS'pension'
p5020
I6
sS'diagnosis'
p5021
I2
sS'ideological'
p5022
I2
sS'smoke-filled'
p5023
I2
sS'lives'
p5024
I4
sS'theory-teaching'
p5025
I2
sS'tax-exempt'
p5026
I2
sS'retirees'
p5027
I2
sS'grocery'
p5028
I2
sS'compromised'
p5029
I2
s.