(dp1
S'PRP$'
p2
I261
sS'VBG'
p3
I420
sS'FW'
p4
I13
sS'VBN'
p5
I590
sS','
I1417
sS'VBP'
p6
I417
sS'WDT'
p7
I147
sS'JJ'
p8
I2077
sS'WP'
p9
I88
sS'VBZ'
p10
I600
sS'DT'
p11
I2460
sS'#'
I1
sS'"'
I368
sS'RP'
p12
I70
sS'$'
I127
sS'NN'
p13
I3748
sS'start'
p14
I1183
sS')'
I51
sS'('
I55
sS'VBD'
p15
I815
sS'POS'
p16
I247
sS'.'
I1178
sS'TO'
p17
I678
sS'PRP'
p18
I560
sS'RB'
p19
I987
sS':'
I181
sS'NNS'
p20
I1957
sS'NNP'
p21
I2574
sS'VB'
p22
I865
sS'WRB'
p23
I62
sS'`'
I1
sS'CC'
p24
I759
sS'LS'
p25
I7
sS'PDT'
p26
I6
sS'RBS'
p27
I13
sS'RBR'
p28
I57
sS'CD'
p29
I857
sS'EX'
p30
I25
sS'IN'
p31
I2862
sS'WP$'
p32
I8
sS'MD'
p33
I322
sS'NNPS'
p34
I153
sS"'"
I1
sS'JJS'
p35
I49
sS'JJR'
p36
I111
sS'SYM'
p37
I2
sS'UH'
p38
I2
s.