(dp1
S'PRP$'
p2
(dp3
g2
F0.0037636432066240123
sS'VBG'
p4
F0.040028255238992227
sS'FW'
p5
F0.056497175141242938
sS'VBN'
p6
F0.0084076004708256262
sS','
F0.0014067665470915102
sS'VBP'
p7
F0.009485416172634575
sS'WDT'
p8
F0.0065919578114700074
sS'JJ'
p9
F0.00096075323053273771
sS'WP'
p10
F0.010787486515641855
sS'VBZ'
p11
F0.011575988093269389
sS'DT'
p12
F0.0020286444597719805
sS'#'
F0.17543859649122806
sS'"'
F0.0080493694660584928
sS'RP'
p13
F0.040160642570281124
sS'$'
F0.0075930144267274116
sS'NN'
p14
F0.00053294960961441094
sS'start'
p15
F0.010945524964216552
sS')'
F0.017953321364452424
sS'('
F0.03350083752093802
sS'VBD'
p16
F0.029279004513846529
sS'POS'
p17
F0.0039729837107667859
sS'.'
F0.00084552295594825396
sS'TO'
p18
F0.017577266735022704
sS'PRP'
p19
F0.0017708517797060384
sS'RB'
p20
F0.0050418473328627603
sS':'
F0.010770059235325796
sS'NNS'
p21
F0.00050976194117347202
sS'NNP'
p22
F0.00038779229844495292
sS'VB'
p23
F0.057491088881223409
sS'WRB'
p24
F0.059970014992503748
sS'`'
F0.17543859649122806
sS'CC'
p25
F0.020950635066125441
sS'LS'
p26
F0.085470085470085472
sS'PDT'
p27
F0.093457943925233655
sS'RBS'
p28
F0.056497175141242938
sS'RBR'
p29
F0.016207455429497569
sS'CD'
p30
F0.001160496692584426
sS'EX'
p31
F0.033670033670033669
sS'IN'
p32
F0.035580981616492834
sS'WP$'
p33
F0.07874015748031496
sS'MD'
p34
F0.0030609121518212429
sS'NNPS'
p35
F0.0063411540900443885
sS"'"
F0.17543859649122806
sS'JJS'
p36
F0.018621973929236497
sS'JJR'
p37
F0.0086430423509075184
sS'SYM'
p38
F0.14925373134328357
sS'UH'
p39
F0.14925373134328357
ssg4
(dp40
g2
F0.0037636432066240123
sg4
F0.0070638097480574527
sg5
F0.056497175141242938
sg6
F0.026904321506642001
sS','
F0.037982696771470773
sg7
F0.090111453640028455
sg8
F0.0065919578114700074
sg9
F0.0048037661526636891
sg10
F0.010787486515641855
sg11
F0.051265090127335863
sg12
F0.0089260356229967138
sS'#'
F0.17543859649122806
sS'"'
F0.018781862087469816
sg13
F0.013386880856760375
sS'$'
F0.0075930144267274116
sg14
F0.010392517387481015
sg15
F0.015155342258145996
sS')'
F0.035906642728904849
sS'('
F0.01675041876046901
sg16
F0.012199585214102721
sg17
F0.015891934843067144
sS'.'
F0.00084552295594825396
sg18
F0.0058590889116742345
sg19
F0.0035417035594120768
sg20
F0.025209236664313805
sS':'
F0.010770059235325796
sg21
F0.017841667941071518
sg22
F0.0031023383875596233
sg23
F0.01264803955386915
sg24
F0.014992503748125937
sS'`'
F0.17543859649122806
sg25
F0.015712976299594082
sg26
F0.085470085470085472
sg27
F0.093457943925233655
sg28
F0.056497175141242938
sg29
F0.016207455429497569
sg30
F0.002320993385168852
sg31
F0.033670033670033669
sg32
F0.03034848431994977
sg33
F0.07874015748031496
sg34
F0.0030609121518212429
sg35
F0.0063411540900443885
sS"'"
F0.17543859649122806
sg36
F0.018621973929236497
sg37
F0.0086430423509075184
sg38
F0.14925373134328357
sg39
F0.14925373134328357
ssg5
(dp41
g2
F0.0037636432066240123
sg4
F0.0023546032493524842
sg5
F0.22598870056497175
sg6
F0.0016815200941651251
sS','
F0.0014067665470915102
sg7
F0.0023713540431586438
sg8
F0.0065919578114700074
sg9
F0.00048037661526636886
sg10
F0.010787486515641855
sg11
F0.0016537125847527698
sg12
F0.00040572889195439609
sS'#'
F0.17543859649122806
sS'"'
F0.0053662463107056616
sg13
F0.013386880856760375
sS'$'
F0.0075930144267274116
sg14
F0.00026647480480720547
sg15
F0.0016839269175717773
sS')'
F0.017953321364452424
sS'('
F0.01675041876046901
sg16
F0.0012199585214102719
sg17
F0.0039729837107667859
sS'.'
F0.00084552295594825396
sg18
F0.0014647722279185586
sg19
F0.0017708517797060384
sg20
F0.0010083694665725521
sS':'
F0.0053850296176628978
sg21
F0.00050976194117347202
sg22
F0.0019389614922247645
sg23
F0.0011498217776244682
sg24
F0.014992503748125937
sS'`'
F0.17543859649122806
sg25
F0.00130941469163284
sg26
F0.085470085470085472
sg27
F0.093457943925233655
sg28
F0.056497175141242938
sg29
F0.016207455429497569
sg30
F0.002320993385168852
sg31
F0.033670033670033669
sg32
F0.00069766630620574186
sg33
F0.07874015748031496
sg34
F0.0030609121518212429
sg35
F0.0063411540900443885
sS"'"
F0.17543859649122806
sg36
F0.018621973929236497
sg37
F0.0086430423509075184
sg38
F0.14925373134328357
sg39
F0.14925373134328357
ssg6
(dp42
g2
F0.0037636432066240123
sg4
F0.032964445490934781
sg5
F0.056497175141242938
sg6
F0.025222801412476879
sS','
F0.015474432018006612
sg7
F0.18022290728005691
sg8
F0.0065919578114700074
sg9
F0.00096075323053273771
sg10
F0.010787486515641855
sg11
F0.1422192822887382
sg12
F0.008114577839087922
sS'#'
F0.17543859649122806
sS'"'
F0.010732492621411323
sg13
F0.013386880856760375
sS'$'
F0.0075930144267274116
sg14
F0.014656114264396301
sg15
F0.0084196345878588871
sS')'
F0.017953321364452424
sS'('
F0.03350083752093802
sg16
F0.096376723191411481
sg17
F0.0079459674215335719
sS'.'
F0.00084552295594825396
sg18
F0.0029295444558371173
sg19
F0.0017708517797060384
sg20
F0.071594232126651197
sS':'
F0.021540118470651591
sg21
F0.024978335117500128
sg22
F0.00077558459688990584
sg23
F0.077038059100839371
sg24
F0.029985007496251874
sS'`'
F0.17543859649122806
sg25
F0.01047531753306272
sg26
F0.085470085470085472
sg27
F0.093457943925233655
sg28
F0.056497175141242938
sg29
F0.032414910858995137
sg30
F0.0046419867703377041
sg31
F0.033670033670033669
sg32
F0.0041859978372344514
sg33
F0.07874015748031496
sg34
F0.0061218243036424858
sg35
F0.012682308180088777
sS"'"
F0.17543859649122806
sg36
F0.018621973929236497
sg37
F0.017286084701815037
sg38
F0.14925373134328357
sg39
F0.14925373134328357
ssS','
(dp43
g2
F0.0037636432066240123
sg4
F0.0070638097480574527
sg5
F0.056497175141242938
sg6
F0.028585841600807127
sS','
F0.00070338327354575508
sg7
F0.026084894474745081
sg8
F0.013183915622940015
sg9
F0.030744103377047607
sg10
F0.032362459546925564
sg11
F0.018190838432280469
sg12
F0.0024343733517263764
sS'#'
F0.17543859649122806
sS'"'
F0.0026831231553528308
sg13
F0.040160642570281124
sS'$'
F0.0075930144267274116
sg14
F0.11831481333439924
sg15
F0.00084196345878588866
sS')'
F0.26929982046678635
sS'('
F0.01675041876046901
sg16
F0.029279004513846529
sg17
F0.0039729837107667859
sS'.'
F0.00084552295594825396
sg18
F0.0029295444558371173
sg19
F0.017708517797060383
sg20
F0.086719774125239485
sS':'
F0.0053850296176628978
sg21
F0.13406739052862313
sg22
F0.13456392756039867
sg23
F0.016097504886742553
sg24
F0.014992503748125937
sS'`'
F0.17543859649122806
sg25
F0.0065470734581642006
sg26
F0.59829059829059827
sg27
F0.093457943925233655
sg28
F0.056497175141242938
sg29
F0.032414910858995137
sg30
F0.074271788325403265
sg31
F0.033670033670033669
sg32
F0.0013953326124114837
sg33
F0.07874015748031496
sg34
F0.0030609121518212429
sg35
F0.12048192771084339
sS"'"
F0.17543859649122806
sg36
F0.074487895716945987
sg37
F0.095073465859982706
sg38
F0.14925373134328357
sg39
F0.29850746268656714
ssg7
(dp44
g2
F0.0037636432066240123
sg4
F0.0023546032493524842
sg5
F0.056497175141242938
sg6
F0.0033630401883302501
sS','
F0.011957515650277835
sg7
F0.0023713540431586438
sg8
F0.15161502966381016
sg9
F0.0014411298457991067
sg10
F0.1941747572815534
sg11
F0.0016537125847527698
sg12
F0.004057288919543961
sS'#'
F0.17543859649122806
sS'"'
F0.0080493694660584928
sg13
F0.013386880856760375
sS'$'
F0.0075930144267274116
sg14
F0.004796546486529699
sg15
F0.0016839269175717773
sS')'
F0.017953321364452424
sS'('
F0.01675041876046901
sg16
F0.0024399170428205438
sg17
F0.0039729837107667859
sS'.'
F0.00084552295594825396
sg18
F0.0014647722279185586
sg19
F0.1700017708517797
sg20
F0.034284561863466775
sS':'
F0.016155088852988692
sg21
F0.074425243411326905
sg22
F0.005429092178229341
sg23
F0.0034494653328734043
sg24
F0.014992503748125937
sS'`'
F0.17543859649122806
sg25
F0.017022390991226922
sg26
F0.085470085470085472
sg27
F0.093457943925233655
sg28
F0.056497175141242938
sg29
F0.016207455429497569
sg30
F0.0069629801555065561
sg31
F0.13468013468013468
sg32
F0.0010464994593086128
sg33
F0.07874015748031496
sg34
F0.0030609121518212429
sg35
F0.095117311350665826
sS"'"
F0.17543859649122806
sg36
F0.055865921787709494
sg37
F0.0086430423509075184
sg38
F0.14925373134328357
sg39
F0.14925373134328357
ssg8
(dp45
g2
F0.0037636432066240123
sg4
F0.0023546032493524842
sg5
F0.056497175141242938
sg6
F0.0016815200941651251
sS','
F0.03868608004501653
sg7
F0.0023713540431586438
sg8
F0.0065919578114700074
sg9
F0.00048037661526636886
sg10
F0.010787486515641855
sg11
F0.0016537125847527698
sg12
F0.00040572889195439609
sS'#'
F0.17543859649122806
sS'"'
F0.010732492621411323
sg13
F0.013386880856760375
sS'$'
F0.0075930144267274116
sg14
F0.013323740240360274
sg15
F0.0025258903763576658
sS')'
F0.017953321364452424
sS'('
F0.01675041876046901
sg16
F0.0012199585214102719
sg17
F0.0039729837107667859
sS'.'
F0.00084552295594825396
sg18
F0.0029295444558371173
sg19
F0.0035417035594120768
sg20
F0.0010083694665725521
sS':'
F0.016155088852988692
sg21
F0.011214762705816384
sg22
F0.0011633768953348588
sg23
F0.0011498217776244682
sg24
F0.014992503748125937
sS'`'
F0.17543859649122806
sg25
F0.0026188293832656801
sg26
F0.085470085470085472
sg27
F0.093457943925233655
sg28
F0.056497175141242938
sg29
F0.016207455429497569
sg30
F0.001160496692584426
sg31
F0.033670033670033669
sg32
F0.0038371646841315801
sg33
F0.07874015748031496
sg34
F0.0030609121518212429
sg35
F0.0063411540900443885
sS"'"
F0.17543859649122806
sg36
F0.018621973929236497
sg37
F0.0086430423509075184
sg38
F0.14925373134328357
sg39
F0.14925373134328357
ssg9
(dp46
g2
F0.19570944674444862
sg4
F0.058865081233812101
sg5
F0.056497175141242938
sg6
F0.045401042542458379
sS','
F0.062601111345572197
sg7
F0.10196822385582167
sg8
F0.0065919578114700074
sg9
F0.089350050439544609
sg10
F0.021574973031283709
sg11
F0.099222755085166189
sg12
F0.23085973952205138
sS'#'
F0.17543859649122806
sS'"'
F0.10195867990340757
sg13
F0.093708165997322623
sS'$'
F0.0075930144267274116
sg14
F0.0079942441442161644
sg15
F0.04209817293929443
sS')'
F0.017953321364452424
sS'('
F0.083752093802345051
sg16
F0.056118091984872512
sg17
F0.21056813667063967
sS'.'
F0.00084552295594825396
sg18
F0.049802255749230993
sg19
F0.0088542588985301915
sg20
F0.11495411918927094
sS':'
F0.048465266558966075
sg21
F0.013253810470510271
sg22
F0.010082599759568775
sg23
F0.10463378176382661
sg24
F0.19490254872563717
sS'`'
F0.17543859649122806
sg25
F0.14010737200471388
sg26
F0.085470085470085472
sg27
F0.093457943925233655
sg28
F0.62146892655367236
sg29
F0.42139384116693679
sg30
F0.038296390855286064
sg31
F0.033670033670033669
sg32
F0.1091847769211986
sg33
F0.15748031496062992
sg34
F0.0030609121518212429
sg35
F0.0063411540900443885
sS"'"
F0.17543859649122806
sg36
F0.11173184357541899
sg37
F0.086430423509075191
sg38
F0.14925373134328357
sg39
F0.14925373134328357
ssg10
(dp47
g2
F0.0037636432066240123
sg4
F0.0023546032493524842
sg5
F0.056497175141242938
sg6
F0.0016815200941651251
sS','
F0.018287965112189632
sg7
F0.0047427080863172875
sg8
F0.0065919578114700074
sg9
F0.00048037661526636886
sg10
F0.010787486515641855
sg11
F0.006614850339011079
sg12
F0.0020286444597719805
sS'#'
F0.17543859649122806
sS'"'
F0.018781862087469816
sg13
F0.013386880856760375
sS'$'
F0.0075930144267274116
sg14
F0.0037306472673008769
sg15
F0.0025258903763576658
sS')'
F0.017953321364452424
sS'('
F0.01675041876046901
sg16
F0.0024399170428205438
sg17
F0.0039729837107667859
sS'.'
F0.0016910459118965079
sg18
F0.0014647722279185586
sg19
F0.0017708517797060384
sg20
F0.0040334778662902086
sS':'
F0.010770059235325796
sg21
F0.0091757149411224957
sg22
F0.00077558459688990584
sg23
F0.0034494653328734043
sg24
F0.014992503748125937
sS'`'
F0.17543859649122806
sg25
F0.00130941469163284
sg26
F0.085470085470085472
sg27
F0.093457943925233655
sg28
F0.056497175141242938
sg29
F0.016207455429497569
sg30
F0.001160496692584426
sg31
F0.033670033670033669
sg32
F0.0020929989186172257
sg33
F0.07874015748031496
sg34
F0.0030609121518212429
sg35
F0.019023462270133167
sS"'"
F0.17543859649122806
sg36
F0.018621973929236497
sg37
F0.0086430423509075184
sg38
F0.14925373134328357
sg39
F0.14925373134328357
ssg11
(dp48
g2
F0.0037636432066240123
sg4
F0.0047092064987049684
sg5
F0.056497175141242938
sg6
F0.0033630401883302501
sS','
F0.035872546950833507
sg7
F0.0023713540431586438
sg8
F0.2636783124588003
sg9
F0.0024018830763318445
sg10
F0.24811218985976266
sg11
F0.0016537125847527698
sg12
F0.0056802044873615455
sS'#'
F0.17543859649122806
sS'"'
F0.080493694660584925
sg13
F0.013386880856760375
sS'$'
F0.0075930144267274116
sg14
F0.037039997868201564
sg15
F0.0033678538351435547
sS')'
F0.017953321364452424
sS'('
F0.01675041876046901
sg16
F0.0012199585214102719
sg17
F0.0039729837107667859
sS'.'
F0.00084552295594825396
sg18
F0.0014647722279185586
sg19
F0.18593943686913403
sg20
F0.039326409196329536
sS':'
F0.010770059235325796
sg21
F0.0050976194117347195
sg22
F0.0395548144413852
sg23
F0.0022996435552489363
sg24
F0.029985007496251874
sS'`'
F0.17543859649122806
sg25
F0.027497708524289642
sg26
F0.085470085470085472
sg27
F0.093457943925233655
sg28
F0.11299435028248588
sg29
F0.032414910858995137
sg30
F0.0058024834629221301
sg31
F0.43771043771043772
sg32
F0.0010464994593086128
sg33
F0.07874015748031496
sg34
F0.0030609121518212429
sg35
F0.031705770450221944
sS"'"
F0.17543859649122806
sg36
F0.018621973929236497
sg37
F0.0086430423509075184
sg38
F0.14925373134328357
sg39
F0.14925373134328357
ssg12
(dp49
g2
F0.0037636432066240123
sg4
F0.19072286319755122
sg5
F0.056497175141242938
sg6
F0.080712964519926003
sS','
F0.13856650488851374
sg7
F0.11382499407161489
sg8
F0.046143704680290047
sg9
F0.0043233895373973198
sg10
F0.064724919093851127
sg11
F0.18852323466181575
sg12
F0.0028401022436807728
sS'#'
F0.17543859649122806
sS'"'
F0.1046418030587604
sg13
F0.36144578313253012
sS'$'
F0.0075930144267274116
sg14
F0.004796546486529699
sg15
F0.22143638966068871
sS')'
F0.035906642728904849
sS'('
F0.10050251256281406
sg16
F0.1781139441258997
sg17
F0.0039729837107667859
sS'.'
F0.0016910459118965079
sg18
F0.112787461549729
sg19
F0.010625110678236231
sg20
F0.048401734395482503
sS':'
F0.10231556273559506
sg21
F0.013253810470510271
sg22
F0.0023267537906697176
sg23
F0.20466827641715532
sg24
F0.16491754122938529
sS'`'
F0.17543859649122806
sg25
F0.11391907817205708
sg26
F0.085470085470085472
sg27
F0.56074766355140193
sg28
F0.056497175141242938
sg29
F0.11345218800648298
sg30
F0.022049437159104096
sg31
F0.033670033670033669
sg32
F0.34150765688771062
sg33
F0.07874015748031496
sg34
F0.0061218243036424858
sg35
F0.0063411540900443885
sS"'"
F0.17543859649122806
sg36
F0.018621973929236497
sg37
F0.0086430423509075184
sg38
F0.14925373134328357
sg39
F0.14925373134328357
ssS'#'
(dp50
g2
F0.0037636432066240123
sg4
F0.0023546032493524842
sg5
F0.056497175141242938
sg6
F0.0016815200941651251
sS','
F0.00070338327354575508
sg7
F0.0023713540431586438
sg8
F0.0065919578114700074
sg9
F0.00048037661526636886
sg10
F0.010787486515641855
sg11
F0.0016537125847527698
sg12
F0.00040572889195439609
sS'#'
F0.17543859649122806
sS'"'
F0.0026831231553528308
sg13
F0.013386880856760375
sS'$'
F0.0075930144267274116
sg14
F0.00026647480480720547
sg15
F0.00084196345878588866
sS')'
F0.017953321364452424
sS'('
F0.01675041876046901
sg16
F0.0012199585214102719
sg17
F0.0039729837107667859
sS'.'
F0.00084552295594825396
sg18
F0.0014647722279185586
sg19
F0.0017708517797060384
sg20
F0.0010083694665725521
sS':'
F0.0053850296176628978
sg21
F0.00050976194117347202
sg22
F0.00038779229844495292
sg23
F0.0011498217776244682
sg24
F0.014992503748125937
sS'`'
F0.17543859649122806
sg25
F0.00130941469163284
sg26
F0.085470085470085472
sg27
F0.093457943925233655
sg28
F0.056497175141242938
sg29
F0.016207455429497569
sg30
F0.001160496692584426
sg31
F0.033670033670033669
sg32
F0.00034883315310287093
sg33
F0.07874015748031496
sg34
F0.0030609121518212429
sg35
F0.0063411540900443885
sS"'"
F0.17543859649122806
sg36
F0.018621973929236497
sg37
F0.0086430423509075184
sg38
F0.14925373134328357
sg39
F0.14925373134328357
ssS'"'
(dp51
g2
F0.015054572826496049
sg4
F0.0070638097480574527
sg5
F0.056497175141242938
sg6
F0.011770640659155876
sS','
F0.061897728072026446
sg7
F0.0071140621294759308
sg8
F0.0065919578114700074
sg9
F0.010087908920593747
sg10
F0.010787486515641855
sg11
F0.011575988093269389
sg12
F0.0056802044873615455
sS'#'
F0.17543859649122806
sS'"'
F0.010732492621411323
sg13
F0.013386880856760375
sS'$'
F0.0075930144267274116
sg14
F0.010658992192288219
sg15
F0.088406163172518315
sS')'
F0.017953321364452424
sS'('
F0.01675041876046901
sg16
F0.0036598755642308161
sg17
F0.027810885975367503
sS'.'
F0.0033820918237930158
sg18
F0.0043943166837556759
sg19
F0.0088542588985301915
sg20
F0.0040334778662902086
sS':'
F0.064620355411954766
sg21
F0.0076464291176020797
sg22
F0.0015511691937798117
sg23
F0.0068989306657468085
sg24
F0.014992503748125937
sS'`'
F0.17543859649122806
sg25
F0.0065470734581642006
sg26
F0.085470085470085472
sg27
F0.093457943925233655
sg28
F0.056497175141242938
sg29
F0.032414910858995137
sg30
F0.0034814900777532781
sg31
F0.033670033670033669
sg32
F0.0069766630620574184
sg33
F0.07874015748031496
sg34
F0.0061218243036424858
sg35
F0.019023462270133167
sS"'"
F0.17543859649122806
sg36
F0.018621973929236497
sg37
F0.0086430423509075184
sg38
F0.14925373134328357
sg39
F0.14925373134328357
ssg13
(dp52
g2
F0.0037636432066240123
sg4
F0.025900635742877327
sg5
F0.056497175141242938
sg6
F0.011770640659155876
sS','
F0.00070338327354575508
sg7
F0.0071140621294759308
sg8
F0.0065919578114700074
sg9
F0.00048037661526636886
sg10
F0.010787486515641855
sg11
F0.0082685629237638485
sg12
F0.00040572889195439609
sS'#'
F0.17543859649122806
sS'"'
F0.0026831231553528308
sg13
F0.013386880856760375
sS'$'
F0.0075930144267274116
sg14
F0.0021317984384576437
sg15
F0.00084196345878588866
sS')'
F0.017953321364452424
sS'('
F0.01675041876046901
sg16
F0.012199585214102721
sg17
F0.0039729837107667859
sS'.'
F0.00084552295594825396
sg18
F0.0014647722279185586
sg19
F0.0070834071188241535
sg20
F0.0020167389331451043
sS':'
F0.0053850296176628978
sg21
F0.0015292858235204159
sg22
F0.00038779229844495292
sg23
F0.029895366218236172
sg24
F0.014992503748125937
sS'`'
F0.17543859649122806
sg25
F0.00130941469163284
sg26
F0.085470085470085472
sg27
F0.093457943925233655
sg28
F0.056497175141242938
sg29
F0.016207455429497569
sg30
F0.001160496692584426
sg31
F0.033670033670033669
sg32
F0.00034883315310287093
sg33
F0.07874015748031496
sg34
F0.0030609121518212429
sg35
F0.0063411540900443885
sS"'"
F0.17543859649122806
sg36
F0.018621973929236497
sg37
F0.0086430423509075184
sg38
F0.14925373134328357
sg39
F0.14925373134328357
ssS'$'
(dp53
g2
F0.011290929619872037
sg4
F0.01648222274546739
sg5
F0.056497175141242938
sg6
F0.01008912056499075
sS','
F0.0035169163677287751
sg7
F0.0023713540431586438
sg8
F0.0065919578114700074
sg9
F0.0019215064610654754
sg10
F0.010787486515641855
sg11
F0.0082685629237638485
sg12
F0.0032458311356351687
sS'#'
F0.17543859649122806
sS'"'
F0.0026831231553528308
sg13
F0.02677376171352075
sS'$'
F0.0075930144267274116
sg14
F0.00026647480480720547
sg15
F0.00084196345878588866
sS')'
F0.017953321364452424
sS'('
F0.1675041876046901
sg16
F0.0073197511284616322
sg17
F0.011918951132300359
sS'.'
F0.00084552295594825396
sg18
F0.021971583418778379
sg19
F0.0017708517797060384
sg20
F0.0050418473328627603
sS':'
F0.0053850296176628978
sg21
F0.00050976194117347202
sg22
F0.0019389614922247645
sg23
F0.0045992871104978727
sg24
F0.014992503748125937
sS'`'
F0.17543859649122806
sg25
F0.0078564881497970411
sg26
F0.085470085470085472
sg27
F0.093457943925233655
sg28
F0.056497175141242938
sg29
F0.016207455429497569
sg30
F0.002320993385168852
sg31
F0.033670033670033669
sg32
F0.016395158195834932
sg33
F0.07874015748031496
sg34
F0.0030609121518212429
sg35
F0.0063411540900443885
sS"'"
F0.17543859649122806
sg36
F0.037243947858472994
sg37
F0.0086430423509075184
sg38
F0.14925373134328357
sg39
F0.14925373134328357
ssg14
(dp54
g2
F0.39894617990214531
sg4
F0.14598540145985403
sg5
F0.056497175141242938
sg6
F0.028585841600807127
sS','
F0.04712667932756559
sg7
F0.026084894474745081
sg8
F0.013183915622940015
sg9
F0.40880049959167991
sg10
F0.010787486515641855
sg11
F0.046303952373077557
sg12
F0.43453564328315825
sS'#'
F0.17543859649122806
sS'"'
F0.091226187281996246
sg13
F0.066934404283801874
sS'$'
F0.0075930144267274116
sg14
F0.11991366216324247
sg15
F0.029468721057506104
sS')'
F0.071813285457809697
sS'('
F0.03350083752093802
sg16
F0.035378797120897885
sg17
F0.39729837107667859
sS'.'
F0.00084552295594825396
sg18
F0.03222498901420829
sg19
F0.0053125553391181156
sg20
F0.010083694665725521
sS':'
F0.032310177705977383
sg21
F0.019880715705765408
sg22
F0.051964167991623691
sg23
F0.051741979993101067
sg24
F0.089955022488755615
sS'`'
F0.17543859649122806
sg25
F0.10999083409715857
sg26
F0.085470085470085472
sg27
F0.093457943925233655
sg28
F0.056497175141242938
sg29
F0.016207455429497569
sg30
F0.22745735174654752
sg31
F0.033670033670033669
sg32
F0.10534761223706701
sg33
F0.47244094488188981
sg34
F0.0030609121518212429
sg35
F0.038046924540266334
sS"'"
F0.17543859649122806
sg36
F0.35381750465549344
sg37
F0.23336214347450301
sg38
F0.14925373134328357
sg39
F0.14925373134328357
ssS')'
(dp55
g2
F0.0075272864132480246
sg4
F0.0023546032493524842
sg5
F0.056497175141242938
sg6
F0.0016815200941651251
sS','
F0.00070338327354575508
sg7
F0.0023713540431586438
sg8
F0.0065919578114700074
sg9
F0.00096075323053273771
sg10
F0.010787486515641855
sg11
F0.0033074251695055395
sg12
F0.00040572889195439609
sS'#'
F0.17543859649122806
sS'"'
F0.0026831231553528308
sg13
F0.013386880856760375
sS'$'
F0.0075930144267274116
sg14
F0.0015988488288432329
sg15
F0.0050517807527153315
sS')'
F0.017953321364452424
sS'('
F0.01675041876046901
sg16
F0.0012199585214102719
sg17
F0.0079459674215335719
sS'.'
F0.00084552295594825396
sg18
F0.0014647722279185586
sg19
F0.0017708517797060384
sg20
F0.0010083694665725521
sS':'
F0.0053850296176628978
sg21
F0.0025488097058673598
sg22
F0.0081436382673440114
sg23
F0.0022996435552489363
sg24
F0.014992503748125937
sS'`'
F0.17543859649122806
sg25
F0.00130941469163284
sg26
F0.085470085470085472
sg27
F0.093457943925233655
sg28
F0.056497175141242938
sg29
F0.016207455429497569
sg30
F0.013925960311013112
sg31
F0.033670033670033669
sg32
F0.00034883315310287093
sg33
F0.07874015748031496
sg34
F0.0030609121518212429
sg35
F0.0063411540900443885
sS"'"
F0.17543859649122806
sg36
F0.018621973929236497
sg37
F0.0086430423509075184
sg38
F0.14925373134328357
sg39
F0.14925373134328357
ssS'('
(dp56
g2
F0.0037636432066240123
sg4
F0.0047092064987049684
sg5
F0.056497175141242938
sg6
F0.0016815200941651251
sS','
F0.0014067665470915102
sg7
F0.0023713540431586438
sg8
F0.0065919578114700074
sg9
F0.00096075323053273771
sg10
F0.010787486515641855
sg11
F0.0016537125847527698
sg12
F0.0016229155678175843
sS'#'
F0.17543859649122806
sS'"'
F0.010732492621411323
sg13
F0.013386880856760375
sS'$'
F0.0075930144267274116
sg14
F0.0023982732432648495
sg15
F0.0067357076702871093
sS')'
F0.017953321364452424
sS'('
F0.01675041876046901
sg16
F0.0012199585214102719
sg17
F0.0039729837107667859
sS'.'
F0.00084552295594825396
sg18
F0.0029295444558371173
sg19
F0.0035417035594120768
sg20
F0.0020167389331451043
sS':'
F0.0053850296176628978
sg21
F0.0045878574705612478
sg22
F0.0058168844766742934
sg23
F0.0022996435552489363
sg24
F0.014992503748125937
sS'`'
F0.17543859649122806
sg25
F0.0026188293832656801
sg26
F0.085470085470085472
sg27
F0.093457943925233655
sg28
F0.056497175141242938
sg29
F0.016207455429497569
sg30
F0.001160496692584426
sg31
F0.033670033670033669
sg32
F0.0010464994593086128
sg33
F0.07874015748031496
sg34
F0.0030609121518212429
sg35
F0.012682308180088777
sS"'"
F0.17543859649122806
sg36
F0.018621973929236497
sg37
F0.0086430423509075184
sg38
F0.14925373134328357
sg39
F0.14925373134328357
ssg16
(dp57
g2
F0.0037636432066240123
sg4
F0.0047092064987049684
sg5
F0.056497175141242938
sg6
F0.0016815200941651251
sS','
F0.045016529506928325
sg7
F0.0023713540431586438
sg8
F0.20435069215557022
sg9
F0.00096075323053273771
sg10
F0.29126213592233008
sg11
F0.0016537125847527698
sg12
F0.0016229155678175843
sS'#'
F0.17543859649122806
sS'"'
F0.042929970485645293
sg13
F0.013386880856760375
sS'$'
F0.0075930144267274116
sg14
F0.042635968769152877
sg15
F0.0016839269175717773
sS')'
F0.05385996409335727
sS'('
F0.01675041876046901
sg16
F0.0012199585214102719
sg17
F0.019864918553833929
sS'.'
F0.00084552295594825396
sg18
F0.0014647722279185586
sg19
F0.24437754559943331
sg20
F0.05747705959463547
sS':'
F0.010770059235325796
sg21
F0.04893714635265331
sg22
F0.063985729243417236
sg23
F0.0022996435552489363
sg24
F0.014992503748125937
sS'`'
F0.17543859649122806
sg25
F0.036663611365719523
sg26
F0.085470085470085472
sg27
F0.093457943925233655
sg28
F0.056497175141242938
sg29
F0.016207455429497569
sg30
F0.0081234768480909821
sg31
F0.13468013468013468
sg32
F0.00034883315310287093
sg33
F0.07874015748031496
sg34
F0.0030609121518212429
sg35
F0.114140773620799
sS"'"
F0.17543859649122806
sg36
F0.037243947858472994
sg37
F0.017286084701815037
sg38
F0.14925373134328357
sg39
F0.14925373134328357
ssg17
(dp58
g2
F0.0037636432066240123
sg4
F0.0023546032493524842
sg5
F0.056497175141242938
sg6
F0.0016815200941651251
sS','
F0.00070338327354575508
sg7
F0.0047427080863172875
sg8
F0.0065919578114700074
sg9
F0.00048037661526636886
sg10
F0.010787486515641855
sg11
F0.0016537125847527698
sg12
F0.00040572889195439609
sS'#'
F0.17543859649122806
sS'"'
F0.0026831231553528308
sg13
F0.013386880856760375
sS'$'
F0.0075930144267274116
sg14
F0.020252085165347617
sg15
F0.00084196345878588866
sS')'
F0.017953321364452424
sS'('
F0.01675041876046901
sg16
F0.0012199585214102719
sg17
F0.0039729837107667859
sS'.'
F0.00084552295594825396
sg18
F0.0014647722279185586
sg19
F0.0053125553391181156
sg20
F0.0020167389331451043
sS':'
F0.0053850296176628978
sg21
F0.011724524646989856
sg22
F0.053903129483848455
sg23
F0.0011498217776244682
sg24
F0.014992503748125937
sS'`'
F0.17543859649122806
sg25
F0.00130941469163284
sg26
F0.085470085470085472
sg27
F0.093457943925233655
sg28
F0.056497175141242938
sg29
F0.016207455429497569
sg30
F0.001160496692584426
sg31
F0.033670033670033669
sg32
F0.00034883315310287093
sg33
F0.07874015748031496
sg34
F0.0030609121518212429
sg35
F0.050729232720355108
sS"'"
F0.17543859649122806
sg36
F0.018621973929236497
sg37
F0.0086430423509075184
sg38
F0.14925373134328357
sg39
F0.14925373134328357
ssS'.'
(dp59
g2
F0.0037636432066240123
sg4
F0.0094184129974099369
sg5
F0.16949152542372883
sg6
F0.055490163107449128
sS','
F0.00070338327354575508
sg7
F0.023713540431586435
sg8
F0.0065919578114700074
sg9
F0.026901090454916655
sg10
F0.010787486515641855
sg11
F0.031420539110302625
sg12
F0.0020286444597719805
sS'#'
F0.17543859649122806
sS'"'
F0.0026831231553528308
sg13
F0.107095046854083
sS'$'
F0.0075930144267274116
sg14
F0.10872172036133984
sg15
F0.00084196345878588866
sS')'
F0.071813285457809697
sS'('
F0.01675041876046901
sg16
F0.056118091984872512
sg17
F0.0039729837107667859
sS'.'
F0.00084552295594825396
sg18
F0.0029295444558371173
sg19
F0.035417035594120766
sg20
F0.054451951194917816
sS':'
F0.043080236941303182
sg21
F0.1417138196462252
sg22
F0.058556637065187891
sg23
F0.021846613774864895
sg24
F0.014992503748125937
sS'`'
F0.17543859649122806
sg25
F0.00130941469163284
sg26
F0.085470085470085472
sg27
F0.093457943925233655
sg28
F0.056497175141242938
sg29
F0.032414910858995137
sg30
F0.058024834629221304
sg31
F0.033670033670033669
sg32
F0.00069766630620574186
sg33
F0.07874015748031496
sg34
F0.0030609121518212429
sg35
F0.063411540900443888
sS"'"
F0.17543859649122806
sg36
F0.037243947858472994
sg37
F0.060501296456352632
sg38
F0.14925373134328357
sg39
F0.14925373134328357
ssg18
(dp60
g2
F0.0037636432066240123
sg4
F0.084765716976689429
sg5
F0.056497175141242938
sg6
F0.095846645367412137
sS','
F0.0084405992825490606
sg7
F0.042684372776855585
sg8
F0.0065919578114700074
sg9
F0.030744103377047607
sg10
F0.010787486515641855
sg11
F0.036381676864560938
sg12
F0.00040572889195439609
sS'#'
F0.17543859649122806
sS'"'
F0.0080493694660584928
sg13
F0.053547523427041499
sS'$'
F0.0075930144267274116
sg14
F0.042369493964345674
sg15
F0.0042098172939294435
sS')'
F0.035906642728904849
sS'('
F0.01675041876046901
sg16
F0.054898133463462243
sg17
F0.0039729837107667859
sS'.'
F0.0016910459118965079
sg18
F0.0014647722279185586
sg19
F0.026562776695590578
sg20
F0.036301300796611875
sS':'
F0.0053850296176628978
sg21
F0.04842738441147984
sg22
F0.013184938147128398
sg23
F0.043693227549729791
sg24
F0.089955022488755615
sS'`'
F0.17543859649122806
sg25
F0.0065470734581642006
sg26
F0.085470085470085472
sg27
F0.093457943925233655
sg28
F0.056497175141242938
sg29
F0.032414910858995137
sg30
F0.0266914239294418
sg31
F0.033670033670033669
sg32
F0.0024418320717200966
sg33
F0.07874015748031496
sg34
F0.012243648607284972
sg35
F0.044388078630310718
sS"'"
F0.17543859649122806
sg36
F0.018621973929236497
sg37
F0.017286084701815037
sg38
F0.14925373134328357
sg39
F0.14925373134328357
ssg19
(dp61
g2
F0.0037636432066240123
sg4
F0.028255238992229811
sg5
F0.056497175141242938
sg6
F0.0067260803766605003
sS','
F0.059084194977843424
sg7
F0.0379416646905383
sg8
F0.046143704680290047
sg9
F0.0014411298457991067
sg10
F0.064724919093851127
sg11
F0.024805688771291547
sg12
F0.00081145778390879217
sS'#'
F0.17543859649122806
sS'"'
F0.13952240407834721
sg13
F0.013386880856760375
sS'$'
F0.0075930144267274116
sg14
F0.0037306472673008769
sg15
F0.069882967079228753
sS')'
F0.017953321364452424
sS'('
F0.01675041876046901
sg16
F0.063437843113334141
sg17
F0.0039729837107667859
sS'.'
F0.0025365688678447621
sg18
F0.011718177823348469
sg19
F0.0035417035594120768
sg20
F0.011092064132298074
sS':'
F0.053850296176628974
sg21
F0.0056073813529081921
sg22
F0.00038779229844495292
sg23
F0.0505921582154766
sg24
F0.19490254872563717
sS'`'
F0.17543859649122806
sg25
F0.052376587665313605
sg26
F0.085470085470085472
sg27
F0.093457943925233655
sg28
F0.056497175141242938
sg29
F0.016207455429497569
sg30
F0.002320993385168852
sg31
F0.033670033670033669
sg32
F0.03069731747305264
sg33
F0.07874015748031496
sg34
F0.0061218243036424858
sg35
F0.0063411540900443885
sS"'"
F0.17543859649122806
sg36
F0.018621973929236497
sg37
F0.0086430423509075184
sg38
F0.14925373134328357
sg39
F0.14925373134328357
ssg20
(dp62
g2
F0.011290929619872037
sg4
F0.058865081233812101
sg5
F0.056497175141242938
sg6
F0.05885320329577938
sS','
F0.052753745515931628
sg7
F0.18022290728005691
sg8
F0.065919578114700075
sg9
F0.0048037661526636891
sg10
F0.032362459546925564
sg11
F0.12402844385645774
sg12
F0.010954680082768694
sS'#'
F0.17543859649122806
sS'"'
F0.045613093640998123
sg13
F0.040160642570281124
sS'$'
F0.0075930144267274116
sg14
F0.014922589069203508
sg15
F0.059779405573798093
sS')'
F0.05385996409335727
sS'('
F0.03350083752093802
sg16
F0.1085763084055142
sg17
F0.0039729837107667859
sS'.'
F0.0016910459118965079
sg18
F0.013182950051267028
sg19
F0.065521515849123427
sg20
F0.073610971059796304
sS':'
F0.059235325794291874
sg21
F0.035173573940969566
sg22
F0.011633768953348587
sg23
F0.054041623548350001
sg24
F0.044977511244377807
sS'`'
F0.17543859649122806
sg25
F0.07070839334817336
sg26
F0.085470085470085472
sg27
F0.093457943925233655
sg28
F0.056497175141242938
sg29
F0.11345218800648298
sg30
F0.0034814900777532781
sg31
F0.067340067340067339
sg32
F0.012557993511703353
sg33
F0.07874015748031496
sg34
F0.14998469543924089
sg35
F0.031705770450221944
sS"'"
F0.17543859649122806
sg36
F0.037243947858472994
sg37
F0.017286084701815037
sg38
F0.14925373134328357
sg39
F0.14925373134328357
ssS':'
(dp63
g2
F0.0037636432066240123
sg4
F0.0023546032493524842
sg5
F0.056497175141242938
sg6
F0.0050445602824953752
sS','
F0.00070338327354575508
sg7
F0.009485416172634575
sg8
F0.0065919578114700074
sg9
F0.0052841427679300576
sg10
F0.010787486515641855
sg11
F0.0049611377542583095
sg12
F0.00040572889195439609
sS'#'
F0.17543859649122806
sS'"'
F0.0080493694660584928
sg13
F0.013386880856760375
sS'$'
F0.0075930144267274116
sg14
F0.015189063874010714
sg15
F0.00084196345878588866
sS')'
F0.10771992818671454
sS'('
F0.01675041876046901
sg16
F0.0036598755642308161
sg17
F0.0039729837107667859
sS'.'
F0.00084552295594825396
sg18
F0.0014647722279185586
sg19
F0.0070834071188241535
sg20
F0.0040334778662902086
sS':'
F0.0053850296176628978
sg21
F0.032624764235102209
sg22
F0.0069802613720091524
sg23
F0.0057491088881223406
sg24
F0.014992503748125937
sS'`'
F0.17543859649122806
sg25
F0.00130941469163284
sg26
F0.085470085470085472
sg27
F0.093457943925233655
sg28
F0.056497175141242938
sg29
F0.016207455429497569
sg30
F0.0058024834629221301
sg31
F0.033670033670033669
sg32
F0.00069766630620574186
sg33
F0.07874015748031496
sg34
F0.0030609121518212429
sg35
F0.012682308180088777
sS"'"
F0.17543859649122806
sg36
F0.018621973929236497
sg37
F0.025929127052722559
sg38
F0.14925373134328357
sg39
F0.14925373134328357
ssg21
(dp64
g2
F0.28980052691004893
sg4
F0.098893336472804336
sg5
F0.11299435028248588
sg6
F0.03699344207163275
sS','
F0.028838714215375958
sg7
F0.040313018733696943
sg8
F0.019775873434410021
sg9
F0.25700148916750737
sg10
F0.010787486515641855
sg11
F0.019844551017033238
sg12
F0.092506187365602316
sS'#'
F0.17543859649122806
sS'"'
F0.042929970485645293
sg13
F0.093708165997322623
sS'$'
F0.0075930144267274116
sg14
F0.069549924054680634
sg15
F0.04209817293929443
sS')'
F0.017953321364452424
sS'('
F0.03350083752093802
sg16
F0.029279004513846529
sg17
F0.13110846245530394
sS'.'
F0.0025365688678447621
sg18
F0.021971583418778379
sg19
F0.0017708517797060384
sg20
F0.0050418473328627603
sS':'
F0.037695207323640283
sg21
F0.011724524646989856
sg22
F0.030247799278706328
sg23
F0.055191445325974468
sg24
F0.074962518740629688
sS'`'
F0.17543859649122806
sg25
F0.068089563964907687
sg26
F0.085470085470085472
sg27
F0.093457943925233655
sg28
F0.056497175141242938
sg29
F0.016207455429497569
sg30
F0.19844493443193686
sg31
F0.033670033670033669
sg32
F0.063487633864722504
sg33
F0.15748031496062992
sg34
F0.0061218243036424858
sg35
F0.025364616360177554
sS"'"
F0.17543859649122806
sg36
F0.18621973929236499
sg37
F0.10371650821089023
sg38
F0.14925373134328357
sg39
F0.14925373134328357
ssg22
(dp65
g2
F0.048927361686112156
sg4
F0.032964445490934781
sg5
F0.2824858757062147
sg6
F0.033630401883302505
sS','
F0.11465147358795807
sg7
F0.009485416172634575
sg8
F0.032959789057350038
sg9
F0.039390882451842246
sg10
F0.021574973031283709
sg11
F0.056226227881594176
sg12
F0.12050148091045564
sS'#'
F0.17543859649122806
sS'"'
F0.056345586262409444
sg13
F0.040160642570281124
sS'$'
F0.0075930144267274116
sg14
F0.011724891411517042
sg15
F0.18018018018018017
sS')'
F0.10771992818671454
sS'('
F0.40201005025125625
sg16
F0.052458216420641697
sg17
F0.10329757647993644
sS'.'
F0.00084552295594825396
sg18
F0.058590889116742345
sg19
F0.0017708517797060384
sg20
F0.0080669557325804171
sS':'
F0.10770059235325795
sg21
F0.0050976194117347195
sg22
F0.34978865319734753
sg23
F0.028745544440611705
sg24
F0.089955022488755615
sS'`'
F0.17543859649122806
sg25
F0.13748854262144822
sg26
F0.085470085470085472
sg27
F0.093457943925233655
sg28
F0.056497175141242938
sg29
F0.016207455429497569
sg30
F0.018567947081350816
sg31
F0.033670033670033669
sg32
F0.1451145916907943
sg33
F0.07874015748031496
sg34
F0.0061218243036424858
sg35
F0.20291693088142043
sS"'"
F0.17543859649122806
sg36
F0.018621973929236497
sg37
F0.017286084701815037
sg38
F0.29850746268656714
sg39
F0.14925373134328357
ssg23
(dp66
g2
F0.0037636432066240123
sg4
F0.0070638097480574527
sg5
F0.056497175141242938
sg6
F0.0016815200941651251
sS','
F0.0063304494619117954
sg7
F0.0071140621294759308
sg8
F0.0065919578114700074
sg9
F0.00048037661526636886
sg10
F0.010787486515641855
sg11
F0.0033074251695055395
sg12
F0.00081145778390879217
sS'#'
F0.17543859649122806
sS'"'
F0.010732492621411323
sg13
F0.013386880856760375
sS'$'
F0.0075930144267274116
sg14
F0.0018653236336504384
sg15
F0.0084196345878588871
sS')'
F0.017953321364452424
sS'('
F0.03350083752093802
sg16
F0.0060997926070513603
sg17
F0.0039729837107667859
sS'.'
F0.00084552295594825396
sg18
F0.57419071334407501
sg19
F0.024791924915884538
sg20
F0.10487042452354542
sS':'
F0.010770059235325796
sg21
F0.0030585716470408319
sg22
F0.0023267537906697176
sg23
F0.011498217776244681
sg24
F0.014992503748125937
sS'`'
F0.17543859649122806
sg25
F0.043210684823883724
sg26
F0.085470085470085472
sg27
F0.093457943925233655
sg28
F0.056497175141242938
sg29
F0.016207455429497569
sg30
F0.001160496692584426
sg31
F0.033670033670033669
sg32
F0.0017441657655143546
sg33
F0.07874015748031496
sg34
F0.80808080808080807
sg35
F0.0063411540900443885
sS"'"
F0.17543859649122806
sg36
F0.037243947858472994
sg37
F0.0086430423509075184
sg38
F0.14925373134328357
sg39
F0.14925373134328357
ssg24
(dp67
g2
F0.0037636432066240123
sg4
F0.0023546032493524842
sg5
F0.056497175141242938
sg6
F0.0050445602824953752
sS','
F0.0035169163677287751
sg7
F0.009485416172634575
sg8
F0.0065919578114700074
sg9
F0.0019215064610654754
sg10
F0.010787486515641855
sg11
F0.0016537125847527698
sg12
F0.00081145778390879217
sS'#'
F0.17543859649122806
sS'"'
F0.0080493694660584928
sg13
F0.02677376171352075
sS'$'
F0.0075930144267274116
sg14
F0.0021317984384576437
sg15
F0.0050517807527153315
sS')'
F0.017953321364452424
sS'('
F0.01675041876046901
sg16
F0.0048798340856410875
sg17
F0.0079459674215335719
sS'.'
F0.00084552295594825396
sg18
F0.0014647722279185586
sg19
F0.0053125553391181156
sg20
F0.0050418473328627603
sS':'
F0.016155088852988692
sg21
F0.0015292858235204159
sg22
F0.00077558459688990584
sg23
F0.0068989306657468085
sg24
F0.014992503748125937
sS'`'
F0.17543859649122806
sg25
F0.0078564881497970411
sg26
F0.085470085470085472
sg27
F0.093457943925233655
sg28
F0.056497175141242938
sg29
F0.016207455429497569
sg30
F0.002320993385168852
sg31
F0.033670033670033669
sg32
F0.0027906652248229674
sg33
F0.07874015748031496
sg34
F0.0030609121518212429
sg35
F0.0063411540900443885
sS"'"
F0.17543859649122806
sg36
F0.018621973929236497
sg37
F0.0086430423509075184
sg38
F0.14925373134328357
sg39
F0.14925373134328357
ssS'`'
(dp68
g2
F0.0037636432066240123
sg4
F0.0023546032493524842
sg5
F0.056497175141242938
sg6
F0.0016815200941651251
sS','
F0.00070338327354575508
sg7
F0.0023713540431586438
sg8
F0.0065919578114700074
sg9
F0.00048037661526636886
sg10
F0.010787486515641855
sg11
F0.0016537125847527698
sg12
F0.00040572889195439609
sS'#'
F0.17543859649122806
sS'"'
F0.0026831231553528308
sg13
F0.013386880856760375
sS'$'
F0.0075930144267274116
sg14
F0.00026647480480720547
sg15
F0.00084196345878588866
sS')'
F0.017953321364452424
sS'('
F0.01675041876046901
sg16
F0.0012199585214102719
sg17
F0.0039729837107667859
sS'.'
F0.00084552295594825396
sg18
F0.0014647722279185586
sg19
F0.0017708517797060384
sg20
F0.0010083694665725521
sS':'
F0.0053850296176628978
sg21
F0.00050976194117347202
sg22
F0.00038779229844495292
sg23
F0.0011498217776244682
sg24
F0.014992503748125937
sS'`'
F0.17543859649122806
sg25
F0.00130941469163284
sg26
F0.085470085470085472
sg27
F0.093457943925233655
sg28
F0.056497175141242938
sg29
F0.016207455429497569
sg30
F0.001160496692584426
sg31
F0.033670033670033669
sg32
F0.00034883315310287093
sg33
F0.07874015748031496
sg34
F0.0030609121518212429
sg35
F0.0063411540900443885
sS"'"
F0.17543859649122806
sg36
F0.018621973929236497
sg37
F0.0086430423509075184
sg38
F0.14925373134328357
sg39
F0.14925373134328357
ssg25
(dp69
g2
F0.0075272864132480246
sg4
F0.01177301624676242
sg5
F0.11299435028248588
sg6
F0.01008912056499075
sS','
F0.088626292466765136
sg7
F0.0047427080863172875
sg8
F0.0065919578114700074
sg9
F0.02065619445645386
sg10
F0.010787486515641855
sg11
F0.006614850339011079
sg12
F0.00040572889195439609
sS'#'
F0.17543859649122806
sS'"'
F0.048296216796350953
sg13
F0.013386880856760375
sS'$'
F0.0075930144267274116
sg14
F0.042635968769152877
sg15
F0.058937442115012208
sS')'
F0.10771992818671454
sS'('
F0.03350083752093802
sg16
F0.0060997926070513603
sg17
F0.0039729837107667859
sS'.'
F0.0025365688678447621
sg18
F0.0014647722279185586
sg19
F0.015937666017354347
sg20
F0.015125541998588283
sS':'
F0.059235325794291874
sg21
F0.057603099352602334
sg22
F0.046922868111839301
sg23
F0.013797861331493617
sg24
F0.029985007496251874
sS'`'
F0.17543859649122806
sg25
F0.00130941469163284
sg26
F0.085470085470085472
sg27
F0.093457943925233655
sg28
F0.056497175141242938
sg29
F0.048622366288492702
sg30
F0.031333410699779504
sg31
F0.033670033670033669
sg32
F0.0020929989186172257
sg33
F0.07874015748031496
sg34
F0.0030609121518212429
sg35
F0.063411540900443888
sS"'"
F0.17543859649122806
sg36
F0.018621973929236497
sg37
F0.017286084701815037
sg38
F0.14925373134328357
sg39
F0.14925373134328357
ssg26
(dp70
g2
F0.0037636432066240123
sg4
F0.0023546032493524842
sg5
F0.056497175141242938
sg6
F0.0016815200941651251
sS','
F0.00070338327354575508
sg7
F0.0023713540431586438
sg8
F0.0065919578114700074
sg9
F0.00048037661526636886
sg10
F0.010787486515641855
sg11
F0.0016537125847527698
sg12
F0.00040572889195439609
sS'#'
F0.17543859649122806
sS'"'
F0.0026831231553528308
sg13
F0.013386880856760375
sS'$'
F0.0075930144267274116
sg14
F0.00026647480480720547
sg15
F0.0058937442115012204
sS')'
F0.017953321364452424
sS'('
F0.01675041876046901
sg16
F0.0012199585214102719
sg17
F0.0039729837107667859
sS'.'
F0.00084552295594825396
sg18
F0.0014647722279185586
sg19
F0.0017708517797060384
sg20
F0.0010083694665725521
sS':'
F0.0053850296176628978
sg21
F0.00050976194117347202
sg22
F0.00038779229844495292
sg23
F0.0011498217776244682
sg24
F0.014992503748125937
sS'`'
F0.17543859649122806
sg25
F0.00130941469163284
sg26
F0.085470085470085472
sg27
F0.093457943925233655
sg28
F0.056497175141242938
sg29
F0.016207455429497569
sg30
F0.001160496692584426
sg31
F0.033670033670033669
sg32
F0.00034883315310287093
sg33
F0.07874015748031496
sg34
F0.0030609121518212429
sg35
F0.0063411540900443885
sS"'"
F0.17543859649122806
sg36
F0.018621973929236497
sg37
F0.0086430423509075184
sg38
F0.14925373134328357
sg39
F0.14925373134328357
ssg27
(dp71
g2
F0.0037636432066240123
sg4
F0.0023546032493524842
sg5
F0.056497175141242938
sg6
F0.0016815200941651251
sS','
F0.0014067665470915102
sg7
F0.0023713540431586438
sg8
F0.0065919578114700074
sg9
F0.00048037661526636886
sg10
F0.010787486515641855
sg11
F0.0016537125847527698
sg12
F0.00040572889195439609
sS'#'
F0.17543859649122806
sS'"'
F0.0026831231553528308
sg13
F0.013386880856760375
sS'$'
F0.0075930144267274116
sg14
F0.00026647480480720547
sg15
F0.0016839269175717773
sS')'
F0.017953321364452424
sS'('
F0.01675041876046901
sg16
F0.0012199585214102719
sg17
F0.0039729837107667859
sS'.'
F0.00084552295594825396
sg18
F0.0014647722279185586
sg19
F0.0017708517797060384
sg20
F0.0020167389331451043
sS':'
F0.0053850296176628978
sg21
F0.00050976194117347202
sg22
F0.00038779229844495292
sg23
F0.0022996435552489363
sg24
F0.014992503748125937
sS'`'
F0.17543859649122806
sg25
F0.00130941469163284
sg26
F0.085470085470085472
sg27
F0.093457943925233655
sg28
F0.056497175141242938
sg29
F0.016207455429497569
sg30
F0.001160496692584426
sg31
F0.033670033670033669
sg32
F0.00069766630620574186
sg33
F0.07874015748031496
sg34
F0.0030609121518212429
sg35
F0.0063411540900443885
sS"'"
F0.17543859649122806
sg36
F0.018621973929236497
sg37
F0.0086430423509075184
sg38
F0.14925373134328357
sg39
F0.14925373134328357
ssg28
(dp72
g2
F0.0037636432066240123
sg4
F0.0023546032493524842
sg5
F0.056497175141242938
sg6
F0.0016815200941651251
sS','
F0.00070338327354575508
sg7
F0.0023713540431586438
sg8
F0.0065919578114700074
sg9
F0.00048037661526636886
sg10
F0.010787486515641855
sg11
F0.0049611377542583095
sg12
F0.0020286444597719805
sS'#'
F0.17543859649122806
sS'"'
F0.0026831231553528308
sg13
F0.013386880856760375
sS'$'
F0.0075930144267274116
sg14
F0.00026647480480720547
sg15
F0.00084196345878588866
sS')'
F0.017953321364452424
sS'('
F0.01675041876046901
sg16
F0.0012199585214102719
sg17
F0.011918951132300359
sS'.'
F0.00084552295594825396
sg18
F0.0029295444558371173
sg19
F0.0017708517797060384
sg20
F0.0020167389331451043
sS':'
F0.0053850296176628978
sg21
F0.00050976194117347202
sg22
F0.00038779229844495292
sg23
F0.0011498217776244682
sg24
F0.014992503748125937
sS'`'
F0.17543859649122806
sg25
F0.00130941469163284
sg26
F0.085470085470085472
sg27
F0.093457943925233655
sg28
F0.056497175141242938
sg29
F0.016207455429497569
sg30
F0.002320993385168852
sg31
F0.033670033670033669
sg32
F0.00069766630620574186
sg33
F0.07874015748031496
sg34
F0.0030609121518212429
sg35
F0.0063411540900443885
sS"'"
F0.17543859649122806
sg36
F0.018621973929236497
sg37
F0.0086430423509075184
sg38
F0.14925373134328357
sg39
F0.14925373134328357
ssg29
(dp73
g2
F0.0037636432066240123
sg4
F0.0047092064987049684
sg5
F0.056497175141242938
sg6
F0.013452160753321001
sS','
F0.0021101498206372651
sg7
F0.011856770215793217
sg8
F0.0065919578114700074
sg9
F0.00048037661526636886
sg10
F0.021574973031283709
sg11
F0.0049611377542583095
sg12
F0.0024343733517263764
sS'#'
F0.17543859649122806
sS'"'
F0.0080493694660584928
sg13
F0.013386880856760375
sS'$'
F0.0075930144267274116
sg14
F0.00053294960961441094
sg15
F0.0033678538351435547
sS')'
F0.017953321364452424
sS'('
F0.01675041876046901
sg16
F0.0097596681712821751
sg17
F0.0039729837107667859
sS'.'
F0.00084552295594825396
sg18
F0.0029295444558371173
sg19
F0.0035417035594120768
sg20
F0.0070585862660078645
sS':'
F0.0053850296176628978
sg21
F0.0015292858235204159
sg22
F0.00077558459688990584
sg23
F0.0068989306657468085
sg24
F0.014992503748125937
sS'`'
F0.17543859649122806
sg25
F0.0052376587665313602
sg26
F0.085470085470085472
sg27
F0.093457943925233655
sg28
F0.056497175141242938
sg29
F0.016207455429497569
sg30
F0.001160496692584426
sg31
F0.033670033670033669
sg32
F0.00069766630620574186
sg33
F0.07874015748031496
sg34
F0.0061218243036424858
sg35
F0.0063411540900443885
sS"'"
F0.17543859649122806
sg36
F0.018621973929236497
sg37
F0.0086430423509075184
sg38
F0.14925373134328357
sg39
F0.14925373134328357
ssg30
(dp74
g2
F0.018818216033120061
sg4
F0.018836825994819874
sg5
F0.056497175141242938
sg6
F0.01008912056499075
sS','
F0.026025181121192936
sg7
F0.014228124258951862
sg8
F0.0065919578114700074
sg9
F0.0052841427679300576
sg10
F0.010787486515641855
sg11
F0.042996527203572013
sg12
F0.019069257921856618
sS'#'
F0.17543859649122806
sS'"'
F0.013415615776764154
sg13
F0.040160642570281124
sS'$'
F0.96431283219438124
sg14
F0.011458416606709836
sg15
F0.010945524964216552
sS')'
F0.05385996409335727
sS'('
F0.01675041876046901
sg16
F0.0390386726851287
sg17
F0.027810885975367503
sS'.'
F0.00084552295594825396
sg18
F0.070309066940090814
sg19
F0.0017708517797060384
sg20
F0.027225975597458908
sS':'
F0.25848142164781907
sg21
F0.0015292858235204159
sg22
F0.017062861131577928
sg23
F0.011498217776244681
sg24
F0.014992503748125937
sS'`'
F0.17543859649122806
sg25
F0.031425952599188164
sg26
F0.085470085470085472
sg27
F0.093457943925233655
sg28
F0.056497175141242938
sg29
F0.016207455429497569
sg30
F0.15666705349889751
sg31
F0.033670033670033669
sg32
F0.056162137649562217
sg33
F0.07874015748031496
sg34
F0.0030609121518212429
sg35
F0.0063411540900443885
sS"'"
F0.17543859649122806
sg36
F0.055865921787709494
sg37
F0.0086430423509075184
sg38
F0.14925373134328357
sg39
F0.14925373134328357
ssg31
(dp75
g2
F0.0037636432066240123
sg4
F0.0023546032493524842
sg5
F0.056497175141242938
sg6
F0.0016815200941651251
sS','
F0.0056270661883660407
sg7
F0.0047427080863172875
sg8
F0.0065919578114700074
sg9
F0.00048037661526636886
sg10
F0.010787486515641855
sg11
F0.0016537125847527698
sg12
F0.00040572889195439609
sS'#'
F0.17543859649122806
sS'"'
F0.010732492621411323
sg13
F0.013386880856760375
sS'$'
F0.0075930144267274116
sg14
F0.00026647480480720547
sg15
F0.0033678538351435547
sS')'
F0.017953321364452424
sS'('
F0.01675041876046901
sg16
F0.0012199585214102719
sg17
F0.0039729837107667859
sS'.'
F0.00084552295594825396
sg18
F0.0014647722279185586
sg19
F0.0017708517797060384
sg20
F0.0010083694665725521
sS':'
F0.0053850296176628978
sg21
F0.00050976194117347202
sg22
F0.00038779229844495292
sg23
F0.0011498217776244682
sg24
F0.014992503748125937
sS'`'
F0.17543859649122806
sg25
F0.0091659028414298807
sg26
F0.085470085470085472
sg27
F0.093457943925233655
sg28
F0.056497175141242938
sg29
F0.016207455429497569
sg30
F0.001160496692584426
sg31
F0.033670033670033669
sg32
F0.0017441657655143546
sg33
F0.07874015748031496
sg34
F0.0030609121518212429
sg35
F0.0063411540900443885
sS"'"
F0.17543859649122806
sg36
F0.018621973929236497
sg37
F0.0086430423509075184
sg38
F0.14925373134328357
sg39
F0.14925373134328357
ssg32
(dp76
g2
F0.0037636432066240123
sg4
F0.13185778196373912
sg5
F0.056497175141242938
sg6
F0.40524634269379517
sS','
F0.080889076457761833
sg7
F0.061655205122124732
sg8
F0.032959789057350038
sg9
F0.055243310755632422
sg10
F0.032362459546925564
sg11
F0.072763353729121877
sg12
F0.007708848947133526
sS'#'
F0.17543859649122806
sS'"'
F0.11000804936946607
sg13
F0.066934404283801874
sS'$'
F0.0075930144267274116
sg14
F0.24462387081301465
sg15
F0.11366506693609497
sS')'
F0.089766606822262118
sS'('
F0.11725293132328307
sg16
F0.11345614249115529
sg17
F0.0039729837107667859
sS'.'
F0.00084552295594825396
sg18
F0.0029295444558371173
sg19
F0.031875332034708694
sg20
F0.13512150852072199
sS':'
F0.075390414647280565
sg21
F0.24060763623387876
sg22
F0.038391437546050337
sg23
F0.11728182131769575
sg24
F0.014992503748125937
sS'`'
F0.17543859649122806
sg25
F0.043210684823883724
sg26
F0.085470085470085472
sg27
F0.093457943925233655
sg28
F0.11299435028248588
sg29
F0.19448946515397081
sg30
F0.091679238714169664
sg31
F0.033670033670033669
sg32
F0.014302159277217707
sg33
F0.07874015748031496
sg34
F0.0030609121518212429
sg35
F0.063411540900443888
sS"'"
F0.17543859649122806
sg36
F0.074487895716945987
sg37
F0.36300777873811579
sg38
F0.14925373134328357
sg39
F0.14925373134328357
ssg33
(dp77
g2
F0.0037636432066240123
sg4
F0.0023546032493524842
sg5
F0.056497175141242938
sg6
F0.0016815200941651251
sS','
F0.0042202996412745303
sg7
F0.0023713540431586438
sg8
F0.0065919578114700074
sg9
F0.00048037661526636886
sg10
F0.010787486515641855
sg11
F0.0016537125847527698
sg12
F0.00040572889195439609
sS'#'
F0.17543859649122806
sS'"'
F0.0026831231553528308
sg13
F0.013386880856760375
sS'$'
F0.0075930144267274116
sg14
F0.00053294960961441094
sg15
F0.00084196345878588866
sS')'
F0.017953321364452424
sS'('
F0.01675041876046901
sg16
F0.0012199585214102719
sg17
F0.0039729837107667859
sS'.'
F0.00084552295594825396
sg18
F0.0014647722279185586
sg19
F0.0017708517797060384
sg20
F0.0010083694665725521
sS':'
F0.0053850296176628978
sg21
F0.00050976194117347202
sg22
F0.00038779229844495292
sg23
F0.0011498217776244682
sg24
F0.014992503748125937
sS'`'
F0.17543859649122806
sg25
F0.0026188293832656801
sg26
F0.085470085470085472
sg27
F0.093457943925233655
sg28
F0.056497175141242938
sg29
F0.016207455429497569
sg30
F0.001160496692584426
sg31
F0.033670033670033669
sg32
F0.00034883315310287093
sg33
F0.07874015748031496
sg34
F0.0030609121518212429
sg35
F0.0063411540900443885
sS"'"
F0.17543859649122806
sg36
F0.018621973929236497
sg37
F0.0086430423509075184
sg38
F0.14925373134328357
sg39
F0.14925373134328357
ssg34
(dp78
g2
F0.0037636432066240123
sg4
F0.0023546032493524842
sg5
F0.11299435028248588
sg6
F0.0067260803766605003
sS','
F0.0098473658296405701
sg7
F0.0023713540431586438
sg8
F0.15161502966381016
sg9
F0.00096075323053273771
sg10
F0.032362459546925564
sg11
F0.0016537125847527698
sg12
F0.0028401022436807728
sS'#'
F0.17543859649122806
sS'"'
F0.024148108398175477
sg13
F0.013386880856760375
sS'$'
F0.0075930144267274116
sg14
F0.019452660750926002
sg15
F0.00084196345878588866
sS')'
F0.035906642728904849
sS'('
F0.01675041876046901
sg16
F0.0024399170428205438
sg17
F0.0039729837107667859
sS'.'
F0.0016910459118965079
sg18
F0.0014647722279185586
sg19
F0.13104303169824685
sg20
F0.013108803065443177
sS':'
F0.010770059235325796
sg21
F0.023449049293979712
sg22
F0.016675068833132974
sg23
F0.0011498217776244682
sg24
F0.014992503748125937
sS'`'
F0.17543859649122806
sg25
F0.01047531753306272
sg26
F0.085470085470085472
sg27
F0.093457943925233655
sg28
F0.056497175141242938
sg29
F0.016207455429497569
sg30
F0.001160496692584426
sg31
F0.20202020202020202
sg32
F0.00034883315310287093
sg33
F0.07874015748031496
sg34
F0.0030609121518212429
sg35
F0.038046924540266334
sS"'"
F0.17543859649122806
sg36
F0.018621973929236497
sg37
F0.0086430423509075184
sg38
F0.14925373134328357
sg39
F0.14925373134328357
ssg35
(dp79
g2
F0.0075272864132480246
sg4
F0.0047092064987049684
sg5
F0.056497175141242938
sg6
F0.0016815200941651251
sS','
F0.0021101498206372651
sg7
F0.0023713540431586438
sg8
F0.0065919578114700074
sg9
F0.0019215064610654754
sg10
F0.010787486515641855
sg11
F0.0033074251695055395
sg12
F0.021097902381628598
sS'#'
F0.17543859649122806
sS'"'
F0.0053662463107056616
sg13
F0.013386880856760375
sS'$'
F0.0075930144267274116
sg14
F0.00026647480480720547
sg15
F0.0058937442115012204
sS')'
F0.017953321364452424
sS'('
F0.01675041876046901
sg16
F0.0024399170428205438
sg17
F0.023837902264600717
sS'.'
F0.00084552295594825396
sg18
F0.0043943166837556759
sg19
F0.0017708517797060384
sg20
F0.0010083694665725521
sS':'
F0.0053850296176628978
sg21
F0.00050976194117347202
sg22
F0.025982083995811846
sg23
F0.0011498217776244682
sg24
F0.014992503748125937
sS'`'
F0.17543859649122806
sg25
F0.0026188293832656801
sg26
F0.085470085470085472
sg27
F0.093457943925233655
sg28
F0.056497175141242938
sg29
F0.016207455429497569
sg30
F0.0034814900777532781
sg31
F0.033670033670033669
sg32
F0.0020929989186172257
sg33
F0.07874015748031496
sg34
F0.0030609121518212429
sg35
F0.025364616360177554
sS"'"
F0.17543859649122806
sg36
F0.037243947858472994
sg37
F0.0086430423509075184
sg38
F0.14925373134328357
sg39
F0.14925373134328357
ssS"'"
(dp80
g2
F0.0037636432066240123
sg4
F0.0023546032493524842
sg5
F0.056497175141242938
sg6
F0.0016815200941651251
sS','
F0.00070338327354575508
sg7
F0.0023713540431586438
sg8
F0.0065919578114700074
sg9
F0.00048037661526636886
sg10
F0.010787486515641855
sg11
F0.0016537125847527698
sg12
F0.00040572889195439609
sS'#'
F0.17543859649122806
sS'"'
F0.0026831231553528308
sg13
F0.013386880856760375
sS'$'
F0.0075930144267274116
sg14
F0.00026647480480720547
sg15
F0.00084196345878588866
sS')'
F0.017953321364452424
sS'('
F0.01675041876046901
sg16
F0.0012199585214102719
sg17
F0.0039729837107667859
sS'.'
F0.00084552295594825396
sg18
F0.0014647722279185586
sg19
F0.0017708517797060384
sg20
F0.0010083694665725521
sS':'
F0.0053850296176628978
sg21
F0.00050976194117347202
sg22
F0.00038779229844495292
sg23
F0.0011498217776244682
sg24
F0.014992503748125937
sS'`'
F0.17543859649122806
sg25
F0.00130941469163284
sg26
F0.085470085470085472
sg27
F0.093457943925233655
sg28
F0.056497175141242938
sg29
F0.016207455429497569
sg30
F0.001160496692584426
sg31
F0.033670033670033669
sg32
F0.00034883315310287093
sg33
F0.07874015748031496
sg34
F0.0030609121518212429
sg35
F0.0063411540900443885
sS"'"
F0.17543859649122806
sg36
F0.018621973929236497
sg37
F0.0086430423509075184
sg38
F0.14925373134328357
sg39
F0.14925373134328357
ssg36
(dp81
g2
F0.011290929619872037
sg4
F0.0023546032493524842
sg5
F0.056497175141242938
sg6
F0.0016815200941651251
sS','
F0.0014067665470915102
sg7
F0.0047427080863172875
sg8
F0.0065919578114700074
sg9
F0.00048037661526636886
sg10
F0.021574973031283709
sg11
F0.0016537125847527698
sg12
F0.0060859333793159415
sS'#'
F0.17543859649122806
sS'"'
F0.0026831231553528308
sg13
F0.02677376171352075
sS'$'
F0.0075930144267274116
sg14
F0.00026647480480720547
sg15
F0.0042098172939294435
sS')'
F0.017953321364452424
sS'('
F0.01675041876046901
sg16
F0.0024399170428205438
sg17
F0.031783869686134288
sS'.'
F0.00084552295594825396
sg18
F0.0014647722279185586
sg19
F0.0035417035594120768
sg20
F0.0010083694665725521
sS':'
F0.010770059235325796
sg21
F0.00050976194117347202
sg22
F0.00038779229844495292
sg23
F0.0011498217776244682
sg24
F0.014992503748125937
sS'`'
F0.17543859649122806
sg25
F0.0039282440748985206
sg26
F0.085470085470085472
sg27
F0.093457943925233655
sg28
F0.056497175141242938
sg29
F0.016207455429497569
sg30
F0.001160496692584426
sg31
F0.033670033670033669
sg32
F0.0045348309903373218
sg33
F0.07874015748031496
sg34
F0.0030609121518212429
sg35
F0.0063411540900443885
sS"'"
F0.17543859649122806
sg36
F0.018621973929236497
sg37
F0.0086430423509075184
sg38
F0.14925373134328357
sg39
F0.14925373134328357
ssg37
(dp82
g2
F0.0037636432066240123
sg4
F0.0094184129974099369
sg5
F0.056497175141242938
sg6
F0.0067260803766605003
sS','
F0.0014067665470915102
sg7
F0.014228124258951862
sg8
F0.0065919578114700074
sg9
F0.00048037661526636886
sg10
F0.010787486515641855
sg11
F0.0049611377542583095
sg12
F0.0060859333793159415
sS'#'
F0.17543859649122806
sS'"'
F0.0026831231553528308
sg13
F0.013386880856760375
sS'$'
F0.0075930144267274116
sg14
F0.0015988488288432329
sg15
F0.0033678538351435547
sS')'
F0.017953321364452424
sS'('
F0.01675041876046901
sg16
F0.008539709649871904
sg17
F0.0039729837107667859
sS'.'
F0.00084552295594825396
sg18
F0.0029295444558371173
sg19
F0.0070834071188241535
sg20
F0.011092064132298074
sS':'
F0.0053850296176628978
sg21
F0.0015292858235204159
sg22
F0.00038779229844495292
sg23
F0.017247326664367024
sg24
F0.014992503748125937
sS'`'
F0.17543859649122806
sg25
F0.018331805682859761
sg26
F0.085470085470085472
sg27
F0.093457943925233655
sg28
F0.056497175141242938
sg29
F0.016207455429497569
sg30
F0.010444470233259834
sg31
F0.033670033670033669
sg32
F0.0062789967558516766
sg33
F0.07874015748031496
sg34
F0.0030609121518212429
sg35
F0.0063411540900443885
sS"'"
F0.17543859649122806
sg36
F0.018621973929236497
sg37
F0.0086430423509075184
sg38
F0.14925373134328357
sg39
F0.14925373134328357
ssg38
(dp83
g2
F0.0037636432066240123
sg4
F0.0023546032493524842
sg5
F0.056497175141242938
sg6
F0.0016815200941651251
sS','
F0.00070338327354575508
sg7
F0.0023713540431586438
sg8
F0.0065919578114700074
sg9
F0.00048037661526636886
sg10
F0.010787486515641855
sg11
F0.0016537125847527698
sg12
F0.00040572889195439609
sS'#'
F0.17543859649122806
sS'"'
F0.0026831231553528308
sg13
F0.013386880856760375
sS'$'
F0.0075930144267274116
sg14
F0.00026647480480720547
sg15
F0.00084196345878588866
sS')'
F0.017953321364452424
sS'('
F0.01675041876046901
sg16
F0.0012199585214102719
sg17
F0.0039729837107667859
sS'.'
F0.00084552295594825396
sg18
F0.0014647722279185586
sg19
F0.0017708517797060384
sg20
F0.0010083694665725521
sS':'
F0.0053850296176628978
sg21
F0.00050976194117347202
sg22
F0.00077558459688990584
sg23
F0.0011498217776244682
sg24
F0.014992503748125937
sS'`'
F0.17543859649122806
sg25
F0.00130941469163284
sg26
F0.085470085470085472
sg27
F0.093457943925233655
sg28
F0.056497175141242938
sg29
F0.016207455429497569
sg30
F0.001160496692584426
sg31
F0.033670033670033669
sg32
F0.00034883315310287093
sg33
F0.07874015748031496
sg34
F0.0030609121518212429
sg35
F0.0063411540900443885
sS"'"
F0.17543859649122806
sg36
F0.018621973929236497
sg37
F0.0086430423509075184
sg38
F0.14925373134328357
sg39
F0.14925373134328357
ssg39
(dp84
g2
F0.0037636432066240123
sg4
F0.0023546032493524842
sg5
F0.056497175141242938
sg6
F0.0016815200941651251
sS','
F0.0014067665470915102
sg7
F0.0023713540431586438
sg8
F0.0065919578114700074
sg9
F0.00048037661526636886
sg10
F0.010787486515641855
sg11
F0.0016537125847527698
sg12
F0.00040572889195439609
sS'#'
F0.17543859649122806
sS'"'
F0.0026831231553528308
sg13
F0.013386880856760375
sS'$'
F0.0075930144267274116
sg14
F0.00026647480480720547
sg15
F0.00084196345878588866
sS')'
F0.017953321364452424
sS'('
F0.01675041876046901
sg16
F0.0012199585214102719
sg17
F0.0039729837107667859
sS'.'
F0.00084552295594825396
sg18
F0.0014647722279185586
sg19
F0.0017708517797060384
sg20
F0.0010083694665725521
sS':'
F0.0053850296176628978
sg21
F0.00050976194117347202
sg22
F0.00038779229844495292
sg23
F0.0011498217776244682
sg24
F0.014992503748125937
sS'`'
F0.17543859649122806
sg25
F0.00130941469163284
sg26
F0.085470085470085472
sg27
F0.093457943925233655
sg28
F0.056497175141242938
sg29
F0.016207455429497569
sg30
F0.001160496692584426
sg31
F0.033670033670033669
sg32
F0.00034883315310287093
sg33
F0.07874015748031496
sg34
F0.0030609121518212429
sg35
F0.0063411540900443885
sS"'"
F0.17543859649122806
sg36
F0.018621973929236497
sg37
F0.0086430423509075184
sg38
F0.14925373134328357
sg39
F0.14925373134328357
ss.