(dp1
S'1,800'
p2
I2
sS'four'
p3
I7
sS'looking'
p4
I2
sS'eligible'
p5
I3
sS'electricity'
p6
I2
sS'hormone'
p7
I2
sS'regional'
p8
I2
sS'sideline-business'
p9
I2
sS'classifications'
p10
I2
sS'bringing'
p11
I2
sS'disturb'
p12
I3
sS'specialties'
p13
I3
sS'non-violent'
p14
I14
sS'charter'
p15
I3
sS'specially'
p16
I2
sS'270'
p17
I2
sS'elegant'
p18
I2
sS'second'
p19
I17
sS'messiaen'
p20
I2
sS'errors'
p21
I2
sS'contributed'
p22
I5
sS'fingers'
p23
I5
sS'increasing'
p24
I3
sS'shocks'
p25
I4
sS'specialist'
p26
I2
sS'here'
p27
I7
sS'reported'
p28
I10
sS'china'
p29
I12
sS'non-``'
p30
I2
sS'eg&g'
p31
I6
sS'substance'
p32
I2
sS'elaborate'
p33
I2
sS'reports'
p34
I8
sS'karim'
p35
I2
sS'neurologist'
p36
I4
sS'military'
p37
I9
sS'criticism'
p38
I2
sS'golden'
p39
I6
sS'owed'
p40
I3
sS'replace'
p41
I3
sS'brought'
p42
I10
sS'unix'
p43
I4
sS'unit'
p44
I11
sS'opponents'
p45
I2
sS'marketers'
p46
I4
sS'music'
p47
I7
sS'strike'
p48
I2
sS'2680'
p49
I2
sS'until'
p50
I8
sS'relax'
p51
I2
sS'successful'
p52
I4
sS'brings'
p53
I2
sS'5.16'
p54
I2
sS'hurl'
p55
I2
sS'90'
p56
I8
sS'93'
p57
I2
sS'92'
p58
I3
sS'94'
p59
I2
sS'circumstances'
p60
I4
sS'morally'
p61
I2
sS'pursue'
p62
I3
sS'self-styled'
p63
I2
sS'13*slashhere*16'
p64
I2
sS'concepts'
p65
I2
sS'revenues'
p66
I2
sS'example'
p67
I6
sS'unjust'
p68
I2
sS'household'
p69
I2
sS'organized'
p70
I2
sS'currency'
p71
I3
sS'caution'
p72
I2
sS'want'
p73
I10
sS'automobile-parts'
p74
I2
sS'complaining'
p75
I2
sS'damage'
p76
I7
sS'leaguers'
p77
I2
sS'machine'
p78
I3
sS'how'
p79
I20
sS'casualty-loss'
p80
I2
sS'beauty'
p81
I2
sS'modest'
p82
I3
sS'types'
p83
I2
sS'effective'
p84
I7
sS'deutsche'
p85
I2
sS'first-mortgage'
p86
I2
sS'18th'
p87
I2
sS'democratic'
p88
I4
sS'wing'
p89
I2
sS'senators'
p90
I2
sS'welcomed'
p91
I2
sS'misdemeanor'
p92
I2
sS'vary'
p93
I3
sS'ex-dividend'
p94
I2
sS'fit'
p95
I2
sS'72-game'
p96
I2
sS'easier'
p97
I3
sS'lambert'
p98
I2
sS'slate'
p99
I2
sS'educating'
p100
I3
sS'effects'
p101
I2
sS'slats'
p102
I3
sS'debut'
p103
I2
sS'pleasantries'
p104
I2
sS'financial'
p105
I19
sS'series'
p106
I5
sS'substantially'
p107
I2
sS'laboratory'
p108
I3
sS'waive'
p109
I2
sS'mason'
p110
I4
sS'threatened'
p111
I2
sS'7.962'
p112
I2
sS'sensory'
p113
I3
sS'enormous'
p114
I2
sS'nondeductible'
p115
I2
sS'scruff'
p116
I2
sS'1970s'
p117
I4
sS'r.'
p118
I5
sS'108.8'
p119
I2
sS'wash'
p120
I2
sS'179'
p121
I2
sS'seizures'
p122
I2
sS'exchequer'
p123
I2
sS'service'
p124
I8
sS'similarly'
p125
I2
sS'lawsuits'
p126
I5
sS'master'
p127
I6
sS'listed'
p128
I4
sS'nz$'
p129
I2
sS'legs'
p130
I2
sS'bitter'
p131
I2
sS'rewards'
p132
I2
sS'geneva'
p133
I2
sS'predictable'
p134
I2
sS'showed'
p135
I6
sS'tree'
p136
I2
sS'nations'
p137
I5
sS'project'
p138
I3
sS'feeling'
p139
I2
sS'acquisition'
p140
I6
sS'goya'
p141
I6
sS'willingness'
p142
I3
sS'boston'
p143
I4
sS'dozen'
p144
I2
sS'affairs'
p145
I4
sS'responsible'
p146
I4
sS'283-132'
p147
I2
sS'ex-accountant'
p148
I2
sS'concedes'
p149
I3
sS'sidley'
p150
I6
sS'transactions'
p151
I5
sS'object'
p152
I2
sS'wells'
p153
I3
sS'simplify'
p154
I2
sS'affirmation'
p155
I2
sS'blackmailed'
p156
I2
sS'letter'
p157
I5
sS'thriller'
p158
I2
sS'singer'
p159
I2
sS'camp'
p160
I2
sS'purged'
p161
I2
sS'came'
p162
I5
sS'saying'
p163
I5
sS'magisterially'
p164
I2
sS'meetings'
p165
I5
sS'participate'
p166
I2
sS'hungary'
p167
I2
sS'die-hard'
p168
I2
sS'submit'
p169
I2
sS'menu'
p170
I2
sS'interbank'
p171
I3
sS'bush'
p172
I34
sS'rich'
p173
I2
sS'rice'
p174
I2
sS'plate'
p175
I3
sS'klein'
p176
I2
sS'higher-fat'
p177
I2
sS'pocket'
p178
I2
sS'kinji'
p179
I2
sS'altogether'
p180
I3
sS'looting'
p181
I2
sS'jaguar'
p182
I7
sS'greene'
p183
I2
sS'three-year'
p184
I4
sS'release'
p185
I2
sS'saul'
p186
I2
sS'programmatic'
p187
I2
sS'leasing'
p188
I2
sS'disaster'
p189
I2
sS'result'
p190
I12
sS'fail'
p191
I3
sS'resigned'
p192
I6
sS'best'
p193
I5
sS'shupe'
p194
I2
sS'irs'
p195
I16
sS'ira'
p196
I2
sS'pirate'
p197
I2
sS'entrekin'
p198
I2
sS'preserve'
p199
I2
sS'men'
p200
I4
sS'extend'
p201
I3
sS'nature'
p202
I3
sS'ask'
p203
I4
sS'fullscale'
p204
I2
sS'debt'
p205
I5
sS'pity'
p206
I2
sS'accident'
p207
I2
sS'country'
p208
I8
sS'demanded'
p209
I2
sS'planned'
p210
I5
sS'argue'
p211
I4
sS'asked'
p212
I9
sS'irresponsible'
p213
I2
sS'cult'
p214
I3
sS'250'
p215
I3
sS'251'
p216
I2
sS'armored'
p217
I3
sS'billing'
p218
I2
sS'union'
p219
I9
sS'3.89'
p220
I2
sS'.'
I1164
sS'much'
p221
I25
sS'stadium'
p222
I3
sS'privilege'
p223
I6
sS'renk'
p224
I3
sS'life'
p225
I4
sS'sydney'
p226
I2
sS'eastern'
p227
I23
sS'worker'
p228
I2
sS'dave'
p229
I2
sS'worked'
p230
I2
sS'1466.29'
p231
I2
sS'commerce'
p232
I3
sS'castro'
p233
I3
sS'appeals'
p234
I2
sS'played'
p235
I4
sS'laboratorium'
p236
I2
sS'player'
p237
I3
sS'australia'
p238
I3
sS'upscale'
p239
I2
sS'trustee'
p240
I2
sS'hong'
p241
I5
sS'things'
p242
I10
sS'feuding'
p243
I2
sS'harmony'
p244
I2
sS'babies'
p245
I2
sS'european'
p246
I6
sS'fairly'
p247
I3
sS'effortlessly'
p248
I2
sS'middle-aged'
p249
I2
sS'ownership'
p250
I2
sS'tune'
p251
I3
sS'midsized'
p252
I2
sS'academic'
p253
I2
sS'corporate'
p254
I9
sS'financially'
p255
I2
sS'uncombed'
p256
I2
sS'plight'
p257
I2
sS'succeeding'
p258
I4
sS'previous'
p259
I3
sS'ease'
p260
I4
sS'had'
p261
I43
sS'mr.'
p262
I143
sS'easy'
p263
I3
sS'prison'
p264
I2
sS'manfred'
p265
I2
sS'east'
p266
I5
sS'municipal'
p267
I2
sS'posed'
p268
I2
sS'possible'
p269
I9
sS'possibly'
p270
I3
sS'unique'
p271
I2
sS'desire'
p272
I2
sS'misdemeanors'
p273
I2
sS'beneficial'
p274
I3
sS'right'
p275
I9
sS'old'
p276
I12
sS'crowd'
p277
I3
sS'people'
p278
I18
sS'topping'
p279
I2
sS'consultants'
p280
I3
sS'insistence'
p281
I2
sS'fiduciary'
p282
I2
sS'for'
p283
I261
sS'bottom'
p284
I2
sS'myung'
p285
I2
sS'creative'
p286
I3
sS'contributing'
p287
I3
sS'individuals'
p288
I3
sS'eduard'
p289
I3
sS'6,000'
p290
I2
sS'defensive'
p291
I2
sS'losing'
p292
I2
sS'brokerage'
p293
I3
sS'manufacturing'
p294
I3
sS'shaken'
p295
I2
sS'filipino'
p296
I2
sS'dollars'
p297
I6
sS'citizens'
p298
I2
sS'bicentennial'
p299
I2
sS'annualized'
p300
I2
sS'reps.'
p301
I2
sS'slightly'
p302
I3
sS'lifland'
p303
I2
sS'nixon'
p304
I3
sS'consulting'
p305
I3
sS'statements'
p306
I2
sS'facility'
p307
I2
sS'maxwell'
p308
I2
sS'son'
p309
I2
sS'administer'
p310
I3
sS'presenters'
p311
I2
sS'rome-based'
p312
I2
sS'magazines'
p313
I4
sS'consumer-products'
p314
I2
sS'sox'
p315
I4
sS'federal'
p316
I22
sS'defendants'
p317
I3
sS'fabric'
p318
I2
sS'support'
p319
I8
sS'solicitors'
p320
I2
sS'one-time'
p321
I3
sS'authorized'
p322
I2
sS'resulted'
p323
I4
sS'launching'
p324
I2
sS'offer'
p325
I9
sS'nonvoting'
p326
I2
sS'back'
p327
I20
sS'talents'
p328
I2
sS'unamended'
p329
I2
sS'robertson'
p330
I2
sS'redistributionism'
p331
I2
sS'nov.'
p332
I6
sS'inside'
p333
I2
sS'devices'
p334
I12
sS'stolzman'
p335
I2
sS'jan.'
p336
I2
sS'refillable'
p337
I3
sS'150'
p338
I7
sS'later'
p339
I8
sS'proved'
p340
I2
sS'157'
p341
I2
sS'156'
p342
I3
sS'41-lawyer'
p343
I2
sS'steady'
p344
I3
sS"''"
p345
I153
sS'proves'
p346
I2
sS'accounting'
p347
I3
sS'dealer'
p348
I2
sS'negotiations'
p349
I4
sS'floor'
p350
I3
sS'cambodia'
p351
I3
sS'flood'
p352
I2
sS'role'
p353
I6
sS'overturning'
p354
I2
sS'developers'
p355
I2
sS'roll'
p356
I2
sS'greenery'
p357
I3
sS"'s"
p358
I258
sS'get-together'
p359
I3
sS'models'
p360
I2
sS'pitcher-coach'
p361
I2
sS"'d"
p362
I4
sS'invested'
p363
I2
sS"'m"
p364
I5
sS'reorganization'
p365
I3
sS'warm'
p366
I2
sS'time'
p367
I27
sS'push'
p368
I3
sS'overturned'
p369
I2
sS'cincinnati'
p370
I3
sS'chain'
p371
I4
sS'resources'
p372
I5
sS'hole'
p373
I2
sS'hold'
p374
I6
sS'eliminate'
p375
I3
sS'prepaid'
p376
I3
sS'choice'
p377
I3
sS'drexel'
p378
I2
sS'stays'
p379
I2
sS'corp.'
p380
I19
sS'short-range'
p381
I2
sS'unificationism'
p382
I2
sS'leave'
p383
I5
sS'settle'
p384
I2
sS'team'
p385
I9
sS'depository'
p386
I2
sS'prevent'
p387
I3
sS'findings'
p388
I2
sS'soft-spoken'
p389
I2
sS'sign'
p390
I5
sS'current'
p391
I11
sS'falling'
p392
I2
sS'boost'
p393
I5
sS'drafted'
p394
I2
sS'jury'
p395
I3
sS'guise'
p396
I2
sS'address'
p397
I2
sS'alone'
p398
I2
sS'along'
p399
I5
sS'financiers'
p400
I2
sS'brilliant'
p401
I2
sS'studied'
p402
I2
sS'accomplished'
p403
I2
sS'studies'
p404
I4
sS'reclaim'
p405
I2
sS'love'
p406
I2
sS'prefer'
p407
I2
sS'bloody'
p408
I2
sS'fake'
p409
I3
sS'working'
p410
I5
sS'positive'
p411
I2
sS'angry'
p412
I2
sS'opposed'
p413
I3
sS'scope'
p414
I3
sS'``'
p415
I205
sS'subsistence'
p416
I2
sS'apparent'
p417
I2
sS'oregon'
p418
I2
sS'honed'
p419
I2
sS'non-family'
p420
I2
sS'visual'
p421
I2
sS'virtue'
p422
I2
sS'behalf'
p423
I3
sS'valued'
p424
I2
sS'md-80'
p425
I2
sS'originally'
p426
I2
sS'pretend'
p427
I2
sS'believes'
p428
I4
sS'impasse'
p429
I2
sS'zhao'
p430
I2
sS'printing'
p431
I3
sS'stature'
p432
I2
sS'believed'
p433
I2
sS'webster'
p434
I2
sS'1*slashhere*2'
p435
I4
sS'stoll'
p436
I12
sS'allowed'
p437
I5
sS'230'
p438
I2
sS'gimmickry'
p439
I2
sS'savor'
p440
I2
sS's.'
p441
I2
sS'coleman'
p442
I2
sS'five-year'
p443
I2
sS'rigors'
p444
I2
sS'spot'
p445
I2
sS'kalison'
p446
I2
sS'date'
p447
I4
sS'such'
p448
I41
sS'acceptances'
p449
I2
sS'data'
p450
I4
sS'natural'
p451
I3
sS'sectors'
p452
I3
sS'biographical'
p453
I2
sS'sclerosis'
p454
I2
sS'so'
p455
I38
sS'skirmish'
p456
I2
sS'pulled'
p457
I2
sS'12.75'
p458
I2
sS'regulates'
p459
I2
sS'flips'
p460
I2
sS'years'
p461
I38
sS'course'
p462
I4
sS'bucking'
p463
I2
sS'tendency'
p464
I2
sS'middle-management'
p465
I2
sS'limbs'
p466
I2
sS'overhaul'
p467
I2
sS'thumb'
p468
I2
sS'jim'
p469
I2
sS'troubles'
p470
I2
sS'suspicion'
p471
I2
sS'troubled'
p472
I4
sS'petition'
p473
I2
sS'militant'
p474
I2
sS'thereby'
p475
I2
sS'm.w.'
p476
I2
sS'nation'
p477
I7
sS'records'
p478
I2
sS'concocts'
p479
I2
sS'compelled'
p480
I3
sS'non-brain'
p481
I2
sS'quarter'
p482
I8
sS'quartet'
p483
I3
sS'square'
p484
I3
sS'retrieve'
p485
I2
sS'revised'
p486
I2
sS'bovine'
p487
I2
sS'seriously'
p488
I3
sS'protections'
p489
I2
sS'suggesting'
p490
I3
sS'formula'
p491
I2
sS'uptempo'
p492
I2
sS'sheffield'
p493
I2
sS'million'
p494
I80
sS'possibility'
p495
I3
sS'complicated'
p496
I2
sS'besides'
p497
I3
sS'cahoon'
p498
I2
sS'training'
p499
I16
sS'wrong'
p500
I2
sS'chevy'
p501
I2
sS'gordon'
p502
I2
sS'neglect'
p503
I2
sS'clause'
p504
I3
sS'one'
p505
I64
sS'specifically'
p506
I3
sS'spanish'
p507
I2
sS'vote'
p508
I4
sS'open'
p509
I9
sS'kuan'
p510
I2
sS'city'
p511
I3
sS'wrath'
p512
I2
sS'bite'
p513
I2
sS'structured'
p514
I2
sS'36-year-old'
p515
I2
sS'indicate'
p516
I2
sS'2'
I5
sS'draft'
p517
I2
sS'suit'
p518
I5
sS'12,275'
p519
I2
sS'forward'
p520
I2
sS'ridiculous'
p521
I2
sS'specialists'
p522
I2
sS':'
I57
sS'procter'
p523
I2
sS'depressed'
p524
I2
sS'sandor'
p525
I2
sS'glossy'
p526
I3
sS'cavalier'
p527
I2
sS'san'
p528
I3
sS'sam'
p529
I2
sS'considerably'
p530
I3
sS'drogoul'
p531
I2
sS'turned'
p532
I3
sS'argument'
p533
I3
sS'jewels'
p534
I2
sS'sad'
p535
I2
sS'picketing'
p536
I2
sS'say'
p537
I21
sS'serials'
p538
I2
sS'fashionable'
p539
I3
sS'aside'
p540
I4
sS'zoo'
p541
I2
sS'note'
p542
I5
sS'283.9'
p543
I2
sS'take'
p544
I12
sS'wanting'
p545
I2
sS'concern'
p546
I12
sS'high-technology'
p547
I2
sS'ironically'
p548
I2
sS'altered'
p549
I2
sS'opposite'
p550
I2
sS'remarks'
p551
I2
sS'knee'
p552
I2
sS'pages'
p553
I3
sS'average'
p554
I19
sS'phil'
p555
I2
sS'trifari'
p556
I4
sS'sale'
p557
I10
sS'managing'
p558
I4
sS'mass.'
p559
I4
sS'liquidity'
p560
I2
sS'laws'
p561
I3
sS'stimulator'
p562
I2
sS'surplus'
p563
I2
sS'sales-tax'
p564
I2
sS'aggressive'
p565
I4
sS'slow'
p566
I3
sS'cloak'
p567
I2
sS'going'
p568
I12
sS'outrage'
p569
I2
sS'congressional'
p570
I8
sS'dispute'
p571
I8
sS'assistant'
p572
I4
sS'outlet'
p573
I2
sS'prime'
p574
I6
sS'borrow'
p575
I2
sS'worried'
p576
I4
sS'roger'
p577
I3
sS'where'
p578
I10
sS'testaments'
p579
I2
sS'surgery'
p580
I7
sS'individual-retirement-account'
p581
I2
sS'representatives'
p582
I2
sS'affecting'
p583
I2
sS'jobs'
p584
I7
sS'screen'
p585
I2
sS'concentrate'
p586
I2
sS'jets'
p587
I2
sS'spark'
p588
I2
sS'abramson'
p589
I2
sS'undermine'
p590
I2
sS'many'
p591
I23
sS'concentrates'
p592
I2
sS'testimonial'
p593
I2
sS'stretch'
p594
I2
sS'west'
p595
I15
sS'airlines'
p596
I8
sS'combined'
p597
I2
sS'motives'
p598
I3
sS'prototype'
p599
I2
sS'wants'
p600
I4
sS'enable'
p601
I3
sS'formed'
p602
I3
sS'centerpiece'
p603
I2
sS'photos'
p604
I2
sS'former'
p605
I17
sS'consultant'
p606
I3
sS'rancor'
p607
I2
sS'policies'
p608
I4
sS'newspaper'
p609
I2
sS'situation'
p610
I4
sS'spotlight'
p611
I2
sS'brow'
p612
I2
sS'engages'
p613
I2
sS'technology'
p614
I3
sS'550,000'
p615
I2
sS'otto'
p616
I2
sS'oceanographic'
p617
I2
sS'singapore'
p618
I9
sS'boosted'
p619
I2
sS'recapture'
p620
I2
sS'tracking'
p621
I2
sS'costs'
p622
I8
sS'779.8'
p623
I2
sS'trains'
p624
I3
sS'minpeco'
p625
I3
sS'216'
p626
I2
sS'summer'
p627
I6
sS'koreagate'
p628
I2
sS'being'
p629
I19
sS'rest'
p630
I5
sS'safeguards'
p631
I2
sS'recycled'
p632
I4
sS'weekly'
p633
I2
sS'brezinski'
p634
I2
sS'dicks'
p635
I2
sS'aspects'
p636
I4
sS'around'
p637
I6
sS'rejoin'
p638
I3
sS'period'
p639
I9
sS'gestures'
p640
I2
sS'traffic'
p641
I4
sS'pop'
p642
I4
sS'world'
p643
I23
sS'postal'
p644
I3
sS'dare'
p645
I2
sS'60'
p646
I7
sS'amputation'
p647
I2
sS'clad'
p648
I2
sS'tsunami'
p649
I2
sS'superiority'
p650
I3
sS'offenders'
p651
I2
sS'seating'
p652
I2
sS'bizarre'
p653
I2
sS'368.3'
p654
I2
sS'13.50'
p655
I2
sS'memories'
p656
I2
sS'sided'
p657
I2
sS'scientific'
p658
I3
sS'power'
p659
I12
sS'retains'
p660
I3
sS'leadership'
p661
I3
sS'industry'
p662
I6
sS'favorite'
p663
I4
sS'side'
p664
I6
sS'tumor'
p665
I2
sS'act'
p666
I5
sS'bond'
p667
I7
sS'image'
p668
I4
sS'her'
p669
I19
sS'philadelphia'
p670
I3
sS'capital-raising'
p671
I2
sS'innovated'
p672
I2
sS'survives'
p673
I2
sS'complete'
p674
I4
sS'lane'
p675
I7
sS'survived'
p676
I2
sS'elimination'
p677
I3
sS'technologies'
p678
I5
sS'aide'
p679
I2
sS'with'
p680
I154
sS'buying'
p681
I7
sS'pull'
p682
I2
sS'october'
p683
I10
sS'8.019'
p684
I2
sS'dependents'
p685
I2
sS'agree'
p686
I4
sS'detailed'
p687
I3
sS'gone'
p688
I3
sS'ad'
p689
I2
sS'pinpointed'
p690
I2
sS'certain'
p691
I7
sS'am'
p692
I5
sS'mundo'
p693
I2
sS'an'
p694
I100
sS'as'
p695
I136
sS'ensuing'
p696
I2
sS'at'
p697
I128
sS'watched'
p698
I2
sS'yogi'
p699
I2
sS'abolish'
p700
I2
sS'tight'
p701
I2
sS'6.25'
p702
I2
sS'deterrant'
p703
I2
sS'congress'
p704
I8
sS'forgettable'
p705
I2
sS'a.'
p706
I10
sS'accounts'
p707
I5
sS'planners'
p708
I2
sS'tricky'
p709
I2
sS'eight-time'
p710
I2
sS'waived'
p711
I2
sS'tricks'
p712
I3
sS'mass'
p713
I3
sS'dyes'
p714
I2
sS'original'
p715
I5
sS'7.14'
p716
I2
sS'neige'
p717
I2
sS'consider'
p718
I4
sS'caused'
p719
I5
sS'daignault'
p720
I2
sS'ceramic'
p721
I2
sS'tours'
p722
I3
sS'improperly'
p723
I2
sS'tv'
p724
I5
sS'riots'
p725
I2
sS'to'
p726
I678
sS'khmer'
p727
I4
sS'calif.'
p728
I3
sS'returned'
p729
I2
sS'candid'
p730
I2
sS'soften'
p731
I2
sS'condition'
p732
I2
sS'illustrated'
p733
I2
sS'long-simmering'
p734
I2
sS'cable'
p735
I2
sS'laying'
p736
I2
sS't.'
p737
I2
sS'sang'
p738
I2
sS'j.c.'
p739
I4
sS'harry'
p740
I2
sS'small'
p741
I11
sS'penalties'
p742
I4
sS'paso'
p743
I2
sS'past'
p744
I12
sS'displays'
p745
I2
sS'pass'
p746
I3
sS'situated'
p747
I2
sS'richard'
p748
I8
sS'section'
p749
I6
sS'scientists'
p750
I6
sS'super-user'
p751
I2
sS'contrast'
p752
I2
sS'full'
p753
I7
sS'diapers'
p754
I2
sS'timberlands'
p755
I2
sS'hours'
p756
I3
sS'citicorp'
p757
I3
sS'november'
p758
I5
sS'compliance'
p759
I3
sS'experience'
p760
I4
sS'prior'
p761
I2
sS'social'
p762
I3
sS'action'
p763
I4
sS'via'
p764
I2
sS'followed'
p765
I3
sS'enactment'
p766
I2
sS'mohandas'
p767
I2
sS'pulls'
p768
I2
sS'orwellian'
p769
I2
sS'montgoris'
p770
I2
sS'fragrance'
p771
I2
sS'6'
I3
sS'more'
p772
I78
sS'initiated'
p773
I2
sS'company'
p774
I45
sS'tested'
p775
I3
sS'objections'
p776
I2
sS'keeping'
p777
I5
sS'science'
p778
I2
sS'sent'
p779
I6
sS'morgan'
p780
I2
sS'mehl'
p781
I3
sS'pianist*slashhere*bassoonist*slashhere*composer'
p782
I2
sS'suggestions'
p783
I2
sS'accept'
p784
I3
sS'states'
p785
I9
sS'sense'
p786
I2
sS'tapestry'
p787
I2
sS'huge'
p788
I3
sS'equities'
p789
I2
sS'hugo'
p790
I2
sS'earnings'
p791
I12
sS'plant'
p792
I5
sS'intended'
p793
I4
sS'mapping'
p794
I2
sS'plane'
p795
I4
sS'acquisitions'
p796
I5
sS'refuse'
p797
I2
sS'register'
p798
I2
sS'fundamental'
p799
I3
sS'functionaries'
p800
I2
sS'greats'
p801
I3
sS'trade'
p802
I10
sS'redefinition'
p803
I2
sS'attitude'
p804
I2
sS'paper'
p805
I10
sS'scott'
p806
I2
sS'signs'
p807
I3
sS'its'
p808
I81
sS'rapidly'
p809
I3
sS'sumitomo'
p810
I2
sS'gerald'
p811
I2
sS'novametrix'
p812
I2
sS'ally'
p813
I2
sS'subtitled'
p814
I2
sS'distilled'
p815
I2
sS'stewed'
p816
I2
sS'purdue'
p817
I2
sS'always'
p818
I3
sS'assemblies'
p819
I2
sS'loosely'
p820
I2
sS'courses'
p821
I2
sS'found'
p822
I4
sS'status'
p823
I4
sS'england'
p824
I3
sS'reduce'
p825
I3
sS'slowdown'
p826
I2
sS'measurement'
p827
I2
sS'advertisers'
p828
I2
sS'scotches'
p829
I2
sS'really'
p830
I8
sS'anxious'
p831
I2
sS'scoops'
p832
I2
sS'research'
p833
I6
sS'ministerial'
p834
I2
sS'discounting'
p835
I2
sS'risen'
p836
I2
sS'sparked'
p837
I2
sS'cockpit'
p838
I2
sS'qualify'
p839
I2
sS'proxy'
p840
I2
sS'rises'
p841
I2
sS'major'
p842
I20
sS'kirkendall'
p843
I2
sS'thereafter'
p844
I2
sS'number'
p845
I8
sS'heads'
p846
I3
sS'frankel'
p847
I2
sS'threatening'
p848
I2
sS'erupted'
p849
I2
sS'dfc'
p850
I2
sS'relationship'
p851
I6
sS'seagram'
p852
I7
sS'appreciation'
p853
I2
sS'grace'
p854
I2
sS'observatory'
p855
I2
sS'aaa'
p856
I2
sS'marriage'
p857
I3
sS'defect'
p858
I2
sS'guarding'
p859
I2
sS'vitally'
p860
I2
sS'sell'
p861
I9
sS'destabilizing'
p862
I2
sS'jeopardize'
p863
I2
sS'also'
p864
I45
sS'internal'
p865
I4
sS'play'
p866
I7
sS'monastery'
p867
I2
sS'staffers'
p868
I2
sS'brooklyn'
p869
I2
sS'plan'
p870
I16
sS'defections'
p871
I3
sS'toronto-based'
p872
I2
sS'arson'
p873
I2
sS'sometimes'
p874
I3
sS'cover'
p875
I4
sS'barred'
p876
I2
sS'dragged'
p877
I2
sS'golf'
p878
I3
sS'gold'
p879
I3
sS'defended'
p880
I2
sS'session'
p881
I7
sS'occupation'
p882
I2
sS'impact'
p883
I4
sS'keychain'
p884
I2
sS'writer'
p885
I3
sS'189.8'
p886
I2
sS'failed'
p887
I8
sS'equity'
p888
I2
sS'indifference'
p889
I2
sS'closely'
p890
I4
sS'reporters'
p891
I4
sS'enemy'
p892
I2
sS'railbikes'
p893
I2
sS'banking'
p894
I6
sS'weaver'
p895
I4
sS'river'
p896
I2
sS'manger'
p897
I2
sS'set'
p898
I12
sS'activists'
p899
I2
sS'potent'
p900
I2
sS'sex'
p901
I2
sS'see'
p902
I9
sS'sec'
p903
I13
sS'safeguarded'
p904
I2
sS'sen'
p905
I3
sS'institutes'
p906
I4
sS'spirits'
p907
I2
sS'guinea'
p908
I3
sS'currently'
p909
I6
sS'pickup'
p910
I2
sS'europe'
p911
I15
sS'targeted'
p912
I4
sS'renewed'
p913
I2
sS'dividend'
p914
I2
sS'legislature'
p915
I2
sS'rennie'
p916
I2
sS'last'
p917
I21
sS'19.95'
p918
I2
sS'puckish'
p919
I2
sS'timorous'
p920
I2
sS'long-term'
p921
I4
sS'toxicology'
p922
I2
sS'whole'
p923
I7
sS'messiah'
p924
I2
sS'soundings'
p925
I2
sS'electrician'
p926
I2
sS'bell'
p927
I3
sS'loan'
p928
I7
sS'community'
p929
I3
sS'rosa'
p930
I2
sS'agents'
p931
I3
sS'church'
p932
I16
sS'publishing'
p933
I2
sS'monthly'
p934
I6
sS'acceptance'
p935
I2
sS'incentive-backed'
p936
I2
sS'firm'
p937
I8
sS'sweetheart'
p938
I2
sS'fire'
p939
I3
sS'then-21'
p940
I2
sS'fund'
p941
I25
sS'awake'
p942
I2
sS'representative'
p943
I4
sS'insiders'
p944
I9
sS'handling'
p945
I2
sS'straight'
p946
I2
sS'expanded'
p947
I2
sS'budget'
p948
I4
sS'error'
p949
I2
sS'budged'
p950
I2
sS'scheduled'
p951
I5
sS'dotting'
p952
I2
sS'motors'
p953
I4
sS'dabney'
p954
I2
sS'centennial'
p955
I2
sS'owes'
p956
I2
sS'caygill'
p957
I2
sS'pacemakers'
p958
I2
sS'872'
p959
I2
sS'shorter'
p960
I2
sS'rules'
p961
I8
sS'virtually'
p962
I2
sS'survey'
p963
I2
sS'cardholders'
p964
I2
sS'alert'
p965
I4
sS'mosbacher'
p966
I2
sS'levels'
p967
I6
sS'recent'
p968
I12
sS'surrogate'
p969
I2
sS'alleging'
p970
I3
sS'reginald'
p971
I2
sS'person'
p972
I3
sS'ltd.'
p973
I4
sS'hypothesized'
p974
I2
sS'readers'
p975
I3
sS'surprises'
p976
I3
sS'signals'
p977
I2
sS'rangers'
p978
I2
sS'parents'
p979
I4
sS'location'
p980
I2
sS'homeland'
p981
I2
sS'waleson'
p982
I2
sS'disobey'
p983
I2
sS'surprised'
p984
I3
sS'electromagnets'
p985
I2
sS'victims'
p986
I3
sS'emergency'
p987
I3
sS'demands'
p988
I2
sS'1099'
p989
I2
sS'7.55'
p990
I2
sS'high-ranking'
p991
I2
sS'projects'
p992
I4
sS'formal'
p993
I5
sS'sorting'
p994
I2
sS'spine'
p995
I2
sS'kremlin'
p996
I2
sS'consensus'
p997
I2
sS'communications'
p998
I4
sS'continue'
p999
I8
sS'yields'
p1000
I13
sS'spins'
p1001
I2
sS'names'
p1002
I3
sS'senate'
p1003
I8
sS'spring'
p1004
I5
sS'palm'
p1005
I2
sS'hard-line'
p1006
I2
sS'conciliatory'
p1007
I2
sS'religion'
p1008
I4
sS'durables'
p1009
I2
sS'be'
p1010
I113
sS'agreement'
p1011
I15
sS'concealed'
p1012
I2
sS'santa'
p1013
I2
sS'tidal'
p1014
I2
sS'by'
p1015
I142
sS'1,200'
p1016
I2
sS'certificate'
p1017
I3
sS'anything'
p1018
I5
sS'exaggerated'
p1019
I4
sS'weatherbeaten'
p1020
I2
sS'biennial'
p1021
I2
sS'colorado'
p1022
I4
sS'garbage'
p1023
I2
sS'into'
p1024
I25
sS'primarily'
p1025
I2
sS'repaid'
p1026
I3
sS'traduce'
p1027
I2
sS'spending'
p1028
I2
sS'bargaining'
p1029
I3
sS'minor-leaguer'
p1030
I2
sS'crackdown'
p1031
I2
sS'pixie-like'
p1032
I2
sS'fund-raisers'
p1033
I2
sS'quake-relief'
p1034
I2
sS'royalties'
p1035
I2
sS'elsewhere'
p1036
I2
sS'11*slashhere*16'
p1037
I3
sS'deductions'
p1038
I4
sS'atlantic'
p1039
I3
sS'line'
p1040
I9
sS'considerable'
p1041
I2
sS'posted'
p1042
I4
sS'cia'
p1043
I5
sS'geraldo'
p1044
I2
sS'up'
p1045
I63
sS'us'
p1046
I3
sS'maturity'
p1047
I4
sS'those'
p1048
I24
sS'mortgage-securities'
p1049
I2
sS'75-cent'
p1050
I2
sS'alarm'
p1051
I2
sS'39-year-old'
p1052
I2
sS'genial'
p1053
I2
sS'armstrong'
p1054
I14
sS'defined'
p1055
I4
sS'likewise'
p1056
I2
sS'start-up'
p1057
I3
sS'influence'
p1058
I3
sS'u.s.a'
p1059
I2
sS'intact'
p1060
I2
sS'jcp'
p1061
I2
sS'occasional'
p1062
I2
sS'elements'
p1063
I2
sS'provided'
p1064
I3
sS'lucid'
p1065
I2
sS'robots'
p1066
I2
sS'hazardous-waste-site'
p1067
I2
sS'sider'
p1068
I3
sS'sides'
p1069
I6
sS'ago'
p1070
I12
sS'worsened'
p1071
I2
sS'tailored'
p1072
I2
sS'land'
p1073
I3
sS'finery'
p1074
I2
sS'scotch'
p1075
I3
sS'age'
p1076
I4
sS'walked'
p1077
I2
sS'norwegians'
p1078
I2
sS'summit'
p1079
I7
sS'walker'
p1080
I2
sS'having'
p1081
I2
sS'code'
p1082
I3
sS'partial'
p1083
I2
sS'scratch'
p1084
I2
sS'results'
p1085
I5
sS'existing'
p1086
I2
sS'enjoyable'
p1087
I2
sS'maccabee'
p1088
I2
sS'seemed'
p1089
I5
sS'concerned'
p1090
I3
sS'young'
p1091
I8
sS'send'
p1092
I2
sS'dislike'
p1093
I2
sS'indicating'
p1094
I2
sS'retire'
p1095
I2
sS'continues'
p1096
I3
sS'abduction'
p1097
I2
sS'lerman'
p1098
I2
sS'continued'
p1099
I3
sS'minerals'
p1100
I2
sS'categories'
p1101
I2
sS'timely'
p1102
I2
sS'sen.'
p1103
I2
sS'real-estate'
p1104
I2
sS'fewer'
p1105
I2
sS'try'
p1106
I3
sS'threat'
p1107
I3
sS'race'
p1108
I2
sS'reich'
p1109
I5
sS'visuals'
p1110
I2
sS'mediterranean'
p1111
I2
sS'noticias'
p1112
I2
sS'recruitment'
p1113
I2
sS'licenses'
p1114
I3
sS'index'
p1115
I14
sS'shivers'
p1116
I2
sS'expressed'
p1117
I2
sS'consistently'
p1118
I2
sS'indian'
p1119
I2
sS'flowing'
p1120
I2
sS'firms'
p1121
I6
sS'equivalent'
p1122
I2
sS'thin'
p1123
I2
sS'led'
p1124
I7
sS'lee'
p1125
I10
sS'leg'
p1126
I2
sS'respectively'
p1127
I2
sS'slogans'
p1128
I2
sS'let'
p1129
I12
sS'great'
p1130
I11
sS'engage'
p1131
I2
sS'mid-to-late'
p1132
I2
sS'receive'
p1133
I4
sS'involved'
p1134
I7
sS'resulting'
p1135
I2
sS'opinion'
p1136
I4
sS'{'
I13
sS'makes'
p1137
I4
sS'maker'
p1138
I12
sS'kennewick'
p1139
I2
sS'330'
p1140
I2
sS'333'
p1141
I2
sS'foreign-exchange'
p1142
I2
sS'confidence'
p1143
I2
sS'zip'
p1144
I3
sS'illegal'
p1145
I2
sS'theme'
p1146
I2
sS'next'
p1147
I19
sS'face-to-face'
p1148
I3
sS'midday'
p1149
I2
sS'givens'
p1150
I4
sS'heiwa'
p1151
I2
sS'infamy'
p1152
I2
sS'bronfman'
p1153
I2
sS'dealings'
p1154
I3
sS'opposing'
p1155
I3
sS'animals'
p1156
I3
sS'63.6'
p1157
I2
sS'this'
p1158
I69
sS'challenge'
p1159
I2
sS'clients'
p1160
I4
sS'unknowns'
p1161
I2
sS'publications'
p1162
I3
sS'1.45'
p1163
I2
sS'process'
p1164
I3
sS'rode'
p1165
I2
sS'purposes'
p1166
I3
sS'pieces'
p1167
I5
sS'high'
p1168
I12
sS'slip'
p1169
I2
sS'bodegas'
p1170
I2
sS'animal'
p1171
I3
sS'tied'
p1172
I5
sS'most-favored'
p1173
I2
sS'pigs'
p1174
I3
sS'ties'
p1175
I4
sS'boeing'
p1176
I2
sS'counter'
p1177
I2
sS'allow'
p1178
I5
sS'intellectuals'
p1179
I2
sS'houston'
p1180
I8
sS'brahms'
p1181
I2
sS'producer'
p1182
I2
sS'8.50'
p1183
I3
sS'move'
p1184
I11
sS'produced'
p1185
I5
sS'directs'
p1186
I3
sS'finanziario'
p1187
I2
sS'year-earlier'
p1188
I3
sS'55,500'
p1189
I2
sS'delay'
p1190
I2
sS'chosen'
p1191
I2
sS'dispose'
p1192
I2
sS'hobby'
p1193
I3
sS'outlined'
p1194
I2
sS'federico'
p1195
I2
sS'legendary'
p1196
I2
sS'traced'
p1197
I2
sS'accompanied'
p1198
I2
sS'doing'
p1199
I6
sS'society'
p1200
I2
sS'books'
p1201
I4
sS'static'
p1202
I2
sS'astronomer'
p1203
I2
sS'witness'
p1204
I2
sS'fundamentally'
p1205
I2
sS"'"
I33
sS'dismissal'
p1206
I3
sS'superbly'
p1207
I2
sS'motifs'
p1208
I2
sS'tempe'
p1209
I2
sS'unwieldy'
p1210
I2
sS'opinion-makers'
p1211
I2
sS'shun'
p1212
I2
sS'182-day'
p1213
I2
sS'dubbed'
p1214
I4
sS'could'
p1215
I34
sS'david'
p1216
I7
sS'length'
p1217
I2
sS'ratification'
p1218
I2
sS'sidley-ashurst'
p1219
I2
sS'stimulate'
p1220
I2
sS'scene'
p1221
I2
sS'cichan'
p1222
I2
sS'autographed'
p1223
I2
sS'owner'
p1224
I4
sS'mandatory'
p1225
I4
sS'legislative'
p1226
I2
sS'vetoed'
p1227
I3
sS'start'
p1228
I3
sS'system'
p1229
I13
sS'interests'
p1230
I4
sS'enforcement'
p1231
I2
sS'quarry'
p1232
I2
sS'colleagues'
p1233
I4
sS'reacted'
p1234
I2
sS'extraordinarily'
p1235
I2
sS'potpourri'
p1236
I2
sS'16-year-olds'
p1237
I2
sS'appealing'
p1238
I2
sS'allure'
p1239
I2
sS'federally'
p1240
I2
sS'steep'
p1241
I2
sS'downpayments'
p1242
I2
sS'partnership'
p1243
I3
sS'seaborne'
p1244
I2
sS'reassuring'
p1245
I2
sS'9.78'
p1246
I2
sS'9.75'
p1247
I2
sS'clearly'
p1248
I4
sS'documents'
p1249
I9
sS'how-to'
p1250
I2
sS'bassoon'
p1251
I2
sS'studying'
p1252
I2
sS'souled'
p1253
I2
sS'korean'
p1254
I3
sS'pete'
p1255
I3
sS'device'
p1256
I3
sS'so-called'
p1257
I4
sS'bred'
p1258
I2
sS'stronger'
p1259
I5
sS'face'
p1260
I5
sS'consorting'
p1261
I2
sS'brew'
p1262
I2
sS'fact'
p1263
I3
sS'vacancy'
p1264
I2
sS'bring'
p1265
I4
sS'rouge'
p1266
I4
sS'unconnected'
p1267
I2
sS'rough'
p1268
I2
sS'brauerei'
p1269
I2
sS'thigh'
p1270
I2
sS'95.2'
p1271
I2
sS'should'
p1272
I9
sS'terminal'
p1273
I3
sS'jam'
p1274
I3
sS'tape'
p1275
I2
sS'printers'
p1276
I2
sS'riding'
p1277
I2
sS'hope'
p1278
I7
sS'meant'
p1279
I3
sS'chicago-based'
p1280
I2
sS'bonds'
p1281
I9
sS'cigar-chomping'
p1282
I2
sS'listener'
p1283
I2
sS'pursued'
p1284
I2
sS'one-quarter-cent'
p1285
I2
sS'summon'
p1286
I2
sS'stuff'
p1287
I3
sS'allegation'
p1288
I2
sS'ohio'
p1289
I2
sS'medium-grade'
p1290
I2
sS'reykjavik'
p1291
I2
sS'edition'
p1292
I2
sS'subcommittee'
p1293
I4
sS'425,000'
p1294
I2
sS'amtran'
p1295
I2
sS'80-plus'
p1296
I2
sS'nuclear'
p1297
I8
sS'nominees'
p1298
I3
sS'wiry'
p1299
I2
sS'ends'
p1300
I3
sS'restrictions'
p1301
I2
sS'figured'
p1302
I2
sS'drum'
p1303
I2
sS'invited'
p1304
I2
sS'deficits'
p1305
I2
sS'drug'
p1306
I5
sS'etc'
p1307
I2
sS'figures'
p1308
I4
sS'adjusted'
p1309
I2
sS'belzberg'
p1310
I2
sS'co'
p1311
I4
sS'ca'
p1312
I7
sS'570'
p1313
I2
sS'cd'
p1314
I10
sS'oakland'
p1315
I3
sS'yastrzemski'
p1316
I2
sS'8.5'
p1317
I2
sS'powered'
p1318
I2
sS'bewkes'
p1319
I2
sS'waste'
p1320
I2
sS'recurring'
p1321
I2
sS'c.'
p1322
I3
sS'rioting'
p1323
I2
sS'c$'
p1324
I2
sS'atlanta'
p1325
I2
sS'harriton'
p1326
I2
sS'5*slashhere*8'
p1327
I3
sS'rigged'
p1328
I2
sS'stuffing'
p1329
I2
sS'norodom'
p1330
I2
sS'lush'
p1331
I2
sS'site'
p1332
I2
sS'vu'
p1333
I2
sS'winnetka'
p1334
I2
sS'amadou-mahtar'
p1335
I2
sS'insight'
p1336
I2
sS'marcoses'
p1337
I2
sS'yuppie'
p1338
I2
sS'ariz.'
p1339
I2
sS'terrorism'
p1340
I2
sS'ball'
p1341
I2
sS'columbia'
p1342
I3
sS'raymond'
p1343
I2
sS'emotionally'
p1344
I2
sS'drink'
p1345
I3
sS'upon'
p1346
I3
sS'expand'
p1347
I2
sS'audit'
p1348
I2
sS'off'
p1349
I15
sS'hartt'
p1350
I3
sS'patterns'
p1351
I2
sS'352'
p1352
I2
sS'350'
p1353
I2
sS'7.78'
p1354
I2
sS'negligence'
p1355
I2
sS'less'
p1356
I12
sS'paul'
p1357
I3
sS'agnellis'
p1358
I3
sS'stoltzman'
p1359
I11
sS'residential'
p1360
I2
sS'arrest'
p1361
I2
sS'cosmetics'
p1362
I5
sS'clipped'
p1363
I2
sS'exempt'
p1364
I2
sS'enfield'
p1365
I8
sS'tcmp'
p1366
I4
sS'increased'
p1367
I7
sS'counterclaims'
p1368
I2
sS'government'
p1369
I28
sS'checking'
p1370
I2
sS'chancellor'
p1371
I2
sS'low-paid'
p1372
I2
sS'fuji'
p1373
I2
sS'increases'
p1374
I3
sS'five'
p1375
I13
sS'desk'
p1376
I2
sS'belgium'
p1377
I2
sS'crisp'
p1378
I2
sS'nerves'
p1379
I7
sS'replacement'
p1380
I3
sS'amendment'
p1381
I5
sS'indications'
p1382
I2
sS'foreseeable'
p1383
I2
sS'thief'
p1384
I2
sS'ballot'
p1385
I3
sS'disbelief'
p1386
I2
sS'leveraged'
p1387
I3
sS'salaries'
p1388
I2
sS'demonstrators'
p1389
I2
sS'does'
p1390
I14
sS'passion'
p1391
I2
sS'shareholdings'
p1392
I2
sS'pressure'
p1393
I4
sS'loans'
p1394
I7
sS'gained'
p1395
I2
sS'sister'
p1396
I2
sS'25.5'
p1397
I2
sS'asks'
p1398
I3
sS'angeles'
p1399
I3
sS'executives'
p1400
I10
sS'alliance'
p1401
I2
sS'letters'
p1402
I7
sS'title-insurance'
p1403
I2
sS'ismaili'
p1404
I2
sS'banca'
p1405
I2
sS'mere'
p1406
I2
sS'negotiable'
p1407
I3
sS'terminated'
p1408
I2
sS'spouse'
p1409
I2
sS'off-speed'
p1410
I2
sS'justifying'
p1411
I2
sS'9.7'
p1412
I2
sS'pretax'
p1413
I2
sS'function'
p1414
I3
sS'building'
p1415
I5
sS'delivery'
p1416
I4
sS'lowered'
p1417
I2
sS'fishing*slashhere*processing'
p1418
I2
sS'beeper'
p1419
I2
sS'evident'
p1420
I2
sS'chained'
p1421
I2
sS'official'
p1422
I8
sS'smooth'
p1423
I2
sS'imbalances'
p1424
I2
sS'excitement'
p1425
I2
sS'placed'
p1426
I2
sS'problem'
p1427
I8
sS'kowtow'
p1428
I2
sS'recognize'
p1429
I2
sS'consumed'
p1430
I2
sS'moonie'
p1431
I2
sS'inc'
p1432
I7
sS'mediobanca'
p1433
I3
sS'nonetheless'
p1434
I4
sS'mccartin'
p1435
I2
sS'lately'
p1436
I3
sS'compares'
p1437
I2
sS'jumbos'
p1438
I2
sS'repeat'
p1439
I2
sS'monday'
p1440
I12
sS'outlets'
p1441
I2
sS'chance'
p1442
I6
sS'exposure'
p1443
I2
sS'mozart'
p1444
I2
sS'rule'
p1445
I8
sS'compete'
p1446
I3
sS'pension'
p1447
I6
sS'475'
p1448
I2
sS'tax-exempt'
p1449
I2
sS'linsey'
p1450
I2
sS'magnetic'
p1451
I10
sS'self-incrimination'
p1452
I4
sS'controversial'
p1453
I3
sS'mansion'
p1454
I2
sS'oldest'
p1455
I2
sS'relationships'
p1456
I2
sS'pedro'
p1457
I2
sS'edward'
p1458
I3
sS'regal'
p1459
I2
sS'alternating'
p1460
I2
sS'mania'
p1461
I2
sS'electronics'
p1462
I2
sS'investigator'
p1463
I2
sS'gaelic'
p1464
I2
sS'announced'
p1465
I13
sS'reinvent'
p1466
I2
sS'chew'
p1467
I2
sS'chez'
p1468
I2
sS'panda'
p1469
I2
sS'machines'
p1470
I8
sS'above'
p1471
I5
sS'churches'
p1472
I2
sS'officially'
p1473
I2
sS'told'
p1474
I9
sS'simultaneously'
p1475
I2
sS'residual'
p1476
I2
sS'conglomerate'
p1477
I3
sS'protection'
p1478
I3
sS'obtained'
p1479
I2
sS'watchers'
p1480
I2
sS'items'
p1481
I3
sS'study'
p1482
I2
sS'spooks'
p1483
I2
sS'highly'
p1484
I7
sS'regulatory'
p1485
I2
sS'total'
p1486
I11
sS'indians'
p1487
I3
sS'chooses'
p1488
I2
sS'program'
p1489
I9
sS'giovanni'
p1490
I9
sS'aware'
p1491
I2
sS'emeritus'
p1492
I3
sS'unraveled'
p1493
I2
sS'blocking'
p1494
I4
sS'1991'
p1495
I6
sS'1990'
p1496
I6
sS'1992'
p1497
I2
sS'word'
p1498
I3
sS'permits'
p1499
I2
sS'work'
p1500
I12
sS'theories'
p1501
I2
sS'grover'
p1502
I2
sS'half-forgotten'
p1503
I2
sS'era'
p1504
I2
sS'elegantly'
p1505
I2
sS'cited'
p1506
I4
sS'india'
p1507
I3
sS'uaw'
p1508
I4
sS'impair'
p1509
I2
sS'indicates'
p1510
I3
sS'8.35'
p1511
I2
sS'8.33'
p1512
I2
sS'8.32'
p1513
I2
sS'8.30'
p1514
I2
sS'totaled'
p1515
I3
sS'8.38'
p1516
I2
sS'recovery'
p1517
I2
sS'carriers'
p1518
I2
sS'provide'
p1519
I7
sS'interview'
p1520
I5
sS'ordinary'
p1521
I3
sS'saint-saens'
p1522
I3
sS'beach'
p1523
I4
sS'gamble'
p1524
I3
sS'bebop'
p1525
I2
sS'after'
p1526
I31
sS'lab'
p1527
I4
sS'lay'
p1528
I2
sS'law'
p1529
I24
sS'austere'
p1530
I2
sS'homeowners'
p1531
I2
sS'scare'
p1532
I2
sS'ambulance'
p1533
I2
sS'order'
p1534
I7
sS'office'
p1535
I12
sS'devote'
p1536
I2
sS'satisfied'
p1537
I2
sS'6.7'
p1538
I2
sS'6.5'
p1539
I3
sS'6.2'
p1540
I2
sS'12.5'
p1541
I2
sS'innovative'
p1542
I2
sS'japan'
p1543
I28
sS'15*slashhere*16'
p1544
I2
sS'mayor'
p1545
I3
sS'somewhere'
p1546
I3
sS'recreational'
p1547
I2
sS'50,000'
p1548
I2
sS'production'
p1549
I2
sS'then'
p1550
I19
sS'them'
p1551
I29
sS'affected'
p1552
I2
sS'safe'
p1553
I3
sS'break'
p1554
I3
sS'hispanics'
p1555
I2
sS'owned'
p1556
I4
sS'they'
p1557
I79
sS'bank'
p1558
I29
sS'7.98'
p1559
I2
sS'7.99'
p1560
I2
sS'7.94'
p1561
I2
sS'7.96'
p1562
I3
sS'7.90'
p1563
I5
sS'7.91'
p1564
I2
sS'7.92'
p1565
I2
sS'7.93'
p1566
I2
sS'lifted'
p1567
I2
sS'crimes'
p1568
I3
sS'stronger-than-expected'
p1569
I2
sS'recognizable'
p1570
I2
sS'burnham'
p1571
I2
sS'network'
p1572
I9
sS'cameras'
p1573
I2
sS'diesel'
p1574
I2
sS'vessels'
p1575
I2
sS'forth'
p1576
I2
sS'disputed'
p1577
I3
sS'pryor'
p1578
I2
sS'veto'
p1579
I3
sS'gardiner'
p1580
I2
sS'standard'
p1581
I4
sS'admits'
p1582
I2
sS'disputes'
p1583
I2
sS'chortled'
p1584
I2
sS'baseman'
p1585
I2
sS'created'
p1586
I6
sS'oppose'
p1587
I3
sS'delved'
p1588
I2
sS'organize'
p1589
I2
sS'guzzle'
p1590
I2
sS'another'
p1591
I22
sS'comic'
p1592
I2
sS'electronic'
p1593
I3
sS'illustrate'
p1594
I4
sS'rated'
p1595
I2
sS'gooseberry'
p1596
I2
sS'secaucus'
p1597
I2
sS'approximately'
p1598
I3
sS'airs'
p1599
I2
sS'rates'
p1600
I15
sS'mail-sorting'
p1601
I2
sS'john'
p1602
I7
sS'kiwi'
p1603
I2
sS'190-point'
p1604
I2
sS'albert'
p1605
I2
sS'rejected'
p1606
I2
sS'hazelnut'
p1607
I2
sS'alberg'
p1608
I2
sS'toronto'
p1609
I4
sS'guile'
p1610
I2
sS'rate'
p1611
I18
sS'splendidly'
p1612
I2
sS'solely'
p1613
I2
sS'500,000'
p1614
I2
sS'30.4'
p1615
I2
sS'manner'
p1616
I3
sS'forced'
p1617
I2
sS'strength'
p1618
I5
sS'small-lot'
p1619
I2
sS'subjects'
p1620
I5
sS'luxury'
p1621
I5
sS'forces'
p1622
I8
sS'unsecured'
p1623
I3
sS'circles'
p1624
I2
sS'6*slashhere*2'
p1625
I2
sS'400,000'
p1626
I2
sS'bruce'
p1627
I2
sS'iceland'
p1628
I2
sS'exercised'
p1629
I2
sS'involving'
p1630
I4
sS'germany'
p1631
I10
sS'exercises'
p1632
I2
sS'germans'
p1633
I3
sS'calculated'
p1634
I3
sS'newcomers'
p1635
I2
sS'investing'
p1636
I4
sS'voting'
p1637
I2
sS'responded'
p1638
I2
sS'reserve'
p1639
I5
sS'd.'
p1640
I11
sS'asia-pacific'
p1641
I3
sS'religions'
p1642
I2
sS'cogeneration-plant'
p1643
I2
sS'painfully'
p1644
I2
sS'yen'
p1645
I5
sS'glasnost'
p1646
I2
sS'pursuing'
p1647
I2
sS'gideon'
p1648
I3
sS'adequate'
p1649
I3
sS'personality'
p1650
I2
sS'do'
p1651
I29
sS'de'
p1652
I3
sS'cardinals'
p1653
I2
sS'yielded'
p1654
I2
sS'25,000'
p1655
I2
sS'vividly'
p1656
I3
sS'runs'
p1657
I3
sS'pearson'
p1658
I2
sS'explanations'
p1659
I2
sS'secretary'
p1660
I4
sS'etudes'
p1661
I2
sS'w.'
p1662
I2
sS'cattle'
p1663
I4
sS'discussions'
p1664
I2
sS'techniques'
p1665
I2
sS'draws'
p1666
I2
sS'away'
p1667
I7
sS'unable'
p1668
I5
sS'cooperation'
p1669
I4
sS'co.'
p1670
I17
sS'we'
p1671
I32
sS'terms'
p1672
I5
sS'wo'
p1673
I10
sS'handful'
p1674
I2
sS'packaged'
p1675
I2
sS'42.9'
p1676
I2
sS'disservice'
p1677
I2
sS'packages'
p1678
I3
sS'downgraded'
p1679
I2
sS'received'
p1680
I7
sS'exceeds'
p1681
I2
sS'requests'
p1682
I3
sS'bran'
p1683
I3
sS'publicity-seeking'
p1684
I2
sS'negotiation'
p1685
I2
sS'year-end'
p1686
I2
sS'tough'
p1687
I2
sS'c.d.s'
p1688
I2
sS'zellers'
p1689
I2
sS'tons'
p1690
I4
sS'telecommunications'
p1691
I3
sS'smith'
p1692
I3
sS'knowns'
p1693
I2
sS'petty'
p1694
I3
sS'nomura'
p1695
I11
sS'dozens'
p1696
I2
sS'duties'
p1697
I4
sS'cutouts'
p1698
I2
sS'bnl'
p1699
I7
sS'catering'
p1700
I2
sS'0.19'
p1701
I2
sS'applied'
p1702
I6
sS'has'
p1703
I98
sS'6.84'
p1704
I2
sS'publicly'
p1705
I3
sS'air'
p1706
I10
sS'thrash'
p1707
I2
sS'aid'
p1708
I4
sS'property'
p1709
I2
sS'launched'
p1710
I3
sS'38.5'
p1711
I2
sS'skipping'
p1712
I2
sS'tissue'
p1713
I3
sS'exile'
p1714
I3
sS'apparently'
p1715
I4
sS'trashing'
p1716
I2
sS'retirees'
p1717
I2
sS'independent'
p1718
I2
sS'hani'
p1719
I2
sS'rain'
p1720
I2
sS'hand'
p1721
I4
sS'liberties'
p1722
I2
sS'kept'
p1723
I7
sS'1978'
p1724
I3
sS'1976'
p1725
I4
sS'1975'
p1726
I3
sS'1973'
p1727
I2
sS'1971'
p1728
I2
sS'ragged'
p1729
I2
sS'hispanic'
p1730
I5
sS'client'
p1731
I2
sS'the'
p1732
I1463
sS'musical'
p1733
I3
sS'unified'
p1734
I2
sS'quoted'
p1735
I3
sS'gods'
p1736
I2
sS'thanks'
p1737
I2
sS'victim'
p1738
I2
sS'gun-carrying'
p1739
I2
sS'8.12'
p1740
I2
sS'adding'
p1741
I2
sS'hills'
p1742
I2
sS'flooring'
p1743
I2
sS'similarities'
p1744
I2
sS'passive'
p1745
I2
sS'spread'
p1746
I2
sS'board'
p1747
I12
sS'mayo'
p1748
I2
sS'bridgers'
p1749
I2
sS'equaling'
p1750
I2
sS'unification'
p1751
I6
sS'retreat'
p1752
I2
sS'securities'
p1753
I38
sS'gandhi'
p1754
I3
sS'security'
p1755
I7
sS'webb'
p1756
I2
sS'lashed'
p1757
I2
sS'humor'
p1758
I2
sS'house-painting'
p1759
I2
sS'asking'
p1760
I4
sS'denied'
p1761
I3
sS'participation'
p1762
I5
sS'marketing'
p1763
I7
sS'illustration'
p1764
I2
sS'post'
p1765
I4
sS'properties'
p1766
I5
sS'theirs'
p1767
I2
sS'newspapers'
p1768
I5
sS'months'
p1769
I31
sS'gentler'
p1770
I2
sS'canonie'
p1771
I3
sS'dilemma'
p1772
I2
sS'wasting'
p1773
I2
sS'attorney'
p1774
I6
sS'balances'
p1775
I2
sS'capped'
p1776
I3
sS'wad'
p1777
I2
sS'legislation'
p1778
I4
sS'liquidated'
p1779
I2
sS'fight'
p1780
I2
sS'conservation'
p1781
I2
sS'way'
p1782
I16
sS'was'
p1783
I120
sS'war'
p1784
I6
sS'becoming'
p1785
I3
sS'taken'
p1786
I9
sS'true'
p1787
I2
sS'reset'
p1788
I2
sS'responding'
p1789
I2
sS'high-quality'
p1790
I2
sS'maximum'
p1791
I2
sS'monitored'
p1792
I2
sS'crystal'
p1793
I2
sS'coverings'
p1794
I2
sS'unusually'
p1795
I2
sS'private-sector'
p1796
I2
sS'countercultural'
p1797
I2
sS'long-debated'
p1798
I2
sS'evidence'
p1799
I3
sS'promised'
p1800
I2
sS'physical'
p1801
I3
sS'weakened'
p1802
I2
sS'stake'
p1803
I9
sS'topped'
p1804
I2
sS'negotiators'
p1805
I3
sS'interested'
p1806
I4
sS'holding'
p1807
I10
sS'65,200'
p1808
I2
sS'joni'
p1809
I2
sS'brothers'
p1810
I2
sS'update'
p1811
I2
sS'improvisation'
p1812
I2
sS'scores'
p1813
I3
sS'}'
I13
sS'affidavit'
p1814
I2
sS'together'
p1815
I2
sS'n.j.'
p1816
I2
sS'campaneris'
p1817
I5
sS'concept'
p1818
I4
sS'diplomacy'
p1819
I2
sS'global'
p1820
I3
sS'big-time'
p1821
I2
sS'dalton'
p1822
I2
sS'superpower'
p1823
I2
sS'supposedly'
p1824
I2
sS'flash'
p1825
I2
sS'compensate'
p1826
I2
sS'dissatisfied'
p1827
I2
sS'brown'
p1828
I3
sS'charles'
p1829
I4
sS'seemingly'
p1830
I2
sS'trouble'
p1831
I4
sS'presenter'
p1832
I2
sS'guy'
p1833
I2
sS'revolution'
p1834
I2
sS'cost'
p1835
I3
sS'889,000'
p1836
I2
sS'appear'
p1837
I5
sS'shares'
p1838
I26
sS'uniform'
p1839
I2
sS'appeal'
p1840
I6
sS'4,300'
p1841
I2
sS'satisfy'
p1842
I2
sS'collateral'
p1843
I2
sS'appears'
p1844
I2
sS'change'
p1845
I9
sS'sending'
p1846
I2
sS'incoming'
p1847
I2
sS'trial'
p1848
I3
sS'usually'
p1849
I3
sS'retired'
p1850
I3
sS'9.19'
p1851
I2
sS'lending'
p1852
I4
sS'paragon'
p1853
I2
sS'fbi'
p1854
I2
sS'rarely'
p1855
I3
sS'market'
p1856
I34
sS'angell'
p1857
I2
sS'prove'
p1858
I2
sS'live'
p1859
I5
sS'commissioner'
p1860
I2
sS'club'
p1861
I2
sS'minimum-wage'
p1862
I5
sS'state-funded'
p1863
I2
sS'organizations'
p1864
I4
sS'car'
p1865
I6
sS'paragould'
p1866
I3
sS'can'
p1867
I31
sS'trans'
p1868
I4
sS'stimulating'
p1869
I2
sS'spy'
p1870
I4
sS'expanding'
p1871
I2
sS'topic'
p1872
I3
sS'heard'
p1873
I2
sS'domenici'
p1874
I2
sS'discussion'
p1875
I3
sS'means'
p1876
I4
sS'buttoned-up'
p1877
I2
sS'write'
p1878
I2
sS'47-year-old'
p1879
I2
sS'allowable'
p1880
I2
sS'economy'
p1881
I11
sS'southern'
p1882
I2
sS'whacker'
p1883
I2
sS'vases'
p1884
I2
sS'court'
p1885
I17
sS'heroes'
p1886
I2
sS'ponied'
p1887
I2
sS'eurodollars'
p1888
I2
sS'remember'
p1889
I3
sS'futures'
p1890
I2
sS'typical'
p1891
I2
sS'indeed'
p1892
I3
sS'raised'
p1893
I5
sS'ended'
p1894
I7
sS'still'
p1895
I20
sS'birds'
p1896
I2
sS'8.0087'
p1897
I2
sS'reacting'
p1898
I2
sS'window'
p1899
I3
sS'norway'
p1900
I2
sS'inefficiency'
p1901
I2
sS'100,000'
p1902
I3
sS'introduce'
p1903
I2
sS'1955'
p1904
I2
sS'1954'
p1905
I2
sS'half'
p1906
I9
sS'not'
p1907
I58
sS'now'
p1908
I24
sS'provision'
p1909
I2
sS'discuss'
p1910
I3
sS'nor'
p1911
I5
sS'enacted'
p1912
I2
sS'galloway'
p1913
I2
sS'january'
p1914
I5
sS'drop'
p1915
I3
sS'stockholm'
p1916
I2
sS'concerts'
p1917
I2
sS'el'
p1918
I2
sS'mixed-up'
p1919
I2
sS'taxes'
p1920
I4
sS'year'
p1921
I50
sS'naming'
p1922
I2
sS'teams'
p1923
I3
sS'8.75'
p1924
I2
sS'hand-held'
p1925
I2
sS'shown'
p1926
I4
sS'space'
p1927
I2
sS'lawyers'
p1928
I4
sS'increase'
p1929
I13
sS'rational'
p1930
I2
sS'fargo'
p1931
I2
sS'viable'
p1932
I2
sS'shows'
p1933
I4
sS'rebuilding'
p1934
I2
sS'e.'
p1935
I5
sS'cars'
p1936
I5
sS'carl'
p1937
I3
sS'obligation'
p1938
I3
sS'care'
p1939
I2
sS'selections'
p1940
I2
sS'19th-century'
p1941
I2
sS'vehemently'
p1942
I2
sS'british'
p1943
I10
sS'tangled'
p1944
I2
sS'invitation'
p1945
I2
sS'promotion'
p1946
I8
sS'515'
p1947
I2
sS'concertos'
p1948
I2
sS'flying'
p1949
I2
sS'striking'
p1950
I2
sS'yourself'
p1951
I2
sS'temporarily'
p1952
I2
sS'directly'
p1953
I7
sS'comprises'
p1954
I2
sS'drove'
p1955
I2
sS'tomorrow'
p1956
I2
sS'size'
p1957
I3
sS'officials'
p1958
I15
sS'caught'
p1959
I3
sS'free-lance'
p1960
I2
sS'friend'
p1961
I3
sS'mostly'
p1962
I3
sS'that'
p1963
I263
sS'pittsburgh'
p1964
I3
sS'brains'
p1965
I4
sS'taxation'
p1966
I2
sS'flowers'
p1967
I2
sS'than'
p1968
I57
sS'titans'
p1969
I2
sS'television'
p1970
I5
sS'travis'
p1971
I2
sS'dialogue'
p1972
I2
sS'transferred'
p1973
I2
sS'agnelli-related'
p1974
I2
sS'respectability'
p1975
I2
sS'investors'
p1976
I27
sS'remained'
p1977
I5
sS'premier'
p1978
I2
sS'anger'
p1979
I2
sS'recover'
p1980
I2
sS'offering'
p1981
I6
sS'veteran'
p1982
I2
sS'manufacturers'
p1983
I2
sS'equipment'
p1984
I2
sS'nuances'
p1985
I2
sS'objective'
p1986
I2
sS'begin'
p1987
I8
sS'price'
p1988
I7
sS'america'
p1989
I14
sS'dream'
p1990
I2
sS'reform'
p1991
I3
sS'implications'
p1992
I4
sS'professional'
p1993
I3
sS'typically'
p1994
I4
sS'brainchild'
p1995
I2
sS'german'
p1996
I5
sS'discovered'
p1997
I4
sS'maine'
p1998
I2
sS'fifth'
p1999
I2
sS'upgrade'
p2000
I2
sS'title'
p2001
I3
sS'industrialize'
p2002
I2
sS'jolt'
p2003
I2
sS'texture'
p2004
I2
sS'filipinos'
p2005
I4
sS'only'
p2006
I35
sS'inventions'
p2007
I2
sS'truly'
p2008
I3
sS'stroll'
p2009
I2
sS'losers'
p2010
I2
sS'reorganizes'
p2011
I2
sS'husband'
p2012
I2
sS'concert'
p2013
I3
sS'color-coding'
p2014
I2
sS'elected'
p2015
I5
sS'actively'
p2016
I2
sS'sport'
p2017
I2
sS'reputed'
p2018
I2
sS'europeans'
p2019
I3
sS'staffed'
p2020
I2
sS'tackling'
p2021
I2
sS'willard'
p2022
I2
sS'serkin'
p2023
I2
sS'3'
I6
sS'between'
p2024
I18
sS'import'
p2025
I2
sS'justified'
p2026
I2
sS'article'
p2027
I5
sS'comes'
p2028
I3
sS'passenger'
p2029
I3
sS'jeans'
p2030
I2
sS'mirroring'
p2031
I2
sS'moreover'
p2032
I2
sS'eight-team'
p2033
I2
sS'informed'
p2034
I2
sS'disclosed'
p2035
I7
sS'4.875'
p2036
I2
sS'wounds'
p2037
I2
sS'external'
p2038
I2
sS'suspected'
p2039
I3
sS'realities'
p2040
I2
sS'developing'
p2041
I4
sS'these'
p2042
I18
sS'blinkers'
p2043
I2
sS'alcoholic'
p2044
I2
sS'soil'
p2045
I3
sS'metric'
p2046
I2
sS'health-care'
p2047
I3
sS'worry'
p2048
I4
sS'quarter-to-quarter'
p2049
I2
sS'develop'
p2050
I2
sS'media'
p2051
I5
sS'followers'
p2052
I2
sS'squatted'
p2053
I2
sS'racketeering'
p2054
I2
sS'tradition'
p2055
I2
sS'complained'
p2056
I3
sS'charges'
p2057
I5
sS'constitutional'
p2058
I3
sS'severe'
p2059
I2
sS'laboratories'
p2060
I2
sS'charged'
p2061
I5
sS'knowledgeable'
p2062
I2
sS'valuable'
p2063
I2
sS'civilized'
p2064
I2
sS'touch'
p2065
I4
sS'melton'
p2066
I2
sS'speed'
p2067
I3
sS'knotty'
p2068
I2
sS'thinking'
p2069
I2
sS'treatment'
p2070
I2
sS'struck'
p2071
I2
sS'real'
p2072
I9
sS'spectacular'
p2073
I2
sS'overused'
p2074
I2
sS'read'
p2075
I6
sS'swig'
p2076
I2
sS'pse'
p2077
I2
sS'early'
p2078
I14
sS'listening'
p2079
I3
sS'using'
p2080
I4
sS'execution'
p2081
I2
sS'lady'
p2082
I2
sS'ruled'
p2083
I5
sS'proponent'
p2084
I2
sS'utterances'
p2085
I2
sS'benefit'
p2086
I6
sS'dilution'
p2087
I2
sS'meringues'
p2088
I2
sS'apologists'
p2089
I2
sS'eddie'
p2090
I3
sS'abetted'
p2091
I2
sS'recorded'
p2092
I2
sS'conservative'
p2093
I2
sS'2170'
p2094
I2
sS'business'
p2095
I18
sS'chefs'
p2096
I2
sS'credits'
p2097
I2
sS'sixty'
p2098
I2
sS'exciting'
p2099
I2
sS'throw'
p2100
I2
sS'comparison'
p2101
I2
sS'central'
p2102
I4
sS'unesco'
p2103
I9
sS'ideology'
p2104
I2
sS'testimony'
p2105
I2
sS'groundball'
p2106
I2
sS'8.53'
p2107
I2
sS'8.55'
p2108
I3
sS'earring'
p2109
I2
sS'operator'
p2110
I3
sS'your'
p2111
I9
sS'intervention'
p2112
I5
sS'shags'
p2113
I2
sS'area'
p2114
I6
sS'assumed'
p2115
I2
sS'minn.'
p2116
I2
sS'los'
p2117
I3
sS'low'
p2118
I4
sS'lot'
p2119
I6
sS'somerset'
p2120
I2
sS'jones'
p2121
I3
sS'delayed'
p2122
I2
sS'philosophers'
p2123
I2
sS'two-thirds'
p2124
I2
sS'trying'
p2125
I3
sS'fraud'
p2126
I3
sS'proof-of-purchases'
p2127
I2
sS'intermission'
p2128
I2
sS'louisiana'
p2129
I2
sS'popularize'
p2130
I2
sS'9*slashhere*16'
p2131
I3
sS'moved'
p2132
I6
sS'sales'
p2133
I26
sS'moves'
p2134
I4
sS'innings'
p2135
I2
sS'englishman'
p2136
I2
sS'valid'
p2137
I2
sS'you'
p2138
I18
sS'forcing'
p2139
I2
sS'poor'
p2140
I2
sS'massachusetts'
p2141
I5
sS'coverage'
p2142
I3
sS'telltale'
p2143
I2
sS'fiscal'
p2144
I4
sS'repay'
p2145
I2
sS'requisition'
p2146
I2
sS'overseas'
p2147
I2
sS'bolton'
p2148
I2
sS'strings'
p2149
I2
sS'outlining'
p2150
I2
sS'48-year-old'
p2151
I2
sS'month'
p2152
I12
sS'unrest'
p2153
I2
sS'deadline'
p2154
I2
sS'douglas'
p2155
I14
sS'renege'
p2156
I2
sS'religious'
p2157
I2
sS'carpet'
p2158
I8
sS'dreadful'
p2159
I2
sS'referring'
p2160
I2
sS'sustain'
p2161
I3
sS'confidential'
p2162
I2
sS'very'
p2163
I13
sS'mph'
p2164
I3
sS'109.85'
p2165
I2
sS'decide'
p2166
I3
sS'rehearing'
p2167
I2
sS'--'
p2168
I53
sS'louis'
p2169
I2
sS'circuit'
p2170
I2
sS'editing*slashhere*electronic'
p2171
I2
sS'well-meaning'
p2172
I2
sS'consumers'
p2173
I5
sS'raw-material'
p2174
I2
sS'induce'
p2175
I5
sS'fractional'
p2176
I2
sS'certificates'
p2177
I6
sS'learned'
p2178
I2
sS'multinational'
p2179
I2
sS'turmoil'
p2180
I2
sS'estate'
p2181
I11
sS'answers'
p2182
I2
sS'tracks'
p2183
I4
sS'selective'
p2184
I2
sS'11.80'
p2185
I2
sS'excess'
p2186
I2
sS'iraq'
p2187
I2
sS'ahead'
p2188
I5
sS'inspired'
p2189
I2
sS'losses'
p2190
I8
sS'johnnie'
p2191
I2
sS'amount'
p2192
I7
sS'spy-chasing'
p2193
I2
sS'wallingford'
p2194
I2
sS'toughness'
p2195
I2
sS'family'
p2196
I8
sS'dirk'
p2197
I2
sS'aimed'
p2198
I3
sS'trained'
p2199
I3
sS'334.5'
p2200
I2
sS'conventional'
p2201
I6
sS'khan'
p2202
I7
sS'takes'
p2203
I2
sS'strauss'
p2204
I2
sS'praised'
p2205
I2
sS'mysterious'
p2206
I2
sS'injury'
p2207
I2
sS'bankamerica'
p2208
I3
sS'ejected'
p2209
I2
sS'jr.'
p2210
I2
sS'excuse'
p2211
I4
sS'cadwell'
p2212
I2
sS'broke'
p2213
I2
sS'underwriter'
p2214
I2
sS'factories'
p2215
I2
sS'producing'
p2216
I3
sS'nine'
p2217
I7
sS'budgets'
p2218
I2
sS'brain-wave'
p2219
I2
sS'history'
p2220
I4
sS'746'
p2221
I2
sS'pushed'
p2222
I2
sS'quartets'
p2223
I2
sS'f.'
p2224
I4
sS'english-language'
p2225
I2
sS'stayed'
p2226
I2
sS'tried'
p2227
I4
sS'tries'
p2228
I2
sS'remediation'
p2229
I2
sS'hooliganism'
p2230
I2
sS'a'
I575
sS'criticize'
p2231
I2
sS'overnight'
p2232
I2
sS'anytime'
p2233
I2
sS'banks'
p2234
I27
sS'egg'
p2235
I3
sS'help'
p2236
I17
sS'soon'
p2237
I4
sS'show-piece'
p2238
I2
sS'held'
p2239
I7
sS'committee'
p2240
I7
sS'clarinet'
p2241
I4
sS'atrun'
p2242
I2
sS'taxpayer'
p2243
I3
sS'w.a.'
p2244
I2
sS'teeming'
p2245
I2
sS'actually'
p2246
I7
sS'systems'
p2247
I7
sS'peanuts'
p2248
I3
sS'lire'
p2249
I7
sS'fool'
p2250
I2
sS'evening'
p2251
I4
sS'food'
p2252
I3
sS'reigning'
p2253
I2
sS'permissible'
p2254
I2
sS'anticipates'
p2255
I3
sS'linking'
p2256
I2
sS'panisse'
p2257
I2
sS'stopper'
p2258
I3
sS'fully'
p2259
I2
sS'semiannual'
p2260
I3
sS'capability'
p2261
I2
sS'stopped'
p2262
I3
sS'ifi'
p2263
I7
sS'heavy'
p2264
I2
sS'savored'
p2265
I2
sS'healthvest'
p2266
I13
sS'positioned'
p2267
I2
sS'beyond'
p2268
I5
sS'event'
p2269
I2
sS'creamier'
p2270
I2
sS'steered'
p2271
I2
sS'itel'
p2272
I3
sS'robert'
p2273
I4
sS'since'
p2274
I15
sS'testify'
p2275
I3
sS'publish'
p2276
I2
sS'equate'
p2277
I2
sS'safety'
p2278
I4
sS'7'
I4
sS'issue'
p2279
I18
sS'bass'
p2280
I2
sS'unificationist'
p2281
I3
sS'reason'
p2282
I2
sS'base'
p2283
I4
sS'put'
p2284
I9
sS'matthews'
p2285
I2
sS'broad-based'
p2286
I2
sS'persuading'
p2287
I2
sS'american'
p2288
I24
sS'businessmen'
p2289
I2
sS'st.'
p2290
I2
sS'ever-growing'
p2291
I2
sS'reflected'
p2292
I2
sS'miss'
p2293
I2
sS'arbitration'
p2294
I2
sS'horse'
p2295
I2
sS'imelda'
p2296
I2
sS'station'
p2297
I2
sS'scheme'
p2298
I3
sS'shifted'
p2299
I2
sS'selling'
p2300
I10
sS'financing'
p2301
I4
sS'hundred'
p2302
I2
sS'state-owned'
p2303
I3
sS'greg'
p2304
I2
sS'store'
p2305
I3
sS'toward'
p2306
I4
sS'ousted'
p2307
I2
sS'randomly'
p2308
I2
sS'substantial'
p2309
I5
sS'perestroika'
p2310
I2
sS'1.175'
p2311
I2
sS'lie'
p2312
I2
sS'u.s'
p2313
I4
sS'evasion'
p2314
I2
sS'7.77'
p2315
I2
sS'officers'
p2316
I2
sS'targets'
p2317
I2
sS'approves'
p2318
I2
sS'freddie'
p2319
I4
sS'hired'
p2320
I2
sS'nondemocratic'
p2321
I2
sS'approved'
p2322
I8
sS'ark.'
p2323
I3
sS'muscle'
p2324
I3
sS'mobile'
p2325
I2
sS'performances'
p2326
I2
sS'clear'
p2327
I4
sS'rockefeller'
p2328
I3
sS'clean'
p2329
I2
sS'velocity'
p2330
I2
sS'physics'
p2331
I2
sS'stalked'
p2332
I2
sS'7,400'
p2333
I2
sS'hovered'
p2334
I2
sS'gas-tax'
p2335
I2
sS'heavens'
p2336
I2
sS'church-owned'
p2337
I2
sS'northern'
p2338
I2
sS'justice'
p2339
I3
sS'inaugurated'
p2340
I2
sS'flights'
p2341
I2
sS'surveyed'
p2342
I2
sS'2142.6'
p2343
I2
sS'grocery'
p2344
I2
sS'during'
p2345
I9
sS'alexander'
p2346
I2
sS'left-wing'
p2347
I2
sS'transgenic'
p2348
I4
sS'11-member'
p2349
I2
sS'switzerland'
p2350
I2
sS'66.50'
p2351
I2
sS'scanning'
p2352
I2
sS'throwing'
p2353
I3
sS'culture'
p2354
I3
sS'close'
p2355
I10
sS'practice'
p2356
I4
sS'probable'
p2357
I2
sS'pictures'
p2358
I4
sS'won'
p2359
I3
sS'woe'
p2360
I2
sS'probably'
p2361
I6
sS'unconscious'
p2362
I2
sS'missing'
p2363
I2
sS'invisible'
p2364
I2
sS'arrears'
p2365
I2
sS'both'
p2366
I17
sS'secrets'
p2367
I2
sS'wage-floor'
p2368
I2
sS'sensitive'
p2369
I2
sS'whatever'
p2370
I2
sS'vessel'
p2371
I2
sS'described'
p2372
I2
sS'damp'
p2373
I2
sS'association-college'
p2374
I2
sS'collected'
p2375
I2
sS'reduced-fat'
p2376
I2
sS'walter'
p2377
I2
sS'35549.44'
p2378
I2
sS'partly'
p2379
I2
sS'regroup'
p2380
I2
sS'else'
p2381
I2
sS'lives'
p2382
I4
sS'compromised'
p2383
I2
sS'bidding'
p2384
I2
sS'pact'
p2385
I4
sS'look'
p2386
I6
sS'governor'
p2387
I2
sS'pace'
p2388
I4
sS'while'
p2389
I16
sS'3.35'
p2390
I2
sS'fleet'
p2391
I2
sS'mitchell'
p2392
I3
sS'guide'
p2393
I2
sS'pack'
p2394
I2
sS'voters'
p2395
I3
sS'ready'
p2396
I2
sS'fannie'
p2397
I8
sS'fairer'
p2398
I2
sS'shaw'
p2399
I6
sS'anymore'
p2400
I3
sS'grant'
p2401
I2
sS'well-hit'
p2402
I2
sS'conflict'
p2403
I4
sS'pleadings'
p2404
I2
sS'used'
p2405
I9
sS'temporary'
p2406
I4
sS'ratings'
p2407
I2
sS'blair'
p2408
I9
sS'uses'
p2409
I5
sS'user'
p2410
I3
sS'brussels'
p2411
I3
sS'older'
p2412
I3
sS'12-month'
p2413
I2
sS'poland'
p2414
I2
sS'yankees'
p2415
I2
sS'settlements'
p2416
I3
sS'quarters'
p2417
I2
sS'taiwan'
p2418
I3
sS'retirement'
p2419
I3
sS'$'
I123
sS'over-the-counter'
p2420
I3
sS'informal'
p2421
I10
sS'guaranteed'
p2422
I3
sS'stock-market'
p2423
I2
sS'guarantees'
p2424
I2
sS'remaining'
p2425
I6
sS'...'
p2426
I9
sS'march'
p2427
I6
sS'showing'
p2428
I2
sS'game'
p2429
I5
sS'thousand-person'
p2430
I2
sS'stimulators'
p2431
I7
sS'outright'
p2432
I2
sS'popular'
p2433
I2
sS'subverted'
p2434
I2
sS'creation'
p2435
I3
sS'some'
p2436
I52
sS'trends'
p2437
I2
sS'economic'
p2438
I16
sS'fanfare'
p2439
I3
sS'67-year-old'
p2440
I2
sS'delivered'
p2441
I3
sS'eating'
p2442
I2
sS'stem'
p2443
I2
sS'jazzy'
p2444
I2
sS'step'
p2445
I3
sS'lasts'
p2446
I2
sS'become'
p2447
I11
sS'at&t'
p2448
I2
sS'pitchers'
p2449
I3
sS'abroad'
p2450
I4
sS'wealth'
p2451
I2
sS'faith'
p2452
I2
sS'tracing'
p2453
I2
sS'in-depth'
p2454
I2
sS'block'
p2455
I7
sS'seeing'
p2456
I3
sS'within'
p2457
I7
sS'guangdong'
p2458
I2
sS'pentagon'
p2459
I3
sS'statistics'
p2460
I2
sS'propel'
p2461
I2
sS'insider'
p2462
I3
sS'disallowed'
p2463
I2
sS'manufacture'
p2464
I3
sS'himself'
p2465
I4
sS'registered'
p2466
I4
sS'specialty'
p2467
I2
sS'properly'
p2468
I2
sS'russian'
p2469
I2
sS'dull'
p2470
I2
sS'ideals'
p2471
I2
sS'circuits'
p2472
I2
sS'cautiously'
p2473
I3
sS'similar'
p2474
I7
sS'ordered'
p2475
I4
sS'adults'
p2476
I3
sS'three-to-five-year'
p2477
I2
sS'liberalize'
p2478
I2
sS'amounts'
p2479
I4
sS'spokesmen'
p2480
I2
sS'politicians'
p2481
I3
sS'preflight'
p2482
I2
sS'department'
p2483
I12
sS'manhattan'
p2484
I3
sS'draw'
p2485
I4
sS're-election'
p2486
I2
sS'kansas'
p2487
I2
sS'visits'
p2488
I2
sS'william'
p2489
I5
sS'drag'
p2490
I2
sS'structure'
p2491
I2
sS'hanover'
p2492
I2
sS'required'
p2493
I9
sS'turbines'
p2494
I2
sS'berries'
p2495
I2
sS'requires'
p2496
I3
sS'avoid'
p2497
I5
sS'co-author'
p2498
I2
sS'fixed-rate'
p2499
I3
sS'oct.'
p2500
I6
sS'ga'
p2501
I2
sS'kato'
p2502
I3
sS'go'
p2503
I3
sS'compact'
p2504
I2
sS'excludes'
p2505
I2
sS'uninformative'
p2506
I2
sS'excluded'
p2507
I2
sS'cluttered'
p2508
I2
sS'murderous'
p2509
I2
sS'wave'
p2510
I2
sS'wash.'
p2511
I3
sS'cellular'
p2512
I2
sS'g.'
p2513
I2
sS'positions'
p2514
I3
sS'michael'
p2515
I5
sS'watered'
p2516
I2
sS'8.95'
p2517
I2
sS'2.25'
p2518
I2
sS'carter'
p2519
I2
sS'picket'
p2520
I2
sS'graying'
p2521
I2
sS's.p'
p2522
I4
sS'plays'
p2523
I4
sS'bluntly'
p2524
I2
sS'collins'
p2525
I5
sS';'
I62
sS'nicholas'
p2526
I2
sS'focuses'
p2527
I2
sS'filings'
p2528
I5
sS'stance'
p2529
I2
sS'commercial'
p2530
I13
sS'following'
p2531
I4
sS'convert'
p2532
I2
sS'morsels'
p2533
I2
sS'host'
p2534
I3
sS'products'
p2535
I15
sS'oversees'
p2536
I2
sS'gene'
p2537
I2
sS'deterrents'
p2538
I2
sS'examining'
p2539
I2
sS'felled'
p2540
I2
sS'danger'
p2541
I2
sS'win'
p2542
I2
sS'manage'
p2543
I2
sS'clout'
p2544
I2
sS'cloud'
p2545
I2
sS'remains'
p2546
I3
sS'hudson'
p2547
I3
sS'camera'
p2548
I2
sS'historically'
p2549
I2
sS'reflects'
p2550
I2
sS'bureaucracy'
p2551
I3
sS'started'
p2552
I6
sS'sihanouk'
p2553
I3
sS'visibility'
p2554
I2
sS'missile'
p2555
I2
sS'mitsubishi'
p2556
I3
sS'appointed'
p2557
I2
sS'announcing'
p2558
I2
sS'sanctions'
p2559
I2
sS'irreparable'
p2560
I2
sS'servants'
p2561
I2
sS'meet'
p2562
I4
sS'control'
p2563
I11
sS'beijing'
p2564
I2
sS'links'
p2565
I2
sS'rejoining'
p2566
I2
sS'evans-black'
p2567
I2
sS'sought'
p2568
I5
sS'founding'
p2569
I3
sS'fearsome'
p2570
I2
sS'meanwhile'
p2571
I4
sS'arrangement'
p2572
I2
sS'ferdinand'
p2573
I2
sS'immoral'
p2574
I2
sS'ronald'
p2575
I2
sS'sardinia'
p2576
I2
sS'spelling'
p2577
I2
sS'agenda'
p2578
I3
sS'healthcare'
p2579
I15
sS'quotations'
p2580
I2
sS'136,800'
p2581
I2
sS'contractions'
p2582
I3
sS'including'
p2583
I14
sS'costume'
p2584
I3
sS'mentioned'
p2585
I2
sS'brood'
p2586
I2
sS'temporal'
p2587
I2
sS'melloan'
p2588
I2
sS'auto'
p2589
I7
sS'pins'
p2590
I2
sS'hands'
p2591
I4
sS'front'
p2592
I4
sS'handy'
p2593
I2
sS'literacy'
p2594
I2
sS'university'
p2595
I11
sS'registrations'
p2596
I3
sS'slide'
p2597
I4
sS'commonwealth'
p2598
I2
sS'chunk'
p2599
I2
sS'700'
p2600
I3
sS'sands'
p2601
I2
sS'measure'
p2602
I3
sS'margins'
p2603
I3
sS'special'
p2604
I9
sS'gallant'
p2605
I2
sS'entertainment'
p2606
I3
sS'strokes'
p2607
I2
sS'libor'
p2608
I2
sS'cause'
p2609
I5
sS'dissented'
p2610
I2
sS'alleged'
p2611
I3
sS'delegates'
p2612
I2
sS'ill.'
p2613
I2
sS'completely'
p2614
I2
sS'intruder'
p2615
I2
sS'improvisational'
p2616
I2
sS'232.4'
p2617
I2
sS'20,000'
p2618
I2
sS'hostile'
p2619
I4
sS'determining'
p2620
I2
sS'florida'
p2621
I4
sS'mac'
p2622
I4
sS'keep'
p2623
I9
sS'timed'
p2624
I2
sS'austin'
p2625
I3
sS'prospective'
p2626
I2
sS'succeeds'
p2627
I3
sS'zero-sum'
p2628
I2
sS'powerful'
p2629
I2
sS'mosher'
p2630
I2
sS'cardiac'
p2631
I2
sS'drinker'
p2632
I3
sS'precisely'
p2633
I2
sS'quality'
p2634
I3
sS'management'
p2635
I6
sS'relations'
p2636
I5
sS'attach'
p2637
I2
sS'attack'
p2638
I4
sS'final'
p2639
I6
sS'exactly'
p2640
I2
sS'picturesquely'
p2641
I2
sS'counterespionage'
p2642
I2
sS'bassist'
p2643
I2
sS'manipulation'
p2644
I2
sS'fuzzy'
p2645
I2
sS'overwhelming'
p2646
I2
sS'outline'
p2647
I2
sS'submitted'
p2648
I3
sS'providing'
p2649
I2
sS'borden'
p2650
I4
sS'julian'
p2651
I2
sS'unchanged'
p2652
I4
sS'chambers'
p2653
I2
sS'need'
p2654
I6
sS'instrumentation'
p2655
I2
sS'j&b'
p2656
I2
sS'able'
p2657
I13
sS'2.6'
p2658
I2
sS'instance'
p2659
I3
sS'relatives'
p2660
I2
sS'ind.'
p2661
I2
sS'refocusing'
p2662
I2
sS'mileage'
p2663
I2
sS'duels'
p2664
I2
sS'passionately'
p2665
I2
sS'learns'
p2666
I2
sS'nuisance'
p2667
I2
sS'intrinsic'
p2668
I2
sS'132.00'
p2669
I2
sS'19,000'
p2670
I2
sS'consequences'
p2671
I3
sS'construction'
p2672
I4
sS'conventional-arms'
p2673
I3
sS'impression'
p2674
I3
sS'parker'
p2675
I2
sS'partners'
p2676
I2
sS'based'
p2677
I11
sS'('
I43
sS'winner'
p2678
I2
sS'employer'
p2679
I2
sS'bases'
p2680
I4
sS'employee'
p2681
I2
sS'employed'
p2682
I4
sS'michigan'
p2683
I3
sS'overall'
p2684
I5
sS'sipping'
p2685
I2
sS'120'
p2686
I3
sS'joint'
p2687
I8
sS'122'
p2688
I2
sS'legitimate'
p2689
I2
sS'joins'
p2690
I2
sS'consecutive'
p2691
I2
sS'buyer'
p2692
I3
sS'kong'
p2693
I5
sS'procedures'
p2694
I3
sS'gray'
p2695
I2
sS'processes'
p2696
I2
sS'tobacco'
p2697
I3
sS'hiring'
p2698
I2
sS'evaders'
p2699
I2
sS'dpc'
p2700
I2
sS'overflowing'
p2701
I2
sS'grab'
p2702
I2
sS'legacy'
p2703
I2
sS'usefulness'
p2704
I3
sS'desperate'
p2705
I2
sS'operated'
p2706
I2
sS'written'
p2707
I2
sS'tens'
p2708
I2
sS'neither'
p2709
I4
sS'comparable'
p2710
I4
sS'sole'
p2711
I3
sS'spares'
p2712
I2
sS'importance'
p2713
I2
sS'interfere'
p2714
I2
sS'efficiency'
p2715
I2
sS'key'
p2716
I4
sS'police'
p2717
I3
sS'precious'
p2718
I2
sS'hits'
p2719
I3
sS'limits'
p2720
I5
sS'minds'
p2721
I3
sS'admit'
p2722
I2
sS'jersey'
p2723
I4
sS'tuesday'
p2724
I9
sS'quit'
p2725
I2
sS'addition'
p2726
I4
sS'wills'
p2727
I2
sS'slowly'
p2728
I2
sS'industriale'
p2729
I2
sS'controlled'
p2730
I2
sS'league'
p2731
I8
sS'chivas'
p2732
I8
sS'bipartisan'
p2733
I2
sS'owns'
p2734
I6
sS'resident'
p2735
I2
sS'4.55'
p2736
I2
sS'7.160'
p2737
I2
sS'seoul'
p2738
I2
sS'proceeds'
p2739
I3
sS'parts'
p2740
I4
sS'northwest'
p2741
I5
sS'party'
p2742
I5
sS'159.7'
p2743
I2
sS'promoters'
p2744
I2
sS'appearances'
p2745
I2
sS'abounds'
p2746
I2
sS'compared'
p2747
I5
sS'frequently'
p2748
I2
sS'spree'
p2749
I2
sS'impeccable'
p2750
I2
sS'destruction'
p2751
I3
sS'transaction'
p2752
I9
sS'i'
I42
sS'modeled'
p2753
I2
sS'well'
p2754
I13
sS'47'
p2755
I2
sS'spy-chaser'
p2756
I2
sS'evenhanded'
p2757
I2
sS'increasingly'
p2758
I2
sS'sources'
p2759
I2
sS'mistakes'
p2760
I2
sS'hess'
p2761
I4
sS'high-grade'
p2762
I3
sS'stock-picking'
p2763
I2
sS'deposits'
p2764
I3
sS'nato'
p2765
I8
sS'mitre'
p2766
I2
sS'sventek'
p2767
I3
sS'ample'
p2768
I2
sS'devised'
p2769
I2
sS'crushed'
p2770
I2
sS'historic'
p2771
I2
sS'267'
p2772
I2
sS'burden'
p2773
I3
sS'immediately'
p2774
I2
sS'prominent'
p2775
I2
sS'loss'
p2776
I3
sS'necessary'
p2777
I3
sS'lost'
p2778
I7
sS'teenagers'
p2779
I2
sS'stevenson'
p2780
I3
sS'clarinetist'
p2781
I4
sS'lose'
p2782
I6
sS'eurobond'
p2783
I2
sS'francisco'
p2784
I2
sS'cleveland'
p2785
I2
sS'home'
p2786
I15
sS'peter'
p2787
I5
sS'leery'
p2788
I2
sS'filers'
p2789
I4
sS'intersections'
p2790
I2
sS'?'
I15
sS'reaching'
p2791
I2
sS'journal'
p2792
I8
sS'monetary'
p2793
I2
sS'expansion'
p2794
I2
sS'ridley'
p2795
I2
sS'90,000'
p2796
I2
sS'unhinged'
p2797
I2
sS'freedom'
p2798
I3
sS'cleans'
p2799
I2
sS'recognized'
p2800
I3
sS'23.4'
p2801
I2
sS'equally'
p2802
I2
sS'previously'
p2803
I6
sS'political'
p2804
I11
sS'washington'
p2805
I8
sS'h.'
p2806
I2
sS'utility'
p2807
I3
sS'accused'
p2808
I2
sS'additional'
p2809
I4
sS'museum'
p2810
I2
sS'imperial'
p2811
I2
sS'inner'
p2812
I3
sS'north'
p2813
I7
sS'subjective'
p2814
I2
sS'goals'
p2815
I2
sS'courts'
p2816
I3
sS'highest'
p2817
I3
sS'25-year-old'
p2818
I2
sS'he'
p2819
I148
sS'signed'
p2820
I2
sS'converted'
p2821
I2
sS'limit'
p2822
I3
sS'piece'
p2823
I4
sS'display'
p2824
I2
sS'strengthens'
p2825
I2
sS'devise'
p2826
I2
sS'tissues'
p2827
I2
sS'generating'
p2828
I2
sS'upsets'
p2829
I2
sS'education'
p2830
I3
sS'diego'
p2831
I2
sS'functions'
p2832
I2
sS'offensive'
p2833
I2
sS'policy-making'
p2834
I2
sS'disposing'
p2835
I2
sS'stay'
p2836
I4
sS'additionally'
p2837
I2
sS'deter'
p2838
I3
sS'friends'
p2839
I2
sS'persistent'
p2840
I2
sS'portion'
p2841
I2
sS'diagnosis'
p2842
I2
sS'theory-teaching'
p2843
I2
sS'frankfurt'
p2844
I3
sS'indirectly'
p2845
I2
sS'obstruction'
p2846
I2
sS'protest'
p2847
I5
sS'asian'
p2848
I4
sS'aides'
p2849
I6
sS'consists'
p2850
I2
sS'undersecretary'
p2851
I2
sS'captain'
p2852
I2
sS'whose'
p2853
I8
sS'buddy'
p2854
I2
sS'marcos'
p2855
I19
sS'swan'
p2856
I2
sS'flashpoint'
p2857
I2
sS'stolen'
p2858
I2
sS'reforms'
p2859
I4
sS'affect'
p2860
I5
sS'vast'
p2861
I2
sS'pilgrim'
p2862
I3
sS'moonies'
p2863
I3
sS'companies'
p2864
I15
sS'solution'
p2865
I2
sS'herbert'
p2866
I2
sS'convenience'
p2867
I2
sS'cholesterol'
p2868
I3
sS'heading'
p2869
I2
sS'force'
p2870
I7
sS'japanese'
p2871
I31
sS'across'
p2872
I4
sS'likely'
p2873
I7
sS'tangential'
p2874
I2
sS'mercantile'
p2875
I2
sS'even'
p2876
I31
sS'spouses'
p2877
I3
sS'asia'
p2878
I8
sS'spokesman'
p2879
I8
sS'liberated'
p2880
I2
sS'dr.'
p2881
I9
sS'new'
p2882
I83
sS'net'
p2883
I4
sS'ever'
p2884
I4
sS'never'
p2885
I5
sS'disposable'
p2886
I2
sS'drew'
p2887
I3
sS'active'
p2888
I4
sS'100'
p2889
I7
sS'contraction'
p2890
I2
sS'dry'
p2891
I2
sS'credit'
p2892
I6
sS'harass'
p2893
I2
sS'suitable'
p2894
I2
sS'avena'
p2895
I2
sS'campaign'
p2896
I3
sS'revenue-raising'
p2897
I2
sS'reagan'
p2898
I6
sS'ninety'
p2899
I2
sS'moral'
p2900
I2
sS'guests'
p2901
I2
sS'criminals'
p2902
I2
sS'army'
p2903
I2
sS'arms'
p2904
I5
sS'call'
p2905
I4
sS'calm'
p2906
I2
sS'survive'
p2907
I2
sS'type'
p2908
I2
sS'tell'
p2909
I2
sS'wary'
p2910
I2
sS'composite'
p2911
I3
sS'wars'
p2912
I2
sS'berlin'
p2913
I2
sS'kgb'
p2914
I4
sS'adult'
p2915
I2
sS'aligned'
p2916
I2
sS'2.68'
p2917
I2
sS'rights'
p2918
I21
sS'gasoline'
p2919
I2
sS'oleg'
p2920
I2
sS'laid-back'
p2921
I2
sS'exceptions'
p2922
I3
sS'give'
p2923
I9
sS'laughs'
p2924
I2
sS'lafalce'
p2925
I3
sS'involve'
p2926
I3
sS'10,000'
p2927
I4
sS'foods'
p2928
I2
sS'degenerate'
p2929
I2
sS'advancing'
p2930
I2
sS'sideline'
p2931
I2
sS'amazing'
p2932
I3
sS'answer'
p2933
I3
sS'faulty'
p2934
I2
sS'undesirable'
p2935
I2
sS'minority'
p2936
I3
sS'loyalty'
p2937
I2
sS'president'
p2938
I50
sS'purchase'
p2939
I8
sS'attempt'
p2940
I3
sS'third'
p2941
I8
sS'baa-1'
p2942
I2
sS'maintain'
p2943
I3
sS'fraudulently'
p2944
I2
sS'operations'
p2945
I8
sS'before'
p2946
I11
sS'position'
p2947
I6
sS'personal'
p2948
I6
sS'soaking'
p2949
I2
sS','
I1417
sS'better'
p2950
I8
sS'encounter'
p2951
I2
sS'accusatory'
p2952
I2
sS'weeks'
p2953
I7
sS'overcome'
p2954
I2
sS'dec.'
p2955
I5
sS'workout'
p2956
I2
sS'academics'
p2957
I2
sS'therapy'
p2958
I3
sS'pollution-control'
p2959
I3
sS'schieffelin'
p2960
I2
sS'fringes'
p2961
I2
sS'went'
p2962
I5
sS'meal'
p2963
I2
sS'mean'
p2964
I6
sS'principles'
p2965
I3
sS'marital'
p2966
I6
sS'milan'
p2967
I3
sS'trading'
p2968
I12
sS'stealing'
p2969
I2
sS'aids'
p2970
I2
sS'contend'
p2971
I3
sS'velvet'
p2972
I2
sS'second-level'
p2973
I2
sS'content'
p2974
I3
sS'surprise'
p2975
I3
sS'sluggish'
p2976
I2
sS'tashi'
p2977
I3
sS'turning'
p2978
I4
sS'u.s.'
p2979
I76
sS'ramos'
p2980
I2
sS'garrett'
p2981
I2
sS'starts'
p2982
I2
sS'signature'
p2983
I2
sS'stewart'
p2984
I3
sS'features'
p2985
I3
sS'economists'
p2986
I3
sS'brazil'
p2987
I2
sS'reassure'
p2988
I2
sS'comforted'
p2989
I2
sS'executions'
p2990
I3
sS'featured'
p2991
I3
sS'plurality'
p2992
I2
sS'feb.'
p2993
I2
sS'38-year-old'
p2994
I2
sS'overstating'
p2995
I2
sS'woodwind'
p2996
I2
sS'burgess'
p2997
I2
sS'digs'
p2998
I2
sS'somewhat'
p2999
I2
sS'begins'
p3000
I2
sS'anxiety'
p3001
I2
sS'matter'
p3002
I2
sS'divisiveness'
p3003
I2
sS'enables'
p3004
I2
sS'bidder'
p3005
I2
sS'sees'
p3006
I2
sS'bounces'
p3007
I2
sS'mind'
p3008
I2
sS'seen'
p3009
I2
sS'seem'
p3010
I4
sS'seek'
p3011
I4
sS'tells'
p3012
I2
sS'jealously'
p3013
I2
sS'50.46'
p3014
I2
sS'transnational'
p3015
I2
sS'gabele'
p3016
I2
sS'holliger'
p3017
I2
sS'maria'
p3018
I2
sS'zealand'
p3019
I11
sS'don'
p3020
I2
sS'medical'
p3021
I5
sS'points'
p3022
I7
sS'principle'
p3023
I3
sS'consumer'
p3024
I5
sS'dow'
p3025
I3
sS'probe'
p3026
I4
sS'stepping'
p3027
I2
sS'trade-off'
p3028
I2
sS'explain'
p3029
I2
sS'debts'
p3030
I4
sS'exports'
p3031
I2
sS'stop'
p3032
I2
sS'coast'
p3033
I3
sS'christopher'
p3034
I2
sS'u.n.'
p3035
I4
sS'conn.'
p3036
I3
sS'earl'
p3037
I2
sS'earn'
p3038
I2
sS'bar'
p3039
I2
sS'remora'
p3040
I2
sS'fields'
p3041
I2
sS'bay'
p3042
I3
sS'ban'
p3043
I2
sS'ethical'
p3044
I2
sS'fascinating'
p3045
I2
sS'testing'
p3046
I2
sS'decided'
p3047
I3
sS'subject'
p3048
I6
sS'lancaster'
p3049
I2
sS'said'
p3050
I143
sS'fastballs'
p3051
I2
sS'2120.5'
p3052
I2
sS'future'
p3053
I7
sS'tolerance'
p3054
I2
sS'anti-western'
p3055
I2
sS'profitable'
p3056
I4
sS'juxtapose'
p3057
I2
sS'vows'
p3058
I2
sS'vernon'
p3059
I2
sS'picking'
p3060
I2
sS'suggested'
p3061
I3
sS'disorderly'
p3062
I2
sS'resistant'
p3063
I2
sS'uncertainty'
p3064
I2
sS'against'
p3065
I34
sS'appeared'
p3066
I2
sS'tiant'
p3067
I3
sS'ballparks'
p3068
I2
sS'initiative'
p3069
I2
sS'39.125'
p3070
I2
sS'puts'
p3071
I3
sS'basis'
p3072
I3
sS'three'
p3073
I16
sS'particulars'
p3074
I2
sS'commission'
p3075
I6
sS'interest'
p3076
I22
sS'basic'
p3077
I2
sS'entered'
p3078
I3
sS'lovely'
p3079
I3
sS'threw'
p3080
I3
sS'deeper'
p3081
I2
sS'mci'
p3082
I2
sS'dismiss'
p3083
I2
sS'fireballs'
p3084
I2
sS'personally'
p3085
I3
sS'aviation'
p3086
I2
sS'tank'
p3087
I2
sS'oboist'
p3088
I2
sS'economies'
p3089
I4
sS'near'
p3090
I5
sS'suppose'
p3091
I2
sS'balance'
p3092
I3
sS'employees'
p3093
I8
sS'seven'
p3094
I3
sS'changed'
p3095
I3
sS'metropolitan'
p3096
I3
sS'is'
p3097
I193
sS'it'
p3098
I165
sS'ii'
p3099
I2
sS'in'
p3100
I469
sS'80,000'
p3101
I2
sS'if'
p3102
I38
sS'bottles'
p3103
I3
sS'make'
p3104
I27
sS'stickier'
p3105
I2
sS'sidelines'
p3106
I3
sS'meets'
p3107
I3
sS'human-rights'
p3108
I2
sS'delight'
p3109
I2
sS'kim'
p3110
I2
sS'opportunity'
p3111
I3
sS'kid'
p3112
I2
sS'butter'
p3113
I3
sS'waggishly'
p3114
I2
sS'practiced'
p3115
I2
sS'programs'
p3116
I7
sS'settled'
p3117
I3
sS'stimuli'
p3118
I2
sS'materials'
p3119
I2
sS'claims'
p3120
I6
sS'800'
p3121
I4
sS'investments'
p3122
I7
sS'left'
p3123
I7
sS'gov.'
p3124
I2
sS'just'
p3125
I20
sS'sentence'
p3126
I2
sS'sporting'
p3127
I2
sS'human'
p3128
I4
sS'yet'
p3129
I8
sS'yew'
p3130
I2
sS'candidate'
p3131
I2
sS'save'
p3132
I2
sS'trimming'
p3133
I2
sS'braumeisters'
p3134
I2
sS'supervisors'
p3135
I2
sS'background'
p3136
I2
sS'destroy'
p3137
I2
sS'dignity'
p3138
I2
sS'profit-seeking'
p3139
I2
sS'unnecessary'
p3140
I3
sS'dean'
p3141
I2
sS'deal'
p3142
I6
sS'somehow'
p3143
I3
sS'short-term'
p3144
I6
sS'motor-control'
p3145
I3
sS'bold'
p3146
I2
sS'bank-backed'
p3147
I2
sS'burn'
p3148
I2
sS'confrontation'
p3149
I3
sS'magazine'
p3150
I3
sS'afternoon'
p3151
I4
sS'automatically'
p3152
I2
sS'nerve'
p3153
I4
sS'motivate'
p3154
I2
sS'managers'
p3155
I5
sS'formerly'
p3156
I4
sS'amounted'
p3157
I2
sS'down'
p3158
I24
sS'thinned'
p3159
I2
sS'amsterdam'
p3160
I2
sS'tennis'
p3161
I2
sS'editor'
p3162
I4
sS'zayadi'
p3163
I3
sS'at-bat'
p3164
I2
sS'bert'
p3165
I2
sS'chiappa'
p3166
I2
sS'form'
p3167
I4
sS'immorality'
p3168
I2
sS'penney'
p3169
I4
sS'ford'
p3170
I2
sS'failure'
p3171
I3
sS'225'
p3172
I2
sS'analyst'
p3173
I3
sS'stages'
p3174
I2
sS'drive'
p3175
I4
sS'marking'
p3176
I2
sS'million-dollar'
p3177
I2
sS'generally'
p3178
I4
sS'exporter'
p3179
I2
sS'dies'
p3180
I2
sS'felt'
p3181
I4
sS'utilities'
p3182
I2
sS'fell'
p3183
I6
sS'authorities'
p3184
I3
sS'weekend'
p3185
I2
sS'died'
p3186
I5
sS'billion'
p3187
I29
sS'assume'
p3188
I5
sS'annuity'
p3189
I3
sS'daily'
p3190
I5
sS'parcels'
p3191
I2
sS'profits'
p3192
I3
sS'overdue'
p3193
I3
sS'managed'
p3194
I3
sS'walking'
p3195
I2
sS'invent'
p3196
I2
sS'manager'
p3197
I8
sS'mile'
p3198
I3
sS'leche'
p3199
I4
sS'mill'
p3200
I2
sS'milk'
p3201
I10
sS'anticipation'
p3202
I2
sS'757-200s'
p3203
I3
sS'disorders'
p3204
I2
sS'technique'
p3205
I3
sS'father'
p3206
I3
sS'editors'
p3207
I2
sS'finally'
p3208
I4
sS'unpleasant'
p3209
I2
sS'marks'
p3210
I3
sS'misstatements'
p3211
I2
sS'advises'
p3212
I2
sS'keck'
p3213
I2
sS'string'
p3214
I2
sS'lynch'
p3215
I2
sS'uneventful'
p3216
I2
sS'66-year-old'
p3217
I2
sS'governments'
p3218
I6
sS'did'
p3219
I18
sS'proposals'
p3220
I4
sS'magnet'
p3221
I4
sS'item'
p3222
I2
sS'59-dealer'
p3223
I2
sS'attracting'
p3224
I3
sS'unexpected'
p3225
I2
sS'dealing'
p3226
I2
sS'telerate'
p3227
I3
sS'run'
p3228
I4
sS'soviets'
p3229
I16
sS'21.44'
p3230
I2
sS'majors'
p3231
I5
sS'adds'
p3232
I3
sS'page-one'
p3233
I2
sS'norris'
p3234
I4
sS'10-point'
p3235
I2
sS'international'
p3236
I18
sS'growls'
p3237
I2
sS'proclaiming'
p3238
I2
sS'transportation'
p3239
I3
sS'wain'
p3240
I2
sS'wail'
p3241
I2
sS'involuntarily'
p3242
I2
sS'french'
p3243
I3
sS'polyrhythms'
p3244
I2
sS'dewar'
p3245
I2
sS'earthquake'
p3246
I2
sS'box'
p3247
I2
sS'cuckoo'
p3248
I4
sS'canadian'
p3249
I8
sS'institute'
p3250
I3
sS'salvage'
p3251
I2
sS'suggestion'
p3252
I2
sS'taipei'
p3253
I2
sS'adjustable'
p3254
I3
sS'useful'
p3255
I4
sS'merely'
p3256
I2
sS'elixir'
p3257
I2
sS'licensing'
p3258
I2
sS'spring-early'
p3259
I2
sS'sympathetic'
p3260
I2
sS'troops'
p3261
I2
sS'france'
p3262
I3
sS'creamy'
p3263
I2
sS'lorenzo'
p3264
I2
sS'sharing'
p3265
I2
sS'fine-tuned'
p3266
I2
sS'acceptable'
p3267
I2
sS'realty'
p3268
I2
sS'effort'
p3269
I3
sS'fly'
p3270
I2
sS'tokyo'
p3271
I10
sS'soul'
p3272
I2
sS'growing'
p3273
I6
sS'making'
p3274
I9
sS'carolina'
p3275
I3
sS'claim'
p3276
I10
sS'uruguay'
p3277
I2
sS'lobbying'
p3278
I2
sS'non-invasive'
p3279
I3
sS'council'
p3280
I2
sS'spanning'
p3281
I2
sS'range'
p3282
I4
sS'galbani'
p3283
I2
sS'chemical'
p3284
I2
sS'tile'
p3285
I2
sS'inputs'
p3286
I2
sS'145'
p3287
I2
sS'140'
p3288
I2
sS'may'
p3289
I27
sS'149'
p3290
I2
sS'membership'
p3291
I5
sS'mae'
p3292
I8
sS'designed'
p3293
I4
sS'epileptics'
p3294
I2
sS'aisles'
p3295
I2
sS'grow'
p3296
I3
sS'pressuring'
p3297
I2
sS'man'
p3298
I6
sS'hannover'
p3299
I2
sS'neck'
p3300
I2
sS'johnson'
p3301
I4
sS'maybe'
p3302
I5
sS'borrowing'
p3303
I2
sS'tale'
p3304
I3
sS'switch'
p3305
I2
sS'deposit'
p3306
I3
sS'african'
p3307
I2
sS'talk'
p3308
I4
sS'nearly'
p3309
I7
sS'shoes'
p3310
I2
sS'canberra'
p3311
I2
sS'disclosure'
p3312
I2
sS'argues'
p3313
I2
sS'cuts'
p3314
I2
sS'argued'
p3315
I6
sS'group'
p3316
I26
sS'monitor'
p3317
I4
sS'undermined'
p3318
I2
sS'policy'
p3319
I7
sS'mail'
p3320
I5
sS'mcenaney'
p3321
I3
sS'main'
p3322
I3
sS'texas'
p3323
I13
sS'finance'
p3324
I8
sS'views'
p3325
I3
sS'impulses'
p3326
I3
sS'undisclosed'
p3327
I2
sS'sooner'
p3328
I2
sS'killed'
p3329
I2
sS'attorneys'
p3330
I3
sS'careless'
p3331
I2
sS'rock'
p3332
I2
sS'scolded'
p3333
I2
sS'zurich'
p3334
I2
sS'whirlwinds'
p3335
I2
sS'relive'
p3336
I2
sS'canada'
p3337
I6
sS'living'
p3338
I2
sS'miles'
p3339
I2
sS'correct'
p3340
I2
sS'earlier'
p3341
I13
sS'afl-cio'
p3342
I2
sS'hefty'
p3343
I2
sS'wildbad'
p3344
I2
sS'california'
p3345
I6
sS'keith'
p3346
I2
sS'220,000'
p3347
I2
sS'advance'
p3348
I2
sS'carnival'
p3349
I2
sS'suisse'
p3350
I2
sS'thing'
p3351
I4
sS'think'
p3352
I8
sS'frequent'
p3353
I5
sS'first'
p3354
I28
sS'exotic'
p3355
I2
sS'americans'
p3356
I7
sS'fast'
p3357
I3
sS'suspended'
p3358
I2
sS'carry'
p3359
I5
sS'corporations'
p3360
I6
sS'sounds'
p3361
I2
sS'rome'
p3362
I2
sS'little'
p3363
I8
sS'slept'
p3364
I2
sS'anyone'
p3365
I4
sS'speaking'
p3366
I2
sS'eyes'
p3367
I2
sS'allegedly'
p3368
I3
sS'moscow'
p3369
I7
sS'pompano'
p3370
I2
sS'ricca'
p3371
I2
sS'once-cozy'
p3372
I2
sS'bio-analytical'
p3373
I2
sS'11'
p3374
I7
sS'10'
p3375
I22
sS'13'
p3376
I4
sS'12'
p3377
I5
sS'15'
p3378
I11
sS'14'
p3379
I4
sS'sailing'
p3380
I2
sS'16'
p3381
I2
sS'19'
p3382
I4
sS'18'
p3383
I3
sS'protected'
p3384
I2
sS'venture'
p3385
I7
sS'were'
p3386
I57
sS'gathering'
p3387
I2
sS'briefs'
p3388
I2
sS'voices'
p3389
I3
sS'conspiracy'
p3390
I2
sS'pastry'
p3391
I3
sS'stigma'
p3392
I2
sS'warsaw'
p3393
I4
sS'potential'
p3394
I5
sS'performance'
p3395
I6
sS'1,250'
p3396
I2
sS'channel'
p3397
I2
sS'200'
p3398
I2
sS'norman'
p3399
I2
sS'trace'
p3400
I2
sS'normal'
p3401
I2
sS'208'
p3402
I2
sS'paid'
p3403
I8
sS'pair'
p3404
I2
sS'proxies'
p3405
I2
sS'12,500'
p3406
I2
sS'especially'
p3407
I2
sS'172.5'
p3408
I2
sS'obligatto'
p3409
I2
sS'rating'
p3410
I6
sS'show'
p3411
I9
sS'contemporary'
p3412
I4
sS'rep.'
p3413
I6
sS'cambodian'
p3414
I3
sS'forecast'
p3415
I2
sS'dice'
p3416
I2
sS'enough'
p3417
I3
sS'black'
p3418
I4
sS'treasury'
p3419
I18
sS'awareness'
p3420
I2
sS'ranking'
p3421
I2
sS'savoring'
p3422
I2
sS'get'
p3423
I13
sS'contracts'
p3424
I4
sS'employers'
p3425
I3
sS'hailed'
p3426
I2
sS'procreation'
p3427
I2
sS'conjunction'
p3428
I2
sS'secondary'
p3429
I3
sS'yield'
p3430
I8
sS'morning'
p3431
I2
sS'stupid'
p3432
I2
sS'audited'
p3433
I2
sS'declared'
p3434
I2
sS'seat'
p3435
I2
sS'j.'
p3436
I4
sS'unaltered'
p3437
I2
sS'wonder'
p3438
I3
sS'kuehn'
p3439
I4
sS'label'
p3440
I2
sS'behind'
p3441
I3
sS'geometric'
p3442
I2
sS'reading'
p3443
I2
sS'checks'
p3444
I2
sS'infrastructure'
p3445
I2
sS'august'
p3446
I5
sS'parent'
p3447
I2
sS'oberstar'
p3448
I2
sS'dates'
p3449
I2
sS'trades'
p3450
I3
sS'according'
p3451
I11
sS'sketchy'
p3452
I2
sS'marietta'
p3453
I3
sS'holders'
p3454
I4
sS'traded'
p3455
I3
sS'among'
p3456
I12
sS'maintained'
p3457
I2
sS'considering'
p3458
I2
sS'mare'
p3459
I2
sS'unusual'
p3460
I3
sS'capable'
p3461
I2
sS'mark'
p3462
I2
sS'cecelia'
p3463
I2
sS'shopping'
p3464
I2
sS'offered'
p3465
I14
sS'dramatic'
p3466
I2
sS'wake'
p3467
I2
sS'prof.'
p3468
I2
sS'odyssey'
p3469
I2
sS'wako'
p3470
I2
sS'sound'
p3471
I2
sS'stacked'
p3472
I2
sS"n't"
p3473
I96
sS'associates'
p3474
I4
sS'margin'
p3475
I2
sS'inadvertence'
p3476
I2
sS'conferences'
p3477
I5
sS'eventually'
p3478
I5
sS'sincere'
p3479
I2
sS'pressing'
p3480
I2
sS'different'
p3481
I7
sS'harsh'
p3482
I2
sS'pay'
p3483
I25
sS'same'
p3484
I6
sS'thinning'
p3485
I2
sS'arguments'
p3486
I4
sS'1900s'
p3487
I2
sS'buy-outs'
p3488
I2
sS'amenable'
p3489
I2
sS'running'
p3490
I4
sS'totally'
p3491
I5
sS'drain'
p3492
I3
sS'businesslike'
p3493
I3
sS'markus'
p3494
I3
sS'wellington'
p3495
I6
sS'mortgages'
p3496
I13
sS'accountable'
p3497
I2
sS'bottle'
p3498
I2
sS'pa.'
p3499
I3
sS'bromley'
p3500
I3
sS'monet'
p3501
I2
sS'asset-backed'
p3502
I2
sS'money'
p3503
I23
sS'adjustments'
p3504
I3
sS'backs'
p3505
I2
sS'leeway'
p3506
I2
sS'multiples'
p3507
I2
sS'statesmen'
p3508
I2
sS'dipped'
p3509
I2
sS'trespasses'
p3510
I2
sS'4'
I6
sS'electrical'
p3511
I3
sS'grip'
p3512
I2
sS'credentials'
p3513
I2
sS'railroad'
p3514
I2
sS'disappointed'
p3515
I4
sS'acquainted'
p3516
I2
sS'serves'
p3517
I2
sS"'ve"
p3518
I3
sS'chamber'
p3519
I4
sS'audience'
p3520
I8
sS'either'
p3521
I6
sS'retailers'
p3522
I3
sS'served'
p3523
I3
sS'voluntarily'
p3524
I2
sS'tator'
p3525
I3
sS'imprisonment'
p3526
I2
sS'lackeys'
p3527
I2
sS'images'
p3528
I3
sS'staffs'
p3529
I2
sS'measuring'
p3530
I2
sS'specializing'
p3531
I2
sS'underwriters'
p3532
I2
sS'notable'
p3533
I2
sS'broker'
p3534
I2
sS'conducting'
p3535
I4
sS'80%-owned'
p3536
I2
sS'40,800'
p3537
I2
sS'airline'
p3538
I7
sS'mounting'
p3539
I2
sS'mixed'
p3540
I3
sS'road'
p3541
I3
sS'coupon'
p3542
I2
sS'spreading'
p3543
I2
sS'references'
p3544
I2
sS'gomez'
p3545
I4
sS'spring-training'
p3546
I2
sS'tycoon'
p3547
I2
sS'arranged'
p3548
I2
sS'centerfielder'
p3549
I2
sS'manuel'
p3550
I2
sS'deep'
p3551
I5
sS'general'
p3552
I16
sS'examine'
p3553
I3
sS'file'
p3554
I7
sS'jahn'
p3555
I3
sS'fill'
p3556
I2
sS'again'
p3557
I6
sS'retiring'
p3558
I2
sS'drivers'
p3559
I2
sS'narcotics'
p3560
I2
sS'field'
p3561
I9
sS'outfield'
p3562
I2
sS'4,000'
p3563
I2
sS'students'
p3564
I3
sS'important'
p3565
I4
sS'brands'
p3566
I7
sS'assets'
p3567
I8
sS'represent'
p3568
I2
sS'suny'
p3569
I3
sS'founder'
p3570
I2
sS'suns'
p3571
I4
sS'dollar'
p3572
I9
sS'founded'
p3573
I2
sS'talks'
p3574
I11
sS'reluctant'
p3575
I2
sS'modernization'
p3576
I2
sS'preserved'
p3577
I2
sS'17'
p3578
I4
sS'fall'
p3579
I4
sS'difference'
p3580
I2
sS'imperialists'
p3581
I2
sS'celebrity'
p3582
I2
sS'wsj'
p3583
I2
sS'worded'
p3584
I2
sS'donovan'
p3585
I3
sS'economically'
p3586
I3
sS'20th'
p3587
I2
sS'neighborhood'
p3588
I2
sS'portable'
p3589
I2
sS'solicitations'
p3590
I2
sS'anti-abortionists'
p3591
I2
sS'ritter'
p3592
I2
sS'7*slashhere*8'
p3593
I2
sS'perception'
p3594
I2
sS'perspective'
p3595
I2
sS'lawyer'
p3596
I5
sS'further'
p3597
I4
sS'ziyang'
p3598
I2
sS'stood'
p3599
I2
sS'public'
p3600
I11
sS'movement'
p3601
I8
sS'ranged'
p3602
I3
sS'component'
p3603
I2
sS'ranges'
p3604
I2
sS'operating'
p3605
I7
sS'campaigns'
p3606
I2
sS'900'
p3607
I4
sS'prosecutors'
p3608
I4
sS'airport'
p3609
I3
sS'published'
p3610
I3
sS'milks'
p3611
I2
sS'whimsical'
p3612
I2
sS'tiananmen'
p3613
I3
sS'cowardly'
p3614
I2
sS'africa'
p3615
I2
sS'establish'
p3616
I2
sS'legislator'
p3617
I2
sS'readily'
p3618
I2
sS'shareholders'
p3619
I5
sS'twa'
p3620
I2
sS'eye'
p3621
I2
sS'uniformity'
p3622
I2
sS'interest-bearing'
p3623
I2
sS'two'
p3624
I46
sS'libel'
p3625
I3
sS'achieving'
p3626
I2
sS'pawing'
p3627
I2
sS'controlling'
p3628
I2
sS'none'
p3629
I5
sS'hour'
p3630
I9
sS'recall'
p3631
I2
sS'phrasing'
p3632
I2
sS'remain'
p3633
I6
sS'del'
p3634
I3
sS'eichof'
p3635
I2
sS'marble'
p3636
I2
sS'purchases'
p3637
I8
sS'share'
p3638
I26
sS'minimum'
p3639
I7
sS'purchased'
p3640
I3
sS'sharp'
p3641
I3
sS'narrowly'
p3642
I2
sS'needs'
p3643
I4
sS'subminimum'
p3644
I4
sS'comfort'
p3645
I2
sS'morning-session'
p3646
I2
sS'advice'
p3647
I3
sS'par'
p3648
I2
sS'uninspired'
p3649
I2
sS'coming'
p3650
I5
sS'deukmejian'
p3651
I2
sS'crippling'
p3652
I2
sS'playing'
p3653
I5
sS'rifles'
p3654
I2
sS'rounded'
p3655
I2
sS'ashurst'
p3656
I5
sS'u.s.-soviet'
p3657
I2
sS'industrial'
p3658
I9
sS'through'
p3659
I15
sS'24'
p3660
I3
sS'25'
p3661
I6
sS'26'
p3662
I3
sS'20'
p3663
I6
sS'21'
p3664
I2
sS'23'
p3665
I3
sS'28'
p3666
I2
sS'29'
p3667
I2
sS'squaring'
p3668
I2
sS'detected'
p3669
I2
sS'penn'
p3670
I2
sS'hurting'
p3671
I2
sS'good'
p3672
I12
sS'seeking'
p3673
I7
sS'males'
p3674
I2
sS'socially'
p3675
I2
sS'embezzled'
p3676
I2
sS'association'
p3677
I8
sS'mystery'
p3678
I2
sS'easily'
p3679
I3
sS'65.7'
p3680
I2
sS'habits'
p3681
I3
sS'repeating'
p3682
I3
sS'14-judge'
p3683
I2
sS'harm'
p3684
I2
sS'everyone'
p3685
I3
sS'house'
p3686
I23
sS'energy'
p3687
I3
sS'hard'
p3688
I6
sS'idea'
p3689
I6
sS'oil'
p3690
I4
sS'insurance'
p3691
I5
sS'initiatives'
p3692
I2
sS'creditor'
p3693
I3
sS's.a.'
p3694
I3
sS'1.76'
p3695
I2
sS'longtime'
p3696
I2
sS'disobedience'
p3697
I15
sS'crouched'
p3698
I2
sS'lawrence'
p3699
I3
sS'mikhail'
p3700
I4
sS'extraordinary'
p3701
I3
sS'members'
p3702
I10
sS'backed'
p3703
I5
sS'beginning'
p3704
I6
sS'benefits'
p3705
I3
sS'computers'
p3706
I11
sS'diversion'
p3707
I2
sS'conducted'
p3708
I2
sS'pilots'
p3709
I20
sS'dons'
p3710
I2
sS'mistakenly'
p3711
I2
sS'done'
p3712
I6
sS'embraced'
p3713
I2
sS'wages'
p3714
I2
sS'heights'
p3715
I2
sS'least'
p3716
I7
sS'obligatory'
p3717
I2
sS'regulation'
p3718
I2
sS'statement'
p3719
I5
sS'compromise'
p3720
I13
sS'lease'
p3721
I3
sS'muscles'
p3722
I3
sS'malice'
p3723
I2
sS'sizable'
p3724
I2
sS'part'
p3725
I15
sS'doctors'
p3726
I3
sS'one-stop'
p3727
I2
sS'believe'
p3728
I5
sS'stirs'
p3729
I2
sS'869'
p3730
I2
sS'mclaughlin'
p3731
I4
sS'b'
I2
sS'gotten'
p3732
I2
sS'largely'
p3733
I6
sS'youth'
p3734
I3
sS'chanted'
p3735
I3
sS'lilting'
p3736
I2
sS'aug.'
p3737
I2
sS'orders'
p3738
I2
sS'collateralized'
p3739
I3
sS'built'
p3740
I3
sS'gorbachev'
p3741
I15
sS'majority'
p3742
I3
sS'appellate'
p3743
I2
sS'build'
p3744
I8
sS'province'
p3745
I2
sS'eggs'
p3746
I3
sS'most'
p3747
I27
sS'significant'
p3748
I7
sS'services'
p3749
I6
sS'extremely'
p3750
I3
sS'kiddies'
p3751
I3
sS'charitable'
p3752
I2
sS'joining'
p3753
I2
sS'thomas'
p3754
I2
sS'directorate'
p3755
I3
sS'particularly'
p3756
I3
sS'disturbances'
p3757
I2
sS'commissions'
p3758
I4
sS'businesses'
p3759
I8
sS'carefully'
p3760
I2
sS'find'
p3761
I2
sS'merger'
p3762
I3
sS'unhappy'
p3763
I2
sS'generators'
p3764
I2
sS'override'
p3765
I3
sS'8'
I23
sS'distributes'
p3766
I2
sS'merged'
p3767
I2
sS'permission'
p3768
I2
sS'express'
p3769
I9
sS'theft'
p3770
I2
sS'merchandise'
p3771
I3
sS'resolve'
p3772
I4
sS'alisarda'
p3773
I2
sS'testifying'
p3774
I2
sS'six-month'
p3775
I7
sS'common'
p3776
I5
sS'natural-resources'
p3777
I2
sS'marston'
p3778
I3
sS'individual'
p3779
I5
sS'tender'
p3780
I2
sS'feared'
p3781
I2
sS'repairs'
p3782
I2
sS'1,214'
p3783
I2
sS'143,800'
p3784
I2
sS'please'
p3785
I2
sS'fans'
p3786
I5
sS'burned'
p3787
I2
sS'dividends'
p3788
I4
sS'environmentalists'
p3789
I2
sS'labella'
p3790
I2
sS'aircraft'
p3791
I7
sS'scuttle'
p3792
I2
sS'full-time'
p3793
I3
sS'restaurant'
p3794
I2
sS'powers'
p3795
I2
sS'annual'
p3796
I8
sS'foreign'
p3797
I21
sS'upgraded'
p3798
I2
sS'7.875'
p3799
I2
sS'supply'
p3800
I2
sS'simple'
p3801
I2
sS'prosecuting'
p3802
I2
sS'ga.'
p3803
I2
sS'tennessee'
p3804
I2
sS'simply'
p3805
I4
sS'throughout'
p3806
I3
sS'expensive'
p3807
I2
sS'headaches'
p3808
I2
sS'raise'
p3809
I11
sS'create'
p3810
I3
sS'rivals'
p3811
I2
sS'ireland'
p3812
I2
sS'meeting'
p3813
I28
sS'assorted'
p3814
I2
sS'gas'
p3815
I4
sS'gap'
p3816
I2
sS'repertoire'
p3817
I3
sS'understand'
p3818
I4
sS'prices'
p3819
I12
sS'politician'
p3820
I2
sS'solid'
p3821
I2
sS'bill'
p3822
I23
sS'elections'
p3823
I5
sS'denominations'
p3824
I2
sS'fun'
p3825
I3
sS'adjusts'
p3826
I2
sS'century'
p3827
I4
sS'cents'
p3828
I16
sS'violently'
p3829
I2
sS'audience-friendly'
p3830
I2
sS'itself'
p3831
I4
sS'all-important'
p3832
I2
sS'italy'
p3833
I7
sS'sociologist'
p3834
I2
sS'benign'
p3835
I2
sS'discourse'
p3836
I2
sS'development'
p3837
I3
sS'yesterday'
p3838
I14
sS'moment'
p3839
I4
sS'purpose'
p3840
I4
sS'spent'
p3841
I3
sS'swiss'
p3842
I2
sS'organization'
p3843
I4
sS'preference'
p3844
I2
sS'one-year'
p3845
I5
sS'distracting'
p3846
I2
sS'openly'
p3847
I2
sS'mob'
p3848
I2
sS'alternative'
p3849
I3
sS'predominantly'
p3850
I2
sS'timber'
p3851
I2
sS'wage'
p3852
I16
sS'superficial'
p3853
I2
sS'cut'
p3854
I12
sS'deputy'
p3855
I2
sS'source'
p3856
I4
sS'snap'
p3857
I2
sS'administrative'
p3858
I3
sS'big'
p3859
I9
sS'bid'
p3860
I3
sS'jerked'
p3861
I2
sS'matters'
p3862
I4
sS'foreigners'
p3863
I4
sS'bit'
p3864
I2
sS'knock'
p3865
I2
sS'follows'
p3866
I3
sS'alltel'
p3867
I4
sS'glove'
p3868
I2
sS'jolted'
p3869
I2
sS'54.5'
p3870
I2
sS'often'
p3871
I4
sS'obliged'
p3872
I2
sS'30s'
p3873
I2
sS'grass-roots'
p3874
I2
sS'bach'
p3875
I3
sS'2,750'
p3876
I2
sS'delegation'
p3877
I2
sS'pricing'
p3878
I2
sS'vietnamese-backed'
p3879
I2
sS'scale'
p3880
I2
sS'jewelry'
p3881
I9
sS'decision'
p3882
I9
sS'91-day'
p3883
I2
sS'per'
p3884
I2
sS'bogus'
p3885
I2
sS'313.2'
p3886
I2
sS'full-scale'
p3887
I2
sS'patient'
p3888
I4
sS'300'
p3889
I3
sS'continuing'
p3890
I3
sS'fed'
p3891
I4
sS'restrictive'
p3892
I2
sS'mrs.'
p3893
I13
sS'pollution'
p3894
I2
sS'8.04'
p3895
I3
sS'nsa'
p3896
I2
sS'retailer'
p3897
I2
sS'bankruptcy'
p3898
I10
sS'ontario'
p3899
I3
sS'conduits'
p3900
I2
sS'1.50'
p3901
I2
sS's.c.'
p3902
I2
sS'murphy'
p3903
I2
sS'hoped'
p3904
I2
sS'boys'
p3905
I2
sS'two-part'
p3906
I2
sS'hopes'
p3907
I4
sS'subsidiary'
p3908
I5
sS'directed'
p3909
I2
sS'rejection'
p3910
I2
sS"'re"
p3911
I12
sS'planes'
p3912
I3
sS'jumbo'
p3913
I3
sS'curt'
p3914
I2
sS'constant'
p3915
I3
sS'stripped'
p3916
I3
sS'single'
p3917
I3
sS'dragging'
p3918
I2
sS'%'
I144
sS'spanish-language'
p3919
I2
sS'prepared'
p3920
I2
sS'prepares'
p3921
I2
sS'vehicles'
p3922
I2
sS'bankers'
p3923
I3
sS'appalling'
p3924
I2
sS'2001'
p3925
I2
sS'2005'
p3926
I2
sS'magnetically'
p3927
I2
sS'minors'
p3928
I2
sS'pardoned'
p3929
I2
sS'intricate'
p3930
I2
sS'15,000'
p3931
I4
sS'boom-or-bust'
p3932
I2
sS'intensive'
p3933
I4
sS'chaps'
p3934
I2
sS'quarterly'
p3935
I6
sS'labels'
p3936
I4
sS'us$'
p3937
I3
sS'putting'
p3938
I2
sS'demonstrations'
p3939
I7
sS'carla'
p3940
I2
sS'nests'
p3941
I2
sS'edison'
p3942
I2
sS'pittance'
p3943
I2
sS'chicago'
p3944
I5
sS'giving'
p3945
I3
sS'practices'
p3946
I2
sS'access'
p3947
I5
sS'industrialized'
p3948
I2
sS'crossed'
p3949
I2
sS'exercise'
p3950
I2
sS'body'
p3951
I2
sS'exchange'
p3952
I13
sS'jointly'
p3953
I2
sS'objects'
p3954
I2
sS'healing'
p3955
I2
sS'others'
p3956
I10
sS'luis'
p3957
I2
sS'safer'
p3958
I2
sS'extreme'
p3959
I2
sS'39'
p3960
I2
sS'32'
p3961
I3
sS'31'
p3962
I5
sS'30'
p3963
I16
sS'37'
p3964
I4
sS'alaska'
p3965
I2
sS'35'
p3966
I2
sS'named'
p3967
I11
sS'limp'
p3968
I2
sS'private'
p3969
I3
sS'decrease'
p3970
I2
sS'privately'
p3971
I3
sS'composer'
p3972
I3
sS'limb'
p3973
I2
sS'scandal'
p3974
I2
sS'year-ago'
p3975
I2
sS'themselves'
p3976
I8
sS'defendant'
p3977
I2
sS'9.85'
p3978
I2
sS'arranging'
p3979
I2
sS'iii'
p3980
I3
sS'non-communist'
p3981
I2
sS'account'
p3982
I6
sS'16.05'
p3983
I2
sS'erwin'
p3984
I2
sS'obvious'
p3985
I2
sS'closing'
p3986
I2
sS'rehabilitation'
p3987
I3
sS'reserved'
p3988
I2
sS'proportions'
p3989
I2
sS'reserves'
p3990
I2
sS'exclaims'
p3991
I2
sS'employs'
p3992
I3
sS'maturities'
p3993
I4
sS'dinners'
p3994
I2
sS'holds'
p3995
I2
sS'regions'
p3996
I2
sS'responsibilities'
p3997
I3
sS'winners'
p3998
I2
sS'stock'
p3999
I30
sS'204.3'
p4000
I2
sS'collection'
p4001
I2
sS'bothered'
p4002
I2
sS'preferred'
p4003
I6
sS'wisecracks'
p4004
I2
sS'rev.'
p4005
I2
sS'bind'
p4006
I3
sS'lines'
p4007
I4
sS'chief'
p4008
I19
sS'testament-style'
p4009
I2
sS'aiken'
p4010
I2
sS'institutional'
p4011
I3
sS'ever-changing'
p4012
I2
sS'agricultural'
p4013
I2
sS'industries'
p4014
I8
sS'negotiated'
p4015
I3
sS'la'
p4016
I4
sS'labor'
p4017
I8
sS'willing'
p4018
I4
sS'criminal'
p4019
I3
sS'greater'
p4020
I4
sS'cutting'
p4021
I2
sS'sonata'
p4022
I2
sS'insisting'
p4023
I3
sS'dax'
p4024
I2
sS'day'
p4025
I8
sS'capital-gains'
p4026
I2
sS'warned'
p4027
I4
sS'identified'
p4028
I2
sS'morris'
p4029
I2
sS'activate'
p4030
I2
sS'thwart'
p4031
I2
sS'salesman'
p4032
I2
sS'aga'
p4033
I7
sS'istituto'
p4034
I2
sS'postpone'
p4035
I2
sS'red'
p4036
I6
sS'harold'
p4037
I2
sS'582'
p4038
I2
sS'frank'
p4039
I3
sS'fourteen'
p4040
I2
sS'clarify'
p4041
I2
sS'afterward'
p4042
I2
sS'allies'
p4043
I6
sS'recipes'
p4044
I4
sS'barriers'
p4045
I2
sS'retain'
p4046
I5
sS'retail'
p4047
I2
sS'south'
p4048
I9
sS'plastics'
p4049
I3
sS'2,000'
p4050
I2
sS'strategic'
p4051
I3
sS'embarrassed'
p4052
I2
sS'puppet'
p4053
I2
sS'rusticated'
p4054
I2
sS'reached'
p4055
I6
sS'pershare'
p4056
I2
sS'single-a-3'
p4057
I6
sS'single-a-2'
p4058
I5
sS'bosco'
p4059
I2
sS'smolder'
p4060
I2
sS'completed'
p4061
I4
sS'acquire'
p4062
I3
sS'7.45'
p4063
I2
sS'environmental'
p4064
I3
sS'completes'
p4065
I2
sS'glamorous'
p4066
I2
sS'shevardnadze'
p4067
I4
sS'bullhorns'
p4068
I2
sS'asean'
p4069
I2
sS'circumspect'
p4070
I2
sS'visited'
p4071
I2
sS'imaginative'
p4072
I2
sS'comfortable'
p4073
I2
sS'tide'
p4074
I2
sS'38.2'
p4075
I2
sS'unlikely'
p4076
I4
sS'have'
p4077
I111
sS'demonstration'
p4078
I5
sS'tomash'
p4079
I4
sS'dallas'
p4080
I2
sS'parks'
p4081
I2
sS'concerns'
p4082
I5
sS'326'
p4083
I2
sS'provoked'
p4084
I2
sS'1.34'
p4085
I2
sS'1.35'
p4086
I2
sS'1.37'
p4087
I2
sS'unless'
p4088
I3
sS'preliminary'
p4089
I5
sS'sfe'
p4090
I4
sS'reveling'
p4091
I2
sS'payment'
p4092
I4
sS'gurus'
p4093
I2
sS'enthusiastic'
p4094
I2
sS'request'
p4095
I2
sS'1,000'
p4096
I2
sS'1,001'
p4097
I2
sS'normally'
p4098
I2
sS'gnu-emacs'
p4099
I3
sS'selection'
p4100
I2
sS'galvanizing'
p4101
I2
sS'supported'
p4102
I3
sS'portfolio'
p4103
I2
sS'30,180'
p4104
I2
sS'thicket'
p4105
I2
sS'staff'
p4106
I4
sS'communism'
p4107
I2
sS'controls'
p4108
I4
sS'communist'
p4109
I2
sS'regularly'
p4110
I3
sS'timing'
p4111
I3
sS'areas'
p4112
I4
sS'unauthorized'
p4113
I2
sS'362'
p4114
I2
sS'calling'
p4115
I5
sS'ballplayers'
p4116
I2
sS'national'
p4117
I15
sS'grudging'
p4118
I2
sS'j.e.'
p4119
I2
sS'enhanced'
p4120
I3
sS'greece'
p4121
I2
sS'audits'
p4122
I6
sS'36.6'
p4123
I2
sS'exploited'
p4124
I2
sS'attempting'
p4125
I3
sS'clearing'
p4126
I2
sS'brunt'
p4127
I2
sS'discounts'
p4128
I2
sS'routine'
p4129
I2
sS'antics'
p4130
I2
sS'ifint'
p4131
I4
sS'health-conscious'
p4132
I2
sS'buster'
p4133
I2
sS'taking'
p4134
I2
sS'attributed'
p4135
I3
sS'pulp'
p4136
I2
sS'assure'
p4137
I2
sS'liquidating'
p4138
I3
sS'attributes'
p4139
I2
sS'comment'
p4140
I6
sS'fostering'
p4141
I2
sS'clues'
p4142
I2
sS'disarmament'
p4143
I2
sS'manhood'
p4144
I2
sS'copies'
p4145
I2
sS'tyler'
p4146
I2
sS'indicators'
p4147
I4
sS'proposal'
p4148
I7
sS'pravda'
p4149
I2
sS'finished'
p4150
I2
sS'clusters'
p4151
I2
sS'fellow'
p4152
I2
sS'locales'
p4153
I2
sS'divisions'
p4154
I2
sS'crowds'
p4155
I2
sS'appearance'
p4156
I5
sS'value'
p4157
I8
sS'augusta'
p4158
I2
sS'instigated'
p4159
I2
sS'fault'
p4160
I2
sS'almost'
p4161
I6
sS"m'bow"
p4162
I4
sS'helped'
p4163
I3
sS'landfills'
p4164
I2
sS'claimed'
p4165
I3
sS'partner'
p4166
I6
sS'inspector'
p4167
I2
sS')'
I39
sS'administration'
p4168
I7
sS'mahatma'
p4169
I2
sS'frivolous'
p4170
I2
sS'injured'
p4171
I2
sS'kidnapping'
p4172
I2
sS'reporting'
p4173
I3
sS'257.8'
p4174
I2
sS'recourse'
p4175
I2
sS'center'
p4176
I6
sS'ious'
p4177
I2
sS'thought'
p4178
I4
sS'sets'
p4179
I2
sS'comparisons'
p4180
I2
sS'creators'
p4181
I2
sS'soviet'
p4182
I26
sS'latest'
p4183
I4
sS'stores'
p4184
I5
sS'executive'
p4185
I14
sS'domestic'
p4186
I7
sS'clinic'
p4187
I3
sS'interim'
p4188
I2
sS'seats'
p4189
I2
sS'tone'
p4190
I2
sS'ads'
p4191
I2
sS'288'
p4192
I2
sS'add'
p4193
I2
sS'ought'
p4194
I4
sS'tests'
p4195
I7
sS'judiciary'
p4196
I2
sS'hees'
p4197
I7
sS'displaced'
p4198
I2
sS'like'
p4199
I18
sS'success'
p4200
I4
sS'admitted'
p4201
I3
sS'works'
p4202
I3
sS'kucharski'
p4203
I2
sS'accessible'
p4204
I2
sS'classical'
p4205
I3
sS'authority'
p4206
I2
sS'hair'
p4207
I3
sS'novelist'
p4208
I2
sS'righthander'
p4209
I2
sS'blackstone'
p4210
I3
sS'hurricane'
p4211
I2
sS'assuming'
p4212
I2
sS'neurosurgeon'
p4213
I3
sS'expire'
p4214
I2
sS'although'
p4215
I7
sS'hospitable'
p4216
I2
sS'panel'
p4217
I3
sS'about'
p4218
I43
sS'actual'
p4219
I3
sS'discard'
p4220
I2
sS'introduced'
p4221
I4
sS'seniors'
p4222
I2
sS'depart'
p4223
I2
sS'billions'
p4224
I2
sS'boringly'
p4225
I2
sS'female'
p4226
I3
sS'luxembourg-based'
p4227
I2
sS'currier'
p4228
I2
sS'1986'
p4229
I5
sS'1987'
p4230
I7
sS'1984'
p4231
I3
sS'1985'
p4232
I5
sS'1982'
p4233
I2
sS'1983'
p4234
I2
sS'general-practice'
p4235
I2
sS'1988'
p4236
I9
sS'awarded'
p4237
I2
sS'stimulative'
p4238
I2
sS'biggest'
p4239
I5
sS'buy'
p4240
I7
sS'bus'
p4241
I2
sS'brand'
p4242
I5
sS'sequel'
p4243
I2
sS'but'
p4244
I108
sS'8.25'
p4245
I2
sS'repeated'
p4246
I2
sS'8.27'
p4247
I2
sS'wealthier'
p4248
I2
sS'money-fund'
p4249
I3
sS'strident'
p4250
I2
sS'wise'
p4251
I2
sS'dangerous'
p4252
I2
sS'non-japanese'
p4253
I2
sS'flip'
p4254
I2
sS'seib'
p4255
I2
sS'lecheria'
p4256
I3
sS'minutes'
p4257
I4
sS'tastes'
p4258
I3
sS'wage-discrimination'
p4259
I2
sS'supreme'
p4260
I3
sS'recounts'
p4261
I2
sS'crusade'
p4262
I2
sS'83'
p4263
I2
sS'nazionale'
p4264
I2
sS'campus'
p4265
I2
sS'46'
p4266
I2
sS'standing-room-only'
p4267
I2
sS'44'
p4268
I4
sS'45'
p4269
I4
sS'42'
p4270
I2
sS'detail'
p4271
I2
sS'40'
p4272
I4
sS'surreal'
p4273
I2
sS'oat'
p4274
I3
sS'stirred'
p4275
I2
sS'baker'
p4276
I2
sS'biotechnology'
p4277
I2
sS'cookbook'
p4278
I2
sS'limited'
p4279
I7
sS'facilities'
p4280
I6
sS'nwa'
p4281
I2
sS'1.12'
p4282
I2
sS'violate'
p4283
I3
sS'paris'
p4284
I3
sS'1.18'
p4285
I2
sS'7.62'
p4286
I2
sS'under'
p4287
I25
sS'pride'
p4288
I3
sS'merchant'
p4289
I2
sS'lure'
p4290
I2
sS'u.s.-japan'
p4291
I2
sS'legislators'
p4292
I3
sS'risk'
p4293
I5
sS'rise'
p4294
I5
sS'position-squaring'
p4295
I2
sS'every'
p4296
I2
sS'softened'
p4297
I2
sS'harms'
p4298
I2
sS'missionary'
p4299
I2
sS'get-togethers'
p4300
I2
sS'pooled'
p4301
I2
sS'enjoy'
p4302
I4
sS'u.s.-philippine'
p4303
I2
sS'leaders'
p4304
I16
sS'estimates'
p4305
I6
sS'direct'
p4306
I4
sS'street'
p4307
I8
sS'borrowings'
p4308
I2
sS'estimated'
p4309
I11
sS'anti-apartheid'
p4310
I2
sS'hide'
p4311
I2
sS'selected'
p4312
I2
sS'profitability'
p4313
I2
sS'liberty'
p4314
I2
sS'conduct'
p4315
I2
sS'seeks'
p4316
I4
sS'hundreds'
p4317
I3
sS'studio'
p4318
I2
sS'auction'
p4319
I6
sS'30-share'
p4320
I2
sS'analysts'
p4321
I8
sS'chateau'
p4322
I2
sS'changes'
p4323
I12
sS'issuers'
p4324
I3
sS'feelings'
p4325
I2
sS'visible'
p4326
I2
sS'2692.65'
p4327
I2
sS'broker-dealer'
p4328
I2
sS'swings'
p4329
I3
sS'would'
p4330
I86
sS'hospital'
p4331
I3
sS'm.'
p4332
I2
sS'wordplay'
p4333
I2
sS'asset'
p4334
I2
sS'assessment'
p4335
I2
sS'naive'
p4336
I2
sS'resurfaced'
p4337
I2
sS'phone'
p4338
I2
sS'excellent'
p4339
I2
sS'must'
p4340
I8
sS'me'
p4341
I10
sS'join'
p4342
I3
sS'crescott'
p4343
I2
sS'deficiencies'
p4344
I2
sS'install'
p4345
I3
sS'my'
p4346
I8
sS'loosen'
p4347
I2
sS'receivables'
p4348
I5
sS'diminished'
p4349
I3
sS'preserving'
p4350
I2
sS'jetliner'
p4351
I2
sS'times'
p4352
I6
sS'attract'
p4353
I3
sS'end'
p4354
I11
sS'bunt'
p4355
I2
sS'adjacent'
p4356
I2
sS'badly'
p4357
I3
sS'claptrap'
p4358
I2
sS'kavanagh'
p4359
I2
sS'amid'
p4360
I2
sS'acknowledged'
p4361
I2
sS'enter'
p4362
I2
sS'civil-service'
p4363
I2
sS'over'
p4364
I37
sS'expects'
p4365
I5
sS'london'
p4366
I11
sS'expectations'
p4367
I2
sS'writing'
p4368
I2
sS'400'
p4369
I3
sS'payouts'
p4370
I2
sS'`'
I6
sS'roost'
p4371
I2
sS'unsupported'
p4372
I3
sS'26.125'
p4373
I2
sS'30-year'
p4374
I2
sS'alex'
p4375
I2
sS'detroit'
p4376
I3
sS'filling'
p4377
I2
sS'dollar-denominated'
p4378
I2
sS'affiliate'
p4379
I2
sS'each'
p4380
I15
sS'lasting'
p4381
I2
sS'autry'
p4382
I2
sS'magnets'
p4383
I2
sS'combining'
p4384
I2
sS'saturday'
p4385
I2
sS'large'
p4386
I8
sS'collaborated'
p4387
I2
sS'laid'
p4388
I2
sS'got'
p4389
I4
sS'newly'
p4390
I3
sS'gop'
p4391
I2
sS'sept.'
p4392
I3
sS'free'
p4393
I9
sS'fred'
p4394
I2
sS'streamline'
p4395
I2
sS'boosting'
p4396
I2
sS'wanted'
p4397
I4
sS'inexpensive'
p4398
I2
sS'days'
p4399
I28
sS'pence'
p4400
I4
sS'already'
p4401
I8
sS'researcher'
p4402
I5
sS'primary'
p4403
I3
sS'hearing'
p4404
I5
sS'adopted'
p4405
I4
sS'their'
p4406
I70
sS'0.02'
p4407
I2
sS'top'
p4408
I7
sS'0.05'
p4409
I2
sS'too'
p4410
I12
sS'wildly'
p4411
I2
sS'percentage'
p4412
I5
sS'tool'
p4413
I3
sS'serve'
p4414
I2
sS'took'
p4415
I8
sS'negotiating'
p4416
I3
sS'western'
p4417
I7
sS'longer-term'
p4418
I2
sS'roles'
p4419
I2
sS'tourists'
p4420
I2
sS'precocious'
p4421
I2
sS'bridge'
p4422
I2
sS'fashion'
p4423
I4
sS'ran'
p4424
I2
sS'talking'
p4425
I2
sS'advising'
p4426
I2
sS'rap'
p4427
I2
sS'seminar'
p4428
I2
sS'relatively'
p4429
I3
sS'1969'
p4430
I3
sS'thoroughly'
p4431
I2
sS'1967'
p4432
I2
sS'-'
I4
sS'thorough'
p4433
I3
sS'investment'
p4434
I15
sS'though'
p4435
I9
sS'8.03'
p4436
I2
sS'8.01'
p4437
I2
sS'plenty'
p4438
I2
sS'8.05'
p4439
I3
sS'8.09'
p4440
I2
sS'treats'
p4441
I2
sS'flow'
p4442
I4
sS'treaty'
p4443
I8
sS'entertaining'
p4444
I2
sS'agnew'
p4445
I2
sS'sanctuary'
p4446
I2
sS'reductions'
p4447
I3
sS'random'
p4448
I2
sS'sage'
p4449
I2
sS'radio'
p4450
I2
sS'bail'
p4451
I2
sS'sunsets'
p4452
I2
sS'safest'
p4453
I2
sS'delays'
p4454
I2
sS'minnesota'
p4455
I2
sS'542'
p4456
I2
sS'announce'
p4457
I3
sS'oct'
p4458
I2
sS'5*slashhere*16'
p4459
I2
sS'criticized'
p4460
I2
sS'despite'
p4461
I8
sS'report'
p4462
I6
sS'19-year-olds'
p4463
I2
sS'countries'
p4464
I7
sS'shots'
p4465
I2
sS'mergers'
p4466
I2
sS'car-crash'
p4467
I2
sS'habit'
p4468
I2
sS'liquor'
p4469
I2
sS'1960s'
p4470
I2
sS'keenan'
p4471
I8
sS'corrupt'
p4472
I2
sS'machinists'
p4473
I2
sS'brushbacks'
p4474
I2
sS'finger'
p4475
I2
sS'approach'
p4476
I5
sS'7.80'
p4477
I2
sS'weak'
p4478
I2
sS'however'
p4479
I4
sS'boss'
p4480
I2
sS'southeast'
p4481
I2
sS'censorship'
p4482
I2
sS'news'
p4483
I7
sS'predates'
p4484
I2
sS'improve'
p4485
I7
sS'faced'
p4486
I2
sS'protect'
p4487
I6
sS'credit-card'
p4488
I5
sS'players'
p4489
I9
sS'games'
p4490
I2
sS'creditors'
p4491
I7
sS'faces'
p4492
I3
sS'expense'
p4493
I2
sS'karen'
p4494
I2
sS'trust'
p4495
I8
sS'1.1'
p4496
I2
sS'conference'
p4497
I3
sS'jobless'
p4498
I2
sS'rebounded'
p4499
I2
sS'been'
p4500
I53
sS'quickly'
p4501
I5
sS'beer'
p4502
I5
sS'expected'
p4503
I17
sS'republicans'
p4504
I2
sS'enterprises'
p4505
I2
sS'lorded'
p4506
I2
sS'catch'
p4507
I2
sS'feminine-care'
p4508
I2
sS'kentucky'
p4509
I2
sS'gumbel'
p4510
I2
sS'teachers'
p4511
I2
sS'precede'
p4512
I2
sS'accessories'
p4513
I2
sS'expenses'
p4514
I2
sS'brewed'
p4515
I2
sS'experts'
p4516
I5
sS'complex'
p4517
I3
sS'isikoff'
p4518
I2
sS'several'
p4519
I12
sS'peaks'
p4520
I2
sS'workings'
p4521
I2
sS'insisted'
p4522
I2
sS'shortly'
p4523
I2
sS'neurologists'
p4524
I2
sS'charlie'
p4525
I2
sS'savings'
p4526
I3
sS'greatest'
p4527
I3
sS'mother'
p4528
I2
sS'hearts'
p4529
I2
sS'alabama'
p4530
I3
sS'outnumbered'
p4531
I2
sS'arousing'
p4532
I2
sS'authorize'
p4533
I2
sS'departed'
p4534
I2
sS'proposed'
p4535
I13
sS'unemployment'
p4536
I4
sS'proposes'
p4537
I2
sS'vivaldi-at-brunch'
p4538
I2
sS'resigning'
p4539
I2
sS'orange-and-blue'
p4540
I2
sS'greenwich'
p4541
I2
sS'exempting'
p4542
I2
sS'interprets'
p4543
I2
sS'sherbet'
p4544
I2
sS'gave'
p4545
I6
sS'casting'
p4546
I2
sS'judge'
p4547
I19
sS'59'
p4548
I2
sS'advanced'
p4549
I2
sS'apart'
p4550
I3
sS'appearing'
p4551
I2
sS'gift'
p4552
I2
sS'55'
p4553
I3
sS'54'
p4554
I2
sS'hunt'
p4555
I14
sS'51'
p4556
I2
sS'50'
p4557
I11
sS'53'
p4558
I3
sS'unsuspecting'
p4559
I2
sS'offices'
p4560
I2
sS'officer'
p4561
I15
sS'successfully'
p4562
I3
sS'donald'
p4563
I2
sS'election'
p4564
I3
sS'indirect'
p4565
I2
sS'specific'
p4566
I3
sS'combat'
p4567
I3
sS'reinvest'
p4568
I3
sS'savings-type'
p4569
I3
sS'everything'
p4570
I7
sS'newsprint'
p4571
I7
sS'banxquote'
p4572
I6
sS'flaps'
p4573
I3
sS'core'
p4574
I4
sS'corn'
p4575
I2
sS'discount'
p4576
I3
sS'corp'
p4577
I2
sS'chapter'
p4578
I3
sS'misleading'
p4579
I2
sS'ensure'
p4580
I2
sS'steadily'
p4581
I2
sS'efforts'
p4582
I9
sS'twitch'
p4583
I2
sS'presence'
p4584
I6
sS'civil'
p4585
I18
sS'tribune'
p4586
I2
sS'transform'
p4587
I2
sS'class'
p4588
I7
sS'fought'
p4589
I4
sS'purposely'
p4590
I2
sS'head'
p4591
I5
sS'amateur'
p4592
I3
sS'pitching'
p4593
I2
sS'dataproducts'
p4594
I3
sS'attempted'
p4595
I2
sS'differences'
p4596
I2
sS'removes'
p4597
I2
sS'payable'
p4598
I4
sS'heat'
p4599
I2
sS'hear'
p4600
I2
sS'insider-trading'
p4601
I3
sS'counsel'
p4602
I3
sS'versions'
p4603
I4
sS'compositional'
p4604
I2
sS'bids'
p4605
I5
sS'kitschy'
p4606
I2
sS'trim'
p4607
I2
sS'obfuscation'
p4608
I2
sS'peruvian'
p4609
I2
sS'suspicions'
p4610
I2
sS'0.60'
p4611
I2
sS'check'
p4612
I2
sS'propagandists'
p4613
I2
sS'faithful'
p4614
I2
sS'no'
p4615
I32
sS'when'
p4616
I32
sS'setting'
p4617
I4
sS'papers'
p4618
I2
sS'picture'
p4619
I2
sS'loan-loss'
p4620
I2
sS'longer'
p4621
I4
sS'uncovered'
p4622
I2
sS'vietnam'
p4623
I4
sS'oeufs'
p4624
I2
sS'serious'
p4625
I2
sS'remarkable'
p4626
I3
sS'alternatives'
p4627
I2
sS'focus'
p4628
I2
sS'roy'
p4629
I2
sS'row'
p4630
I2
sS'environment'
p4631
I4
sS'charge'
p4632
I7
sS'promoting'
p4633
I2
sS'discovering'
p4634
I2
sS"l'heureux"
p4635
I2
sS'federation'
p4636
I2
sS'sloppy'
p4637
I2
sS'tanks'
p4638
I8
sS'cook'
p4639
I2
sS'8.61'
p4640
I2
sS'8.62'
p4641
I2
sS'8.63'
p4642
I2
sS'clouds'
p4643
I2
sS'impressive'
p4644
I2
sS'level'
p4645
I6
sS'philippines'
p4646
I6
sS'camaraderie'
p4647
I2
sS'posts'
p4648
I2
sS'hawaii'
p4649
I2
sS'standards'
p4650
I8
sS'yale'
p4651
I3
sS'quick'
p4652
I5
sS'money-market'
p4653
I2
sS'babelists'
p4654
I2
sS'heinz'
p4655
I2
sS'says'
p4656
I53
sS'tougher'
p4657
I4
sS'trend'
p4658
I3
sS'journalistic'
p4659
I2
sS'takeoff'
p4660
I3
sS'substitute'
p4661
I4
sS'stennett'
p4662
I2
sS'stands'
p4663
I3
sS'minikes'
p4664
I2
sS'goes'
p4665
I3
sS'water'
p4666
I2
sS'baseball'
p4667
I8
sS'groups'
p4668
I6
sS'healthy'
p4669
I2
sS'emerge'
p4670
I2
sS'paralyzed'
p4671
I3
sS'prompt'
p4672
I2
sS'crisis'
p4673
I2
sS'handled'
p4674
I2
sS'third-quarter'
p4675
I4
sS'sports'
p4676
I3
sS'handles'
p4677
I2
sS'criteria'
p4678
I2
sS'today'
p4679
I10
sS'unwarranted'
p4680
I2
sS'cases'
p4681
I6
sS'tribunal'
p4682
I2
sS'local'
p4683
I2
sS'butterfat'
p4684
I4
sS'modified'
p4685
I2
sS'flagship'
p4686
I2
sS'ms.'
p4687
I11
sS'judy'
p4688
I2
sS'performer'
p4689
I2
sS'figure'
p4690
I4
sS'stroke'
p4691
I2
sS'dropped'
p4692
I5
sS'parliamentary'
p4693
I2
sS'requirements'
p4694
I3
sS'secured'
p4695
I2
sS'1'
I12
sS'ornette'
p4696
I2
sS'fourth'
p4697
I3
sS'3.45'
p4698
I2
sS'information'
p4699
I7
sS'birthday'
p4700
I2
sS'branches'
p4701
I4
sS'rollie'
p4702
I2
sS'liquid'
p4703
I2
sS'refund'
p4704
I2
sS'acts'
p4705
I2
sS'furnished'
p4706
I2
sS'undervalued'
p4707
I2
sS'midnight'
p4708
I2
sS'swank'
p4709
I3
sS'offers'
p4710
I3
sS'prebon'
p4711
I2
sS'delighted'
p4712
I2
sS'78,600'
p4713
I2
sS'31.25'
p4714
I2
sS'name'
p4715
I3
sS'possibilities'
p4716
I2
sS'begun'
p4717
I2
sS'distributor'
p4718
I2
sS'obsession'
p4719
I2
sS'plans'
p4720
I7
sS'hacker'
p4721
I8
sS'ultimately'
p4722
I4
sS'factors'
p4723
I4
sS'profit'
p4724
I4
sS'factory'
p4725
I2
sS'attracted'
p4726
I4
sS'she'
p4727
I10
sS'attended'
p4728
I2
sS'rolls-royce'
p4729
I2
sS'motion'
p4730
I2
sS'turn'
p4731
I5
sS'retreating'
p4732
I2
sS'turf'
p4733
I2
sS'deprogrammings'
p4734
I2
sS'merrill'
p4735
I2
sS'revenue'
p4736
I6
sS'george'
p4737
I6
sS'millions'
p4738
I2
sS'given'
p4739
I3
sS'necessarily'
p4740
I2
sS'district'
p4741
I5
sS'trillion'
p4742
I5
sS'stimulation'
p4743
I3
sS'returns'
p4744
I5
sS'clinical'
p4745
I2
sS'white'
p4746
I13
sS'anesthetized'
p4747
I2
sS'exploring'
p4748
I2
sS'season'
p4749
I7
sS'hun'
p4750
I3
sS'alan'
p4751
I2
sS'released'
p4752
I3
sS'copy'
p4753
I3
sS'wide'
p4754
I2
sS'unfortunately'
p4755
I4
sS'require'
p4756
I5
sS'spokeswoman'
p4757
I2
sS'computer'
p4758
I7
sS'mcbride'
p4759
I2
sS'cards'
p4760
I2
sS'theocracy'
p4761
I2
sS'and'
p4762
I542
sS'ana'
p4763
I2
sS'pro'
p4764
I2
sS'worcester'
p4765
I2
sS'rent'
p4766
I6
sS'sells'
p4767
I4
sS'any'
p4768
I19
sS'prosperity'
p4769
I2
sS'conversion'
p4770
I2
sS'ideas'
p4771
I3
sS'sciences'
p4772
I2
sS'ideal'
p4773
I3
sS'urge'
p4774
I2
sS'sure'
p4775
I3
sS'multiple'
p4776
I2
sS'schimberg'
p4777
I2
sS'probes'
p4778
I2
sS'considered'
p4779
I6
sS'broberg'
p4780
I4
sS'adopt'
p4781
I2
sS'pores'
p4782
I2
sS'senior'
p4783
I14
sS'drastically'
p4784
I2
sS'ginseng'
p4785
I2
sS'allegations'
p4786
I2
sS'trespass'
p4787
I2
sS'hustles'
p4788
I2
sS'favor'
p4789
I3
sS'watergate-beleaguered'
p4790
I2
sS'state'
p4791
I21
sS'crime'
p4792
I2
sS'brissette'
p4793
I3
sS'cautioned'
p4794
I2
sS'dreaded'
p4795
I2
sS'jazz'
p4796
I5
sS'begging'
p4797
I2
sS'expectation'
p4798
I2
sS'2210'
p4799
I2
sS'lighter'
p4800
I2
sS'reveal'
p4801
I2
sS'regarding'
p4802
I2
sS'predicted'
p4803
I2
sS'discussing'
p4804
I3
sS'ignored'
p4805
I2
sS'encourages'
p4806
I3
sS'violated'
p4807
I2
sS'baseball-loving'
p4808
I2
sS'college'
p4809
I4
sS'stanley'
p4810
I2
sS'violates'
p4811
I2
sS'encouraged'
p4812
I2
sS'fails'
p4813
I2
sS'mortgage'
p4814
I26
sS'farmers'
p4815
I2
sS'ways'
p4816
I4
sS'commitments'
p4817
I5
sS'weapons'
p4818
I8
sS'outside'
p4819
I2
sS'moslems'
p4820
I2
sS'8.44'
p4821
I2
sS'8.45'
p4822
I2
sS'8.40'
p4823
I2
sS'8.49'
p4824
I2
sS'now-defunct'
p4825
I2
sS'cities'
p4826
I2
sS'come'
p4827
I9
sS'bite-sized'
p4828
I2
sS'missions'
p4829
I2
sS'region'
p4830
I2
sS'shortstop'
p4831
I2
sS'berra'
p4832
I2
sS'contract'
p4833
I8
sS'senator'
p4834
I2
sS'ntsb'
p4835
I2
sS'cabal'
p4836
I2
sS'billion-yen'
p4837
I2
sS'color'
p4838
I3
sS'promises'
p4839
I3
sS'insist'
p4840
I3
sS'satisfaction'
p4841
I2
sS'61'
p4842
I3
sS'white-haired'
p4843
I2
sS'65'
p4844
I2
sS'66'
p4845
I2
sS'approval'
p4846
I5
sS'68'
p4847
I3
sS'100-share'
p4848
I2
sS'two-year'
p4849
I2
sS'turkey'
p4850
I2
sS'late'
p4851
I11
sS'howard'
p4852
I2
sS'3.53'
p4853
I2
sS'peaceful'
p4854
I2
sS'hardly'
p4855
I4
sS'500'
p4856
I5
sS'engine'
p4857
I2
sS'direction'
p4858
I4
sS'blessing'
p4859
I4
sS'andrew'
p4860
I2
sS'minister'
p4861
I6
sS'pilot'
p4862
I2
sS'case'
p4863
I19
sS'myself'
p4864
I2
sS'mount'
p4865
I2
sS'cash'
p4866
I8
sS'prime-1'
p4867
I2
sS'prime-2'
p4868
I2
sS'mound'
p4869
I2
sS'coupled'
p4870
I2
sS'telephone'
p4871
I5
sS'discrepancy'
p4872
I2
sS'someone'
p4873
I4
sS'converts'
p4874
I2
sS'kimberly-clark'
p4875
I4
sS'mcgregor'
p4876
I2
sS'79.18'
p4877
I2
sS'author'
p4878
I2
sS'granted'
p4879
I3
sS'trip'
p4880
I2
sS'manila'
p4881
I2
sS'buys'
p4882
I2
sS'events'
p4883
I3
sS'week'
p4884
I14
sS'sherblom'
p4885
I2
sS'refusal'
p4886
I2
sS'director'
p4887
I14
sS'delicate'
p4888
I3
sS'changing'
p4889
I2
sS'perennial'
p4890
I2
sS'minimize'
p4891
I2
sS'without'
p4892
I13
sS'relief'
p4893
I3
sS'components'
p4894
I2
sS'reward'
p4895
I2
sS'researchers'
p4896
I8
sS'justify'
p4897
I3
sS'actions'
p4898
I2
sS'lavish'
p4899
I2
sS'violent'
p4900
I3
sS'mazzera'
p4901
I2
sS'polish'
p4902
I2
sS'blow'
p4903
I2
sS'announcement'
p4904
I2
sS'assemblages'
p4905
I2
sS'rose'
p4906
I12
sS'seems'
p4907
I6
sS'except'
p4908
I2
sS'bloc'
p4909
I3
sS'disrupt'
p4910
I2
sS'ross'
p4911
I2
sS'styles'
p4912
I2
sS'virginia'
p4913
I4
sS'loaned'
p4914
I2
sS'1472.76'
p4915
I2
sS'inflation'
p4916
I2
sS'accepted'
p4917
I5
sS'unwilling'
p4918
I2
sS'furniture'
p4919
I2
sS'walt'
p4920
I2
sS'standstill'
p4921
I3
sS'kennedy'
p4922
I3
sS'reduced'
p4923
I5
sS'1989'
p4924
I9
sS'shunned'
p4925
I2
sS'deduct'
p4926
I2
sS'burdens'
p4927
I2
sS'nikkei'
p4928
I3
sS'competition'
p4929
I2
sS'multimillion-dollar'
p4930
I2
sS'arms-reduction'
p4931
I2
sS'top-secret'
p4932
I2
sS'o.'
p4933
I3
sS'mood'
p4934
I3
sS'legal'
p4935
I3
sS'moon'
p4936
I18
sS'provides'
p4937
I3
sS'provider'
p4938
I2
sS'porter'
p4939
I2
sS'norberto'
p4940
I2
sS'beaches'
p4941
I2
sS'on'
p4942
I166
sS'of'
p4943
I656
sS'discussed'
p4944
I2
sS'mutually'
p4945
I2
sS'stand'
p4946
I3
sS'tariffs'
p4947
I2
sS'or'
p4948
I88
sS'cambridge'
p4949
I2
sS'instruments'
p4950
I6
sS'spinal'
p4951
I5
sS'rising'
p4952
I3
sS'determine'
p4953
I3
sS'burton'
p4954
I2
sS'there'
p4955
I29
sS'racism'
p4956
I2
sS'christianity'
p4957
I2
sS'strict'
p4958
I3
sS'strong'
p4959
I6
sS'fastball'
p4960
I3
sS'fundamentals'
p4961
I2
sS'promote'
p4962
I4
sS'street-corner'
p4963
I3
sS'life-insurance'
p4964
I2
sS'triple-a'
p4965
I2
sS'taste'
p4966
I2
sS'totaling'
p4967
I5
sS'britain'
p4968
I6
sS'ingeniously'
p4969
I2
sS'99.1875'
p4970
I2
sS'politics'
p4971
I2
sS'belzbergs'
p4972
I2
sS'operation'
p4973
I8
sS'4.2'
p4974
I4
sS'4.9'
p4975
I2
sS'5'
I3
sS'trash'
p4976
I2
sS'separate'
p4977
I6
sS'includes'
p4978
I2
sS'included'
p4979
I2
sS'funding'
p4980
I2
sS'stocks'
p4981
I6
sS'slowball'
p4982
I2
sS'arsenals'
p4983
I3
sS'calls'
p4984
I3
sS'refinanced'
p4985
I2
sS'invest'
p4986
I3
sS'odds'
p4987
I3
sS'directors'
p4988
I3
sS'all'
p4989
I32
sS'chinese'
p4990
I9
sS'720,000'
p4991
I2
sS'dish'
p4992
I2
sS'settlement'
p4993
I6
sS'decisions'
p4994
I3
sS'jerome'
p4995
I2
sS'high-security'
p4996
I2
sS'participants'
p4997
I5
sS'lavoro'
p4998
I2
sS'dairy'
p4999
I2
sS'lawmakers'
p5000
I2
sS'activities'
p5001
I7
sS'woman'
p5002
I3
sS'worse'
p5003
I3
sS'far'
p5004
I10
sS'fat'
p5005
I3
sS'worst'
p5006
I2
sS'sony'
p5007
I2
sS'morley'
p5008
I2
sS'stimulus'
p5009
I2
sS'employing'
p5010
I2
sS'90.5'
p5011
I2
sS'battle'
p5012
I2
sS'negotiator'
p5013
I2
sS'what'
p5014
I21
sS'sun'
p5015
I3
sS'brief'
p5016
I2
sS'version'
p5017
I3
sS'guns'
p5018
I2
sS'toes'
p5019
I2
sS'christian'
p5020
I2
sS'teodorani'
p5021
I2
sS'certainly'
p5022
I3
sS'andrews'
p5023
I2
sS'berkeley'
p5024
I7
sS'tragedy'
p5025
I2
sS'naval'
p5026
I4
sS'd.c'
p5027
I2
sS'gleeful'
p5028
I2
sS'options'
p5029
I8
sS'1721.4'
p5030
I2
sS'arms-control'
p5031
I4
sS'fla.'
p5032
I2
sS'clifford'
p5033
I3
sS'markets'
p5034
I17
sS'minor'
p5035
I5
sS'horses'
p5036
I2
sS'flat'
p5037
I4
sS'knows'
p5038
I2
sS'known'
p5039
I3
sS'mellow'
p5040
I3
sS'finland'
p5041
I2
sS'division'
p5042
I4
sS'protects'
p5043
I2
sS'pond'
p5044
I2
sS'chores'
p5045
I3
sS'5.4'
p5046
I2
sS'goal'
p5047
I2
sS'rather'
p5048
I10
sS'5.9'
p5049
I2
sS'breaking'
p5050
I9
sS'occasionally'
p5051
I2
sS'stemming'
p5052
I2
sS'speeding'
p5053
I2
sS'explains'
p5054
I2
sS'prepayment'
p5055
I4
sS'lighting'
p5056
I5
sS'unsurprising'
p5057
I2
sS'concentrating'
p5058
I2
sS'short'
p5059
I5
sS'stadiums'
p5060
I2
sS'shore'
p5061
I2
sS'vintage'
p5062
I2
sS'turnover'
p5063
I3
sS'september'
p5064
I8
sS'developed'
p5065
I4
sS'airing'
p5066
I3
sS'inquiries'
p5067
I2
sS'developer'
p5068
I2
sS'agnelli'
p5069
I16
sS'environmentalist'
p5070
I2
sS'harmless'
p5071
I2
sS'strange'
p5072
I2
sS'disagrees'
p5073
I2
sS'tymnet'
p5074
I2
sS'stephen'
p5075
I2
sS'might'
p5076
I21
sS'alter'
p5077
I2
sS'gas-turbine'
p5078
I2
sS'return'
p5079
I7
sS'hunter'
p5080
I2
sS'bancorp'
p5081
I2
sS'bigger'
p5082
I3
sS'marcus'
p5083
I2
sS'transportable'
p5084
I2
sS'characterized'
p5085
I2
sS'weighs'
p5086
I2
sS'weight'
p5087
I2
sS'generation'
p5088
I2
sS'brother'
p5089
I2
sS'expect'
p5090
I9
sS'alcohol'
p5091
I2
sS'imploring'
p5092
I2
sS'health'
p5093
I5
sS'congenial'
p5094
I2
sS'compounding'
p5095
I2
sS'friday'
p5096
I2
sS'effect'
p5097
I5
sS'four-month'
p5098
I2
sS'generate'
p5099
I2
sS'lag'
p5100
I2
sS'fiat'
p5101
I6
sS'introduction'
p5102
I2
sS'deja'
p5103
I2
sS'throws'
p5104
I2
sS'feel'
p5105
I8
sS'8.337'
p5106
I2
sS'fancy'
p5107
I3
sS'traveled'
p5108
I2
sS'feet'
p5109
I3
sS'resnick'
p5110
I2
sS'slower'
p5111
I3
sS'passes'
p5112
I3
sS'story'
p5113
I2
sS'leading'
p5114
I6
sS'interviews'
p5115
I2
sS'180'
p5116
I3
sS'passed'
p5117
I2
sS'finances'
p5118
I2
sS'recovered'
p5119
I2
sS'headache'
p5120
I2
sS'hotel'
p5121
I2
sS'treasurer'
p5122
I2
sS'convinced'
p5123
I2
sS'five-course'
p5124
I2
sS'reliever'
p5125
I2
sS'kind'
p5126
I3
sS'nagging'
p5127
I2
sS'double'
p5128
I2
sS'risks'
p5129
I2
sS'midmorning'
p5130
I2
sS'risky'
p5131
I2
sS'outstanding'
p5132
I4
sS'strengthen'
p5133
I5
sS'imports'
p5134
I2
sS'berthold'
p5135
I4
sS'oriole'
p5136
I2
sS'nights'
p5137
I2
sS'conforming'
p5138
I2
sS'chairman'
p5139
I14
sS'finding'
p5140
I3
sS'sherry'
p5141
I2
sS'fresca'
p5142
I4
sS'added'
p5143
I11
sS'critics'
p5144
I3
sS'electric'
p5145
I2
sS'42,455'
p5146
I2
sS'intervened'
p5147
I2
sS'measures'
p5148
I3
sS'reach'
p5149
I3
sS'75'
p5150
I2
sS'shareholder'
p5151
I4
sS'72'
p5152
I3
sS'70'
p5153
I2
sS'nothing'
p5154
I4
sS'seasons'
p5155
I2
sS'prestige'
p5156
I2
sS'soared'
p5157
I2
sS'patterned'
p5158
I2
sS'gas-tax-increasing'
p5159
I2
sS'dealers'
p5160
I3
sS'45-year-old'
p5161
I3
sS'institutions'
p5162
I10
sS'lying'
p5163
I2
sS'stones'
p5164
I2
sS'restarters'
p5165
I2
sS'cds'
p5166
I6
sS'deserts'
p5167
I2
sS'penalty'
p5168
I5
sS'counterpoint'
p5169
I3
sS'his'
p5170
I74
sS'hit'
p5171
I2
sS'gains'
p5172
I6
sS'mortgage-backed'
p5173
I3
sS'industrywide'
p5174
I2
sS'him'
p5175
I13
sS'grievances'
p5176
I3
sS'statism'
p5177
I2
sS'investigate'
p5178
I2
sS'statist'
p5179
I2
sS'activity'
p5180
I4
sS'wrote'
p5181
I5
sS'principal'
p5182
I3
sS'evangelist-industrialist'
p5183
I2
sS'defense'
p5184
I2
sS'are'
p5185
I128
sS'cleverly'
p5186
I2
sS'2.2'
p5187
I2
sS'2.7'
p5188
I2
sS'arm'
p5189
I4
sS'declined'
p5190
I5
sS'2.4'
p5191
I2
sS'spirited'
p5192
I2
sS'invest*slashhere*net'
p5193
I2
sS'various'
p5194
I6
sS'downturn'
p5195
I2
sS'corruption'
p5196
I2
sS'solo'
p5197
I2
sS'korea'
p5198
I9
sS'recently'
p5199
I12
sS'creating'
p5200
I2
sS'initially'
p5201
I2
sS'sold'
p5202
I12
sS'attention'
p5203
I4
sS'succeed'
p5204
I3
sS'opposition'
p5205
I2
sS'franchise'
p5206
I4
sS'license'
p5207
I2
sS'rubendall'
p5208
I4
sS'became'
p5209
I5
sS'redemptions'
p5210
I2
sS'flies'
p5211
I2
sS'flier'
p5212
I2
sS'reasons'
p5213
I5
sS'sweet'
p5214
I2
sS'slots'
p5215
I2
sS'bolster'
p5216
I3
sS'hashidate'
p5217
I2
sS'due'
p5218
I3
sS'strategy'
p5219
I2
sS'whom'
p5220
I2
sS'reduction'
p5221
I2
sS'3*slashhere*4'
p5222
I5
sS'orioles'
p5223
I2
sS'3*slashhere*8'
p5224
I2
sS'chandler'
p5225
I2
sS'woke'
p5226
I2
sS'precision'
p5227
I2
sS'vaguely'
p5228
I2
sS'brokers'
p5229
I2
sS'demand'
p5230
I4
sS'plants'
p5231
I3
sS'georgia'
p5232
I2
sS'anticult'
p5233
I2
sS'tweaking'
p5234
I2
sS'p.'
p5235
I3
sS'19.7'
p5236
I3
sS'disappointing'
p5237
I2
sS'obstacle'
p5238
I2
sS'headway'
p5239
I2
sS'lengthy'
p5240
I2
sS'fate'
p5241
I2
sS'widely'
p5242
I4
sS'peoples'
p5243
I3
sS'9'
I7
sS'advise'
p5244
I3
sS'doubleday'
p5245
I2
sS'higher'
p5246
I12
sS'biochemist'
p5247
I2
sS'painless'
p5248
I2
sS'negotiate'
p5249
I2
sS'flown'
p5250
I2
sS'moving'
p5251
I5
sS'lower'
p5252
I12
sS'cheek'
p5253
I2
sS'chickens'
p5254
I2
sS'cheer'
p5255
I2
sS'edge'
p5256
I3
sS'machinery'
p5257
I4
sS'grievance'
p5258
I3
sS'competitive'
p5259
I2
sS'questions'
p5260
I3
sS'turbulence'
p5261
I2
sS'regardless'
p5262
I2
sS'prince'
p5263
I3
sS'gems'
p5264
I2
sS'old-time'
p5265
I2
sS'advisers'
p5266
I2
sS'workers'
p5267
I8
sS'contractor'
p5268
I2
sS"tong'il"
p5269
I2
sS'tamer'
p5270
I2
sS'customers'
p5271
I8
sS'discriminatory'
p5272
I2
sS'moody'
p5273
I6
sS'separately'
p5274
I3
sS'collect'
p5275
I2
sS'yorker'
p5276
I3
sS'3.6'
p5277
I2
sS'understood'
p5278
I2
sS'3.5'
p5279
I2
sS'3.2'
p5280
I2
sS'3.8'
p5281
I2
sS'3.9'
p5282
I2
sS'seller'
p5283
I2
sS'bankruptcy-law'
p5284
I2
sS'innovation'
p5285
I2
sS'anne'
p5286
I2
sS'payments'
p5287
I12
sS'under-reported'
p5288
I2
sS'martin'
p5289
I3
sS'refused'
p5290
I4
sS'4.67'
p5291
I2
sS'hindemith'
p5292
I2
sS'dormant'
p5293
I2
sS'pro-'
p5294
I2
sS'hatred'
p5295
I2
sS'intraday'
p5296
I2
sS'introverted'
p5297
I2
sS'question'
p5298
I4
sS'long'
p5299
I9
sS'back-pay'
p5300
I2
sS'vienna'
p5301
I3
sS'files'
p5302
I4
sS'plunge'
p5303
I2
sS'memory'
p5304
I5
sS'filed'
p5305
I13
sS'raising'
p5306
I4
sS'called'
p5307
I7
sS'associated'
p5308
I3
sS'quantification'
p5309
I2
sS'warning'
p5310
I2
sS'rally'
p5311
I2
sS'dessert-menu'
p5312
I2
sS'119'
p5313
I2
sS'peace'
p5314
I5
sS'three-month'
p5315
I4
sS'income'
p5316
I3
sS'mcdonnell'
p5317
I4
sS'muddled'
p5318
I2
sS'six-cent'
p5319
I2
sS'problems'
p5320
I8
sS'helping'
p5321
I2
sS'generated'
p5322
I3
sS'allowing'
p5323
I2
sS'pottery'
p5324
I2
sS'vice'
p5325
I19
sS'departments'
p5326
I2
sS'intentional'
p5327
I2
sS'once'
p5328
I10
sS'issued'
p5329
I6
sS'resistance'
p5330
I2
sS'steve'
p5331
I3
sS'issues'
p5332
I16
sS'disposal'
p5333
I2
sS'stable'
p5334
I3
sS'breach'
p5335
I2
sS'include'
p5336
I5
sS'1988-return'
p5337
I2
sS'drinking'
p5338
I2
sS'posture'
p5339
I2
sS'notes'
p5340
I4
sS'deals'
p5341
I2
sS'three-judge'
p5342
I2
sS'noted'
p5343
I2
sS'concluded'
p5344
I2
sS'someday'
p5345
I2
sS'smaller'
p5346
I3
sS'wrestling'
p5347
I2
sS'sensation'
p5348
I2
sS'beanballs'
p5349
I2
sS'growers'
p5350
I2
sS'makers'
p5351
I9
sS'concessions'
p5352
I2
sS'networks'
p5353
I2
sS'waiting'
p5354
I2
sS'gubernatorial'
p5355
I2
sS'capital'
p5356
I10
sS'realignments'
p5357
I2
sS'n.m'
p5358
I2
sS'chose'
p5359
I2
sS'pushing'
p5360
I2
sS'n.y'
p5361
I2
sS'horse-breeding'
p5362
I2
sS'incriminating'
p5363
I2
sS'fulton'
p5364
I2
sS'heart'
p5365
I4
sS'apt'
p5366
I2
sS'motor'
p5367
I8
sS'apply'
p5368
I6
sS'use'
p5369
I17
sS'from'
p5370
I130
sS'hippie'
p5371
I2
sS'consumption'
p5372
I2
sS'&'
I19
sS'few'
p5373
I11
sS'weeping'
p5374
I2
sS'december'
p5375
I8
sS'timetable'
p5376
I2
sS'journalists'
p5377
I3
sS'shostakovich'
p5378
I2
sS'women'
p5379
I2
sS'1980s'
p5380
I2
sS'nixed'
p5381
I2
sS'critic'
p5382
I2
sS'condominium'
p5383
I2
sS'performed'
p5384
I2
sS'payroll-tax'
p5385
I2
sS'tap'
p5386
I2
sS'120-day'
p5387
I3
sS'tax'
p5388
I18
sS'something'
p5389
I5
sS'summers'
p5390
I2
sS'united'
p5391
I6
sS'sit'
p5392
I3
sS'six'
p5393
I11
sS'traders'
p5394
I5
sS'brian'
p5395
I2
sS'3642.90'
p5396
I2
sS'instead'
p5397
I4
sS'tension'
p5398
I2
sS'restructured'
p5399
I2
sS'abuse'
p5400
I2
sS'ethnic'
p5401
I2
sS'improviser'
p5402
I2
sS'light'
p5403
I12
sS'improvised'
p5404
I2
sS'tropics'
p5405
I4
sS'quake'
p5406
I2
sS'obeisance'
p5407
I2
sS'complicate'
p5408
I2
sS'ships'
p5409
I2
sS'anti-nuclear'
p5410
I2
sS'permanent'
p5411
I2
sS'restrain'
p5412
I2
sS'covered'
p5413
I2
sS'holiday'
p5414
I2
sS'defining'
p5415
I2
sS'8.3875'
p5416
I2
sS'crash'
p5417
I8
sS'contention'
p5418
I2
sS'orthodox'
p5419
I2
sS'material'
p5420
I3
sS'republican'
p5421
I3
sS'investor'
p5422
I5
sS'fled'
p5423
I3
sS'articles'
p5424
I2
sS'cellists'
p5425
I2
sS'bickford'
p5426
I2
sS'bills'
p5427
I6
sS'lawful'
p5428
I5
sS'levy'
p5429
I5
sS'related'
p5430
I2
sS'89'
p5431
I2
sS'our'
p5432
I8
sS'80'
p5433
I3
sS'out'
p5434
I26
sS'category'
p5435
I2
sS'honorably'
p5436
I2
sS'unencumbered'
p5437
I2
sS'dictionary'
p5438
I2
sS'provident'
p5439
I2
sS'york'
p5440
I20
sS'philip'
p5441
I2
sS'segregated'
p5442
I2
sS'navies'
p5443
I2
sS'ltd'
p5444
I2
sS'plainly'
p5445
I2
sS'baby-faced'
p5446
I2
sS'galvanized'
p5447
I2
sS'tacker'
p5448
I4
sS'proposing'
p5449
I2
sS'probation'
p5450
I2
sS'kingman'
p5451
I2
sS'publication'
p5452
I2
sS'priority'
p5453
I2
sS'wood-paneled'
p5454
I2
sS'tidbit'
p5455
I2
sS'shelf'
p5456
I3
sS'doomed'
p5457
I2
sS'debate'
p5458
I7
sS'slides'
p5459
I2
sS'july'
p5460
I8
sS'institution'
p5461
I2
sS'picked'
p5462
I3
sS'cash-flush'
p5463
I2
sS'patients'
p5464
I3
sS'encore'
p5465
I2
sS'1.4'
p5466
I2
sS'1.6'
p5467
I2
sS'sea'
p5468
I5
sS'1.2'
p5469
I2
sS'1.8'
p5470
I2
sS'1.9'
p5471
I2
sS'westward'
p5472
I2
sS'sincerity'
p5473
I2
sS'faux'
p5474
I2
sS'linked'
p5475
I2
sS'pallor'
p5476
I2
sS'agency'
p5477
I15
sS'which'
p5478
I73
sS'martha'
p5479
I2
sS'first-quarter'
p5480
I2
sS'clash'
p5481
I3
sS'collaboration'
p5482
I2
sS'who'
p5483
I68
sS'accountants'
p5484
I4
sS'why'
p5485
I3
sS'administrators'
p5486
I2
sS'410,000'
p5487
I2
sS'looked'
p5488
I4
sS'gain'
p5489
I4
sS'chances'
p5490
I2
sS'agreed'
p5491
I12
sS'planning'
p5492
I2
sS'democrats'
p5493
I6
sS'fear'
p5494
I2
sS'feat'
p5495
I2
sS'pleased'
p5496
I3
sS'litigation'
p5497
I2
sS'piano'
p5498
I2
sS'thousands'
p5499
I3
sS'q.'
p5500
I2
sS'sued'
p5501
I2
sS'watching'
p5502
I2
sS'massacre'
p5503
I2
sS'ones'
p5504
I4
sS'penetrate'
p5505
I2
sS'mulford'
p5506
I9
sS'brain'
p5507
I19
sS'available'
p5508
I3
sS'acquired'
p5509
I3
sS'unfairly'
p5510
I2
sS'mid-november'
p5511
I2
sS'genius'
p5512
I2
sS'closed'
p5513
I12
sS'pure-voiced'
p5514
I2
sS'bought'
p5515
I4
sS'weighing'
p5516
I2
sS'ability'
p5517
I3
sS'opening'
p5518
I6
sS'beverages'
p5519
I2
sS'agencies'
p5520
I3
sS'embarrassment'
p5521
I2
sS'job'
p5522
I4
sS'takeover'
p5523
I3
sS'joe'
p5524
I2
sS'probing'
p5525
I2
sS'declining'
p5526
I3
sS'april'
p5527
I3
sS'urging'
p5528
I4
sS'unclear'
p5529
I2
sS'wall'
p5530
I7
sS'grinevsky'
p5531
I2
sS'narrower'
p5532
I2
sS'ploys'
p5533
I2
sS'packaging'
p5534
I2
sS'table'
p5535
I2
sS'flashes'
p5536
I3
sS'trademark'
p5537
I2
sS'730'
p5538
I2
sS'arbitrator'
p5539
I8
sS'agreements'
p5540
I4
sS'remedies'
p5541
I2
sS'thrusting'
p5542
I2
sS'defunct'
p5543
I3
sS'scrutiny'
p5544
I2
sS'improved'
p5545
I2
sS'present'
p5546
I3
sS'wily'
p5547
I2
sS'overuse'
p5548
I2
sS'choices'
p5549
I2
sS'will'
p5550
I97
sS'thus'
p5551
I2
sS'audiences'
p5552
I3
sS'dual'
p5553
I2
sS'lightweight'
p5554
I2
sS'co-edited'
p5555
I2
sS'perhaps'
p5556
I5
sS'conrail'
p5557
I2
sS'privileges'
p5558
I3
sS'member'
p5559
I5
sS'largest'
p5560
I10
sS'units'
p5561
I4
sS'burnouts'
p5562
I2
sS'difficult'
p5563
I8
sS'premiere'
p5564
I2
sS'disagree'
p5565
I2
sS'correspondent'
p5566
I2
sS'approve'
p5567
I2
sS'fighting'
p5568
I2
sS'english'
p5569
I2
sS'decliners'
p5570
I2
sS'inc.'
p5571
I28
sS'routinely'
p5572
I3
sS'heavily'
p5573
I3
sS'gyrations'
p5574
I2
sS'fishing'
p5575
I2
sS'7*slashhere*16'
p5576
I5
sS'point'
p5577
I5
sS'sky'
p5578
I2
sS'clyde'
p5579
I2
sS'other'
p5580
I56
sS'attractive'
p5581
I2
sS'unprecedented'
p5582
I2
sS'provisions'
p5583
I3
sS'protesters'
p5584
I5
sS'know'
p5585
I5
sS'catchers'
p5586
I2
sS'press'
p5587
I8
sS'miami'
p5588
I2
sS'perpetual'
p5589
I2
sS'loses'
p5590
I2
sS'taxpayers'
p5591
I11
sS'hosts'
p5592
I2
sS'construe'
p5593
I2
sS'james'
p5594
I5
sS'stain-resistant'
p5595
I2
sS'parity'
p5596
I6
sS'because'
p5597
I30
sS'scottish'
p5598
I2
sS'searching'
p5599
I2
sS'115'
p5600
I2
sS'growth'
p5601
I8
sS'export'
p5602
I2
sS'empire'
p5603
I2
sS'employment'
p5604
I2
sS'wellesley'
p5605
I2
sS'lead'
p5606
I5
sS'severance'
p5607
I2
sS'lean'
p5608
I2
sS'york-based'
p5609
I2
sS'leader'
p5610
I14
sS'thoroughfare'
p5611
I2
sS'27.4'
p5612
I2
sS'rare'
p5613
I3
sS'carried'
p5614
I2
sS'getting'
p5615
I6
sS'urged'
p5616
I3
sS'carries'
p5617
I2
sS'carrier'
p5618
I6
sS'sweat'
p5619
I2
sS'urges'
p5620
I2
sS'own'
p5621
I13
sS'polished'
p5622
I2
sS'owe'
p5623
I3
sS'warrants'
p5624
I2
sS'promise'
p5625
I2
sS'registration'
p5626
I3
sS'yankee'
p5627
I2
sS'transfer'
p5628
I3
sS'continental'
p5629
I2
sS'intention'
p5630
I2
sS'ed'
p5631
I2
sS'breeding'
p5632
I2
sS'triggered'
p5633
I4
sS'multistate'
p5634
I2
sS'funds'
p5635
I13
sS'volume'
p5636
I5
sS'automated'
p5637
I2
sS'squeeze'
p5638
I2
sS'made'
p5639
I19
sS'tactics'
p5640
I2
sS'whether'
p5641
I7
sS'record'
p5642
I7
sS'below'
p5643
I3
sS'ruling'
p5644
I10
sS'200,000'
p5645
I2
sS'8.395'
p5646
I2
sS'911,606'
p5647
I2
sS'mutual'
p5648
I2
sS"'ll"
p5649
I3
sS'percent'
p5650
I2
sS'illinois'
p5651
I2
sS'book'
p5652
I3
sS'branch'
p5653
I6
sS'album'
p5654
I2
sS'kinds'
p5655
I4
sS'june'
p5656
I6
sS'frustrate'
p5657
I2
sS'shere'
p5658
I5
sS'income-tax'
p5659
I3
sS'priced'
p5660
I3
sS'4.25'
p5661
I5
sS'4.27'
p5662
I2
sS'intentionally'
p5663
I2
sS'ideological'
p5664
I2
sS'smoke-filled'
p5665
I2
s.