(dp1
S'PRP$'
p2
(dp3
g2
I1
sS'VBG'
p4
I10
sS'FW'
p5
I1
sS'VBN'
p6
I3
sS','
I2
sS'VBP'
p7
I1
sS'WDT'
p8
I1
sS'JJ'
p9
I1
sS'WP'
p10
I1
sS'VBZ'
p11
I5
sS'DT'
p12
I5
sS'#'
I1
sS'"'
I3
sS'RP'
p13
I3
sS'$'
I1
sS'NN'
p14
I2
sS'start'
p15
I8
sS')'
I1
sS'('
I2
sS'VBD'
p16
I17
sS'POS'
p17
I1
sS'.'
I1
sS'TO'
p18
I8
sS'PRP'
p19
I1
sS'RB'
p20
I4
sS':'
I1
sS'NNS'
p21
I1
sS'NNP'
p22
I1
sS'VB'
p23
I33
sS'WRB'
p24
I3
sS'`'
I1
sS'CC'
p25
I13
sS'LS'
p26
I1
sS'PDT'
p27
I1
sS'RBS'
p28
I1
sS'RBR'
p29
I1
sS'CD'
p30
I1
sS'EX'
p31
I1
sS'IN'
p32
I79
sS'WP$'
p33
I1
sS'MD'
p34
I1
sS'NNPS'
p35
I1
sS"'"
I1
sS'JJS'
p36
I1
sS'JJR'
p37
I1
sS'SYM'
p38
I1
sS'UH'
p39
I1
ssg4
(dp40
g2
I1
sg4
I3
sg5
I1
sg6
I14
sS','
I38
sg7
I26
sg8
I1
sg9
I8
sg10
I1
sg11
I23
sg12
I18
sS'#'
I1
sS'"'
I5
sg13
I1
sS'$'
I1
sg14
I25
sg15
I10
sS')'
I2
sS'('
I1
sg16
I7
sg17
I3
sS'.'
I1
sg18
I4
sg19
I1
sg20
I20
sS':'
I2
sg21
I18
sg22
I7
sg23
I9
sg24
I1
sS'`'
I1
sg25
I7
sg26
I1
sg27
I1
sg28
I1
sg29
I1
sg30
I1
sg31
I1
sg32
I62
sg33
I1
sg34
I1
sg35
I1
sS"'"
I1
sg36
I1
sg37
I1
sg38
I1
sg39
I1
ssg5
(dp41
g2
I1
sg4
I1
sg5
I1
sg6
I1
sS','
I2
sg7
I1
sg8
I1
sg9
I1
sg10
I1
sg11
I1
sg12
I1
sS'#'
I1
sS'"'
I1
sg13
I1
sS'$'
I1
sg14
I1
sg15
I2
sS')'
I1
sS'('
I1
sg16
I1
sg17
I1
sS'.'
I1
sg18
I1
sg19
I1
sg20
I1
sS':'
I1
sg21
I1
sg22
I2
sg23
I1
sg24
I1
sS'`'
I1
sg25
I1
sg26
I1
sg27
I1
sg28
I1
sg29
I1
sg30
I2
sg31
I1
sg32
I2
sg33
I1
sg34
I1
sg35
I1
sS"'"
I1
sg36
I1
sg37
I1
sg38
I1
sg39
I1
ssg6
(dp42
g2
I1
sg4
I5
sg5
I1
sg6
I12
sS','
I14
sg7
I48
sg8
I1
sg9
I1
sg10
I1
sg11
I55
sg12
I11
sS'#'
I1
sS'"'
I1
sg13
I1
sS'$'
I1
sg14
I35
sg15
I6
sS')'
I1
sS'('
I2
sg16
I56
sg17
I2
sS'.'
I1
sg18
I2
sg19
I1
sg20
I45
sS':'
I3
sg21
I34
sg22
I1
sg23
I50
sg24
I2
sS'`'
I1
sg25
I7
sg26
I1
sg27
I1
sg28
I1
sg29
I2
sg30
I2
sg31
I1
sg32
I9
sg33
I1
sg34
I2
sg35
I1
sS"'"
I1
sg36
I1
sg37
I2
sg38
I1
sg39
I1
ssS','
(dp43
g2
I1
sg4
I3
sg5
I1
sg6
I12
sS','
I1
sg7
I8
sg8
I2
sg9
I46
sg10
I2
sg11
I9
sg12
I4
sS'#'
I1
sS'"'
I1
sg13
I2
sS'$'
I1
sg14
I309
sg15
I1
sS')'
I7
sS'('
I1
sg16
I11
sg17
I1
sS'.'
I1
sg18
I2
sg19
I7
sg20
I58
sS':'
I1
sg21
I170
sg22
I232
sg23
I10
sg24
I1
sS'`'
I1
sg25
I4
sg26
I4
sg27
I1
sg28
I1
sg29
I1
sg30
I38
sg31
I1
sg32
I3
sg33
I1
sg34
I1
sg35
I11
sS"'"
I1
sg36
I4
sg37
I7
sg38
I1
sg39
I2
ssg7
(dp44
g2
I1
sg4
I1
sg5
I1
sg6
I2
sS','
I12
sg7
I1
sg8
I12
sg9
I2
sg10
I9
sg11
I1
sg12
I8
sS'#'
I1
sS'"'
I2
sg13
I1
sS'$'
I1
sg14
I13
sg15
I2
sS')'
I1
sS'('
I1
sg16
I1
sg17
I1
sS'.'
I1
sg18
I1
sg19
I53
sg20
I23
sS':'
I2
sg21
I88
sg22
I6
sg23
I2
sg24
I1
sS'`'
I1
sg25
I12
sg26
I1
sg27
I1
sg28
I1
sg29
I1
sg30
I5
sg31
I3
sg32
I3
sg33
I1
sg34
I1
sg35
I9
sS"'"
I1
sg36
I3
sg37
I1
sg38
I1
sg39
I1
ssg8
(dp45
g2
I1
sg4
I1
sg5
I1
sg6
I1
sS','
I39
sg7
I1
sg8
I1
sg9
I1
sg10
I1
sg11
I1
sg12
I1
sS'#'
I1
sS'"'
I4
sg13
I1
sS'$'
I1
sg14
I36
sg15
I2
sS')'
I1
sS'('
I1
sg16
I1
sg17
I1
sS'.'
I1
sg18
I2
sg19
I2
sg20
I1
sS':'
I2
sg21
I15
sg22
I2
sg23
I1
sg24
I1
sS'`'
I1
sg25
I2
sg26
I1
sg27
I1
sg28
I1
sg29
I1
sg30
I1
sg31
I1
sg32
I9
sg33
I1
sg34
I1
sg35
I1
sS"'"
I1
sg36
I1
sg37
I1
sg38
I1
sg39
I1
ssg9
(dp46
g2
I38
sg4
I16
sg5
I1
sg6
I16
sS','
I67
sg7
I28
sg8
I1
sg9
I127
sg10
I2
sg11
I46
sg12
I393
sS'#'
I1
sS'"'
I30
sg13
I7
sS'$'
I1
sg14
I26
sg15
I33
sS')'
I1
sS'('
I2
sg16
I31
sg17
I39
sS'.'
I1
sg18
I26
sg19
I4
sg20
I69
sS':'
I8
sg21
I20
sg22
I19
sg23
I59
sg24
I9
sS'`'
I1
sg25
I74
sg26
I1
sg27
I1
sg28
I9
sg29
I14
sg30
I22
sg31
I1
sg32
I219
sg33
I2
sg34
I1
sg35
I1
sS"'"
I1
sg36
I4
sg37
I3
sg38
I1
sg39
I1
ssg10
(dp47
g2
I1
sg4
I1
sg5
I1
sg6
I1
sS','
I17
sg7
I1
sg8
I1
sg9
I1
sg10
I1
sg11
I2
sg12
I4
sS'#'
I1
sS'"'
I3
sg13
I1
sS'$'
I1
sg14
I5
sg15
I2
sS')'
I1
sS'('
I1
sg16
I2
sg17
I1
sS'.'
I2
sg18
I1
sg19
I1
sg20
I2
sS':'
I1
sg21
I10
sg22
I2
sg23
I3
sg24
I1
sS'`'
I1
sg25
I1
sg26
I1
sg27
I1
sg28
I1
sg29
I1
sg30
I1
sg31
I1
sg32
I3
sg33
I1
sg34
I1
sg35
I3
sS"'"
I1
sg36
I1
sg37
I1
sg38
I1
sg39
I1
ssg11
(dp48
g2
I1
sg4
I2
sg5
I1
sg6
I1
sS','
I39
sg7
I1
sg8
I26
sg9
I5
sg10
I12
sg11
I1
sg12
I10
sS'#'
I1
sS'"'
I20
sg13
I1
sS'$'
I1
sg14
I85
sg15
I3
sS')'
I1
sS'('
I1
sg16
I1
sg17
I1
sS'.'
I1
sg18
I1
sg19
I74
sg20
I25
sS':'
I1
sg21
I8
sg22
I68
sg23
I2
sg24
I2
sS'`'
I1
sg25
I13
sg26
I1
sg27
I1
sg28
I1
sg29
I2
sg30
I4
sg31
I11
sg32
I2
sg33
I1
sg34
I1
sg35
I4
sS"'"
I1
sg36
I1
sg37
I1
sg38
I1
sg39
I1
ssg12
(dp49
g2
I1
sg4
I69
sg5
I1
sg6
I34
sS','
I136
sg7
I29
sg8
I7
sg9
I5
sg10
I4
sg11
I72
sg12
I6
sS'#'
I1
sS'"'
I23
sg13
I21
sS'$'
I1
sg14
I17
sg15
I185
sS')'
I1
sS'('
I3
sg16
I107
sg17
I1
sS'.'
I2
sg18
I52
sg19
I2
sg20
I31
sS':'
I10
sg21
I15
sg22
I5
sg23
I115
sg24
I9
sS'`'
I1
sg25
I62
sg26
I1
sg27
I4
sg28
I1
sg29
I5
sg30
I15
sg31
I1
sg32
I645
sg33
I1
sg34
I2
sg35
I1
sS"'"
I1
sg36
I1
sg37
I1
sg38
I1
sg39
I1
ssS'#'
(dp50
g2
I1
sg4
I1
sg5
I1
sg6
I1
sS','
I1
sg7
I1
sg8
I1
sg9
I1
sg10
I1
sg11
I1
sg12
I1
sS'#'
I1
sS'"'
I1
sg13
I1
sS'$'
I1
sg14
I1
sg15
I1
sS')'
I1
sS'('
I1
sg16
I1
sg17
I1
sS'.'
I1
sg18
I1
sg19
I1
sg20
I1
sS':'
I1
sg21
I1
sg22
I1
sg23
I1
sg24
I1
sS'`'
I1
sg25
I1
sg26
I1
sg27
I1
sg28
I1
sg29
I1
sg30
I1
sg31
I1
sg32
I1
sg33
I1
sg34
I1
sg35
I1
sS"'"
I1
sg36
I1
sg37
I1
sg38
I1
sg39
I1
ssS'"'
(dp51
g2
I3
sg4
I3
sg5
I1
sg6
I5
sS','
I62
sg7
I1
sg8
I1
sg9
I17
sg10
I1
sg11
I5
sg12
I10
sS'#'
I1
sS'"'
I3
sg13
I1
sS'$'
I1
sg14
I32
sg15
I62
sS')'
I1
sS'('
I1
sg16
I2
sg17
I7
sS'.'
I2
sg18
I3
sg19
I5
sg20
I4
sS':'
I4
sg21
I7
sg22
I4
sg23
I4
sg24
I1
sS'`'
I1
sg25
I4
sg26
I1
sg27
I1
sg28
I1
sg29
I2
sg30
I1
sg31
I1
sg32
I16
sg33
I1
sg34
I2
sg35
I2
sS"'"
I1
sg36
I1
sg37
I1
sg38
I1
sg39
I1
ssg13
(dp52
g2
I1
sg4
I10
sg5
I1
sg6
I4
sS','
I1
sg7
I3
sg8
I1
sg9
I1
sg10
I1
sg11
I3
sg12
I1
sS'#'
I1
sS'"'
I1
sg13
I1
sS'$'
I1
sg14
I6
sg15
I1
sS')'
I1
sS'('
I1
sg16
I7
sg17
I1
sS'.'
I1
sg18
I1
sg19
I3
sg20
I1
sS':'
I1
sg21
I3
sg22
I1
sg23
I19
sg24
I1
sS'`'
I1
sg25
I1
sg26
I1
sg27
I1
sg28
I1
sg29
I1
sg30
I1
sg31
I1
sg32
I1
sg33
I1
sg34
I1
sg35
I1
sS"'"
I1
sg36
I1
sg37
I1
sg38
I1
sg39
I1
ssS'$'
(dp53
g2
I2
sg4
I5
sg5
I1
sg6
I6
sS','
I5
sg7
I1
sg8
I1
sg9
I4
sg10
I1
sg11
I5
sg12
I5
sS'#'
I1
sS'"'
I1
sg13
I1
sS'$'
I1
sg14
I1
sg15
I1
sS')'
I1
sS'('
I7
sg16
I2
sg17
I2
sS'.'
I1
sg18
I14
sg19
I1
sg20
I4
sS':'
I1
sg21
I1
sg22
I5
sg23
I4
sg24
I1
sS'`'
I1
sg25
I6
sg26
I1
sg27
I1
sg28
I1
sg29
I1
sg30
I2
sg31
I1
sg32
I34
sg33
I1
sg34
I1
sg35
I1
sS"'"
I1
sg36
I1
sg37
I1
sg38
I1
sg39
I1
ssg14
(dp54
g2
I79
sg4
I46
sg5
I1
sg6
I12
sS','
I42
sg7
I4
sg8
I1
sg9
I608
sg10
I1
sg11
I15
sg12
I752
sS'#'
I1
sS'"'
I27
sg13
I5
sS'$'
I1
sg14
I320
sg15
I22
sS')'
I3
sS'('
I1
sg16
I21
sg17
I75
sS'.'
I1
sg18
I14
sg19
I2
sg20
I8
sS':'
I2
sg21
I32
sg22
I83
sg23
I29
sg24
I4
sS'`'
I1
sg25
I58
sg26
I1
sg27
I1
sg28
I1
sg29
I1
sg30
I142
sg31
I1
sg32
I208
sg33
I4
sg34
I1
sg35
I3
sS"'"
I1
sg36
I17
sg37
I15
sg38
I1
sg39
I1
ssS')'
(dp55
g2
I2
sg4
I1
sg5
I1
sg6
I1
sS','
I1
sg7
I1
sg8
I1
sg9
I2
sg10
I1
sg11
I2
sg12
I1
sS'#'
I1
sS'"'
I1
sg13
I1
sS'$'
I1
sg14
I2
sg15
I4
sS')'
I1
sS'('
I1
sg16
I1
sg17
I1
sS'.'
I1
sg18
I1
sg19
I1
sg20
I1
sS':'
I1
sg21
I4
sg22
I7
sg23
I2
sg24
I1
sS'`'
I1
sg25
I1
sg26
I1
sg27
I1
sg28
I1
sg29
I1
sg30
I9
sg31
I1
sg32
I1
sg33
I1
sg34
I1
sg35
I1
sS"'"
I1
sg36
I1
sg37
I1
sg38
I1
sg39
I1
ssS'('
(dp56
g2
I1
sg4
I2
sg5
I1
sg6
I1
sS','
I2
sg7
I1
sg8
I1
sg9
I2
sg10
I1
sg11
I1
sg12
I1
sS'#'
I1
sS'"'
I3
sg13
I1
sS'$'
I1
sg14
I3
sg15
I6
sS')'
I1
sS'('
I1
sg16
I1
sg17
I1
sS'.'
I1
sg18
I2
sg19
I1
sg20
I1
sS':'
I1
sg21
I7
sg22
I6
sg23
I2
sg24
I1
sS'`'
I1
sg25
I1
sg26
I1
sg27
I1
sg28
I1
sg29
I1
sg30
I1
sg31
I1
sg32
I1
sg33
I1
sg34
I1
sg35
I2
sS"'"
I1
sg36
I1
sg37
I1
sg38
I1
sg39
I1
ssg16
(dp57
g2
I1
sg4
I1
sg5
I1
sg6
I1
sS','
I44
sg7
I1
sg8
I24
sg9
I1
sg10
I17
sg11
I1
sg12
I3
sS'#'
I1
sS'"'
I10
sg13
I1
sS'$'
I1
sg14
I108
sg15
I2
sS')'
I1
sS'('
I1
sg16
I1
sg17
I5
sS'.'
I1
sg18
I1
sg19
I93
sg20
I40
sS':'
I1
sg21
I55
sg22
I120
sg23
I2
sg24
I1
sS'`'
I1
sg25
I20
sg26
I1
sg27
I1
sg28
I1
sg29
I1
sg30
I3
sg31
I4
sg32
I1
sg33
I1
sg34
I1
sg35
I12
sS"'"
I1
sg36
I1
sg37
I1
sg38
I1
sg39
I1
ssg17
(dp58
g2
I1
sg4
I1
sg5
I1
sg6
I1
sS','
I1
sg7
I2
sg8
I1
sg9
I1
sg10
I1
sg11
I1
sg12
I1
sS'#'
I1
sS'"'
I1
sg13
I1
sS'$'
I1
sg14
I58
sg15
I1
sS')'
I1
sS'('
I1
sg16
I1
sg17
I1
sS'.'
I1
sg18
I1
sg19
I2
sg20
I2
sS':'
I1
sg21
I16
sg22
I96
sg23
I1
sg24
I1
sS'`'
I1
sg25
I1
sg26
I1
sg27
I1
sg28
I1
sg29
I1
sg30
I1
sg31
I1
sg32
I1
sg33
I1
sg34
I1
sg35
I6
sS"'"
I1
sg36
I1
sg37
I1
sg38
I1
sg39
I1
ssS'.'
(dp59
g2
I1
sg4
I2
sg5
I2
sg6
I23
sS','
I1
sg7
I5
sg8
I1
sg9
I34
sg10
I1
sg11
I14
sg12
I2
sS'#'
I1
sS'"'
I1
sg13
I3
sS'$'
I1
sg14
I305
sg15
I1
sS')'
I2
sS'('
I1
sg16
I25
sg17
I1
sS'.'
I1
sg18
I2
sg19
I12
sg20
I29
sS':'
I2
sg21
I188
sg22
I96
sg23
I15
sg24
I1
sS'`'
I1
sg25
I1
sg26
I1
sg27
I1
sg28
I1
sg29
I1
sg30
I31
sg31
I1
sg32
I2
sg33
I1
sg34
I1
sg35
I5
sS"'"
I1
sg36
I1
sg37
I5
sg38
I1
sg39
I1
ssg18
(dp60
g2
I1
sg4
I19
sg5
I1
sg6
I41
sS','
I8
sg7
I7
sg8
I1
sg9
I48
sg10
I1
sg11
I16
sg12
I1
sS'#'
I1
sS'"'
I3
sg13
I4
sS'$'
I1
sg14
I105
sg15
I4
sS')'
I2
sS'('
I1
sg16
I35
sg17
I1
sS'.'
I1
sg18
I1
sg19
I11
sg20
I18
sS':'
I1
sg21
I67
sg22
I21
sg23
I26
sg24
I2
sS'`'
I1
sg25
I4
sg26
I1
sg27
I1
sg28
I1
sg29
I1
sg30
I17
sg31
I1
sg32
I7
sg33
I1
sg34
I1
sg35
I3
sS"'"
I1
sg36
I1
sg37
I1
sg38
I1
sg39
I1
ssg19
(dp61
g2
I1
sg4
I9
sg5
I1
sg6
I2
sS','
I59
sg7
I9
sg8
I4
sg9
I3
sg10
I4
sg11
I7
sg12
I2
sS'#'
I1
sS'"'
I33
sg13
I1
sS'$'
I1
sg14
I10
sg15
I54
sS')'
I1
sS'('
I1
sg16
I40
sg17
I1
sS'.'
I2
sg18
I6
sg19
I2
sg20
I7
sS':'
I4
sg21
I8
sg22
I1
sg23
I30
sg24
I4
sS'`'
I1
sg25
I28
sg26
I1
sg27
I1
sg28
I1
sg29
I1
sg30
I2
sg31
I1
sg32
I65
sg33
I1
sg34
I2
sg35
I1
sS"'"
I1
sg36
I1
sg37
I1
sg38
I1
sg39
I1
ssg20
(dp62
g2
I2
sg4
I11
sg5
I1
sg6
I22
sS','
I43
sg7
I51
sg8
I9
sg9
I8
sg10
I1
sg11
I46
sg12
I18
sS'#'
I1
sS'"'
I11
sg13
I1
sS'$'
I1
sg14
I36
sg15
I45
sS')'
I3
sS'('
I1
sg16
I59
sg17
I1
sS'.'
I2
sg18
I6
sg19
I27
sg20
I41
sS':'
I7
sg21
I44
sg22
I21
sg23
I31
sg24
I2
sS'`'
I1
sg25
I32
sg26
I1
sg27
I1
sg28
I1
sg29
I3
sg30
I3
sg31
I1
sg32
I26
sg33
I1
sg34
I38
sg35
I3
sS"'"
I1
sg36
I2
sg37
I1
sg38
I1
sg39
I1
ssS':'
(dp63
g2
I1
sg4
I1
sg5
I1
sg6
I1
sS','
I1
sg7
I4
sg8
I1
sg9
I9
sg10
I1
sg11
I1
sg12
I1
sS'#'
I1
sS'"'
I3
sg13
I1
sS'$'
I1
sg14
I39
sg15
I1
sS')'
I4
sS'('
I1
sg16
I3
sg17
I1
sS'.'
I1
sg18
I1
sg19
I3
sg20
I2
sS':'
I1
sg21
I47
sg22
I4
sg23
I4
sg24
I1
sS'`'
I1
sg25
I1
sg26
I1
sg27
I1
sg28
I1
sg29
I1
sg30
I3
sg31
I1
sg32
I2
sg33
I1
sg34
I1
sg35
I1
sS"'"
I1
sg36
I1
sg37
I1
sg38
I1
sg39
I1
ssg21
(dp64
g2
I50
sg4
I29
sg5
I2
sg6
I13
sS','
I24
sg7
I13
sg8
I3
sg9
I357
sg10
I1
sg11
I7
sg12
I152
sS'#'
I1
sS'"'
I9
sg13
I6
sS'$'
I1
sg14
I175
sg15
I27
sS')'
I1
sS'('
I1
sg16
I15
sg17
I20
sS'.'
I3
sg18
I12
sg19
I1
sg20
I2
sS':'
I5
sg21
I21
sg22
I50
sg23
I29
sg24
I5
sS'`'
I1
sg25
I34
sg26
I1
sg27
I1
sg28
I1
sg29
I1
sg30
I109
sg31
I1
sg32
I117
sg33
I2
sg34
I2
sg35
I4
sS"'"
I1
sg36
I8
sg37
I9
sg38
I1
sg39
I1
ssg22
(dp65
g2
I11
sg4
I13
sg5
I2
sg6
I13
sS','
I95
sg7
I3
sg8
I5
sg9
I48
sg10
I2
sg11
I30
sg12
I179
sS'#'
I1
sS'"'
I17
sg13
I2
sS'$'
I1
sg14
I32
sg15
I153
sS')'
I2
sS'('
I12
sg16
I27
sg17
I16
sS'.'
I1
sg18
I27
sg19
I1
sg20
I3
sS':'
I16
sg21
I5
sg22
I607
sg23
I19
sg24
I6
sS'`'
I1
sg25
I65
sg26
I1
sg27
I1
sg28
I1
sg29
I1
sg30
I10
sg31
I1
sg32
I276
sg33
I1
sg34
I1
sg35
I22
sS"'"
I1
sg36
I1
sg37
I1
sg38
I1
sg39
I1
ssg23
(dp66
g2
I1
sg4
I3
sg5
I1
sg6
I1
sS','
I8
sg7
I2
sg8
I1
sg9
I1
sg10
I1
sg11
I1
sg12
I2
sS'#'
I1
sS'"'
I3
sg13
I1
sS'$'
I1
sg14
I4
sg15
I9
sS')'
I1
sS'('
I2
sg16
I3
sg17
I1
sS'.'
I1
sg18
I246
sg19
I8
sg20
I77
sS':'
I2
sg21
I4
sg22
I2
sg23
I8
sg24
I1
sS'`'
I1
sg25
I25
sg26
I1
sg27
I1
sg28
I1
sg29
I1
sg30
I1
sg31
I1
sg32
I4
sg33
I1
sg34
I181
sg35
I1
sS"'"
I1
sg36
I2
sg37
I1
sg38
I1
sg39
I1
ssg24
(dp67
g2
I1
sg4
I1
sg5
I1
sg6
I2
sS','
I3
sg7
I2
sg8
I1
sg9
I1
sg10
I1
sg11
I1
sg12
I2
sS'#'
I1
sS'"'
I3
sg13
I1
sS'$'
I1
sg14
I7
sg15
I5
sS')'
I1
sS'('
I1
sg16
I3
sg17
I1
sS'.'
I1
sg18
I1
sg19
I2
sg20
I4
sS':'
I2
sg21
I2
sg22
I2
sg23
I4
sg24
I1
sS'`'
I1
sg25
I3
sg26
I1
sg27
I1
sg28
I1
sg29
I1
sg30
I2
sg31
I1
sg32
I7
sg33
I1
sg34
I1
sg35
I1
sS"'"
I1
sg36
I1
sg37
I1
sg38
I1
sg39
I1
ssS'`'
(dp68
g2
I1
sg4
I1
sg5
I1
sg6
I1
sS','
I1
sg7
I1
sg8
I1
sg9
I1
sg10
I1
sg11
I1
sg12
I1
sS'#'
I1
sS'"'
I1
sg13
I1
sS'$'
I1
sg14
I1
sg15
I1
sS')'
I1
sS'('
I1
sg16
I1
sg17
I1
sS'.'
I1
sg18
I1
sg19
I1
sg20
I1
sS':'
I1
sg21
I1
sg22
I1
sg23
I1
sg24
I1
sS'`'
I1
sg25
I1
sg26
I1
sg27
I1
sg28
I1
sg29
I1
sg30
I1
sg31
I1
sg32
I1
sg33
I1
sg34
I1
sg35
I1
sS"'"
I1
sg36
I1
sg37
I1
sg38
I1
sg39
I1
ssg25
(dp69
g2
I2
sg4
I2
sg5
I2
sg6
I5
sS','
I93
sg7
I1
sg8
I1
sg9
I34
sg10
I1
sg11
I3
sg12
I1
sS'#'
I1
sS'"'
I13
sg13
I1
sS'$'
I1
sg14
I112
sg15
I44
sS')'
I4
sS'('
I2
sg16
I5
sg17
I1
sS'.'
I2
sg18
I1
sg19
I9
sg20
I12
sS':'
I5
sg21
I73
sg22
I70
sg23
I8
sg24
I2
sS'`'
I1
sg25
I1
sg26
I1
sg27
I1
sg28
I1
sg29
I1
sg30
I15
sg31
I1
sg32
I5
sg33
I1
sg34
I1
sg35
I5
sS"'"
I1
sg36
I1
sg37
I1
sg38
I1
sg39
I1
ssg26
(dp70
g2
I1
sg4
I1
sg5
I1
sg6
I1
sS','
I1
sg7
I1
sg8
I1
sg9
I1
sg10
I1
sg11
I1
sg12
I1
sS'#'
I1
sS'"'
I1
sg13
I1
sS'$'
I1
sg14
I1
sg15
I4
sS')'
I1
sS'('
I1
sg16
I1
sg17
I1
sS'.'
I1
sg18
I1
sg19
I1
sg20
I1
sS':'
I1
sg21
I1
sg22
I1
sg23
I1
sg24
I1
sS'`'
I1
sg25
I1
sg26
I1
sg27
I1
sg28
I1
sg29
I1
sg30
I1
sg31
I1
sg32
I1
sg33
I1
sg34
I1
sg35
I1
sS"'"
I1
sg36
I1
sg37
I1
sg38
I1
sg39
I1
ssg27
(dp71
g2
I1
sg4
I1
sg5
I1
sg6
I1
sS','
I1
sg7
I1
sg8
I1
sg9
I1
sg10
I1
sg11
I1
sg12
I1
sS'#'
I1
sS'"'
I1
sg13
I1
sS'$'
I1
sg14
I1
sg15
I2
sS')'
I1
sS'('
I1
sg16
I1
sg17
I1
sS'.'
I1
sg18
I1
sg19
I1
sg20
I1
sS':'
I1
sg21
I1
sg22
I1
sg23
I2
sg24
I1
sS'`'
I1
sg25
I1
sg26
I1
sg27
I1
sg28
I1
sg29
I1
sg30
I1
sg31
I1
sg32
I2
sg33
I1
sg34
I1
sg35
I1
sS"'"
I1
sg36
I1
sg37
I1
sg38
I1
sg39
I1
ssg28
(dp72
g2
I1
sg4
I1
sg5
I1
sg6
I1
sS','
I1
sg7
I1
sg8
I1
sg9
I1
sg10
I1
sg11
I3
sg12
I3
sS'#'
I1
sS'"'
I1
sg13
I1
sS'$'
I1
sg14
I1
sg15
I1
sS')'
I1
sS'('
I1
sg16
I1
sg17
I3
sS'.'
I1
sg18
I1
sg19
I1
sg20
I2
sS':'
I1
sg21
I1
sg22
I1
sg23
I1
sg24
I1
sS'`'
I1
sg25
I1
sg26
I1
sg27
I1
sg28
I1
sg29
I1
sg30
I2
sg31
I1
sg32
I1
sg33
I1
sg34
I1
sg35
I1
sS"'"
I1
sg36
I1
sg37
I1
sg38
I1
sg39
I1
ssg29
(dp73
g2
I1
sg4
I1
sg5
I1
sg6
I5
sS','
I2
sg7
I2
sg8
I1
sg9
I1
sg10
I1
sg11
I1
sg12
I5
sS'#'
I1
sS'"'
I3
sg13
I1
sS'$'
I1
sg14
I1
sg15
I2
sS')'
I1
sS'('
I1
sg16
I3
sg17
I1
sS'.'
I1
sg18
I2
sg19
I1
sg20
I2
sS':'
I1
sg21
I2
sg22
I2
sg23
I3
sg24
I1
sS'`'
I1
sg25
I2
sg26
I1
sg27
I1
sg28
I1
sg29
I1
sg30
I1
sg31
I1
sg32
I2
sg33
I1
sg34
I2
sg35
I1
sS"'"
I1
sg36
I1
sg37
I1
sg38
I1
sg39
I1
ssg30
(dp74
g2
I3
sg4
I5
sg5
I1
sg6
I4
sS','
I24
sg7
I4
sg8
I1
sg9
I7
sg10
I1
sg11
I13
sg12
I33
sS'#'
I1
sS'"'
I3
sg13
I3
sS'$'
I96
sg14
I41
sg15
I10
sS')'
I2
sS'('
I1
sg16
I15
sg17
I6
sS'.'
I1
sg18
I31
sg19
I1
sg20
I14
sS':'
I47
sg21
I2
sg22
I37
sg23
I7
sg24
I1
sS'`'
I1
sg25
I10
sg26
I1
sg27
I1
sg28
I1
sg29
I1
sg30
I101
sg31
I1
sg32
I85
sg33
I1
sg34
I1
sg35
I1
sS"'"
I1
sg36
I3
sg37
I1
sg38
I1
sg39
I1
ssg31
(dp75
g2
I1
sg4
I1
sg5
I1
sg6
I1
sS','
I5
sg7
I2
sg8
I1
sg9
I1
sg10
I1
sg11
I1
sg12
I1
sS'#'
I1
sS'"'
I3
sg13
I1
sS'$'
I1
sg14
I1
sg15
I4
sS')'
I1
sS'('
I1
sg16
I1
sg17
I1
sS'.'
I1
sg18
I1
sg19
I1
sg20
I1
sS':'
I1
sg21
I1
sg22
I1
sg23
I1
sg24
I1
sS'`'
I1
sg25
I6
sg26
I1
sg27
I1
sg28
I1
sg29
I1
sg30
I1
sg31
I1
sg32
I5
sg33
I1
sg34
I1
sg35
I1
sS"'"
I1
sg36
I1
sg37
I1
sg38
I1
sg39
I1
ssg32
(dp76
g2
I1
sg4
I43
sg5
I1
sg6
I151
sS','
I68
sg7
I13
sg8
I5
sg9
I73
sg10
I1
sg11
I37
sg12
I13
sS'#'
I1
sS'"'
I27
sg13
I3
sS'$'
I1
sg14
I639
sg15
I96
sS')'
I3
sS'('
I3
sg16
I66
sg17
I1
sS'.'
I1
sg18
I2
sg19
I13
sg20
I87
sS':'
I7
sg21
I313
sg22
I69
sg23
I66
sg24
I1
sS'`'
I1
sg25
I23
sg26
I1
sg27
I1
sg28
I1
sg29
I3
sg30
I60
sg31
I1
sg32
I24
sg33
I1
sg34
I1
sg35
I7
sS"'"
I1
sg36
I4
sg37
I24
sg38
I1
sg39
I1
ssg33
(dp77
g2
I1
sg4
I1
sg5
I1
sg6
I1
sS','
I5
sg7
I1
sg8
I1
sg9
I1
sg10
I1
sg11
I1
sg12
I1
sS'#'
I1
sS'"'
I1
sg13
I1
sS'$'
I1
sg14
I2
sg15
I1
sS')'
I1
sS'('
I1
sg16
I1
sg17
I1
sS'.'
I1
sg18
I1
sg19
I1
sg20
I1
sS':'
I1
sg21
I1
sg22
I1
sg23
I1
sg24
I1
sS'`'
I1
sg25
I1
sg26
I1
sg27
I1
sg28
I1
sg29
I1
sg30
I1
sg31
I1
sg32
I1
sg33
I1
sg34
I1
sg35
I1
sS"'"
I1
sg36
I1
sg37
I1
sg38
I1
sg39
I1
ssg34
(dp78
g2
I1
sg4
I1
sg5
I2
sg6
I4
sS','
I8
sg7
I1
sg8
I18
sg9
I2
sg10
I3
sg11
I1
sg12
I5
sS'#'
I1
sS'"'
I7
sg13
I1
sS'$'
I1
sg14
I56
sg15
I1
sS')'
I2
sS'('
I1
sg16
I2
sg17
I1
sS'.'
I1
sg18
I1
sg19
I56
sg20
I9
sS':'
I2
sg21
I29
sg22
I22
sg23
I1
sg24
I1
sS'`'
I1
sg25
I8
sg26
I1
sg27
I1
sg28
I1
sg29
I1
sg30
I1
sg31
I5
sg32
I1
sg33
I1
sg34
I1
sg35
I2
sS"'"
I1
sg36
I1
sg37
I1
sg38
I1
sg39
I1
ssg35
(dp79
g2
I1
sg4
I1
sg5
I1
sg6
I1
sS','
I2
sg7
I1
sg8
I1
sg9
I4
sg10
I1
sg11
I2
sg12
I23
sS'#'
I1
sS'"'
I1
sg13
I1
sS'$'
I1
sg14
I1
sg15
I6
sS')'
I1
sS'('
I1
sg16
I2
sg17
I2
sS'.'
I1
sg18
I3
sg19
I1
sg20
I1
sS':'
I1
sg21
I1
sg22
I47
sg23
I1
sg24
I1
sS'`'
I1
sg25
I2
sg26
I1
sg27
I1
sg28
I1
sg29
I1
sg30
I3
sg31
I1
sg32
I1
sg33
I1
sg34
I1
sg35
I4
sS"'"
I1
sg36
I2
sg37
I1
sg38
I1
sg39
I1
ssS"'"
(dp80
g2
I1
sg4
I1
sg5
I1
sg6
I1
sS','
I1
sg7
I1
sg8
I1
sg9
I1
sg10
I1
sg11
I1
sg12
I1
sS'#'
I1
sS'"'
I1
sg13
I1
sS'$'
I1
sg14
I1
sg15
I1
sS')'
I1
sS'('
I1
sg16
I1
sg17
I1
sS'.'
I1
sg18
I1
sg19
I1
sg20
I1
sS':'
I1
sg21
I1
sg22
I1
sg23
I1
sg24
I1
sS'`'
I1
sg25
I1
sg26
I1
sg27
I1
sg28
I1
sg29
I1
sg30
I1
sg31
I1
sg32
I1
sg33
I1
sg34
I1
sg35
I1
sS"'"
I1
sg36
I1
sg37
I1
sg38
I1
sg39
I1
ssg36
(dp81
g2
I2
sg4
I1
sg5
I1
sg6
I1
sS','
I2
sg7
I2
sg8
I1
sg9
I1
sg10
I1
sg11
I1
sg12
I11
sS'#'
I1
sS'"'
I1
sg13
I2
sS'$'
I1
sg14
I1
sg15
I3
sS')'
I1
sS'('
I1
sg16
I2
sg17
I8
sS'.'
I1
sg18
I1
sg19
I2
sg20
I1
sS':'
I2
sg21
I1
sg22
I1
sg23
I1
sg24
I1
sS'`'
I1
sg25
I3
sg26
I1
sg27
I1
sg28
I1
sg29
I1
sg30
I1
sg31
I1
sg32
I12
sg33
I1
sg34
I1
sg35
I1
sS"'"
I1
sg36
I1
sg37
I1
sg38
I1
sg39
I1
ssg37
(dp82
g2
I1
sg4
I3
sg5
I1
sg6
I2
sS','
I2
sg7
I5
sg8
I1
sg9
I1
sg10
I1
sg11
I1
sg12
I10
sS'#'
I1
sS'"'
I1
sg13
I1
sS'$'
I1
sg14
I5
sg15
I3
sS')'
I1
sS'('
I1
sg16
I5
sg17
I1
sS'.'
I1
sg18
I2
sg19
I2
sg20
I8
sS':'
I1
sg21
I2
sg22
I1
sg23
I9
sg24
I1
sS'`'
I1
sg25
I4
sg26
I1
sg27
I1
sg28
I1
sg29
I1
sg30
I2
sg31
I1
sg32
I10
sg33
I1
sg34
I1
sg35
I1
sS"'"
I1
sg36
I1
sg37
I1
sg38
I1
sg39
I1
ssg38
(dp83
g2
I1
sg4
I1
sg5
I1
sg6
I1
sS','
I1
sg7
I1
sg8
I1
sg9
I1
sg10
I1
sg11
I1
sg12
I1
sS'#'
I1
sS'"'
I1
sg13
I1
sS'$'
I1
sg14
I1
sg15
I1
sS')'
I1
sS'('
I1
sg16
I1
sg17
I1
sS'.'
I1
sg18
I1
sg19
I1
sg20
I1
sS':'
I1
sg21
I1
sg22
I1
sg23
I1
sg24
I1
sS'`'
I1
sg25
I1
sg26
I1
sg27
I1
sg28
I1
sg29
I1
sg30
I1
sg31
I1
sg32
I1
sg33
I1
sg34
I1
sg35
I1
sS"'"
I1
sg36
I1
sg37
I1
sg38
I1
sg39
I1
ssg39
(dp84
g2
I1
sg4
I1
sg5
I1
sg6
I1
sS','
I2
sg7
I1
sg8
I1
sg9
I1
sg10
I1
sg11
I1
sg12
I1
sS'#'
I1
sS'"'
I1
sg13
I1
sS'$'
I1
sg14
I1
sg15
I1
sS')'
I1
sS'('
I1
sg16
I1
sg17
I1
sS'.'
I1
sg18
I1
sg19
I1
sg20
I1
sS':'
I1
sg21
I1
sg22
I1
sg23
I1
sg24
I1
sS'`'
I1
sg25
I1
sg26
I1
sg27
I1
sg28
I1
sg29
I1
sg30
I1
sg31
I1
sg32
I1
sg33
I1
sg34
I1
sg35
I1
sS"'"
I1
sg36
I1
sg37
I1
sg38
I1
sg39
I1
ss.