(dp1
S'PRP$'
p2
(dp3
g2
F0.0052994170641229464
sS'VBG'
p4
F0.033818058843422386
sS'FW'
p5
F0.093457943925233655
sS'VBN'
p6
F0.0077180344738873169
sS','
F0.0021126016689553182
sS'VBP'
p7
F0.0039108330074305829
sS'WDT'
p8
F0.0091157702825888781
sS'JJ'
p9
F0.00069652434352580623
sS'WP'
p10
F0.019342359767891681
sS'VBZ'
p11
F0.012447099825740602
sS'DT'
p12
F0.0029999400011999759
sS'#'
F0.17543859649122806
sS'"'
F0.011966493817311527
sS'RP'
p13
F0.054844606946983544
sS'$'
F0.0099304865938430985
sS'NN'
p14
F0.00076112189367127155
sS'start'
p15
F0.010079375078745118
sS')'
F0.032573289902280131
sS'('
F0.063091482649842268
sS'VBD'
p16
F0.030869802070092607
sS'POS'
p17
F0.0055340343110127288
sS'.'
F0.0012695188523549573
sS'TO'
p18
F0.017710870046491033
sS'PRP'
p19
F0.0026546323334218211
sS'RB'
p20
F0.0063724709256014018
sS':'
F0.0083542188805346695
sS'NNS'
p21
F0.00077718193829175402
sS'NNP'
p22
F0.00059042333353014108
sS'VB'
p23
F0.056827966247632165
sS'WRB'
p24
F0.068649885583524028
sS'`'
F0.17543859649122806
sS'CC'
p25
F0.025555337133870652
sS'LS'
p26
F0.1149425287356322
sS'PDT'
p27
F0.1149425287356322
sS'RBS'
p28
F0.072992700729927015
sS'RBR'
p29
F0.033670033670033669
sS'CD'
p30
F0.0017073587160662453
sS'EX'
p31
F0.04048582995951417
sS'IN'
p32
F0.041173711367071451
sS'WP$'
p33
F0.093457943925233655
sS'MD'
p34
F0.0043725404459991259
sS'NNPS'
p35
F0.010559662090813094
sS"'"
F0.17543859649122806
sS'JJS'
p36
F0.022371364653243846
sS'JJR'
p37
F0.015698587127158554
sS'SYM'
p38
F0.17543859649122806
sS'UH'
p39
F0.14925373134328357
ssg4
(dp40
g2
F0.0052994170641229464
sg4
F0.010145417653026716
sg5
F0.093457943925233655
sg6
F0.036017494211474148
sS','
F0.040139431710151052
sg7
F0.10168165819319515
sg8
F0.0091157702825888781
sg9
F0.0055721947482064499
sg10
F0.019342359767891681
sg11
F0.057256659198406772
sg12
F0.010799784004319914
sS'#'
F0.17543859649122806
sS'"'
F0.01994415636218588
sg13
F0.018281535648994516
sS'$'
F0.0099304865938430985
sg14
F0.0095140236708908931
sg15
F0.012599218848431397
sS')'
F0.065146579804560262
sS'('
F0.031545741324921134
sg16
F0.012711094970038132
sg17
F0.016602102933038185
sS'.'
F0.0012695188523549573
sg18
F0.0088554350232455167
sg19
F0.0026546323334218211
sg20
F0.03186235462800701
sS':'
F0.016708437761069339
sg21
F0.013989274889251573
sg22
F0.004132963334710988
sg23
F0.015498536249354227
sg24
F0.022883295194508008
sS'`'
F0.17543859649122806
sg25
F0.013760566149007274
sg26
F0.1149425287356322
sg27
F0.1149425287356322
sg28
F0.072992700729927015
sg29
F0.033670033670033669
sg30
F0.0017073587160662453
sg31
F0.04048582995951417
sg32
F0.032313545629853543
sg33
F0.093457943925233655
sg34
F0.0043725404459991259
sg35
F0.010559662090813094
sS"'"
F0.17543859649122806
sg36
F0.022371364653243846
sg37
F0.015698587127158554
sg38
F0.17543859649122806
sg39
F0.14925373134328357
ssg5
(dp41
g2
F0.0052994170641229464
sg4
F0.0033818058843422391
sg5
F0.093457943925233655
sg6
F0.0025726781579624388
sS','
F0.0021126016689553182
sg7
F0.0039108330074305829
sg8
F0.0091157702825888781
sg9
F0.00069652434352580623
sg10
F0.019342359767891681
sg11
F0.0024894199651481204
sg12
F0.00059998800023999517
sS'#'
F0.17543859649122806
sS'"'
F0.0039888312724371761
sg13
F0.018281535648994516
sS'$'
F0.0099304865938430985
sg14
F0.00038056094683563578
sg15
F0.0025198437696862795
sS')'
F0.032573289902280131
sS'('
F0.031545741324921134
sg16
F0.0018158707100054475
sg17
F0.0055340343110127288
sS'.'
F0.0012695188523549573
sg18
F0.0022138587558113792
sg19
F0.0026546323334218211
sg20
F0.0015931177314003505
sS':'
F0.0083542188805346695
sg21
F0.00077718193829175402
sg22
F0.0011808466670602822
sg23
F0.0017220595832615807
sg24
F0.022883295194508008
sS'`'
F0.17543859649122806
sg25
F0.0019657951641438962
sg26
F0.1149425287356322
sg27
F0.1149425287356322
sg28
F0.072992700729927015
sg29
F0.033670033670033669
sg30
F0.0034147174321324907
sg31
F0.04048582995951417
sg32
F0.0010423724396726951
sg33
F0.093457943925233655
sg34
F0.0043725404459991259
sg35
F0.010559662090813094
sS"'"
F0.17543859649122806
sg36
F0.022371364653243846
sg37
F0.015698587127158554
sg38
F0.17543859649122806
sg39
F0.14925373134328357
ssg6
(dp42
g2
F0.0052994170641229464
sg4
F0.016909029421711193
sg5
F0.093457943925233655
sg6
F0.030872137895549268
sS','
F0.014788211682687229
sg7
F0.18771998435666798
sg8
F0.0091157702825888781
sg9
F0.00069652434352580623
sg10
F0.019342359767891681
sg11
F0.13691809808314664
sg12
F0.0065998680026399473
sS'#'
F0.17543859649122806
sS'"'
F0.0039888312724371761
sg13
F0.018281535648994516
sS'$'
F0.0099304865938430985
sg14
F0.013319633139247252
sg15
F0.007559531309058838
sS')'
F0.032573289902280131
sS'('
F0.063091482649842268
sg16
F0.10168875976030506
sg17
F0.011068068622025458
sS'.'
F0.0012695188523549573
sg18
F0.0044277175116227583
sg19
F0.0026546323334218211
sg20
F0.07169029791301576
sS':'
F0.025062656641604009
sg21
F0.026424185901919639
sg22
F0.00059042333353014108
sg23
F0.086102979163079033
sg24
F0.045766590389016017
sS'`'
F0.17543859649122806
sg25
F0.013760566149007274
sg26
F0.1149425287356322
sg27
F0.1149425287356322
sg28
F0.072992700729927015
sg29
F0.067340067340067339
sg30
F0.0034147174321324907
sg31
F0.04048582995951417
sg32
F0.0046906759785271274
sg33
F0.093457943925233655
sg34
F0.0087450808919982519
sg35
F0.010559662090813094
sS"'"
F0.17543859649122806
sg36
F0.022371364653243846
sg37
F0.031397174254317109
sg38
F0.17543859649122806
sg39
F0.14925373134328357
ssS','
(dp43
g2
F0.0052994170641229464
sg4
F0.010145417653026716
sg5
F0.093457943925233655
sg6
F0.030872137895549268
sS','
F0.0010563008344776591
sg7
F0.031286664059444663
sg8
F0.018231540565177756
sg9
F0.032040119802187086
sg10
F0.038684719535783361
sg11
F0.022404779686333084
sg12
F0.0023999520009599807
sS'#'
F0.17543859649122806
sS'"'
F0.0039888312724371761
sg13
F0.036563071297989032
sS'$'
F0.0099304865938430985
sg14
F0.11759333257221145
sg15
F0.0012599218848431397
sS')'
F0.22801302931596093
sS'('
F0.031545741324921134
sg16
F0.019974577810059922
sg17
F0.0055340343110127288
sS'.'
F0.0012695188523549573
sg18
F0.0044277175116227583
sg19
F0.018582426333952747
sg20
F0.092400828421220327
sS':'
F0.0083542188805346695
sg21
F0.1321209295095982
sg22
F0.13697821337899274
sg23
F0.017220595832615808
sg24
F0.022883295194508008
sS'`'
F0.17543859649122806
sg25
F0.0078631806565755847
sg26
F0.45977011494252878
sg27
F0.1149425287356322
sg28
F0.072992700729927015
sg29
F0.033670033670033669
sg30
F0.064879631210517319
sg31
F0.04048582995951417
sg32
F0.0015635586595090425
sg33
F0.093457943925233655
sg34
F0.0043725404459991259
sg35
F0.11615628299894402
sS"'"
F0.17543859649122806
sg36
F0.089485458612975383
sg37
F0.10989010989010989
sg38
F0.17543859649122806
sg39
F0.29850746268656714
ssg7
(dp44
g2
F0.0052994170641229464
sg4
F0.0033818058843422391
sg5
F0.093457943925233655
sg6
F0.0051453563159248776
sS','
F0.01267561001373191
sg7
F0.0039108330074305829
sg8
F0.10938924339106654
sg9
F0.0013930486870516125
sg10
F0.17408123791102514
sg11
F0.0024894199651481204
sg12
F0.0047999040019199614
sS'#'
F0.17543859649122806
sS'"'
F0.0079776625448743522
sg13
F0.018281535648994516
sS'$'
F0.0099304865938430985
sg14
F0.0049472923088632647
sg15
F0.0025198437696862795
sS')'
F0.032573289902280131
sS'('
F0.031545741324921134
sg16
F0.0018158707100054475
sg17
F0.0055340343110127288
sS'.'
F0.0012695188523549573
sg18
F0.0022138587558113792
sg19
F0.14069551367135652
sg20
F0.036641707822208061
sS':'
F0.016708437761069339
sg21
F0.068392010569674352
sg22
F0.0035425400011808465
sg23
F0.0034441191665231614
sg24
F0.022883295194508008
sS'`'
F0.17543859649122806
sg25
F0.023589541969726756
sg26
F0.1149425287356322
sg27
F0.1149425287356322
sg28
F0.072992700729927015
sg29
F0.033670033670033669
sg30
F0.0085367935803312266
sg31
F0.12145748987854252
sg32
F0.0015635586595090425
sg33
F0.093457943925233655
sg34
F0.0043725404459991259
sg35
F0.095036958817317843
sS"'"
F0.17543859649122806
sg36
F0.067114093959731544
sg37
F0.015698587127158554
sg38
F0.17543859649122806
sg39
F0.14925373134328357
ssg8
(dp45
g2
F0.0052994170641229464
sg4
F0.0033818058843422391
sg5
F0.093457943925233655
sg6
F0.0025726781579624388
sS','
F0.041195732544628709
sg7
F0.0039108330074305829
sg8
F0.0091157702825888781
sg9
F0.00069652434352580623
sg10
F0.019342359767891681
sg11
F0.0024894199651481204
sg12
F0.00059998800023999517
sS'#'
F0.17543859649122806
sS'"'
F0.015955325089748704
sg13
F0.018281535648994516
sS'$'
F0.0099304865938430985
sg14
F0.013700194086082888
sg15
F0.0025198437696862795
sS')'
F0.032573289902280131
sS'('
F0.031545741324921134
sg16
F0.0018158707100054475
sg17
F0.0055340343110127288
sS'.'
F0.0012695188523549573
sg18
F0.0044277175116227583
sg19
F0.0053092646668436421
sg20
F0.0015931177314003505
sS':'
F0.016708437761069339
sg21
F0.011657729074376311
sg22
F0.0011808466670602822
sg23
F0.0017220595832615807
sg24
F0.022883295194508008
sS'`'
F0.17543859649122806
sg25
F0.0039315903282877923
sg26
F0.1149425287356322
sg27
F0.1149425287356322
sg28
F0.072992700729927015
sg29
F0.033670033670033669
sg30
F0.0017073587160662453
sg31
F0.04048582995951417
sg32
F0.0046906759785271274
sg33
F0.093457943925233655
sg34
F0.0043725404459991259
sg35
F0.010559662090813094
sS"'"
F0.17543859649122806
sg36
F0.022371364653243846
sg37
F0.015698587127158554
sg38
F0.17543859649122806
sg39
F0.14925373134328357
ssg9
(dp46
g2
F0.20137784843667197
sg4
F0.054108894149475825
sg5
F0.093457943925233655
sg6
F0.041162850527399021
sS','
F0.070772155910003159
sg7
F0.10950332420805632
sg8
F0.0091157702825888781
sg9
F0.088458591627777389
sg10
F0.038684719535783361
sg11
F0.11451331839681354
sg12
F0.2357952840943181
sS'#'
F0.17543859649122806
sS'"'
F0.11966493817311528
sg13
F0.12797074954296161
sS'$'
F0.0099304865938430985
sg14
F0.0098945846177265293
sg15
F0.041577422199823612
sS')'
F0.032573289902280131
sS'('
F0.063091482649842268
sg16
F0.056291992010168872
sg17
F0.21582733812949642
sS'.'
F0.0012695188523549573
sg18
F0.057560327651095859
sg19
F0.010618529333687284
sg20
F0.10992512346662417
sS':'
F0.066833751044277356
sg21
F0.015543638765835081
sg22
F0.011218043337072681
sg23
F0.10160151541243326
sg24
F0.20594965675057206
sS'`'
F0.17543859649122806
sg25
F0.14546884214664832
sg26
F0.1149425287356322
sg27
F0.1149425287356322
sg28
F0.65693430656934315
sg29
F0.4713804713804714
sg30
F0.037561891753457401
sg31
F0.04048582995951417
sg32
F0.11413978214416011
sg33
F0.18691588785046731
sg34
F0.0043725404459991259
sg35
F0.010559662090813094
sS"'"
F0.17543859649122806
sg36
F0.089485458612975383
sg37
F0.047095761381475663
sg38
F0.17543859649122806
sg39
F0.14925373134328357
ssg10
(dp47
g2
F0.0052994170641229464
sg4
F0.0033818058843422391
sg5
F0.093457943925233655
sg6
F0.0025726781579624388
sS','
F0.017957114186120206
sg7
F0.0039108330074305829
sg8
F0.0091157702825888781
sg9
F0.00069652434352580623
sg10
F0.019342359767891681
sg11
F0.0049788399302962407
sg12
F0.0023999520009599807
sS'#'
F0.17543859649122806
sS'"'
F0.011966493817311527
sg13
F0.018281535648994516
sS'$'
F0.0099304865938430985
sg14
F0.0019028047341781787
sg15
F0.0025198437696862795
sS')'
F0.032573289902280131
sS'('
F0.031545741324921134
sg16
F0.0036317414200108949
sg17
F0.0055340343110127288
sS'.'
F0.0025390377047099146
sg18
F0.0022138587558113792
sg19
F0.0026546323334218211
sg20
F0.0031862354628007009
sS':'
F0.0083542188805346695
sg21
F0.0077718193829175407
sg22
F0.0011808466670602822
sg23
F0.0051661787497847425
sg24
F0.022883295194508008
sS'`'
F0.17543859649122806
sg25
F0.0019657951641438962
sg26
F0.1149425287356322
sg27
F0.1149425287356322
sg28
F0.072992700729927015
sg29
F0.033670033670033669
sg30
F0.0017073587160662453
sg31
F0.04048582995951417
sg32
F0.0015635586595090425
sg33
F0.093457943925233655
sg34
F0.0043725404459991259
sg35
F0.031678986272439279
sS"'"
F0.17543859649122806
sg36
F0.022371364653243846
sg37
F0.015698587127158554
sg38
F0.17543859649122806
sg39
F0.14925373134328357
ssg11
(dp48
g2
F0.0052994170641229464
sg4
F0.0067636117686844782
sg5
F0.093457943925233655
sg6
F0.0025726781579624388
sS','
F0.041195732544628709
sg7
F0.0039108330074305829
sg8
F0.23701002734731083
sg9
F0.0034826217176290308
sg10
F0.23210831721470018
sg11
F0.0024894199651481204
sg12
F0.0059998800023999517
sS'#'
F0.17543859649122806
sS'"'
F0.079776625448743518
sg13
F0.018281535648994516
sS'$'
F0.0099304865938430985
sg14
F0.03234768048102904
sg15
F0.003779765654529419
sS')'
F0.032573289902280131
sS'('
F0.031545741324921134
sg16
F0.0018158707100054475
sg17
F0.0055340343110127288
sS'.'
F0.0012695188523549573
sg18
F0.0022138587558113792
sg19
F0.19644279267321477
sg20
F0.039827943285008757
sS':'
F0.0083542188805346695
sg21
F0.0062174555063340322
sg22
F0.040148786680049592
sg23
F0.0034441191665231614
sg24
F0.045766590389016017
sS'`'
F0.17543859649122806
sg25
F0.025555337133870652
sg26
F0.1149425287356322
sg27
F0.1149425287356322
sg28
F0.072992700729927015
sg29
F0.067340067340067339
sg30
F0.0068294348642649813
sg31
F0.44534412955465591
sg32
F0.0010423724396726951
sg33
F0.093457943925233655
sg34
F0.0043725404459991259
sg35
F0.042238648363252376
sS"'"
F0.17543859649122806
sg36
F0.022371364653243846
sg37
F0.015698587127158554
sg38
F0.17543859649122806
sg39
F0.14925373134328357
ssg12
(dp49
g2
F0.0052994170641229464
sg4
F0.23334460601961449
sg5
F0.093457943925233655
sg6
F0.087471057370722929
sS','
F0.14365691348896165
sg7
F0.11341415721548691
sg8
F0.063810391978122147
sg9
F0.0034826217176290308
sg10
F0.077369439071566723
sg11
F0.17923823749066467
sg12
F0.003599928001439971
sS'#'
F0.17543859649122806
sS'"'
F0.091743119266055051
sg13
F0.38391224862888479
sS'$'
F0.0099304865938430985
sg14
F0.0064695360962058078
sg15
F0.23308554869598083
sS')'
F0.032573289902280131
sS'('
F0.094637223974763415
sg16
F0.19429816597058289
sg17
F0.0055340343110127288
sS'.'
F0.0025390377047099146
sg18
F0.11512065530219172
sg19
F0.0053092646668436421
sg20
F0.04938664967341086
sS':'
F0.083542188805346695
sg21
F0.011657729074376311
sg22
F0.0029521166676507054
sg23
F0.19803685207508179
sg24
F0.20594965675057206
sS'`'
F0.17543859649122806
sg25
F0.12187930017692157
sg26
F0.1149425287356322
sg27
F0.45977011494252878
sg28
F0.072992700729927015
sg29
F0.16835016835016836
sg30
F0.025610380740993682
sg31
F0.04048582995951417
sg32
F0.33616511179444414
sg33
F0.093457943925233655
sg34
F0.0087450808919982519
sg35
F0.010559662090813094
sS"'"
F0.17543859649122806
sg36
F0.022371364653243846
sg37
F0.015698587127158554
sg38
F0.17543859649122806
sg39
F0.14925373134328357
ssS'#'
(dp50
g2
F0.0052994170641229464
sg4
F0.0033818058843422391
sg5
F0.093457943925233655
sg6
F0.0025726781579624388
sS','
F0.0010563008344776591
sg7
F0.0039108330074305829
sg8
F0.0091157702825888781
sg9
F0.00069652434352580623
sg10
F0.019342359767891681
sg11
F0.0024894199651481204
sg12
F0.00059998800023999517
sS'#'
F0.17543859649122806
sS'"'
F0.0039888312724371761
sg13
F0.018281535648994516
sS'$'
F0.0099304865938430985
sg14
F0.00038056094683563578
sg15
F0.0012599218848431397
sS')'
F0.032573289902280131
sS'('
F0.031545741324921134
sg16
F0.0018158707100054475
sg17
F0.0055340343110127288
sS'.'
F0.0012695188523549573
sg18
F0.0022138587558113792
sg19
F0.0026546323334218211
sg20
F0.0015931177314003505
sS':'
F0.0083542188805346695
sg21
F0.00077718193829175402
sg22
F0.00059042333353014108
sg23
F0.0017220595832615807
sg24
F0.022883295194508008
sS'`'
F0.17543859649122806
sg25
F0.0019657951641438962
sg26
F0.1149425287356322
sg27
F0.1149425287356322
sg28
F0.072992700729927015
sg29
F0.033670033670033669
sg30
F0.0017073587160662453
sg31
F0.04048582995951417
sg32
F0.00052118621983634757
sg33
F0.093457943925233655
sg34
F0.0043725404459991259
sg35
F0.010559662090813094
sS"'"
F0.17543859649122806
sg36
F0.022371364653243846
sg37
F0.015698587127158554
sg38
F0.17543859649122806
sg39
F0.14925373134328357
ssS'"'
(dp51
g2
F0.015898251192368842
sg4
F0.010145417653026716
sg5
F0.093457943925233655
sg6
F0.012863390789812195
sS','
F0.065490651737614869
sg7
F0.0039108330074305829
sg8
F0.0091157702825888781
sg9
F0.011840913839938705
sg10
F0.019342359767891681
sg11
F0.012447099825740602
sg12
F0.0059998800023999517
sS'#'
F0.17543859649122806
sS'"'
F0.011966493817311527
sg13
F0.018281535648994516
sS'$'
F0.0099304865938430985
sg14
F0.012177950298740345
sg15
F0.078115156860274662
sS')'
F0.032573289902280131
sS'('
F0.031545741324921134
sg16
F0.0036317414200108949
sg17
F0.038738240177089101
sS'.'
F0.0025390377047099146
sg18
F0.0066415762674341379
sg19
F0.013273161667109106
sg20
F0.0063724709256014018
sS':'
F0.033416875522138678
sg21
F0.0054402735680422788
sg22
F0.0023616933341205643
sg23
F0.0068882383330463228
sg24
F0.022883295194508008
sS'`'
F0.17543859649122806
sg25
F0.0078631806565755847
sg26
F0.1149425287356322
sg27
F0.1149425287356322
sg28
F0.072992700729927015
sg29
F0.067340067340067339
sg30
F0.0017073587160662453
sg31
F0.04048582995951417
sg32
F0.008338979517381561
sg33
F0.093457943925233655
sg34
F0.0087450808919982519
sg35
F0.021119324181626188
sS"'"
F0.17543859649122806
sg36
F0.022371364653243846
sg37
F0.015698587127158554
sg38
F0.17543859649122806
sg39
F0.14925373134328357
ssg13
(dp52
g2
F0.0052994170641229464
sg4
F0.033818058843422386
sg5
F0.093457943925233655
sg6
F0.010290712631849755
sS','
F0.0010563008344776591
sg7
F0.011732499022291749
sg8
F0.0091157702825888781
sg9
F0.00069652434352580623
sg10
F0.019342359767891681
sg11
F0.0074682598954443615
sg12
F0.00059998800023999517
sS'#'
F0.17543859649122806
sS'"'
F0.0039888312724371761
sg13
F0.018281535648994516
sS'$'
F0.0099304865938430985
sg14
F0.0022833656810138147
sg15
F0.0012599218848431397
sS')'
F0.032573289902280131
sS'('
F0.031545741324921134
sg16
F0.012711094970038132
sg17
F0.0055340343110127288
sS'.'
F0.0012695188523549573
sg18
F0.0022138587558113792
sg19
F0.007963897000265464
sg20
F0.0015931177314003505
sS':'
F0.0083542188805346695
sg21
F0.0023315458148752623
sg22
F0.00059042333353014108
sg23
F0.032719132081970033
sg24
F0.022883295194508008
sS'`'
F0.17543859649122806
sg25
F0.0019657951641438962
sg26
F0.1149425287356322
sg27
F0.1149425287356322
sg28
F0.072992700729927015
sg29
F0.033670033670033669
sg30
F0.0017073587160662453
sg31
F0.04048582995951417
sg32
F0.00052118621983634757
sg33
F0.093457943925233655
sg34
F0.0043725404459991259
sg35
F0.010559662090813094
sS"'"
F0.17543859649122806
sg36
F0.022371364653243846
sg37
F0.015698587127158554
sg38
F0.17543859649122806
sg39
F0.14925373134328357
ssS'$'
(dp53
g2
F0.010598834128245893
sg4
F0.016909029421711193
sg5
F0.093457943925233655
sg6
F0.015436068947774634
sS','
F0.0052815041723882957
sg7
F0.0039108330074305829
sg8
F0.0091157702825888781
sg9
F0.0027860973741032249
sg10
F0.019342359767891681
sg11
F0.012447099825740602
sg12
F0.0029999400011999759
sS'#'
F0.17543859649122806
sS'"'
F0.0039888312724371761
sg13
F0.018281535648994516
sS'$'
F0.0099304865938430985
sg14
F0.00038056094683563578
sg15
F0.0012599218848431397
sS')'
F0.032573289902280131
sS'('
F0.22082018927444796
sg16
F0.0036317414200108949
sg17
F0.011068068622025458
sS'.'
F0.0012695188523549573
sg18
F0.030994022581359311
sg19
F0.0026546323334218211
sg20
F0.0063724709256014018
sS':'
F0.0083542188805346695
sg21
F0.00077718193829175402
sg22
F0.0029521166676507054
sg23
F0.0068882383330463228
sg24
F0.022883295194508008
sS'`'
F0.17543859649122806
sg25
F0.011794770984863378
sg26
F0.1149425287356322
sg27
F0.1149425287356322
sg28
F0.072992700729927015
sg29
F0.033670033670033669
sg30
F0.0034147174321324907
sg31
F0.04048582995951417
sg32
F0.017720331474435816
sg33
F0.093457943925233655
sg34
F0.0043725404459991259
sg35
F0.010559662090813094
sS"'"
F0.17543859649122806
sg36
F0.022371364653243846
sg37
F0.015698587127158554
sg38
F0.17543859649122806
sg39
F0.14925373134328357
ssg14
(dp54
g2
F0.41865394806571282
sg4
F0.15556307067974298
sg5
F0.093457943925233655
sg6
F0.030872137895549268
sS','
F0.044364635048061686
sg7
F0.015643332029722332
sg8
F0.0091157702825888781
sg9
F0.42348680086369017
sg10
F0.019342359767891681
sg11
F0.037341299477221805
sg12
F0.45119097618047638
sS'#'
F0.17543859649122806
sS'"'
F0.10769844435580375
sg13
F0.091407678244972576
sS'$'
F0.0099304865938430985
sg14
F0.12177950298740343
sg15
F0.027718281466549071
sS')'
F0.097719869706840393
sS'('
F0.031545741324921134
sg16
F0.038133284910114397
sg17
F0.41505257332595463
sS'.'
F0.0012695188523549573
sg18
F0.030994022581359311
sg19
F0.0053092646668436421
sg20
F0.012744941851202804
sS':'
F0.016708437761069339
sg21
F0.024869822025336129
sg22
F0.049005136683001708
sg23
F0.049939727914585841
sg24
F0.091533180778032033
sS'`'
F0.17543859649122806
sg25
F0.11401611952034599
sg26
F0.1149425287356322
sg27
F0.1149425287356322
sg28
F0.072992700729927015
sg29
F0.033670033670033669
sg30
F0.24244493768140685
sg31
F0.04048582995951417
sg32
F0.10840673372596028
sg33
F0.37383177570093462
sg34
F0.0043725404459991259
sg35
F0.031678986272439279
sS"'"
F0.17543859649122806
sg36
F0.38031319910514538
sg37
F0.23547880690737832
sg38
F0.17543859649122806
sg39
F0.14925373134328357
ssS')'
(dp55
g2
F0.010598834128245893
sg4
F0.0033818058843422391
sg5
F0.093457943925233655
sg6
F0.0025726781579624388
sS','
F0.0010563008344776591
sg7
F0.0039108330074305829
sg8
F0.0091157702825888781
sg9
F0.0013930486870516125
sg10
F0.019342359767891681
sg11
F0.0049788399302962407
sg12
F0.00059998800023999517
sS'#'
F0.17543859649122806
sS'"'
F0.0039888312724371761
sg13
F0.018281535648994516
sS'$'
F0.0099304865938430985
sg14
F0.00076112189367127155
sg15
F0.0050396875393725589
sS')'
F0.032573289902280131
sS'('
F0.031545741324921134
sg16
F0.0018158707100054475
sg17
F0.0055340343110127288
sS'.'
F0.0012695188523549573
sg18
F0.0022138587558113792
sg19
F0.0026546323334218211
sg20
F0.0015931177314003505
sS':'
F0.0083542188805346695
sg21
F0.0031087277531670161
sg22
F0.004132963334710988
sg23
F0.0034441191665231614
sg24
F0.022883295194508008
sS'`'
F0.17543859649122806
sg25
F0.0019657951641438962
sg26
F0.1149425287356322
sg27
F0.1149425287356322
sg28
F0.072992700729927015
sg29
F0.033670033670033669
sg30
F0.015366228444596208
sg31
F0.04048582995951417
sg32
F0.00052118621983634757
sg33
F0.093457943925233655
sg34
F0.0043725404459991259
sg35
F0.010559662090813094
sS"'"
F0.17543859649122806
sg36
F0.022371364653243846
sg37
F0.015698587127158554
sg38
F0.17543859649122806
sg39
F0.14925373134328357
ssS'('
(dp56
g2
F0.0052994170641229464
sg4
F0.0067636117686844782
sg5
F0.093457943925233655
sg6
F0.0025726781579624388
sS','
F0.0021126016689553182
sg7
F0.0039108330074305829
sg8
F0.0091157702825888781
sg9
F0.0013930486870516125
sg10
F0.019342359767891681
sg11
F0.0024894199651481204
sg12
F0.00059998800023999517
sS'#'
F0.17543859649122806
sS'"'
F0.011966493817311527
sg13
F0.018281535648994516
sS'$'
F0.0099304865938430985
sg14
F0.0011416828405069073
sg15
F0.007559531309058838
sS')'
F0.032573289902280131
sS'('
F0.031545741324921134
sg16
F0.0018158707100054475
sg17
F0.0055340343110127288
sS'.'
F0.0012695188523549573
sg18
F0.0044277175116227583
sg19
F0.0026546323334218211
sg20
F0.0015931177314003505
sS':'
F0.0083542188805346695
sg21
F0.0054402735680422788
sg22
F0.0035425400011808465
sg23
F0.0034441191665231614
sg24
F0.022883295194508008
sS'`'
F0.17543859649122806
sg25
F0.0019657951641438962
sg26
F0.1149425287356322
sg27
F0.1149425287356322
sg28
F0.072992700729927015
sg29
F0.033670033670033669
sg30
F0.0017073587160662453
sg31
F0.04048582995951417
sg32
F0.00052118621983634757
sg33
F0.093457943925233655
sg34
F0.0043725404459991259
sg35
F0.021119324181626188
sS"'"
F0.17543859649122806
sg36
F0.022371364653243846
sg37
F0.015698587127158554
sg38
F0.17543859649122806
sg39
F0.14925373134328357
ssg16
(dp57
g2
F0.0052994170641229464
sg4
F0.0033818058843422391
sg5
F0.093457943925233655
sg6
F0.0025726781579624388
sS','
F0.046477236717017006
sg7
F0.0039108330074305829
sg8
F0.21877848678213307
sg9
F0.00069652434352580623
sg10
F0.32882011605415856
sg11
F0.0024894199651481204
sg12
F0.0017999640007199855
sS'#'
F0.17543859649122806
sS'"'
F0.039888312724371759
sg13
F0.018281535648994516
sS'$'
F0.0099304865938430985
sg14
F0.041100582258248662
sg15
F0.0025198437696862795
sS')'
F0.032573289902280131
sS'('
F0.031545741324921134
sg16
F0.0018158707100054475
sg17
F0.027670171555063645
sS'.'
F0.0012695188523549573
sg18
F0.0022138587558113792
sg19
F0.24688080700822937
sg20
F0.06372470925601402
sS':'
F0.0083542188805346695
sg21
F0.042745006606046472
sg22
F0.070850800023616933
sg23
F0.0034441191665231614
sg24
F0.022883295194508008
sS'`'
F0.17543859649122806
sg25
F0.039315903282877922
sg26
F0.1149425287356322
sg27
F0.1149425287356322
sg28
F0.072992700729927015
sg29
F0.033670033670033669
sg30
F0.005122076148198736
sg31
F0.16194331983805668
sg32
F0.00052118621983634757
sg33
F0.093457943925233655
sg34
F0.0043725404459991259
sg35
F0.12671594508975711
sS"'"
F0.17543859649122806
sg36
F0.022371364653243846
sg37
F0.015698587127158554
sg38
F0.17543859649122806
sg39
F0.14925373134328357
ssg17
(dp58
g2
F0.0052994170641229464
sg4
F0.0033818058843422391
sg5
F0.093457943925233655
sg6
F0.0025726781579624388
sS','
F0.0010563008344776591
sg7
F0.0078216660148611658
sg8
F0.0091157702825888781
sg9
F0.00069652434352580623
sg10
F0.019342359767891681
sg11
F0.0024894199651481204
sg12
F0.00059998800023999517
sS'#'
F0.17543859649122806
sS'"'
F0.0039888312724371761
sg13
F0.018281535648994516
sS'$'
F0.0099304865938430985
sg14
F0.022072534916466872
sg15
F0.0012599218848431397
sS')'
F0.032573289902280131
sS'('
F0.031545741324921134
sg16
F0.0018158707100054475
sg17
F0.0055340343110127288
sS'.'
F0.0012695188523549573
sg18
F0.0022138587558113792
sg19
F0.0053092646668436421
sg20
F0.0031862354628007009
sS':'
F0.0083542188805346695
sg21
F0.012434911012668064
sg22
F0.056680640018893544
sg23
F0.0017220595832615807
sg24
F0.022883295194508008
sS'`'
F0.17543859649122806
sg25
F0.0019657951641438962
sg26
F0.1149425287356322
sg27
F0.1149425287356322
sg28
F0.072992700729927015
sg29
F0.033670033670033669
sg30
F0.0017073587160662453
sg31
F0.04048582995951417
sg32
F0.00052118621983634757
sg33
F0.093457943925233655
sg34
F0.0043725404459991259
sg35
F0.063357972544878557
sS"'"
F0.17543859649122806
sg36
F0.022371364653243846
sg37
F0.015698587127158554
sg38
F0.17543859649122806
sg39
F0.14925373134328357
ssS'.'
(dp59
g2
F0.0052994170641229464
sg4
F0.0067636117686844782
sg5
F0.18691588785046731
sg6
F0.059171597633136098
sS','
F0.0010563008344776591
sg7
F0.019554165037152915
sg8
F0.0091157702825888781
sg9
F0.02368182767987741
sg10
F0.019342359767891681
sg11
F0.034851879512073691
sg12
F0.0011999760004799903
sS'#'
F0.17543859649122806
sS'"'
F0.0039888312724371761
sg13
F0.054844606946983544
sS'$'
F0.0099304865938430985
sg14
F0.11607108878486891
sg15
F0.0012599218848431397
sS')'
F0.065146579804560262
sS'('
F0.031545741324921134
sg16
F0.045396767750136187
sg17
F0.0055340343110127288
sS'.'
F0.0012695188523549573
sg18
F0.0044277175116227583
sg19
F0.031855588001061856
sg20
F0.046200414210610163
sS':'
F0.016708437761069339
sg21
F0.14611020439884975
sg22
F0.056680640018893544
sg23
F0.025830893748923712
sg24
F0.022883295194508008
sS'`'
F0.17543859649122806
sg25
F0.0019657951641438962
sg26
F0.1149425287356322
sg27
F0.1149425287356322
sg28
F0.072992700729927015
sg29
F0.033670033670033669
sg30
F0.05292812019805361
sg31
F0.04048582995951417
sg32
F0.0010423724396726951
sg33
F0.093457943925233655
sg34
F0.0043725404459991259
sg35
F0.052798310454065467
sS"'"
F0.17543859649122806
sg36
F0.022371364653243846
sg37
F0.078492935635792779
sg38
F0.17543859649122806
sg39
F0.14925373134328357
ssg18
(dp60
g2
F0.0052994170641229464
sg4
F0.064254311802502545
sg5
F0.093457943925233655
sg6
F0.10547980447645999
sS','
F0.0084504066758212728
sg7
F0.02737583105201408
sg8
F0.0091157702825888781
sg9
F0.033433168489238697
sg10
F0.019342359767891681
sg11
F0.039830719442369926
sg12
F0.00059998800023999517
sS'#'
F0.17543859649122806
sS'"'
F0.011966493817311527
sg13
F0.073126142595978064
sS'$'
F0.0099304865938430985
sg14
F0.039958899417741757
sg15
F0.0050396875393725589
sS')'
F0.065146579804560262
sS'('
F0.031545741324921134
sg16
F0.063555474850190655
sg17
F0.0055340343110127288
sS'.'
F0.0012695188523549573
sg18
F0.0022138587558113792
sg19
F0.029200955667640034
sg20
F0.028676119165206307
sS':'
F0.0083542188805346695
sg21
F0.052071189865547519
sg22
F0.012398890004132962
sg23
F0.044773549164801099
sg24
F0.045766590389016017
sS'`'
F0.17543859649122806
sg25
F0.0078631806565755847
sg26
F0.1149425287356322
sg27
F0.1149425287356322
sg28
F0.072992700729927015
sg29
F0.033670033670033669
sg30
F0.029025098173126172
sg31
F0.04048582995951417
sg32
F0.0036483035388544327
sg33
F0.093457943925233655
sg34
F0.0043725404459991259
sg35
F0.031678986272439279
sS"'"
F0.17543859649122806
sg36
F0.022371364653243846
sg37
F0.015698587127158554
sg38
F0.17543859649122806
sg39
F0.14925373134328357
ssg19
(dp61
g2
F0.0052994170641229464
sg4
F0.030436252959080149
sg5
F0.093457943925233655
sg6
F0.0051453563159248776
sS','
F0.062321749234181892
sg7
F0.035197497066875243
sg8
F0.036463081130355512
sg9
F0.0020895730305774186
sg10
F0.077369439071566723
sg11
F0.017425939756036846
sg12
F0.0011999760004799903
sS'#'
F0.17543859649122806
sS'"'
F0.13163143199042682
sg13
F0.018281535648994516
sS'$'
F0.0099304865938430985
sg14
F0.0038056094683563573
sg15
F0.068035781781529539
sS')'
F0.032573289902280131
sS'('
F0.031545741324921134
sg16
F0.072634828400217899
sg17
F0.0055340343110127288
sS'.'
F0.0025390377047099146
sg18
F0.013283152534868276
sg19
F0.0053092646668436421
sg20
F0.011151824119802452
sS':'
F0.033416875522138678
sg21
F0.0062174555063340322
sg22
F0.00059042333353014108
sg23
F0.051661787497847424
sg24
F0.091533180778032033
sS'`'
F0.17543859649122806
sg25
F0.055042264596029095
sg26
F0.1149425287356322
sg27
F0.1149425287356322
sg28
F0.072992700729927015
sg29
F0.033670033670033669
sg30
F0.0034147174321324907
sg31
F0.04048582995951417
sg32
F0.033877104289362588
sg33
F0.093457943925233655
sg34
F0.0087450808919982519
sg35
F0.010559662090813094
sS"'"
F0.17543859649122806
sg36
F0.022371364653243846
sg37
F0.015698587127158554
sg38
F0.17543859649122806
sg39
F0.14925373134328357
ssg20
(dp62
g2
F0.010598834128245893
sg4
F0.037199864727764625
sg5
F0.093457943925233655
sg6
F0.056598919475173655
sS','
F0.045420935882539343
sg7
F0.19945248337895974
sg8
F0.082041932543299903
sg9
F0.0055721947482064499
sg10
F0.019342359767891681
sg11
F0.11451331839681354
sg12
F0.010799784004319914
sS'#'
F0.17543859649122806
sS'"'
F0.043877143996808934
sg13
F0.018281535648994516
sS'$'
F0.0099304865938430985
sg14
F0.013700194086082888
sg15
F0.056696484817941283
sS')'
F0.097719869706840393
sS'('
F0.031545741324921134
sg16
F0.10713637189032139
sg17
F0.0055340343110127288
sS'.'
F0.0025390377047099146
sg18
F0.013283152534868276
sg19
F0.071675073002389178
sg20
F0.065317826987414368
sS':'
F0.058479532163742687
sg21
F0.034196005284837176
sg22
F0.012398890004132962
sg23
F0.053383847081109
sg24
F0.045766590389016017
sS'`'
F0.17543859649122806
sg25
F0.062905445252604678
sg26
F0.1149425287356322
sg27
F0.1149425287356322
sg28
F0.072992700729927015
sg29
F0.10101010101010101
sg30
F0.005122076148198736
sg31
F0.04048582995951417
sg32
F0.013550841715745035
sg33
F0.093457943925233655
sg34
F0.16615653694796678
sg35
F0.031678986272439279
sS"'"
F0.17543859649122806
sg36
F0.044742729306487691
sg37
F0.015698587127158554
sg38
F0.17543859649122806
sg39
F0.14925373134328357
ssS':'
(dp63
g2
F0.0052994170641229464
sg4
F0.0033818058843422391
sg5
F0.093457943925233655
sg6
F0.0025726781579624388
sS','
F0.0010563008344776591
sg7
F0.015643332029722332
sg8
F0.0091157702825888781
sg9
F0.0062687190917322562
sg10
F0.019342359767891681
sg11
F0.0024894199651481204
sg12
F0.00059998800023999517
sS'#'
F0.17543859649122806
sS'"'
F0.011966493817311527
sg13
F0.018281535648994516
sS'$'
F0.0099304865938430985
sg14
F0.014841876926589795
sg15
F0.0012599218848431397
sS')'
F0.13029315960912052
sS'('
F0.031545741324921134
sg16
F0.0054476121300163424
sg17
F0.0055340343110127288
sS'.'
F0.0012695188523549573
sg18
F0.0022138587558113792
sg19
F0.007963897000265464
sg20
F0.0031862354628007009
sS':'
F0.0083542188805346695
sg21
F0.036527551099712438
sg22
F0.0023616933341205643
sg23
F0.0068882383330463228
sg24
F0.022883295194508008
sS'`'
F0.17543859649122806
sg25
F0.0019657951641438962
sg26
F0.1149425287356322
sg27
F0.1149425287356322
sg28
F0.072992700729927015
sg29
F0.033670033670033669
sg30
F0.005122076148198736
sg31
F0.04048582995951417
sg32
F0.0010423724396726951
sg33
F0.093457943925233655
sg34
F0.0043725404459991259
sg35
F0.010559662090813094
sS"'"
F0.17543859649122806
sg36
F0.022371364653243846
sg37
F0.015698587127158554
sg38
F0.17543859649122806
sg39
F0.14925373134328357
ssg21
(dp64
g2
F0.26497085320614733
sg4
F0.098072370645924931
sg5
F0.18691588785046731
sg6
F0.033444816053511704
sS','
F0.02535122002746382
sg7
F0.050840829096597574
sg8
F0.027347310847766634
sg9
F0.24865919063871281
sg10
F0.019342359767891681
sg11
F0.017425939756036846
sg12
F0.09119817603647927
sS'#'
F0.17543859649122806
sS'"'
F0.035899481451934584
sg13
F0.10968921389396709
sS'$'
F0.0099304865938430985
sg14
F0.06659816569623625
sg15
F0.03401789089076477
sS')'
F0.032573289902280131
sS'('
F0.031545741324921134
sg16
F0.027238060650081712
sg17
F0.11068068622025458
sS'.'
F0.0038085565570648724
sg18
F0.026566305069736552
sg19
F0.0026546323334218211
sg20
F0.0031862354628007009
sS':'
F0.041771094402673348
sg21
F0.016320820704126836
sg22
F0.029521166676507053
sg23
F0.049939727914585841
sg24
F0.11441647597254004
sS'`'
F0.17543859649122806
sg25
F0.066837035580892476
sg26
F0.1149425287356322
sg27
F0.1149425287356322
sg28
F0.072992700729927015
sg29
F0.033670033670033669
sg30
F0.18610210005122074
sg31
F0.04048582995951417
sg32
F0.060978787720852662
sg33
F0.18691588785046731
sg34
F0.0087450808919982519
sg35
F0.042238648363252376
sS"'"
F0.17543859649122806
sg36
F0.17897091722595077
sg37
F0.14128728414442698
sg38
F0.17543859649122806
sg39
F0.14925373134328357
ssg22
(dp65
g2
F0.058293587705352416
sg4
F0.043963476496449105
sg5
F0.18691588785046731
sg6
F0.033444816053511704
sS','
F0.10034857927537762
sg7
F0.011732499022291749
sg8
F0.045578851412944391
sg9
F0.033433168489238697
sg10
F0.038684719535783361
sg11
F0.07468259895444361
sg12
F0.10739785204295914
sS'#'
F0.17543859649122806
sS'"'
F0.067810131631432
sg13
F0.036563071297989032
sS'$'
F0.0099304865938430985
sg14
F0.012177950298740345
sg15
F0.19276804838100037
sS')'
F0.065146579804560262
sS'('
F0.37854889589905366
sg16
F0.049028509170147082
sg17
F0.08854454897620366
sS'.'
F0.0012695188523549573
sg18
F0.059774186406907244
sg19
F0.0026546323334218211
sg20
F0.0047793531942010511
sS':'
F0.13366750208855471
sg21
F0.0038859096914587703
sg22
F0.35838696345279564
sg23
F0.032719132081970033
sg24
F0.13729977116704806
sS'`'
F0.17543859649122806
sg25
F0.12777668566935327
sg26
F0.1149425287356322
sg27
F0.1149425287356322
sg28
F0.072992700729927015
sg29
F0.033670033670033669
sg30
F0.017073587160662453
sg31
F0.04048582995951417
sg32
F0.1438473966748319
sg33
F0.093457943925233655
sg34
F0.0043725404459991259
sg35
F0.23231256599788805
sS"'"
F0.17543859649122806
sg36
F0.022371364653243846
sg37
F0.015698587127158554
sg38
F0.17543859649122806
sg39
F0.14925373134328357
ssg23
(dp66
g2
F0.0052994170641229464
sg4
F0.010145417653026716
sg5
F0.093457943925233655
sg6
F0.0025726781579624388
sS','
F0.0084504066758212728
sg7
F0.0078216660148611658
sg8
F0.0091157702825888781
sg9
F0.00069652434352580623
sg10
F0.019342359767891681
sg11
F0.0024894199651481204
sg12
F0.0011999760004799903
sS'#'
F0.17543859649122806
sS'"'
F0.011966493817311527
sg13
F0.018281535648994516
sS'$'
F0.0099304865938430985
sg14
F0.0015222437873425431
sg15
F0.011339296963588257
sS')'
F0.032573289902280131
sS'('
F0.063091482649842268
sg16
F0.0054476121300163424
sg17
F0.0055340343110127288
sS'.'
F0.0012695188523549573
sg18
F0.54460925392959936
sg19
F0.021237058667374568
sg20
F0.12267006531782698
sS':'
F0.016708437761069339
sg21
F0.0031087277531670161
sg22
F0.0011808466670602822
sg23
F0.013776476666092646
sg24
F0.022883295194508008
sS'`'
F0.17543859649122806
sg25
F0.049144879103597404
sg26
F0.1149425287356322
sg27
F0.1149425287356322
sg28
F0.072992700729927015
sg29
F0.033670033670033669
sg30
F0.0017073587160662453
sg31
F0.04048582995951417
sg32
F0.0020847448793453903
sg33
F0.093457943925233655
sg34
F0.79142982072584178
sg35
F0.010559662090813094
sS"'"
F0.17543859649122806
sg36
F0.044742729306487691
sg37
F0.015698587127158554
sg38
F0.17543859649122806
sg39
F0.14925373134328357
ssg24
(dp67
g2
F0.0052994170641229464
sg4
F0.0033818058843422391
sg5
F0.093457943925233655
sg6
F0.0051453563159248776
sS','
F0.0031689025034329775
sg7
F0.0078216660148611658
sg8
F0.0091157702825888781
sg9
F0.00069652434352580623
sg10
F0.019342359767891681
sg11
F0.0024894199651481204
sg12
F0.0011999760004799903
sS'#'
F0.17543859649122806
sS'"'
F0.011966493817311527
sg13
F0.018281535648994516
sS'$'
F0.0099304865938430985
sg14
F0.0026639266278494504
sg15
F0.0062996094242156984
sS')'
F0.032573289902280131
sS'('
F0.031545741324921134
sg16
F0.0054476121300163424
sg17
F0.0055340343110127288
sS'.'
F0.0012695188523549573
sg18
F0.0022138587558113792
sg19
F0.0053092646668436421
sg20
F0.0063724709256014018
sS':'
F0.016708437761069339
sg21
F0.001554363876583508
sg22
F0.0011808466670602822
sg23
F0.0068882383330463228
sg24
F0.022883295194508008
sS'`'
F0.17543859649122806
sg25
F0.005897385492431689
sg26
F0.1149425287356322
sg27
F0.1149425287356322
sg28
F0.072992700729927015
sg29
F0.033670033670033669
sg30
F0.0034147174321324907
sg31
F0.04048582995951417
sg32
F0.0036483035388544327
sg33
F0.093457943925233655
sg34
F0.0043725404459991259
sg35
F0.010559662090813094
sS"'"
F0.17543859649122806
sg36
F0.022371364653243846
sg37
F0.015698587127158554
sg38
F0.17543859649122806
sg39
F0.14925373134328357
ssS'`'
(dp68
g2
F0.0052994170641229464
sg4
F0.0033818058843422391
sg5
F0.093457943925233655
sg6
F0.0025726781579624388
sS','
F0.0010563008344776591
sg7
F0.0039108330074305829
sg8
F0.0091157702825888781
sg9
F0.00069652434352580623
sg10
F0.019342359767891681
sg11
F0.0024894199651481204
sg12
F0.00059998800023999517
sS'#'
F0.17543859649122806
sS'"'
F0.0039888312724371761
sg13
F0.018281535648994516
sS'$'
F0.0099304865938430985
sg14
F0.00038056094683563578
sg15
F0.0012599218848431397
sS')'
F0.032573289902280131
sS'('
F0.031545741324921134
sg16
F0.0018158707100054475
sg17
F0.0055340343110127288
sS'.'
F0.0012695188523549573
sg18
F0.0022138587558113792
sg19
F0.0026546323334218211
sg20
F0.0015931177314003505
sS':'
F0.0083542188805346695
sg21
F0.00077718193829175402
sg22
F0.00059042333353014108
sg23
F0.0017220595832615807
sg24
F0.022883295194508008
sS'`'
F0.17543859649122806
sg25
F0.0019657951641438962
sg26
F0.1149425287356322
sg27
F0.1149425287356322
sg28
F0.072992700729927015
sg29
F0.033670033670033669
sg30
F0.0017073587160662453
sg31
F0.04048582995951417
sg32
F0.00052118621983634757
sg33
F0.093457943925233655
sg34
F0.0043725404459991259
sg35
F0.010559662090813094
sS"'"
F0.17543859649122806
sg36
F0.022371364653243846
sg37
F0.015698587127158554
sg38
F0.17543859649122806
sg39
F0.14925373134328357
ssg25
(dp69
g2
F0.010598834128245893
sg4
F0.0067636117686844782
sg5
F0.18691588785046731
sg6
F0.012863390789812195
sS','
F0.098235977606422303
sg7
F0.0039108330074305829
sg8
F0.0091157702825888781
sg9
F0.02368182767987741
sg10
F0.019342359767891681
sg11
F0.0074682598954443615
sg12
F0.00059998800023999517
sS'#'
F0.17543859649122806
sS'"'
F0.051854806541683292
sg13
F0.018281535648994516
sS'$'
F0.0099304865938430985
sg14
F0.042622826045591207
sg15
F0.055436562933098142
sS')'
F0.13029315960912052
sS'('
F0.063091482649842268
sg16
F0.0090793535500272374
sg17
F0.0055340343110127288
sS'.'
F0.0025390377047099146
sg18
F0.0022138587558113792
sg19
F0.02389169100079639
sg20
F0.019117412776804205
sS':'
F0.041771094402673348
sg21
F0.05673428149529805
sg22
F0.04132963334710988
sg23
F0.013776476666092646
sg24
F0.045766590389016017
sS'`'
F0.17543859649122806
sg25
F0.0019657951641438962
sg26
F0.1149425287356322
sg27
F0.1149425287356322
sg28
F0.072992700729927015
sg29
F0.033670033670033669
sg30
F0.025610380740993682
sg31
F0.04048582995951417
sg32
F0.0026059310991817376
sg33
F0.093457943925233655
sg34
F0.0043725404459991259
sg35
F0.052798310454065467
sS"'"
F0.17543859649122806
sg36
F0.022371364653243846
sg37
F0.015698587127158554
sg38
F0.17543859649122806
sg39
F0.14925373134328357
ssg26
(dp70
g2
F0.0052994170641229464
sg4
F0.0033818058843422391
sg5
F0.093457943925233655
sg6
F0.0025726781579624388
sS','
F0.0010563008344776591
sg7
F0.0039108330074305829
sg8
F0.0091157702825888781
sg9
F0.00069652434352580623
sg10
F0.019342359767891681
sg11
F0.0024894199651481204
sg12
F0.00059998800023999517
sS'#'
F0.17543859649122806
sS'"'
F0.0039888312724371761
sg13
F0.018281535648994516
sS'$'
F0.0099304865938430985
sg14
F0.00038056094683563578
sg15
F0.0050396875393725589
sS')'
F0.032573289902280131
sS'('
F0.031545741324921134
sg16
F0.0018158707100054475
sg17
F0.0055340343110127288
sS'.'
F0.0012695188523549573
sg18
F0.0022138587558113792
sg19
F0.0026546323334218211
sg20
F0.0015931177314003505
sS':'
F0.0083542188805346695
sg21
F0.00077718193829175402
sg22
F0.00059042333353014108
sg23
F0.0017220595832615807
sg24
F0.022883295194508008
sS'`'
F0.17543859649122806
sg25
F0.0019657951641438962
sg26
F0.1149425287356322
sg27
F0.1149425287356322
sg28
F0.072992700729927015
sg29
F0.033670033670033669
sg30
F0.0017073587160662453
sg31
F0.04048582995951417
sg32
F0.00052118621983634757
sg33
F0.093457943925233655
sg34
F0.0043725404459991259
sg35
F0.010559662090813094
sS"'"
F0.17543859649122806
sg36
F0.022371364653243846
sg37
F0.015698587127158554
sg38
F0.17543859649122806
sg39
F0.14925373134328357
ssg27
(dp71
g2
F0.0052994170641229464
sg4
F0.0033818058843422391
sg5
F0.093457943925233655
sg6
F0.0025726781579624388
sS','
F0.0010563008344776591
sg7
F0.0039108330074305829
sg8
F0.0091157702825888781
sg9
F0.00069652434352580623
sg10
F0.019342359767891681
sg11
F0.0024894199651481204
sg12
F0.00059998800023999517
sS'#'
F0.17543859649122806
sS'"'
F0.0039888312724371761
sg13
F0.018281535648994516
sS'$'
F0.0099304865938430985
sg14
F0.00038056094683563578
sg15
F0.0025198437696862795
sS')'
F0.032573289902280131
sS'('
F0.031545741324921134
sg16
F0.0018158707100054475
sg17
F0.0055340343110127288
sS'.'
F0.0012695188523549573
sg18
F0.0022138587558113792
sg19
F0.0026546323334218211
sg20
F0.0015931177314003505
sS':'
F0.0083542188805346695
sg21
F0.00077718193829175402
sg22
F0.00059042333353014108
sg23
F0.0034441191665231614
sg24
F0.022883295194508008
sS'`'
F0.17543859649122806
sg25
F0.0019657951641438962
sg26
F0.1149425287356322
sg27
F0.1149425287356322
sg28
F0.072992700729927015
sg29
F0.033670033670033669
sg30
F0.0017073587160662453
sg31
F0.04048582995951417
sg32
F0.0010423724396726951
sg33
F0.093457943925233655
sg34
F0.0043725404459991259
sg35
F0.010559662090813094
sS"'"
F0.17543859649122806
sg36
F0.022371364653243846
sg37
F0.015698587127158554
sg38
F0.17543859649122806
sg39
F0.14925373134328357
ssg28
(dp72
g2
F0.0052994170641229464
sg4
F0.0033818058843422391
sg5
F0.093457943925233655
sg6
F0.0025726781579624388
sS','
F0.0010563008344776591
sg7
F0.0039108330074305829
sg8
F0.0091157702825888781
sg9
F0.00069652434352580623
sg10
F0.019342359767891681
sg11
F0.0074682598954443615
sg12
F0.0017999640007199855
sS'#'
F0.17543859649122806
sS'"'
F0.0039888312724371761
sg13
F0.018281535648994516
sS'$'
F0.0099304865938430985
sg14
F0.00038056094683563578
sg15
F0.0012599218848431397
sS')'
F0.032573289902280131
sS'('
F0.031545741324921134
sg16
F0.0018158707100054475
sg17
F0.016602102933038185
sS'.'
F0.0012695188523549573
sg18
F0.0022138587558113792
sg19
F0.0026546323334218211
sg20
F0.0031862354628007009
sS':'
F0.0083542188805346695
sg21
F0.00077718193829175402
sg22
F0.00059042333353014108
sg23
F0.0017220595832615807
sg24
F0.022883295194508008
sS'`'
F0.17543859649122806
sg25
F0.0019657951641438962
sg26
F0.1149425287356322
sg27
F0.1149425287356322
sg28
F0.072992700729927015
sg29
F0.033670033670033669
sg30
F0.0034147174321324907
sg31
F0.04048582995951417
sg32
F0.00052118621983634757
sg33
F0.093457943925233655
sg34
F0.0043725404459991259
sg35
F0.010559662090813094
sS"'"
F0.17543859649122806
sg36
F0.022371364653243846
sg37
F0.015698587127158554
sg38
F0.17543859649122806
sg39
F0.14925373134328357
ssg29
(dp73
g2
F0.0052994170641229464
sg4
F0.0033818058843422391
sg5
F0.093457943925233655
sg6
F0.012863390789812195
sS','
F0.0021126016689553182
sg7
F0.0078216660148611658
sg8
F0.0091157702825888781
sg9
F0.00069652434352580623
sg10
F0.019342359767891681
sg11
F0.0024894199651481204
sg12
F0.0029999400011999759
sS'#'
F0.17543859649122806
sS'"'
F0.011966493817311527
sg13
F0.018281535648994516
sS'$'
F0.0099304865938430985
sg14
F0.00038056094683563578
sg15
F0.0025198437696862795
sS')'
F0.032573289902280131
sS'('
F0.031545741324921134
sg16
F0.0054476121300163424
sg17
F0.0055340343110127288
sS'.'
F0.0012695188523549573
sg18
F0.0044277175116227583
sg19
F0.0026546323334218211
sg20
F0.0031862354628007009
sS':'
F0.0083542188805346695
sg21
F0.001554363876583508
sg22
F0.0011808466670602822
sg23
F0.0051661787497847425
sg24
F0.022883295194508008
sS'`'
F0.17543859649122806
sg25
F0.0039315903282877923
sg26
F0.1149425287356322
sg27
F0.1149425287356322
sg28
F0.072992700729927015
sg29
F0.033670033670033669
sg30
F0.0017073587160662453
sg31
F0.04048582995951417
sg32
F0.0010423724396726951
sg33
F0.093457943925233655
sg34
F0.0087450808919982519
sg35
F0.010559662090813094
sS"'"
F0.17543859649122806
sg36
F0.022371364653243846
sg37
F0.015698587127158554
sg38
F0.17543859649122806
sg39
F0.14925373134328357
ssg30
(dp74
g2
F0.015898251192368842
sg4
F0.016909029421711193
sg5
F0.093457943925233655
sg6
F0.010290712631849755
sS','
F0.02535122002746382
sg7
F0.015643332029722332
sg8
F0.0091157702825888781
sg9
F0.0048756704046806435
sg10
F0.019342359767891681
sg11
F0.03236245954692557
sg12
F0.01979960400791984
sS'#'
F0.17543859649122806
sS'"'
F0.011966493817311527
sg13
F0.054844606946983544
sS'$'
F0.95332671300893745
sg14
F0.015602998820261066
sg15
F0.012599218848431397
sS')'
F0.065146579804560262
sS'('
F0.031545741324921134
sg16
F0.027238060650081712
sg17
F0.033204205866076371
sS'.'
F0.0012695188523549573
sg18
F0.068629621430152762
sg19
F0.0026546323334218211
sg20
F0.022303648239604904
sS':'
F0.39264828738512947
sg21
F0.001554363876583508
sg22
F0.021845663340615221
sg23
F0.012054417082831064
sg24
F0.022883295194508008
sS'`'
F0.17543859649122806
sg25
F0.019657951641438961
sg26
F0.1149425287356322
sg27
F0.1149425287356322
sg28
F0.072992700729927015
sg29
F0.033670033670033669
sg30
F0.17244323032269079
sg31
F0.04048582995951417
sg32
F0.04430082868608954
sg33
F0.093457943925233655
sg34
F0.0043725404459991259
sg35
F0.010559662090813094
sS"'"
F0.17543859649122806
sg36
F0.067114093959731544
sg37
F0.015698587127158554
sg38
F0.17543859649122806
sg39
F0.14925373134328357
ssg31
(dp75
g2
F0.0052994170641229464
sg4
F0.0033818058843422391
sg5
F0.093457943925233655
sg6
F0.0025726781579624388
sS','
F0.0052815041723882957
sg7
F0.0078216660148611658
sg8
F0.0091157702825888781
sg9
F0.00069652434352580623
sg10
F0.019342359767891681
sg11
F0.0024894199651481204
sg12
F0.00059998800023999517
sS'#'
F0.17543859649122806
sS'"'
F0.011966493817311527
sg13
F0.018281535648994516
sS'$'
F0.0099304865938430985
sg14
F0.00038056094683563578
sg15
F0.0050396875393725589
sS')'
F0.032573289902280131
sS'('
F0.031545741324921134
sg16
F0.0018158707100054475
sg17
F0.0055340343110127288
sS'.'
F0.0012695188523549573
sg18
F0.0022138587558113792
sg19
F0.0026546323334218211
sg20
F0.0015931177314003505
sS':'
F0.0083542188805346695
sg21
F0.00077718193829175402
sg22
F0.00059042333353014108
sg23
F0.0017220595832615807
sg24
F0.022883295194508008
sS'`'
F0.17543859649122806
sg25
F0.011794770984863378
sg26
F0.1149425287356322
sg27
F0.1149425287356322
sg28
F0.072992700729927015
sg29
F0.033670033670033669
sg30
F0.0017073587160662453
sg31
F0.04048582995951417
sg32
F0.0026059310991817376
sg33
F0.093457943925233655
sg34
F0.0043725404459991259
sg35
F0.010559662090813094
sS"'"
F0.17543859649122806
sg36
F0.022371364653243846
sg37
F0.015698587127158554
sg38
F0.17543859649122806
sg39
F0.14925373134328357
ssg32
(dp76
g2
F0.0052994170641229464
sg4
F0.14541765302671628
sg5
F0.093457943925233655
sg6
F0.38847440185232829
sS','
F0.071828456744480823
sg7
F0.050840829096597574
sg8
F0.045578851412944391
sg9
F0.050846277077383852
sg10
F0.019342359767891681
sg11
F0.092108538710480456
sg12
F0.0077998440031199377
sS'#'
F0.17543859649122806
sS'"'
F0.10769844435580375
sg13
F0.054844606946983544
sS'$'
F0.0099304865938430985
sg14
F0.24317844502797126
sg15
F0.12095250094494141
sS')'
F0.097719869706840393
sS'('
F0.094637223974763415
sg16
F0.11984746686035953
sg17
F0.0055340343110127288
sS'.'
F0.0012695188523549573
sg18
F0.0044277175116227583
sg19
F0.034510220334483678
sg20
F0.13860124263183049
sS':'
F0.058479532163742687
sg21
F0.24325794668531903
sg22
F0.040739210013579732
sg23
F0.11365593249526433
sg24
F0.022883295194508008
sS'`'
F0.17543859649122806
sg25
F0.045213288775309612
sg26
F0.1149425287356322
sg27
F0.1149425287356322
sg28
F0.072992700729927015
sg29
F0.10101010101010101
sg30
F0.10244152296397473
sg31
F0.04048582995951417
sg32
F0.01250846927607234
sg33
F0.093457943925233655
sg34
F0.0043725404459991259
sg35
F0.073917634635691662
sS"'"
F0.17543859649122806
sg36
F0.089485458612975383
sg37
F0.37676609105180531
sg38
F0.17543859649122806
sg39
F0.14925373134328357
ssg33
(dp77
g2
F0.0052994170641229464
sg4
F0.0033818058843422391
sg5
F0.093457943925233655
sg6
F0.0025726781579624388
sS','
F0.0052815041723882957
sg7
F0.0039108330074305829
sg8
F0.0091157702825888781
sg9
F0.00069652434352580623
sg10
F0.019342359767891681
sg11
F0.0024894199651481204
sg12
F0.00059998800023999517
sS'#'
F0.17543859649122806
sS'"'
F0.0039888312724371761
sg13
F0.018281535648994516
sS'$'
F0.0099304865938430985
sg14
F0.00076112189367127155
sg15
F0.0012599218848431397
sS')'
F0.032573289902280131
sS'('
F0.031545741324921134
sg16
F0.0018158707100054475
sg17
F0.0055340343110127288
sS'.'
F0.0012695188523549573
sg18
F0.0022138587558113792
sg19
F0.0026546323334218211
sg20
F0.0015931177314003505
sS':'
F0.0083542188805346695
sg21
F0.00077718193829175402
sg22
F0.00059042333353014108
sg23
F0.0017220595832615807
sg24
F0.022883295194508008
sS'`'
F0.17543859649122806
sg25
F0.0019657951641438962
sg26
F0.1149425287356322
sg27
F0.1149425287356322
sg28
F0.072992700729927015
sg29
F0.033670033670033669
sg30
F0.0017073587160662453
sg31
F0.04048582995951417
sg32
F0.00052118621983634757
sg33
F0.093457943925233655
sg34
F0.0043725404459991259
sg35
F0.010559662090813094
sS"'"
F0.17543859649122806
sg36
F0.022371364653243846
sg37
F0.015698587127158554
sg38
F0.17543859649122806
sg39
F0.14925373134328357
ssg34
(dp78
g2
F0.0052994170641229464
sg4
F0.0033818058843422391
sg5
F0.18691588785046731
sg6
F0.010290712631849755
sS','
F0.0084504066758212728
sg7
F0.0039108330074305829
sg8
F0.16408386508659981
sg9
F0.0013930486870516125
sg10
F0.058027079303675046
sg11
F0.0024894199651481204
sg12
F0.0029999400011999759
sS'#'
F0.17543859649122806
sS'"'
F0.027921818907060234
sg13
F0.018281535648994516
sS'$'
F0.0099304865938430985
sg14
F0.021311413022795603
sg15
F0.0012599218848431397
sS')'
F0.065146579804560262
sS'('
F0.031545741324921134
sg16
F0.0036317414200108949
sg17
F0.0055340343110127288
sS'.'
F0.0012695188523549573
sg18
F0.0022138587558113792
sg19
F0.14865941067162197
sg20
F0.014338059582603153
sS':'
F0.016708437761069339
sg21
F0.022538276210460867
sg22
F0.012989313337663105
sg23
F0.0017220595832615807
sg24
F0.022883295194508008
sS'`'
F0.17543859649122806
sg25
F0.015726361313151169
sg26
F0.1149425287356322
sg27
F0.1149425287356322
sg28
F0.072992700729927015
sg29
F0.033670033670033669
sg30
F0.0017073587160662453
sg31
F0.20242914979757085
sg32
F0.00052118621983634757
sg33
F0.093457943925233655
sg34
F0.0043725404459991259
sg35
F0.021119324181626188
sS"'"
F0.17543859649122806
sg36
F0.022371364653243846
sg37
F0.015698587127158554
sg38
F0.17543859649122806
sg39
F0.14925373134328357
ssg35
(dp79
g2
F0.0052994170641229464
sg4
F0.0033818058843422391
sg5
F0.093457943925233655
sg6
F0.0025726781579624388
sS','
F0.0021126016689553182
sg7
F0.0039108330074305829
sg8
F0.0091157702825888781
sg9
F0.0027860973741032249
sg10
F0.019342359767891681
sg11
F0.0049788399302962407
sg12
F0.013799724005519889
sS'#'
F0.17543859649122806
sS'"'
F0.0039888312724371761
sg13
F0.018281535648994516
sS'$'
F0.0099304865938430985
sg14
F0.00038056094683563578
sg15
F0.007559531309058838
sS')'
F0.032573289902280131
sS'('
F0.031545741324921134
sg16
F0.0036317414200108949
sg17
F0.011068068622025458
sS'.'
F0.0012695188523549573
sg18
F0.0066415762674341379
sg19
F0.0026546323334218211
sg20
F0.0015931177314003505
sS':'
F0.0083542188805346695
sg21
F0.00077718193829175402
sg22
F0.027749896675916631
sg23
F0.0017220595832615807
sg24
F0.022883295194508008
sS'`'
F0.17543859649122806
sg25
F0.0039315903282877923
sg26
F0.1149425287356322
sg27
F0.1149425287356322
sg28
F0.072992700729927015
sg29
F0.033670033670033669
sg30
F0.005122076148198736
sg31
F0.04048582995951417
sg32
F0.00052118621983634757
sg33
F0.093457943925233655
sg34
F0.0043725404459991259
sg35
F0.042238648363252376
sS"'"
F0.17543859649122806
sg36
F0.044742729306487691
sg37
F0.015698587127158554
sg38
F0.17543859649122806
sg39
F0.14925373134328357
ssS"'"
(dp80
g2
F0.0052994170641229464
sg4
F0.0033818058843422391
sg5
F0.093457943925233655
sg6
F0.0025726781579624388
sS','
F0.0010563008344776591
sg7
F0.0039108330074305829
sg8
F0.0091157702825888781
sg9
F0.00069652434352580623
sg10
F0.019342359767891681
sg11
F0.0024894199651481204
sg12
F0.00059998800023999517
sS'#'
F0.17543859649122806
sS'"'
F0.0039888312724371761
sg13
F0.018281535648994516
sS'$'
F0.0099304865938430985
sg14
F0.00038056094683563578
sg15
F0.0012599218848431397
sS')'
F0.032573289902280131
sS'('
F0.031545741324921134
sg16
F0.0018158707100054475
sg17
F0.0055340343110127288
sS'.'
F0.0012695188523549573
sg18
F0.0022138587558113792
sg19
F0.0026546323334218211
sg20
F0.0015931177314003505
sS':'
F0.0083542188805346695
sg21
F0.00077718193829175402
sg22
F0.00059042333353014108
sg23
F0.0017220595832615807
sg24
F0.022883295194508008
sS'`'
F0.17543859649122806
sg25
F0.0019657951641438962
sg26
F0.1149425287356322
sg27
F0.1149425287356322
sg28
F0.072992700729927015
sg29
F0.033670033670033669
sg30
F0.0017073587160662453
sg31
F0.04048582995951417
sg32
F0.00052118621983634757
sg33
F0.093457943925233655
sg34
F0.0043725404459991259
sg35
F0.010559662090813094
sS"'"
F0.17543859649122806
sg36
F0.022371364653243846
sg37
F0.015698587127158554
sg38
F0.17543859649122806
sg39
F0.14925373134328357
ssg36
(dp81
g2
F0.010598834128245893
sg4
F0.0033818058843422391
sg5
F0.093457943925233655
sg6
F0.0025726781579624388
sS','
F0.0021126016689553182
sg7
F0.0078216660148611658
sg8
F0.0091157702825888781
sg9
F0.00069652434352580623
sg10
F0.019342359767891681
sg11
F0.0024894199651481204
sg12
F0.0065998680026399473
sS'#'
F0.17543859649122806
sS'"'
F0.0039888312724371761
sg13
F0.036563071297989032
sS'$'
F0.0099304865938430985
sg14
F0.00038056094683563578
sg15
F0.003779765654529419
sS')'
F0.032573289902280131
sS'('
F0.031545741324921134
sg16
F0.0036317414200108949
sg17
F0.04427227448810183
sS'.'
F0.0012695188523549573
sg18
F0.0022138587558113792
sg19
F0.0053092646668436421
sg20
F0.0015931177314003505
sS':'
F0.016708437761069339
sg21
F0.00077718193829175402
sg22
F0.00059042333353014108
sg23
F0.0017220595832615807
sg24
F0.022883295194508008
sS'`'
F0.17543859649122806
sg25
F0.005897385492431689
sg26
F0.1149425287356322
sg27
F0.1149425287356322
sg28
F0.072992700729927015
sg29
F0.033670033670033669
sg30
F0.0017073587160662453
sg31
F0.04048582995951417
sg32
F0.0062542346380361699
sg33
F0.093457943925233655
sg34
F0.0043725404459991259
sg35
F0.010559662090813094
sS"'"
F0.17543859649122806
sg36
F0.022371364653243846
sg37
F0.015698587127158554
sg38
F0.17543859649122806
sg39
F0.14925373134328357
ssg37
(dp82
g2
F0.0052994170641229464
sg4
F0.010145417653026716
sg5
F0.093457943925233655
sg6
F0.0051453563159248776
sS','
F0.0021126016689553182
sg7
F0.019554165037152915
sg8
F0.0091157702825888781
sg9
F0.00069652434352580623
sg10
F0.019342359767891681
sg11
F0.0024894199651481204
sg12
F0.0059998800023999517
sS'#'
F0.17543859649122806
sS'"'
F0.0039888312724371761
sg13
F0.018281535648994516
sS'$'
F0.0099304865938430985
sg14
F0.0019028047341781787
sg15
F0.003779765654529419
sS')'
F0.032573289902280131
sS'('
F0.031545741324921134
sg16
F0.0090793535500272374
sg17
F0.0055340343110127288
sS'.'
F0.0012695188523549573
sg18
F0.0044277175116227583
sg19
F0.0053092646668436421
sg20
F0.012744941851202804
sS':'
F0.0083542188805346695
sg21
F0.001554363876583508
sg22
F0.00059042333353014108
sg23
F0.015498536249354227
sg24
F0.022883295194508008
sS'`'
F0.17543859649122806
sg25
F0.0078631806565755847
sg26
F0.1149425287356322
sg27
F0.1149425287356322
sg28
F0.072992700729927015
sg29
F0.033670033670033669
sg30
F0.0034147174321324907
sg31
F0.04048582995951417
sg32
F0.0052118621983634752
sg33
F0.093457943925233655
sg34
F0.0043725404459991259
sg35
F0.010559662090813094
sS"'"
F0.17543859649122806
sg36
F0.022371364653243846
sg37
F0.015698587127158554
sg38
F0.17543859649122806
sg39
F0.14925373134328357
ssg38
(dp83
g2
F0.0052994170641229464
sg4
F0.0033818058843422391
sg5
F0.093457943925233655
sg6
F0.0025726781579624388
sS','
F0.0010563008344776591
sg7
F0.0039108330074305829
sg8
F0.0091157702825888781
sg9
F0.00069652434352580623
sg10
F0.019342359767891681
sg11
F0.0024894199651481204
sg12
F0.00059998800023999517
sS'#'
F0.17543859649122806
sS'"'
F0.0039888312724371761
sg13
F0.018281535648994516
sS'$'
F0.0099304865938430985
sg14
F0.00038056094683563578
sg15
F0.0012599218848431397
sS')'
F0.032573289902280131
sS'('
F0.031545741324921134
sg16
F0.0018158707100054475
sg17
F0.0055340343110127288
sS'.'
F0.0012695188523549573
sg18
F0.0022138587558113792
sg19
F0.0026546323334218211
sg20
F0.0015931177314003505
sS':'
F0.0083542188805346695
sg21
F0.00077718193829175402
sg22
F0.00059042333353014108
sg23
F0.0017220595832615807
sg24
F0.022883295194508008
sS'`'
F0.17543859649122806
sg25
F0.0019657951641438962
sg26
F0.1149425287356322
sg27
F0.1149425287356322
sg28
F0.072992700729927015
sg29
F0.033670033670033669
sg30
F0.0017073587160662453
sg31
F0.04048582995951417
sg32
F0.00052118621983634757
sg33
F0.093457943925233655
sg34
F0.0043725404459991259
sg35
F0.010559662090813094
sS"'"
F0.17543859649122806
sg36
F0.022371364653243846
sg37
F0.015698587127158554
sg38
F0.17543859649122806
sg39
F0.14925373134328357
ssg39
(dp84
g2
F0.0052994170641229464
sg4
F0.0033818058843422391
sg5
F0.093457943925233655
sg6
F0.0025726781579624388
sS','
F0.0021126016689553182
sg7
F0.0039108330074305829
sg8
F0.0091157702825888781
sg9
F0.00069652434352580623
sg10
F0.019342359767891681
sg11
F0.0024894199651481204
sg12
F0.00059998800023999517
sS'#'
F0.17543859649122806
sS'"'
F0.0039888312724371761
sg13
F0.018281535648994516
sS'$'
F0.0099304865938430985
sg14
F0.00038056094683563578
sg15
F0.0012599218848431397
sS')'
F0.032573289902280131
sS'('
F0.031545741324921134
sg16
F0.0018158707100054475
sg17
F0.0055340343110127288
sS'.'
F0.0012695188523549573
sg18
F0.0022138587558113792
sg19
F0.0026546323334218211
sg20
F0.0015931177314003505
sS':'
F0.0083542188805346695
sg21
F0.00077718193829175402
sg22
F0.00059042333353014108
sg23
F0.0017220595832615807
sg24
F0.022883295194508008
sS'`'
F0.17543859649122806
sg25
F0.0019657951641438962
sg26
F0.1149425287356322
sg27
F0.1149425287356322
sg28
F0.072992700729927015
sg29
F0.033670033670033669
sg30
F0.0017073587160662453
sg31
F0.04048582995951417
sg32
F0.00052118621983634757
sg33
F0.093457943925233655
sg34
F0.0043725404459991259
sg35
F0.010559662090813094
sS"'"
F0.17543859649122806
sg36
F0.022371364653243846
sg37
F0.015698587127158554
sg38
F0.17543859649122806
sg39
F0.14925373134328357
ss.