(dp1
S'limited'
p2
I7
sS'shelf'
p3
I3
sS'wallingford'
p4
I2
sS'linsey'
p5
I2
sS'magnetic'
p6
I10
sS'outlining'
p7
I2
sS'self-incrimination'
p8
I4
sS'four'
p9
I4
sS'obstruction'
p10
I2
sS'protest'
p11
I5
sS'nwa'
p12
I2
sS'controversial'
p13
I3
sS'aides'
p14
I5
sS'consists'
p15
I2
sS'oldest'
p16
I2
sS'whose'
p17
I6
sS'pedro'
p18
I2
sS'1.12'
p19
I2
sS'violate'
p20
I3
sS'marcos'
p21
I19
sS'paris'
p22
I2
sS'swan'
p23
I2
sS'edward'
p24
I3
sS'caused'
p25
I4
sS'regal'
p26
I2
sS'pride'
p27
I3
sS'placed'
p28
I2
sS'alternating'
p29
I2
sS'pact'
p30
I2
sS'lure'
p31
I2
sS'hormone'
p32
I2
sS'legislators'
p33
I3
sS'risk'
p34
I4
sS'regional'
p35
I2
sS'flashpoint'
p36
I2
sS'georgia'
p37
I2
sS'every'
p38
I2
sS'softened'
p39
I2
sS'reforms'
p40
I4
sS'affect'
p41
I2
sS'multiple'
p42
I2
sS'postpone'
p43
I2
sS'missionary'
p44
I2
sS'pilgrim'
p45
I3
sS'disturb'
p46
I3
sS'pooled'
p47
I2
sS'facilities'
p48
I5
sS'companies'
p49
I10
sS'herbert'
p50
I2
sS'gaelic'
p51
I2
sS'convenience'
p52
I2
sS'specialties'
p53
I2
sS'red'
p54
I5
sS'cholesterol'
p55
I3
sS'muscles'
p56
I3
sS'heading'
p57
I2
sS'enjoy'
p58
I4
sS'chew'
p59
I2
sS'charter'
p60
I3
sS'expanded'
p61
I2
sS'force'
p62
I4
sS'leaders'
p63
I14
sS'awake'
p64
I2
sS'bankers'
p65
I3
sS'estimates'
p66
I3
sS'japanese'
p67
I27
sS'elections'
p68
I3
sS'270'
p69
I2
sS'elegant'
p70
I2
sS'second'
p71
I13
sS'messiaen'
p72
I2
sS'topped'
p73
I2
sS'tangential'
p74
I2
sS'borrowings'
p75
I2
sS'eligible'
p76
I2
sS'estimated'
p77
I4
sS'machines'
p78
I8
sS'even'
p79
I18
sS'anti-apartheid'
p80
I2
sS'spouses'
p81
I3
sS'hide'
p82
I2
sS'tempe'
p83
I2
sS'uninspired'
p84
I2
sS'contributed'
p85
I5
sS'fingers'
p86
I4
sS'liberty'
p87
I2
sS'spokesman'
p88
I7
sS'liberated'
p89
I2
sS'179'
p90
I2
sS'above'
p91
I5
sS'dr.'
p92
I8
sS'new'
p93
I66
sS'net'
p94
I4
sS'increasing'
p95
I2
sS'ever'
p96
I3
sS'seeks'
p97
I3
sS'told'
p98
I7
sS'specialist'
p99
I2
sS'simultaneously'
p100
I2
sS'never'
p101
I2
sS'1.45'
p102
I2
sS'here'
p103
I6
sS'hundreds'
p104
I3
sS'reported'
p105
I8
sS'protection'
p106
I2
sS'studio'
p107
I2
sS'active'
p108
I3
sS'eg&g'
p109
I6
sS'100'
p110
I6
sS'practices'
p111
I2
sS'contraction'
p112
I2
sS'dry'
p113
I2
sS'fireballs'
p114
I2
sS'credentials'
p115
I2
sS'auction'
p116
I5
sS'mitchell'
p117
I3
sS'employees'
p118
I8
sS'changed'
p119
I3
sS'article'
p120
I4
sS'precede'
p121
I2
sS'electricity'
p122
I2
sS'analysts'
p123
I5
sS'neurologist'
p124
I4
sS'military'
p125
I4
sS'chateau'
p126
I2
sS'suitable'
p127
I2
sS'changes'
p128
I2
sS'intruder'
p129
I2
sS'criticism'
p130
I2
sS'golden'
p131
I2
sS'spooks'
p132
I2
sS'avena'
p133
I2
sS'besides'
p134
I3
sS'campaign'
p135
I3
sS'owed'
p136
I2
sS'revenue-raising'
p137
I2
sS'reagan'
p138
I6
sS'natural'
p139
I2
sS'replace'
p140
I3
sS'brought'
p141
I7
sS'shun'
p142
I2
sS'unix'
p143
I4
sS'19.7'
p144
I2
sS'stand'
p145
I3
sS'total'
p146
I5
sS'philip'
p147
I2
sS'unit'
p148
I6
sS'swings'
p149
I3
sS'marketers'
p150
I4
sS'would'
p151
I56
sS'pulp'
p152
I2
sS'hospital'
p153
I3
sS'century'
p154
I4
sS'chooses'
p155
I2
sS'wordplay'
p156
I2
sS'slogans'
p157
I2
sS'cichan'
p158
I2
sS'program'
p159
I8
sS'music'
p160
I7
sS'asset'
p161
I2
sS'survive'
p162
I2
sS'type'
p163
I2
sS'until'
p164
I6
sS'267'
p165
I2
sS'main'
p166
I3
sS'coupled'
p167
I2
sS'relax'
p168
I2
sS'composite'
p169
I2
sS'giovanni'
p170
I9
sS'naive'
p171
I2
sS'under'
p172
I16
sS'wars'
p173
I2
sS'aware'
p174
I2
sS'phone'
p175
I2
sS'berlin'
p176
I2
sS'kgb'
p177
I4
sS'hurl'
p178
I2
sS'emeritus'
p179
I3
sS'90'
p180
I8
sS'hold'
p181
I6
sS'94'
p182
I2
sS'circumstances'
p183
I4
sS'me'
p184
I5
sS'1990'
p185
I6
sS'1992'
p186
I2
sS'word'
p187
I3
sS'trashing'
p188
I2
sS'permits'
p189
I2
sS'pursue'
p190
I3
sS'self-styled'
p191
I2
sS'work'
p192
I11
sS'gasoline'
p193
I2
sS'crescott'
p194
I2
sS'theories'
p195
I2
sS'deficiencies'
p196
I2
sS'half-forgotten'
p197
I2
sS'13*slashhere*16'
p198
I2
sS'install'
p199
I3
sS'concepts'
p200
I2
sS'exceptions'
p201
I2
sS'upscale'
p202
I2
sS'original'
p203
I3
sS'my'
p204
I4
sS'example'
p205
I3
sS'merchant'
p206
I2
sS'loosen'
p207
I2
sS'estate'
p208
I5
sS'give'
p209
I8
sS'unjust'
p210
I2
sS'cited'
p211
I4
sS'floor'
p212
I2
sS'laughs'
p213
I2
sS'honed'
p214
I2
sS'uaw'
p215
I4
sS'involve'
p216
I3
sS'indicates'
p217
I3
sS'foods'
p218
I2
sS'calif.'
p219
I2
sS'caution'
p220
I2
sS'want'
p221
I6
sS'jetliner'
p222
I2
sS'times'
p223
I3
sS'attract'
p224
I2
sS'totaled'
p225
I2
sS'returned'
p226
I2
sS'biographical'
p227
I2
sS'end'
p228
I8
sS'recovery'
p229
I2
sS'thing'
p230
I2
sS'provide'
p231
I3
sS'damage'
p232
I6
sS'all-important'
p233
I2
sS'machine'
p234
I3
sS'how'
p235
I11
sS'amazing'
p236
I3
sS'high-grade'
p237
I3
sS'answer'
p238
I3
sS'ordinary'
p239
I3
sS'saint-saens'
p240
I3
sS'beach'
p241
I2
sS'aggressive'
p242
I4
sS'bebop'
p243
I2
sS'badly'
p244
I3
sS'rise'
p245
I4
sS'minority'
p246
I2
sS'beauty'
p247
I2
sS'claptrap'
p248
I2
sS'after'
p249
I27
sS'loyalty'
p250
I2
sS'lab'
p251
I4
sS'barriers'
p252
I2
sS'wrong'
p253
I2
sS'mph'
p254
I3
sS'president'
p255
I40
sS'law'
p256
I20
sS'types'
p257
I2
sS'purchase'
p258
I5
sS'attempt'
p259
I2
sS'effective'
p260
I6
sS'amid'
p261
I2
sS'homeowners'
p262
I2
sS'deutsche'
p263
I2
sS'stimulate'
p264
I2
sS'maintain'
p265
I2
sS'frequent'
p266
I5
sS'things'
p267
I5
sS'fraudulently'
p268
I2
sS'civil-service'
p269
I2
sS'democratic'
p270
I4
sS'order'
p271
I6
sS'operations'
p272
I4
sS'senators'
p273
I2
sS'office'
p274
I9
sS'devote'
p275
I2
sS'welcomed'
p276
I2
sS'over'
p277
I26
sS'misdemeanor'
p278
I2
sS'vary'
p279
I2
sS'expects'
p280
I4
sS'presence'
p281
I2
sS'6.5'
p282
I3
sS'london'
p283
I8
sS'6.2'
p284
I2
sS'innovative'
p285
I2
sS'japan'
p286
I18
sS'15*slashhere*16'
p287
I2
sS'mayor'
p288
I3
sS'before'
p289
I9
sS'difference'
p290
I2
sS'fit'
p291
I2
sS'benign'
p292
I2
sS'personal'
p293
I4
sS'del'
p294
I2
sS'recreational'
p295
I2
sS','
I942
sS'interfere'
p296
I2
sS'writing'
p297
I2
sS'better'
p298
I6
sS'encounter'
p299
I2
sS'accusatory'
p300
I2
sS'400'
p301
I3
sS'weeks'
p302
I4
sS'overcome'
p303
I2
sS'seib'
p304
I2
sS'then'
p305
I11
sS'dec.'
p306
I5
sS'affected'
p307
I2
sS'`'
I4
sS'slate'
p308
I2
sS'safe'
p309
I3
sS'roost'
p310
I2
sS'break'
p311
I3
sS'well-hit'
p312
I2
sS'therapy'
p313
I3
sS'mosher'
p314
I2
sS'they'
p315
I47
sS'yourself'
p316
I2
sS'slats'
p317
I3
sS'bank'
p318
I25
sS'30-year'
p319
I2
sS'pollution-control'
p320
I3
sS'regularly'
p321
I2
sS'schieffelin'
p322
I2
sS'detroit'
p323
I3
sS'stimulus'
p324
I2
sS'filling'
p325
I2
sS'dollar-denominated'
p326
I2
sS'affiliate'
p327
I2
sS'conflict'
p328
I3
sS'each'
p329
I9
sS'tacker'
p330
I4
sS'went'
p331
I5
sS'7.90'
p332
I2
sS'side'
p333
I3
sS'7.92'
p334
I2
sS'lasting'
p335
I2
sS'lifted'
p336
I2
sS'financial'
p337
I12
sS'independent'
p338
I2
sS'series'
p339
I4
sS'crimes'
p340
I3
sS'principles'
p341
I3
sS'marital'
p342
I5
sS'vote'
p343
I3
sS'milan'
p344
I2
sS'trading'
p345
I3
sS'magnets'
p346
I2
sS'stronger-than-expected'
p347
I2
sS'lawyers'
p348
I3
sS'recognizable'
p349
I2
sS'saturday'
p350
I2
sS'brings'
p351
I2
sS't.'
p352
I2
sS'precisely'
p353
I2
sS'velvet'
p354
I2
sS'network'
p355
I7
sS'cameras'
p356
I2
sS'george'
p357
I6
sS'collaborated'
p358
I2
sS'laid'
p359
I2
sS'got'
p360
I4
sS'newly'
p361
I3
sS'forth'
p362
I2
sS'gop'
p363
I2
sS'tashi'
p364
I3
sS'sept.'
p365
I3
sS'turning'
p366
I4
sS'veto'
p367
I2
sS'u.s.'
p368
I48
sS'7.962'
p369
I2
sS'free'
p370
I7
sS'fred'
p371
I2
sS'admits'
p372
I2
sS'ramos'
p373
I2
sS'boosting'
p374
I2
sS'wanted'
p375
I3
sS'repeat'
p376
I2
sS'sheffield'
p377
I2
sS'chortled'
p378
I2
sS'baseman'
p379
I2
sS'created'
p380
I5
sS'fought'
p381
I4
sS'inexpensive'
p382
I2
sS'days'
p383
I28
sS'flown'
p384
I2
sS'6.7'
p385
I2
sS'signature'
p386
I2
sS'moving'
p387
I4
sS'r.'
p388
I3
sS'caught'
p389
I2
sS'purpose'
p390
I4
sS'non-violent'
p391
I14
sS'200'
p392
I2
sS'appeals'
p393
I2
sS'features'
p394
I2
sS'economists'
p395
I2
sS'researcher'
p396
I4
sS'primary'
p397
I3
sS'hearing'
p398
I4
sS'featured'
p399
I3
sS'guzzle'
p400
I2
sS'another'
p401
I16
sS'electronic'
p402
I3
sS'illustrate'
p403
I3
sS'seizures'
p404
I2
sS'stimulation'
p405
I3
sS'service'
p406
I4
sS'similarly'
p407
I2
sS'top'
p408
I6
sS'returns'
p409
I2
sS'approximately'
p410
I3
sS'master'
p411
I2
sS'too'
p412
I8
sS'nz$'
p413
I2
sS'percentage'
p414
I2
sS'john'
p415
I4
sS'bitter'
p416
I2
sS'chanted'
p417
I3
sS'1991'
p418
I5
sS'90.5'
p419
I2
sS'tool'
p420
I2
sS'serve'
p421
I2
sS'took'
p422
I6
sS'negotiating'
p423
I3
sS'direct'
p424
I4
sS'predictable'
p425
I2
sS'western'
p426
I4
sS'somewhat'
p427
I2
sS'kept'
p428
I2
sS'alberg'
p429
I2
sS'begins'
p430
I2
sS'anxiety'
p431
I2
sS'guile'
p432
I2
sS'showed'
p433
I6
sS'magnet'
p434
I4
sS'1978'
p435
I3
sS'tree'
p436
I2
sS'likely'
p437
I4
sS'nations'
p438
I2
sS'project'
p439
I2
sS'splendidly'
p440
I2
sS'street'
p441
I5
sS'charlie'
p442
I2
sS'divisiveness'
p443
I2
sS'rennie'
p444
I2
sS'powers'
p445
I2
sS'stimuli'
p446
I2
sS'acquisition'
p447
I4
sS'displays'
p448
I2
sS'goya'
p449
I6
sS'bridge'
p450
I2
sS'cheek'
p451
I2
sS'well-meaning'
p452
I2
sS'willingness'
p453
I2
sS'exploring'
p454
I2
sS'ran'
p455
I2
sS'boston'
p456
I3
sS'mind'
p457
I2
sS'500,000'
p458
I2
sS'talking'
p459
I2
sS'advising'
p460
I2
sS'rap'
p461
I2
sS'further'
p462
I3
sS'seem'
p463
I2
sS'seek'
p464
I3
sS'seminar'
p465
I2
sS'academics'
p466
I2
sS'forced'
p467
I2
sS'abroad'
p468
I4
sS'strength'
p469
I4
sS'mostly'
p470
I2
sS'thoroughly'
p471
I2
sS'responsible'
p472
I4
sS'thorough'
p473
I2
sS'predominantly'
p474
I2
sS'bullhorns'
p475
I2
sS'sound'
p476
I2
sS'subjects'
p477
I5
sS'luxury'
p478
I4
sS'forces'
p479
I4
sS'brains'
p480
I4
sS'transnational'
p481
I2
sS'completed'
p482
I3
sS'unsecured'
p483
I3
sS'concedes'
p484
I3
sS'sidley'
p485
I6
sS'6*slashhere*2'
p486
I2
sS'philadelphia'
p487
I2
sS'though'
p488
I7
sS'bruce'
p489
I2
sS'iceland'
p490
I2
sS'kidnapping'
p491
I2
sS'8.03'
p492
I2
sS'affirmation'
p493
I2
sS'germany'
p494
I5
sS'plenty'
p495
I2
sS'hearts'
p496
I2
sS'8.09'
p497
I2
sS'alabama'
p498
I3
sS'holliger'
p499
I2
sS'maria'
p500
I2
sS'known'
p501
I3
sS'singer'
p502
I2
sS'consumers'
p503
I5
sS'secaucus'
p504
I2
sS'medical'
p505
I4
sS'camp'
p506
I2
sS'flow'
p507
I3
sS'newcomers'
p508
I2
sS'musical'
p509
I3
sS'points'
p510
I2
sS'overnight'
p511
I2
sS'principle'
p512
I2
sS'entertaining'
p513
I2
sS'voting'
p514
I2
sS'consumer'
p515
I4
sS'purged'
p516
I2
sS'came'
p517
I4
sS'reserve'
p518
I4
sS'd.'
p519
I5
sS'saying'
p520
I4
sS'sanctuary'
p521
I2
sS'magisterially'
p522
I2
sS'meetings'
p523
I5
sS'probe'
p524
I4
sS'sage'
p525
I2
sS'simple'
p526
I2
sS'radio'
p527
I2
sS'stepping'
p528
I2
sS'participate'
p529
I2
sS'hungary'
p530
I2
sS'bail'
p531
I2
sS'sunsets'
p532
I2
sS'finally'
p533
I4
sS'quoted'
p534
I3
sS'delays'
p535
I2
sS'debts'
p536
I4
sS'institution'
p537
I2
sS'glasnost'
p538
I2
sS'bush'
p539
I25
sS'version'
p540
I3
sS'rich'
p541
I2
sS'pursuing'
p542
I2
sS'gideon'
p543
I3
sS'announce'
p544
I3
sS'adequate'
p545
I2
sS'titans'
p546
I2
sS'oct'
p547
I2
sS'personality'
p548
I2
sS'lady'
p549
I2
sS'do'
p550
I20
sS'exports'
p551
I2
sS'klein'
p552
I2
sS'10'
p553
I13
sS'higher-fat'
p554
I2
sS'conduct'
p555
I2
sS'glamorous'
p556
I2
sS'preferred'
p557
I6
sS'coast'
p558
I2
sS'criticized'
p559
I2
sS'christopher'
p560
I2
sS'12.75'
p561
I2
sS'altogether'
p562
I2
sS'report'
p563
I3
sS'vividly'
p564
I3
sS'considerably'
p565
I2
sS'u.n.'
p566
I4
sS'unfortunately'
p567
I3
sS'runs'
p568
I2
sS'pearson'
p569
I2
sS'sailing'
p570
I2
sS'countries'
p571
I5
sS'fields'
p572
I2
sS'amputation'
p573
I2
sS'super-user'
p574
I2
sS'pravda'
p575
I2
sS'book'
p576
I2
sS'financially'
p577
I2
sS'three-year'
p578
I3
sS'18'
p579
I3
sS'korea'
p580
I2
sS'shocks'
p581
I4
sS'explanations'
p582
I2
sS'secretary'
p583
I2
sS'ethical'
p584
I2
sS'etudes'
p585
I2
sS'leasing'
p586
I2
sS'car-crash'
p587
I2
sS'fascinating'
p588
I2
sS'habit'
p589
I2
sS'generally'
p590
I2
sS'liquor'
p591
I2
sS'testing'
p592
I2
sS'discussing'
p593
I2
sS'1960s'
p594
I2
sS'checks'
p595
I2
sS'keenan'
p596
I8
sS'allure'
p597
I2
sS'result'
p598
I10
sS'holding'
p599
I9
sS'corrupt'
p600
I2
sS'3*slashhere*8'
p601
I2
sS'resigned'
p602
I5
sS'plight'
p603
I2
sS'best'
p604
I4
sS'techniques'
p605
I2
sS'pete'
p606
I3
sS'said'
p607
I88
sS'draws'
p608
I2
sS'fastballs'
p609
I2
sS'away'
p610
I6
sS'irs'
p611
I7
sS'machinists'
p612
I2
sS'brushbacks'
p613
I2
sS'unable'
p614
I4
sS'finger'
p615
I2
sS'cooperation'
p616
I3
sS'8.12'
p617
I2
sS'tolerance'
p618
I2
sS'pirate'
p619
I2
sS'entrekin'
p620
I2
sS'glossy'
p621
I2
sS'wage'
p622
I16
sS'we'
p623
I22
sS'men'
p624
I4
sS'terms'
p625
I4
sS'7.78'
p626
I2
sS'80-plus'
p627
I2
sS'vows'
p628
I2
sS'wo'
p629
I9
sS'disposable'
p630
I2
sS'were'
p631
I34
sS'weak'
p632
I2
sS'however'
p633
I3
sS'boss'
p634
I2
sS'managing'
p635
I2
sS'retirement'
p636
I3
sS'drew'
p637
I2
sS'censorship'
p638
I2
sS'clues'
p639
I2
sS'news'
p640
I3
sS'picking'
p641
I2
sS'debt'
p642
I4
sS'downgraded'
p643
I2
sS'predates'
p644
I2
sS'improve'
p645
I4
sS'pity'
p646
I2
sS'received'
p647
I3
sS'protect'
p648
I4
sS'accident'
p649
I2
sS'resistant'
p650
I2
sS'country'
p651
I4
sS'readers'
p652
I2
sS'space'
p653
I2
sS'against'
p654
I32
sS'players'
p655
I7
sS'games'
p656
I2
sS'encore'
p657
I2
sS'faces'
p658
I2
sS'exceeds'
p659
I2
sS'requests'
p660
I3
sS'argue'
p661
I2
sS'asked'
p662
I3
sS'borden'
p663
I4
sS'41-lawyer'
p664
I2
sS'tough'
p665
I2
sS'c.d.s'
p666
I2
sS'agnellis'
p667
I3
sS'irresponsible'
p668
I2
sS'berkeley'
p669
I7
sS'tiant'
p670
I2
sS'zellers'
p671
I2
sS'tons'
p672
I2
sS'initiative'
p673
I2
sS'250'
p674
I2
sS'trust'
p675
I5
sS'telecommunications'
p676
I2
sS'ana'
p677
I2
sS'conference'
p678
I3
sS'signals'
p679
I2
sS'iraq'
p680
I2
sS'jobless'
p681
I2
sS'billing'
p682
I2
sS'basis'
p683
I2
sS'union'
p684
I7
sS'3.89'
p685
I2
sS'three'
p686
I13
sS'been'
p687
I39
sS'.'
I775
sS'commission'
p688
I3
sS'general-practice'
p689
I2
sS'much'
p690
I18
sS'stadium'
p691
I2
sS'basic'
p692
I2
sS'privilege'
p693
I6
sS'lovely'
p694
I3
sS'duties'
p695
I3
sS'threw'
p696
I3
sS'cutouts'
p697
I2
sS'life'
p698
I2
sS'cloak'
p699
I2
sS'eastern'
p700
I22
sS'dismiss'
p701
I2
sS'worker'
p702
I2
sS'1.9'
p703
I2
sS'belgium'
p704
I2
sS'snap'
p705
I2
sS'substance'
p706
I2
sS'personally'
p707
I3
sS'catch'
p708
I2
sS'feminine-care'
p709
I2
sS'worked'
p710
I2
sS'pershare'
p711
I2
sS'applied'
p712
I4
sS'east'
p713
I3
sS'trespass'
p714
I2
sS'd.c'
p715
I2
sS'publicly'
p716
I2
sS'38.2'
p717
I2
sS'oboist'
p718
I2
sS'irreparable'
p719
I2
sS'brahms'
p720
I2
sS'strict'
p721
I3
sS'kentucky'
p722
I2
sS'air'
p723
I8
sS'citizens'
p724
I2
sS'evening'
p725
I4
sS'gumbel'
p726
I2
sS'teachers'
p727
I2
sS'money-market'
p728
I2
sS'aid'
p729
I2
sS'property'
p730
I2
sS'elaborate'
p731
I2
sS'launched'
p732
I3
sS'sincerity'
p733
I2
sS'upgrade'
p734
I2
sS'seven'
p735
I3
sS'38.5'
p736
I2
sS'metropolitan'
p737
I3
sS'played'
p738
I3
sS'is'
p739
I123
sS'it'
p740
I107
sS'expenses'
p741
I2
sS'player'
p742
I3
sS'tissue'
p743
I3
sS'experts'
p744
I3
sS'in'
p745
I304
sS'exile'
p746
I2
sS'victims'
p747
I3
sS'if'
p748
I25
sS'hong'
p749
I2
sS'bottles'
p750
I3
sS'credit'
p751
I3
sS':'
I39
sS'make'
p752
I15
sS'airport'
p753
I2
sS'linked'
p754
I2
sS'dean'
p755
I2
sS'feuding'
p756
I2
sS'harmony'
p757
I2
sS'several'
p758
I9
sS'european'
p759
I3
sS'fairly'
p760
I2
sS'hani'
p761
I2
sS'jerked'
p762
I2
sS'human-rights'
p763
I2
sS'middle-aged'
p764
I2
sS'rain'
p765
I2
sS'hand'
p766
I4
sS'liberties'
p767
I2
sS'8.62'
p768
I2
sS'kim'
p769
I2
sS'advisers'
p770
I2
sS'workings'
p771
I2
sS'protected'
p772
I2
sS'opportunity'
p773
I3
sS'pacemakers'
p774
I2
sS'tune'
p775
I3
sS'midsized'
p776
I2
sS'waggishly'
p777
I2
sS'shortly'
p778
I2
sS'neurologists'
p779
I2
sS'programs'
p780
I7
sS'1976'
p781
I2
sS'1975'
p782
I3
sS'1973'
p783
I2
sS'milks'
p784
I2
sS'ragged'
p785
I2
sS'hispanic'
p786
I5
sS'materials'
p787
I2
sS'greatest'
p788
I3
sS'mother'
p789
I2
sS'claims'
p790
I6
sS'the'
p791
I950
sS'800'
p792
I3
sS'corporate'
p793
I6
sS'investments'
p794
I5
sS'left'
p795
I5
sS'arousing'
p796
I2
sS'whimsical'
p797
I2
sS'gov.'
p798
I2
sS'departed'
p799
I2
sS'just'
p800
I13
sS'unemployment'
p801
I4
sS'sporting'
p802
I2
sS'effects'
p803
I2
sS'ideas'
p804
I3
sS'proposes'
p805
I2
sS'vivaldi-at-brunch'
p806
I2
sS'thanks'
p807
I2
sS'human'
p808
I4
sS'resigning'
p809
I2
sS'fostering'
p810
I2
sS'zoo'
p811
I2
sS'yet'
p812
I4
sS'succeeding'
p813
I3
sS'previous'
p814
I3
sS'adding'
p815
I2
sS'comparisons'
p816
I2
sS'monitored'
p817
I2
sS'greenwich'
p818
I2
sS'ease'
p819
I2
sS'had'
p820
I31
sS'passive'
p821
I2
sS'potential'
p822
I4
sS'board'
p823
I9
sS'easy'
p824
I3
sS'bnl'
p825
I7
sS'manfred'
p826
I2
sS'has'
p827
I60
sS'interprets'
p828
I2
sS'gave'
p829
I5
sS'119'
p830
I2
sS'casting'
p831
I2
sS'municipal'
p832
I2
sS'braumeisters'
p833
I2
sS'mayo'
p834
I2
sS'posed'
p835
I2
sS'possible'
p836
I5
sS'bridgers'
p837
I2
sS'possibly'
p838
I3
sS'supervisors'
p839
I2
sS'background'
p840
I2
sS'30'
p841
I14
sS'judge'
p842
I17
sS'59'
p843
I2
sS'highly'
p844
I4
sS'advanced'
p845
I2
sS'apart'
p846
I3
sS'dignity'
p847
I2
sS'appearing'
p848
I2
sS'gift'
p849
I2
sS'55'
p850
I2
sS'54'
p851
I2
sS'hunt'
p852
I14
sS'50'
p853
I9
sS'53'
p854
I2
sS'securities'
p855
I33
sS'offices'
p856
I2
sS'officer'
p857
I12
sS'security'
p858
I5
sS'introduce'
p859
I2
sS'private-sector'
p860
I2
sS'misdemeanors'
p861
I2
sS'webb'
p862
I2
sS'attorney'
p863
I6
sS'right'
p864
I7
sS'old'
p865
I10
sS'crowd'
p866
I3
sS'people'
p867
I13
sS'understand'
p868
I2
sS'successfully'
p869
I2
sS'begin'
p870
I5
sS'unnecessary'
p871
I2
sS'consultants'
p872
I2
sS'election'
p873
I3
sS'fiduciary'
p874
I2
sS'indirect'
p875
I2
sS'hartt'
p876
I3
sS'short-term'
p877
I3
sS'separately'
p878
I3
sS'leery'
p879
I2
sS'humor'
p880
I2
sS'clash'
p881
I3
sS'for'
p882
I172
sS'collect'
p883
I2
sS'house-painting'
p884
I2
sS'reinvest'
p885
I3
sS'creative'
p886
I3
sS'everything'
p887
I5
sS'gems'
p888
I2
sS'segregated'
p889
I2
sS'first-mortgage'
p890
I2
sS'motor-control'
p891
I3
sS'clifford'
p892
I3
sS'participation'
p893
I5
sS'gandhi'
p894
I3
sS'core'
p895
I3
sS'bold'
p896
I2
sS'bank-backed'
p897
I2
sS'marketing'
p898
I6
sS'corn'
p899
I2
sS'burn'
p900
I2
sS'eduard'
p901
I3
sS'illustration'
p902
I2
sS'6,000'
p903
I2
sS'popular'
p904
I2
sS'criminals'
p905
I2
sS'corp'
p906
I2
sS'confrontation'
p907
I3
sS'packages'
p908
I2
sS'losing'
p909
I2
sS'brokerage'
p910
I2
sS'manufacturing'
p911
I2
sS'properties'
p912
I4
sS'yuppie'
p913
I2
sS'chapter'
p914
I2
sS'newspapers'
p915
I2
sS'months'
p916
I26
sS'costs'
p917
I3
sS'gentler'
p918
I2
sS'annualized'
p919
I2
sS'magazine'
p920
I3
sS'canonie'
p921
I3
sS'afternoon'
p922
I2
sS'steadily'
p923
I2
sS'efforts'
p924
I6
sS'twitch'
p925
I2
sS'lifland'
p926
I2
sS'automatically'
p927
I2
sS'nerve'
p928
I4
sS'consulting'
p929
I2
sS'm.'
p930
I2
sS'managers'
p931
I3
sS'formerly'
p932
I4
sS'accompanied'
p933
I2
sS'civil'
p934
I17
sS'maxwell'
p935
I2
sS'beneficial'
p936
I2
sS'arms'
p937
I5
sS'down'
p938
I14
sS'presenters'
p939
I2
sS'rome-based'
p940
I2
sS'magazines'
p941
I2
sS'capped'
p942
I3
sS'consumer-products'
p943
I2
sS'sox'
p944
I3
sS'defendants'
p945
I3
sS'often'
p946
I2
sS'america'
p947
I3
sS'deal'
p948
I5
sS'support'
p949
I5
sS'wad'
p950
I2
sS'transform'
p951
I2
sS'liquidated'
p952
I2
sS'why'
p953
I2
sS'clinical'
p954
I2
sS'editor'
p955
I3
sS'way'
p956
I13
sS'spring'
p957
I4
sS'resulted'
p958
I4
sS'call'
p959
I4
sS'was'
p960
I86
sS'war'
p961
I5
sS'purposely'
p962
I2
sS'calm'
p963
I2
sS'head'
p964
I5
sS'chiappa'
p965
I2
sS'amateur'
p966
I3
sS'fragrance'
p967
I2
sS'form'
p968
I2
sS'offer'
p969
I6
sS'dataproducts'
p970
I3
sS'laboratory'
p971
I3
sS'libel'
p972
I3
sS'removes'
p973
I2
sS'nonvoting'
p974
I2
sS'somehow'
p975
I3
sS'failure'
p976
I3
sS'heat'
p977
I2
sS'unamended'
p978
I2
sS'robertson'
p979
I2
sS'alliance'
p980
I2
sS'2,750'
p981
I2
sS'true'
p982
I2
sS'reset'
p983
I2
sS'nov.'
p984
I5
sS'versions'
p985
I4
sS'compositional'
p986
I2
sS'clause'
p987
I3
sS'maximum'
p988
I2
sS'devices'
p989
I12
sS'tell'
p990
I2
sS'kitschy'
p991
I2
sS'crystal'
p992
I2
sS'stolzman'
p993
I2
sS'3.5'
p994
I2
sS'unusually'
p995
I2
sS'stages'
p996
I2
sS'broberg'
p997
I4
sS'refillable'
p998
I3
sS'pricing'
p999
I2
sS'trim'
p1000
I2
sS'passenger'
p1001
I3
sS'promises'
p1002
I3
sS'later'
p1003
I3
sS'157'
p1004
I2
sS'156'
p1005
I3
sS'peruvian'
p1006
I2
sS'request'
p1007
I2
sS'store'
p1008
I3
sS'suspicions'
p1009
I2
sS'evidence'
p1010
I3
sS"''"
p1011
I107
sS'proves'
p1012
I2
sS'promised'
p1013
I2
sS'check'
p1014
I2
sS'negotiations'
p1015
I4
sS'physical'
p1016
I3
sS'1,000'
p1017
I2
sS'marking'
p1018
I2
sS'propagandists'
p1019
I2
sS'weakened'
p1020
I2
sS'no'
p1021
I27
sS'million-dollar'
p1022
I2
sS'stake'
p1023
I8
sS'when'
p1024
I21
sS'cambodia'
p1025
I2
sS'faux'
p1026
I2
sS'setting'
p1027
I4
sS'role'
p1028
I3
sS'3.8'
p1029
I2
sS'overturning'
p1030
I2
sS'65,200'
p1031
I2
sS'joni'
p1032
I2
sS'roll'
p1033
I2
sS'greenery'
p1034
I3
sS"'s"
p1035
I177
sS'get-together'
p1036
I3
sS'stoll'
p1037
I12
sS'dies'
p1038
I2
sS'felt'
p1039
I4
sS'stealing'
p1040
I2
sS'utilities'
p1041
I2
sS'pitcher-coach'
p1042
I2
sS'fell'
p1043
I3
sS'invested'
p1044
I2
sS'rising'
p1045
I2
sS'scores'
p1046
I3
sS'authorities'
p1047
I3
sS"'m"
p1048
I4
sS'talents'
p1049
I2
sS'died'
p1050
I4
sS'billion'
p1051
I22
sS'reorganization'
p1052
I3
sS'longer'
p1053
I4
sS'excuse'
p1054
I3
sS'assume'
p1055
I4
sS'}'
I4
sS'proposed'
p1056
I2
sS'affidavit'
p1057
I2
sS'daily'
p1058
I4
sS'uncovered'
p1059
I2
sS'warm'
p1060
I2
sS'defections'
p1061
I2
sS'time'
p1062
I16
sS'n.j.'
p1063
I2
sS'campaneris'
p1064
I3
sS'overturned'
p1065
I2
sS'parcels'
p1066
I2
sS'overdue'
p1067
I3
sS'concept'
p1068
I4
sS'cincinnati'
p1069
I3
sS'remarkable'
p1070
I3
sS'diplomacy'
p1071
I2
sS'excellent'
p1072
I2
sS'172.5'
p1073
I2
sS'invent'
p1074
I2
sS'roy'
p1075
I2
sS'manager'
p1076
I5
sS'leche'
p1077
I4
sS'indians'
p1078
I2
sS'mill'
p1079
I2
sS'targeted'
p1080
I2
sS'mellow'
p1081
I3
sS'superpower'
p1082
I2
sS'row'
p1083
I2
sS'certainly'
p1084
I3
sS'aligned'
p1085
I2
sS'757-200s'
p1086
I3
sS'disorders'
p1087
I2
sS'promote'
p1088
I4
sS'technique'
p1089
I3
sS'blocking'
p1090
I3
sS'environment'
p1091
I4
sS'charge'
p1092
I7
sS'compensate'
p1093
I2
sS'promoting'
p1094
I2
sS'e.'
p1095
I3
sS'marks'
p1096
I3
sS'discovering'
p1097
I2
sS'must'
p1098
I7
sS"l'heureux"
p1099
I2
sS'bogus'
p1100
I2
sS'brown'
p1101
I3
sS'keck'
p1102
I2
sS'supported'
p1103
I2
sS'string'
p1104
I2
sS'prepaid'
p1105
I3
sS'trimming'
p1106
I2
sS'keeping'
p1107
I4
sS'choice'
p1108
I3
sS'morally'
p1109
I2
sS'remora'
p1110
I2
sS'cook'
p1111
I2
sS'join'
p1112
I2
sS'trouble'
p1113
I3
sS'corp.'
p1114
I12
sS'governments'
p1115
I5
sS'clouds'
p1116
I2
sS'impressive'
p1117
I2
sS'level'
p1118
I5
sS'did'
p1119
I12
sS'killed'
p1120
I2
sS'philippines'
p1121
I4
sS'camaraderie'
p1122
I2
sS'posts'
p1123
I2
sS'hawaii'
p1124
I2
sS'standards'
p1125
I6
sS'leave'
p1126
I5
sS'item'
p1127
I2
sS'team'
p1128
I6
sS'quick'
p1129
I2
sS'1969'
p1130
I2
sS'59-dealer'
p1131
I2
sS'obfuscation'
p1132
I2
sS'attracting'
p1133
I2
sS'prevent'
p1134
I3
sS'babelists'
p1135
I2
sS'revolution'
p1136
I2
sS'slower'
p1137
I3
sS'chickens'
p1138
I2
sS'trend'
p1139
I2
sS'soft-spoken'
p1140
I2
sS'copy'
p1141
I2
sS'ever-growing'
p1142
I2
sS'sign'
p1143
I5
sS'cost'
p1144
I2
sS'delight'
p1145
I2
sS'unconnected'
p1146
I2
sS'run'
p1147
I3
sS'fear'
p1148
I2
sS'substitute'
p1149
I4
sS'stennett'
p1150
I2
sS'majors'
p1151
I5
sS'150'
p1152
I3
sS'adds'
p1153
I3
sS'appear'
p1154
I3
sS'norris'
p1155
I4
sS'shares'
p1156
I11
sS'rome'
p1157
I2
sS'current'
p1158
I10
sS'grover'
p1159
I2
sS'goes'
p1160
I3
sS'international'
p1161
I14
sS'appeal'
p1162
I6
sS'boost'
p1163
I3
sS'4,300'
p1164
I2
sS'drafted'
p1165
I2
sS'proclaiming'
p1166
I2
sS'jury'
p1167
I3
sS'wail'
p1168
I2
sS'heavily'
p1169
I2
sS'involuntarily'
p1170
I2
sS'french'
p1171
I2
sS'guise'
p1172
I2
sS'polyrhythms'
p1173
I2
sS'slow'
p1174
I2
sS'baseball'
p1175
I5
sS'groups'
p1176
I5
sS'address'
p1177
I2
sS'dewar'
p1178
I2
sS'along'
p1179
I4
sS'earthquake'
p1180
I2
sS'change'
p1181
I5
sS'box'
p1182
I2
sS'sending'
p1183
I2
sS'incoming'
p1184
I2
sS'cuckoo'
p1185
I4
sS'jazzy'
p1186
I2
sS'healthy'
p1187
I2
sS'studied'
p1188
I2
sS'trial'
p1189
I3
sS'accomplished'
p1190
I2
sS'suggestion'
p1191
I2
sS'usually'
p1192
I3
sS'studies'
p1193
I4
sS'probable'
p1194
I2
sS'adjustable'
p1195
I3
sS'love'
p1196
I2
sS'santa'
p1197
I2
sS'merely'
p1198
I2
sS'prefer'
p1199
I2
sS'jolt'
p1200
I2
sS'45-year-old'
p1201
I3
sS'licensing'
p1202
I2
sS'tidal'
p1203
I2
sS'spring-early'
p1204
I2
sS'fbi'
p1205
I2
sS'rarely'
p1206
I3
sS'crisis'
p1207
I2
sS'market'
p1208
I18
sS'sky'
p1209
I2
sS'enter'
p1210
I2
sS'angell'
p1211
I2
sS'working'
p1212
I5
sS'prove'
p1213
I2
sS'positive'
p1214
I2
sS'angry'
p1215
I2
sS'third-quarter'
p1216
I4
sS'france'
p1217
I2
sS'live'
p1218
I5
sS'jam'
p1219
I3
sS'opposed'
p1220
I3
sS'memory'
p1221
I4
sS'brissette'
p1222
I3
sS'harms'
p1223
I2
sS'household'
p1224
I2
sS'today'
p1225
I6
sS'unwarranted'
p1226
I2
sS'cockpit'
p1227
I2
sS'``'
p1228
I134
sS'sharing'
p1229
I2
sS'fine-tuned'
p1230
I2
sS'club'
p1231
I2
sS'flying'
p1232
I2
sS'acceptable'
p1233
I2
sS'apparent'
p1234
I2
sS'state-funded'
p1235
I2
sS'non-family'
p1236
I2
sS'visual'
p1237
I2
sS'virtue'
p1238
I2
sS'cases'
p1239
I6
sS'given'
p1240
I3
sS'effort'
p1241
I2
sS'piano'
p1242
I2
sS'behalf'
p1243
I3
sS'canadian'
p1244
I8
sS'subjective'
p1245
I2
sS'organizations'
p1246
I4
sS'tokyo'
p1247
I6
sS'car'
p1248
I4
sS'butterfat'
p1249
I4
sS'believes'
p1250
I3
sS'ms.'
p1251
I6
sS'judy'
p1252
I2
sS'printing'
p1253
I3
sS'can'
p1254
I21
sS'stature'
p1255
I2
sS'believed'
p1256
I2
sS'making'
p1257
I6
sS'trans'
p1258
I4
sS'dollars'
p1259
I5
sS'stimulating'
p1260
I2
sS'1*slashhere*2'
p1261
I4
sS'heart'
p1262
I4
sS'performer'
p1263
I2
sS'degenerate'
p1264
I2
sS'figure'
p1265
I3
sS'lobbying'
p1266
I2
sS'december'
p1267
I7
sS'8.30'
p1268
I2
sS'near'
p1269
I3
sS'topic'
p1270
I2
sS'heard'
p1271
I2
sS'stroke'
p1272
I2
sS'sued'
p1273
I2
sS'dropped'
p1274
I3
sS'allowed'
p1275
I3
sS'spanning'
p1276
I2
sS'230'
p1277
I2
sS'gimmickry'
p1278
I2
sS'domenici'
p1279
I2
sS'requirements'
p1280
I2
sS'fiscal'
p1281
I2
sS'savor'
p1282
I2
sS'discussion'
p1283
I3
sS'bonds'
p1284
I9
sS'buttoned-up'
p1285
I2
sS'pro-'
p1286
I2
sS'galbani'
p1287
I2
sS'1'
I10
sS'47-year-old'
p1288
I2
sS'tapestry'
p1289
I2
sS'fourth'
p1290
I2
sS'accessories'
p1291
I2
sS'coleman'
p1292
I2
sS'8.38'
p1293
I2
sS'economy'
p1294
I3
sS'3.45'
p1295
I2
sS'145'
p1296
I2
sS'140'
p1297
I2
sS'huge'
p1298
I2
sS'may'
p1299
I17
sS'southern'
p1300
I2
sS'149'
p1301
I2
sS'kalison'
p1302
I2
sS'tyler'
p1303
I2
sS'membership'
p1304
I3
sS'birthday'
p1305
I2
sS'mae'
p1306
I8
sS'designed'
p1307
I2
sS'epileptics'
p1308
I2
sS'date'
p1309
I4
sS'such'
p1310
I25
sS'employers'
p1311
I3
sS'data'
p1312
I2
sS'grow'
p1313
I2
sS'pressuring'
p1314
I2
sS'man'
p1315
I4
sS'120'
p1316
I3
sS'hannover'
p1317
I2
sS'branches'
p1318
I3
sS'remember'
p1319
I3
sS'sectors'
p1320
I2
sS'maybe'
p1321
I3
sS'futures'
p1322
I2
sS'sclerosis'
p1323
I2
sS'tale'
p1324
I3
sS'subminimum'
p1325
I4
sS'switch'
p1326
I2
sS'ones'
p1327
I2
sS'so'
p1328
I19
sS'deposit'
p1329
I2
sS'african'
p1330
I2
sS'skirmish'
p1331
I2
sS'pollution'
p1332
I2
sS'pulled'
p1333
I2
sS'talk'
p1334
I3
sS'nearly'
p1335
I7
sS'refund'
p1336
I2
sS'acts'
p1337
I2
sS'indeed'
p1338
I3
sS'toward'
p1339
I4
sS'midnight'
p1340
I2
sS'raised'
p1341
I3
sS'years'
p1342
I22
sS'ended'
p1343
I3
sS'bucking'
p1344
I2
sS'cuts'
p1345
I2
sS'argued'
p1346
I3
sS'still'
p1347
I8
sS'birds'
p1348
I2
sS'tendency'
p1349
I2
sS'8.0087'
p1350
I2
sS'limbs'
p1351
I2
sS'swank'
p1352
I3
sS'group'
p1353
I18
sS'monitor'
p1354
I4
sS'jim'
p1355
I2
sS'troubles'
p1356
I2
sS'wasting'
p1357
I2
sS'window'
p1358
I3
sS'offers'
p1359
I3
sS'suspicion'
p1360
I2
sS'policy'
p1361
I4
sS'mail'
p1362
I4
sS'mcenaney'
p1363
I3
sS'troubled'
p1364
I4
sS'norway'
p1365
I2
sS'texas'
p1366
I10
sS'militant'
p1367
I2
sS'finance'
p1368
I5
sS'thereby'
p1369
I2
sS'impulses'
p1370
I3
sS'100,000'
p1371
I2
sS'prebon'
p1372
I2
sS'm.w.'
p1373
I2
sS'nation'
p1374
I7
sS'1955'
p1375
I2
sS'records'
p1376
I2
sS'concocts'
p1377
I2
sS'compelled'
p1378
I2
sS'superficial'
p1379
I2
sS'8.05'
p1380
I2
sS'half'
p1381
I7
sS'not'
p1382
I35
sS'78,600'
p1383
I2
sS'now'
p1384
I17
sS'discuss'
p1385
I2
sS'nor'
p1386
I4
sS'31.25'
p1387
I2
sS'administer'
p1388
I2
sS'attorneys'
p1389
I3
sS'name'
p1390
I2
sS'james'
p1391
I3
sS'drop'
p1392
I2
sS'possibilities'
p1393
I2
sS'careless'
p1394
I2
sS'gamble'
p1395
I3
sS'rock'
p1396
I2
sS'scolded'
p1397
I2
sS'quarter'
p1398
I4
sS'quartet'
p1399
I3
sS'square'
p1400
I2
sS'retrieve'
p1401
I2
sS'ed'
p1402
I2
sS'revised'
p1403
I2
sS'agnew'
p1404
I2
sS'taxes'
p1405
I3
sS'year'
p1406
I38
sS'distributor'
p1407
I2
sS'naming'
p1408
I2
sS'whirlwinds'
p1409
I2
sS'obsession'
p1410
I2
sS'8.75'
p1411
I2
sS'tried'
p1412
I4
sS'album'
p1413
I2
sS'ultimately'
p1414
I4
sS'enjoyable'
p1415
I2
sS'factors'
p1416
I2
sS'profit'
p1417
I2
sS'uncombed'
p1418
I2
sS'increase'
p1419
I11
sS'attracted'
p1420
I2
sS'seriously'
p1421
I2
sS'protections'
p1422
I2
sS'scope'
p1423
I2
sS'rational'
p1424
I2
sS'suggesting'
p1425
I3
sS'formula'
p1426
I2
sS'indicating'
p1427
I2
sS'shows'
p1428
I4
sS'earlier'
p1429
I8
sS'mercantile'
p1430
I2
sS'strengthens'
p1431
I2
sS'uptempo'
p1432
I2
sS'mail-sorting'
p1433
I2
sS'cars'
p1434
I5
sS'wildbad'
p1435
I2
sS'million'
p1436
I56
sS'ontario'
p1437
I3
sS'california'
p1438
I3
sS'carl'
p1439
I3
sS'obligation'
p1440
I3
sS'keith'
p1441
I2
sS'rolls-royce'
p1442
I2
sS'220,000'
p1443
I2
sS'advance'
p1444
I2
sS'training'
p1445
I15
sS'carnival'
p1446
I2
sS'selections'
p1447
I2
sS'19th-century'
p1448
I2
sS'dirk'
p1449
I2
sS'british'
p1450
I3
sS'chevy'
p1451
I2
sS'turn'
p1452
I5
sS'tangled'
p1453
I2
sS'retreating'
p1454
I2
sS'invitation'
p1455
I2
sS'styles'
p1456
I2
sS'turf'
p1457
I2
sS'promotion'
p1458
I8
sS'global'
p1459
I3
sS'515'
p1460
I2
sS'think'
p1461
I4
sS'delighted'
p1462
I2
sS'first'
p1463
I22
sS'knowledgeable'
p1464
I2
sS'concertos'
p1465
I2
sS'solicitors'
p1466
I2
sS'merrill'
p1467
I2
sS'striking'
p1468
I2
sS'bargaining'
p1469
I2
sS'one'
p1470
I36
sS'insist'
p1471
I3
sS'reykjavik'
p1472
I2
sS'americans'
p1473
I3
sS'fast'
p1474
I3
sS'directly'
p1475
I5
sS'spanish'
p1476
I2
sS'carry'
p1477
I4
sS'corporations'
p1478
I3
sS'sounds'
p1479
I2
sS'drove'
p1480
I2
sS'open'
p1481
I7
sS'tomorrow'
p1482
I2
sS'size'
p1483
I2
sS'politician'
p1484
I2
sS'little'
p1485
I5
sS'wrath'
p1486
I2
sS'district'
p1487
I5
sS'bite'
p1488
I2
sS'trillion'
p1489
I4
sS'stocks'
p1490
I3
sS'36-year-old'
p1491
I2
sS'indicate'
p1492
I2
sS'free-lance'
p1493
I2
sS'2'
I4
sS'draft'
p1494
I2
sS'white'
p1495
I13
sS'anesthetized'
p1496
I2
sS'friend'
p1497
I3
sS'authorized'
p1498
I2
sS'acquisitions'
p1499
I3
sS'eyes'
p1500
I2
sS'zayadi'
p1501
I3
sS'allegedly'
p1502
I3
sS'that'
p1503
I173
sS'pittsburgh'
p1504
I3
sS'season'
p1505
I2
sS'moscow'
p1506
I7
sS'alan'
p1507
I2
sS'pompano'
p1508
I2
sS'released'
p1509
I3
sS'ridiculous'
p1510
I2
sS'specialists'
p1511
I2
sS'ricca'
p1512
I2
sS'once-cozy'
p1513
I2
sS'than'
p1514
I35
sS'bio-analytical'
p1515
I2
sS'11'
p1516
I5
sS'wide'
p1517
I2
sS'television'
p1518
I3
sS'12'
p1519
I4
sS'15'
p1520
I6
sS'14'
p1521
I2
sS'17'
p1522
I2
sS'16'
p1523
I2
sS'19'
p1524
I2
sS'structured'
p1525
I2
sS'require'
p1526
I2
sS'spokeswoman'
p1527
I2
sS'future'
p1528
I7
sS'anti-western'
p1529
I2
sS'venture'
p1530
I6
sS'mcbride'
p1531
I2
sS'miles'
p1532
I2
sS'agnelli-related'
p1533
I2
sS'subcommittee'
p1534
I2
sS'and'
p1535
I356
sS'manufacture'
p1536
I3
sS'gathering'
p1537
I2
sS'san'
p1538
I2
sS'sam'
p1539
I2
sS'remained'
p1540
I2
sS'renk'
p1541
I3
sS'drogoul'
p1542
I2
sS'turned'
p1543
I2
sS'argument'
p1544
I2
sS'jewels'
p1545
I2
sS'voices'
p1546
I3
sS'picketing'
p1547
I2
sS'say'
p1548
I14
sS'conspiracy'
p1549
I2
sS'rent'
p1550
I6
sS'anger'
p1551
I2
sS'sells'
p1552
I3
sS'recover'
p1553
I2
sS'any'
p1554
I15
sS'warsaw'
p1555
I2
sS'one-time'
p1556
I2
sS'offering'
p1557
I2
sS'fashionable'
p1558
I3
sS'brewed'
p1559
I2
sS'immorality'
p1560
I2
sS'aside'
p1561
I4
sS'bigger'
p1562
I2
sS'note'
p1563
I5
sS'sciences'
p1564
I2
sS'mr.'
p1565
I103
sS'18th'
p1566
I2
sS'take'
p1567
I8
sS'objective'
p1568
I2
sS'performance'
p1569
I4
sS'wonder'
p1570
I3
sS'channel'
p1571
I2
sS'urge'
p1572
I2
sS'ironically'
p1573
I2
sS'altered'
p1574
I2
sS'trace'
p1575
I2
sS'price'
p1576
I3
sS'functionaries'
p1577
I2
sS'staffed'
p1578
I2
sS'paid'
p1579
I7
sS'exploited'
p1580
I2
sS'airing'
p1581
I3
sS'remarks'
p1582
I2
sS'knee'
p1583
I2
sS'schimberg'
p1584
I2
sS'pages'
p1585
I3
sS'12,500'
p1586
I2
sS'probes'
p1587
I2
sS'especially'
p1588
I2
sS'payable'
p1589
I4
sS'considered'
p1590
I2
sS'average'
p1591
I9
sS'reform'
p1592
I2
sS'steady'
p1593
I3
sS'drive'
p1594
I3
sS'wing'
p1595
I2
sS'ways'
p1596
I4
sS'nuclear'
p1597
I6
sS'obligatto'
p1598
I2
sS'hear'
p1599
I2
sS'senior'
p1600
I9
sS'mass.'
p1601
I4
sS'typically'
p1602
I3
sS'liquidity'
p1603
I2
sS'atlantic'
p1604
I2
sS'laws'
p1605
I2
sS'rating'
p1606
I6
sS'stimulator'
p1607
I2
sS'show'
p1608
I7
sS'german'
p1609
I3
sS'allegations'
p1610
I2
sS'contemporary'
p1611
I3
sS'discovered'
p1612
I4
sS'sales-tax'
p1613
I2
sS'arrears'
p1614
I2
sS'motivate'
p1615
I2
sS'soviets'
p1616
I8
sS'forecast'
p1617
I2
sS'brokers'
p1618
I2
sS'maine'
p1619
I2
sS'fifth'
p1620
I2
sS'hustles'
p1621
I2
sS'specifically'
p1622
I2
sS'j&b'
p1623
I2
sS'dice'
p1624
I2
sS'title'
p1625
I3
sS'thriller'
p1626
I2
sS'shevardnadze'
p1627
I4
sS'written'
p1628
I2
sS'crime'
p1629
I2
sS'only'
p1630
I21
sS'going'
p1631
I8
sS'black'
p1632
I3
sS'inventions'
p1633
I2
sS'outrage'
p1634
I2
sS'cautioned'
p1635
I2
sS'watching'
p1636
I2
sS'dreaded'
p1637
I2
sS'congressional'
p1638
I5
sS'dispute'
p1639
I7
sS'ranking'
p1640
I2
sS'savoring'
p1641
I2
sS'get'
p1642
I9
sS'contracts'
p1643
I2
sS'assistant'
p1644
I4
sS'jazz'
p1645
I5
sS'expectation'
p1646
I2
sS'truly'
p1647
I3
sS'nominees'
p1648
I3
sS'outlet'
p1649
I2
sS'conjunction'
p1650
I2
sS'neither'
p1651
I3
sS'stroll'
p1652
I2
sS'secondary'
p1653
I3
sS'prime'
p1654
I4
sS'reveal'
p1655
I2
sS'regarding'
p1656
I2
sS'clout'
p1657
I2
sS'borrow'
p1658
I2
sS'worried'
p1659
I4
sS'stupid'
p1660
I2
sS'roger'
p1661
I3
sS'source'
p1662
I4
sS'reorganizes'
p1663
I2
sS'through'
p1664
I13
sS'bought'
p1665
I3
sS'where'
p1666
I8
sS'husband'
p1667
I2
sS'ignored'
p1668
I2
sS'declared'
p1669
I2
sS'concert'
p1670
I3
sS'encourages'
p1671
I2
sS'bids'
p1672
I5
sS'violated'
p1673
I2
sS'ends'
p1674
I2
sS'seat'
p1675
I2
sS'color-coding'
p1676
I2
sS'elected'
p1677
I4
sS'j.'
p1678
I2
sS'sandor'
p1679
I2
sS'college'
p1680
I4
sS'surgery'
p1681
I7
sS'sport'
p1682
I2
sS'sincere'
p1683
I2
sS'concern'
p1684
I9
sS'fails'
p1685
I2
sS'mortgage'
p1686
I26
sS'federal'
p1687
I17
sS'willard'
p1688
I2
sS'commitments'
p1689
I5
sS'serkin'
p1690
I2
sS'label'
p1691
I2
sS'weapons'
p1692
I3
sS'older'
p1693
I2
sS'3'
I6
sS'moslems'
p1694
I2
sS'between'
p1695
I14
sS'import'
p1696
I2
sS'geometric'
p1697
I2
sS'reading'
p1698
I2
sS'across'
p1699
I2
sS'fight'
p1700
I2
sS'8.44'
p1701
I2
sS'8.45'
p1702
I2
sS'jobs'
p1703
I7
sS'august'
p1704
I5
sS'8.40'
p1705
I2
sS'gardiner'
p1706
I2
sS'screen'
p1707
I2
sS'8.49'
p1708
I2
sS'marietta'
p1709
I3
sS'now-defunct'
p1710
I2
sS'jets'
p1711
I2
sS'rapidly'
p1712
I2
sS'spark'
p1713
I2
sS'cities'
p1714
I2
sS'come'
p1715
I7
sS'abramson'
p1716
I2
sS'recall'
p1717
I2
sS'bite-sized'
p1718
I2
sS'mob'
p1719
I2
sS'many'
p1720
I8
sS'23'
p1721
I3
sS'hours'
p1722
I2
sS'according'
p1723
I4
sS'contract'
p1724
I6
sS'flaps'
p1725
I3
sS'soaking'
p1726
I2
sS'senator'
p1727
I2
sS'holders'
p1728
I3
sS'traded'
p1729
I3
sS'ntsb'
p1730
I2
sS'comes'
p1731
I3
sS'among'
p1732
I8
sS'cabal'
p1733
I2
sS'billion-yen'
p1734
I2
sS'jeans'
p1735
I2
sS'period'
p1736
I8
sS'pop'
p1737
I4
sS'expectations'
p1738
I2
sS'satisfaction'
p1739
I2
sS'61'
p1740
I2
sS'maintained'
p1741
I2
sS'white-haired'
p1742
I2
sS'65'
p1743
I2
sS'66'
p1744
I2
sS'approval'
p1745
I5
sS'68'
p1746
I3
sS'ordered'
p1747
I4
sS'bizarre'
p1748
I2
sS'novametrix'
p1749
I2
sS'procter'
p1750
I2
sS'specializing'
p1751
I2
sS'squaring'
p1752
I2
sS'unusual'
p1753
I3
sS'testimonial'
p1754
I2
sS'howard'
p1755
I2
sS'stretch'
p1756
I2
sS'west'
p1757
I9
sS'3.53'
p1758
I2
sS'informed'
p1759
I2
sS'airlines'
p1760
I5
sS'cecelia'
p1761
I2
sS'combined'
p1762
I2
sS'motives'
p1763
I3
sS'peaceful'
p1764
I2
sS'women'
p1765
I2
sS'prototype'
p1766
I2
sS'hardly'
p1767
I3
sS'500'
p1768
I4
sS'systems'
p1769
I6
sS'enable'
p1770
I3
sS'shopping'
p1771
I2
sS'disagrees'
p1772
I2
sS'4.875'
p1773
I2
sS'75-cent'
p1774
I2
sS'offered'
p1775
I10
sS'blessing'
p1776
I3
sS'andrew'
p1777
I2
sS'wounds'
p1778
I2
sS'centerpiece'
p1779
I2
sS'photos'
p1780
I2
sS'dramatic'
p1781
I2
sS'minister'
p1782
I4
sS'asks'
p1783
I2
sS'penn'
p1784
I2
sS'suspected'
p1785
I2
sS'prof.'
p1786
I2
sS'former'
p1787
I10
sS'those'
p1788
I17
sS'pilot'
p1789
I2
sS'case'
p1790
I18
sS'myself'
p1791
I2
sS'kuehn'
p1792
I4
sS'these'
p1793
I9
sS'consultant'
p1794
I2
sS'thigh'
p1795
I2
sS'cash'
p1796
I7
sS"n't"
p1797
I74
sS'warning'
p1798
I2
sS'rancor'
p1799
I2
sS'policies'
p1800
I3
sS'newspaper'
p1801
I2
sS'situation'
p1802
I3
sS'spotlight'
p1803
I2
sS'inadvertence'
p1804
I2
sS'conferences'
p1805
I2
sS'eventually'
p1806
I3
sS'brow'
p1807
I2
sS'health-care'
p1808
I3
sS'ambulance'
p1809
I2
sS'them'
p1810
I21
sS'discrepancy'
p1811
I2
sS'someone'
p1812
I3
sS'minds'
p1813
I3
sS'kimberly-clark'
p1814
I4
sS'tastes'
p1815
I3
sS'engages'
p1816
I2
sS'technology'
p1817
I2
sS'79.18'
p1818
I2
sS'different'
p1819
I4
sS'dragging'
p1820
I2
sS'develop'
p1821
I2
sS'harsh'
p1822
I2
sS'author'
p1823
I2
sS'pay'
p1824
I24
sS'granted'
p1825
I2
sS'liquidating'
p1826
I3
sS'same'
p1827
I5
sS'arguments'
p1828
I3
sS'otto'
p1829
I2
sS'distilled'
p1830
I2
sS'1900s'
p1831
I2
sS'bring'
p1832
I3
sS'events'
p1833
I3
sS'status'
p1834
I3
sS'oil'
p1835
I3
sS'oceanographic'
p1836
I2
sS'singapore'
p1837
I4
sS'boosted'
p1838
I2
sS'director'
p1839
I9
sS'running'
p1840
I4
sS'tamer'
p1841
I2
sS'equities'
p1842
I2
sS'delicate'
p1843
I3
sS'intended'
p1844
I2
sS'changing'
p1845
I2
sS'racketeering'
p1846
I2
sS'totally'
p1847
I3
sS'tradition'
p1848
I2
sS'recapture'
p1849
I2
sS'complained'
p1850
I2
sS'tracking'
p1851
I2
sS'perennial'
p1852
I2
sS'educating'
p1853
I3
sS'charges'
p1854
I5
sS'markus'
p1855
I3
sS'summon'
p1856
I2
sS'constitutional'
p1857
I3
sS'wellington'
p1858
I5
sS'mortgages'
p1859
I12
sS'severe'
p1860
I2
sS'without'
p1861
I9
sS'allow'
p1862
I2
sS'relief'
p1863
I2
sS'bottle'
p1864
I2
sS'trains'
p1865
I3
sS'very'
p1866
I8
sS'accessible'
p1867
I2
sS'laboratories'
p1868
I2
sS'researchers'
p1869
I8
sS'charged'
p1870
I5
sS'summer'
p1871
I4
sS'monet'
p1872
I2
sS'asset-backed'
p1873
I2
sS'being'
p1874
I6
sS'money'
p1875
I18
sS'rest'
p1876
I4
sS'safeguards'
p1877
I2
sS'recycled'
p1878
I4
sS'violent'
p1879
I3
sS'unclear'
p1880
I2
sS'leeway'
p1881
I2
sS'touch'
p1882
I3
sS'polish'
p1883
I2
sS'hacker'
p1884
I8
sS'speed'
p1885
I3
sS'multiples'
p1886
I2
sS'weekly'
p1887
I2
sS'blow'
p1888
I2
sS'announcement'
p1889
I2
sS'renewed'
p1890
I2
sS'dipped'
p1891
I2
sS'thinking'
p1892
I2
sS'rose'
p1893
I8
sS'seems'
p1894
I5
sS'rosa'
p1895
I2
sS'interested'
p1896
I4
sS'bloc'
p1897
I2
sS'4'
I6
sS'brezinski'
p1898
I2
sS'lashed'
p1899
I2
sS'preflight'
p1900
I2
sS'disrupt'
p1901
I2
sS'ca'
p1902
I6
sS'safeguarded'
p1903
I2
sS'ross'
p1904
I2
sS'scheduled'
p1905
I4
sS'trade-off'
p1906
I2
sS'aspects'
p1907
I4
sS'around'
p1908
I4
sS'marcus'
p1909
I2
sS'rules'
p1910
I4
sS'rejoin'
p1911
I3
sS'papers'
p1912
I2
sS'implications'
p1913
I3
sS'virginia'
p1914
I2
sS'loaned'
p1915
I2
sS'early'
p1916
I8
sS'libor'
p1917
I2
sS'traffic'
p1918
I3
sS'mirroring'
p1919
I2
sS'listening'
p1920
I2
sS'hees'
p1921
I7
sS'unesco'
p1922
I9
sS'accepted'
p1923
I5
sS'disappointed'
p1924
I4
sS'unwilling'
p1925
I2
sS'ruled'
p1926
I4
sS'60'
p1927
I7
sS'proponent'
p1928
I2
sS'acquainted'
p1929
I2
sS'standstill'
p1930
I3
sS'utterances'
p1931
I2
sS'kennedy'
p1932
I3
sS'clad'
p1933
I2
sS'serves'
p1934
I2
sS"'ve"
p1935
I3
sS'chamber'
p1936
I4
sS'audience'
p1937
I8
sS'full-scale'
p1938
I2
sS'either'
p1939
I4
sS'retailers'
p1940
I3
sS'offenders'
p1941
I2
sS'served'
p1942
I3
sS'credit-card'
p1943
I2
sS'reduced'
p1944
I3
sS'shunned'
p1945
I2
sS'burdens'
p1946
I2
sS'apologists'
p1947
I2
sS'imprisonment'
p1948
I2
sS'muddled'
p1949
I2
sS'competition'
p1950
I2
sS'calculated'
p1951
I2
sS'eddie'
p1952
I3
sS'images'
p1953
I3
sS'construe'
p1954
I2
sS'intact'
p1955
I2
sS'top-secret'
p1956
I2
sS'o.'
p1957
I2
sS'mood'
p1958
I3
sS'illustrated'
p1959
I2
sS'13.50'
p1960
I2
sS'memories'
p1961
I2
sS'recorded'
p1962
I2
sS'legal'
p1963
I3
sS'paralyzed'
p1964
I3
sS'models'
p1965
I2
sS'fringes'
p1966
I2
sS'7.98'
p1967
I2
sS'8.27'
p1968
I2
sS'content'
p1969
I3
sS'lucid'
p1970
I2
sS'porter'
p1971
I2
sS'measuring'
p1972
I2
sS'considering'
p1973
I2
sS'process'
p1974
I2
sS'scientific'
p1975
I3
sS'business'
p1976
I12
sS'retains'
p1977
I2
sS'equivalent'
p1978
I2
sS'notable'
p1979
I2
sS'leadership'
p1980
I2
sS'70'
p1981
I2
sS'sixty'
p1982
I2
sS'exciting'
p1983
I2
sS'aide'
p1984
I2
sS'throw'
p1985
I2
sS'beaches'
p1986
I2
sS'on'
p1987
I94
sS'conducting'
p1988
I4
sS'central'
p1989
I3
sS'40,800'
p1990
I2
sS'of'
p1991
I456
sS'industry'
p1992
I2
sS'capable'
p1993
I2
sS'favorite'
p1994
I4
sS'drag'
p1995
I2
sS'ifi'
p1996
I7
sS'ideology'
p1997
I2
sS'mutually'
p1998
I2
sS"'d"
p1999
I4
sS'airline'
p2000
I3
sS'act'
p2001
I4
sS'tariffs'
p2002
I2
sS'mean'
p2003
I2
sS'or'
p2004
I62
sS'road'
p2005
I3
sS'8.50'
p2006
I3
sS'8.53'
p2007
I2
sS'cambridge'
p2008
I2
sS'8.55'
p2009
I3
sS'followed'
p2010
I2
sS'instruments'
p2011
I6
sS'image'
p2012
I4
sS'reacting'
p2013
I2
sS'spinal'
p2014
I5
sS'accounts'
p2015
I4
sS'determine'
p2016
I3
sS'burton'
p2017
I2
sS'gomez'
p2018
I4
sS'your'
p2019
I7
sS'weight'
p2020
I2
sS'her'
p2021
I15
sS'area'
p2022
I4
sS'weekend'
p2023
I2
sS'there'
p2024
I22
sS'discounting'
p2025
I2
sS'alleged'
p2026
I3
sS'los'
p2027
I3
sS'low'
p2028
I4
sS'lot'
p2029
I6
sS'capital-raising'
p2030
I2
sS'somerset'
p2031
I2
sS'fastball'
p2032
I3
sS'industriale'
p2033
I2
sS'survives'
p2034
I2
sS'tycoon'
p2035
I2
sS'complete'
p2036
I3
sS'enough'
p2037
I3
sS'petty'
p2038
I2
sS'philosophers'
p2039
I2
sS'brain'
p2040
I19
sS'survived'
p2041
I2
sS'two-thirds'
p2042
I2
sS'elimination'
p2043
I3
sS'technologies'
p2044
I5
sS'trying'
p2045
I3
sS'with'
p2046
I111
sS'buying'
p2047
I2
sS'pull'
p2048
I2
sS'fraud'
p2049
I3
sS'arranged'
p2050
I2
sS'proof-of-purchases'
p2051
I2
sS'street-corner'
p2052
I2
sS'5*slashhere*8'
p2053
I3
sS'grudging'
p2054
I2
sS're-election'
p2055
I2
sS'annuity'
p2056
I3
sS'organize'
p2057
I2
sS'8.019'
p2058
I2
sS'compromise'
p2059
I13
sS'agree'
p2060
I4
sS'detailed'
p2061
I2
sS'gone'
p2062
I2
sS'non-japanese'
p2063
I2
sS'ad'
p2064
I2
sS'second-level'
p2065
I2
sS'certain'
p2066
I7
sS'totaling'
p2067
I3
sS'combining'
p2068
I2
sS'am'
p2069
I5
sS'sales'
p2070
I20
sS'deep'
p2071
I5
sS'general'
p2072
I10
sS'alarm'
p2073
I2
sS'britain'
p2074
I5
sS'ensuing'
p2075
I2
sS'at'
p2076
I85
sS'file'
p2077
I2
sS'ingeniously'
p2078
I2
sS'jahn'
p2079
I3
sS'moves'
p2080
I2
sS'scotches'
p2081
I2
sS'overflowing'
p2082
I2
sS'innings'
p2083
I2
sS'nomura'
p2084
I11
sS'4.2'
p2085
I4
sS'retiring'
p2086
I2
sS'drivers'
p2087
I2
sS'4.9'
p2088
I2
sS'narcotics'
p2089
I2
sS'field'
p2090
I7
sS'182-day'
p2091
I2
sS'5'
I2
sS'rioting'
p2092
I2
sS'you'
p2093
I12
sS'trash'
p2094
I2
sS'deterrant'
p2095
I2
sS'formed'
p2096
I3
sS'congress'
p2097
I5
sS'separate'
p2098
I4
sS'students'
p2099
I3
sS'cosmetics'
p2100
I5
sS'forgettable'
p2101
I2
sS'reached'
p2102
I6
sS'a.'
p2103
I8
sS'8.04'
p2104
I2
sS'important'
p2105
I2
sS'massachusetts'
p2106
I3
sS'coverage'
p2107
I3
sS'serious'
p2108
I2
sS'brands'
p2109
I6
sS'spouse'
p2110
I2
sS'unless'
p2111
I2
sS'13'
p2112
I2
sS'alcohol'
p2113
I2
sS'tricky'
p2114
I2
sS'slowball'
p2115
I2
sS'assets'
p2116
I6
sS'calls'
p2117
I3
sS'refinanced'
p2118
I2
sS'intentional'
p2119
I2
sS'tricks'
p2120
I3
sS'repay'
p2121
I2
sS'requisition'
p2122
I2
sS'mass'
p2123
I3
sS'lawsuits'
p2124
I5
sS'overseas'
p2125
I2
sS'bolton'
p2126
I2
sS'strings'
p2127
I2
sS'7.14'
p2128
I2
sS'represent'
p2129
I2
sS'all'
p2130
I21
sS'suny'
p2131
I3
sS'consider'
p2132
I3
sS'founder'
p2133
I2
sS'aids'
p2134
I2
sS'suns'
p2135
I2
sS'daignault'
p2136
I2
sS'400,000'
p2137
I2
sS'dollar'
p2138
I3
sS'48-year-old'
p2139
I2
sS'month'
p2140
I9
sS'unrest'
p2141
I2
sS'imploring'
p2142
I2
sS'renege'
p2143
I2
sS'talks'
p2144
I4
sS'managed'
p2145
I2
sS'mason'
p2146
I4
sS'decisions'
p2147
I3
sS'jerome'
p2148
I2
sS'improperly'
p2149
I2
sS'dreadful'
p2150
I2
sS'rights'
p2151
I14
sS'chain'
p2152
I4
sS'tv'
p2153
I5
sS'high-security'
p2154
I2
sS'participants'
p2155
I3
sS'odyssey'
p2156
I2
sS'riots'
p2157
I2
sS'to'
p2158
I447
sS'modernization'
p2159
I2
sS'lavoro'
p2160
I2
sS'dairy'
p2161
I2
sS'preserved'
p2162
I2
sS'safety'
p2163
I2
sS'passed'
p2164
I2
sS'activities'
p2165
I4
sS'woman'
p2166
I3
sS'worse'
p2167
I3
sS'confidential'
p2168
I2
sS'far'
p2169
I5
sS'108.8'
p2170
I2
sS'fat'
p2171
I3
sS'resistance'
p2172
I2
sS'candid'
p2173
I2
sS'worst'
p2174
I2
sS'decide'
p2175
I3
sS'surprise'
p2176
I3
sS'sony'
p2177
I2
sS'existing'
p2178
I2
sS'rehearing'
p2179
I2
sS'condition'
p2180
I2
sS'fresca'
p2181
I4
sS'steve'
p2182
I3
sS'long-simmering'
p2183
I2
sS'obvious'
p2184
I2
sS'--'
p2185
I26
sS'celebrity'
p2186
I2
sS'wsj'
p2187
I2
sS'laying'
p2188
I2
sS'large'
p2189
I3
sS'sang'
p2190
I2
sS'donovan'
p2191
I3
sS'harry'
p2192
I2
sS'small'
p2193
I9
sS'20th'
p2194
I2
sS'webster'
p2195
I2
sS'preference'
p2196
I2
sS'headache'
p2197
I2
sS'greene'
p2198
I2
sS'neighborhood'
p2199
I2
sS'portable'
p2200
I2
sS'anti-abortionists'
p2201
I2
sS'ritter'
p2202
I2
sS'lending'
p2203
I4
sS'7*slashhere*8'
p2204
I2
sS'past'
p2205
I6
sS'go'
p2206
I3
sS'rate'
p2207
I15
sS'perception'
p2208
I2
sS'editing*slashhere*electronic'
p2209
I2
sS'lawyer'
p2210
I4
sS'pass'
p2211
I2
sS'disputed'
p2212
I2
sS'investment'
p2213
I11
sS'prime-1'
p2214
I2
sS'what'
p2215
I11
sS'stood'
p2216
I2
sS'richard'
p2217
I5
sS'investing'
p2218
I2
sS'sun'
p2219
I2
sS'section'
p2220
I2
sS'induce'
p2221
I5
sS'brief'
p2222
I2
sS'judiciary'
p2223
I2
sS'milk'
p2224
I8
sS'prime-2'
p2225
I2
sS'scientists'
p2226
I6
sS'certificates'
p2227
I3
sS'learned'
p2228
I2
sS'public'
p2229
I8
sS'contrast'
p2230
I2
sS'movement'
p2231
I5
sS'multinational'
p2232
I2
sS'full'
p2233
I7
sS'teodorani'
p2234
I2
sS'ranged'
p2235
I3
sS'5.4'
p2236
I2
sS'component'
p2237
I2
sS'diapers'
p2238
I2
sS'prepayment'
p2239
I4
sS'ranges'
p2240
I2
sS'citicorp'
p2241
I3
sS'tracks'
p2242
I2
sS'operating'
p2243
I5
sS'excess'
p2244
I2
sS'treasury'
p2245
I5
sS'november'
p2246
I4
sS'strong'
p2247
I5
sS'tragedy'
p2248
I2
sS'sensory'
p2249
I3
sS'900'
p2250
I3
sS'prosecutors'
p2251
I4
sS'naval'
p2252
I3
sS'ahead'
p2253
I3
sS'inspired'
p2254
I2
sS'losses'
p2255
I3
sS'johnnie'
p2256
I2
sS'experience'
p2257
I2
sS'mac'
p2258
I4
sS'amount'
p2259
I6
sS'disputes'
p2260
I2
sS'spy-chasing'
p2261
I2
sS'social'
p2262
I3
sS'action'
p2263
I3
sS'options'
p2264
I6
sS'authorize'
p2265
I2
sS'arms-control'
p2266
I2
sS'tiananmen'
p2267
I2
sS'via'
p2268
I2
sS'depart'
p2269
I2
sS'toughness'
p2270
I2
sS'family'
p2271
I6
sS'cowardly'
p2272
I2
sS'africa'
p2273
I2
sS'10,000'
p2274
I3
sS'ask'
p2275
I3
sS'mohandas'
p2276
I2
sS'trained'
p2277
I2
sS'orwellian'
p2278
I2
sS'legislator'
p2279
I2
sS'readily'
p2280
I2
sS'intensive'
p2281
I2
sS'conventional'
p2282
I4
sS'twa'
p2283
I2
sS'khan'
p2284
I7
sS'takes'
p2285
I2
sS'interest-bearing'
p2286
I2
sS'two'
p2287
I36
sS'strauss'
p2288
I2
sS'seaborne'
p2289
I2
sS'captain'
p2290
I2
sS'unpleasant'
p2291
I2
sS'80%-owned'
p2292
I2
sS'pitching'
p2293
I2
sS'6'
I2
sS'mysterious'
p2294
I2
sS'dissatisfied'
p2295
I2
sS'injury'
p2296
I2
sS'markets'
p2297
I8
sS'achieving'
p2298
I2
sS'minor'
p2299
I3
sS'more'
p2300
I38
sS'countercultural'
p2301
I2
sS'pawing'
p2302
I2
sS'knows'
p2303
I2
sS'initiated'
p2304
I2
sS'ejected'
p2305
I2
sS'thus'
p2306
I2
sS'company'
p2307
I33
sS'enormous'
p2308
I2
sS'telephone'
p2309
I3
sS'tested'
p2310
I3
sS'germans'
p2311
I3
sS'cadwell'
p2312
I2
sS'controlling'
p2313
I2
sS'broke'
p2314
I2
sS'cluttered'
p2315
I2
sS'big-time'
p2316
I2
sS'objections'
p2317
I2
sS'minpeco'
p2318
I3
sS'none'
p2319
I4
sS'borrowing'
p2320
I2
sS'hour'
p2321
I7
sS'science'
p2322
I2
sS'phrasing'
p2323
I2
sS'remain'
p2324
I5
sS'nine'
p2325
I5
sS'sent'
p2326
I4
sS'brain-wave'
p2327
I2
sS'history'
p2328
I2
sS'purchases'
p2329
I3
sS'launching'
p2330
I2
sS'pianist*slashhere*bassoonist*slashhere*composer'
p2331
I2
sS'division'
p2332
I2
sS'share'
p2333
I15
sS'accept'
p2334
I3
sS'states'
p2335
I4
sS'4.55'
p2336
I2
sS'minimum'
p2337
I5
sS'protects'
p2338
I2
sS'quartets'
p2339
I2
sS'purchased'
p2340
I3
sS'depressed'
p2341
I2
sS'sharp'
p2342
I2
sS'f.'
p2343
I4
sS'chores'
p2344
I2
sS'information'
p2345
I3
sS'needs'
p2346
I4
sS'court'
p2347
I15
sS'rather'
p2348
I7
sS'departments'
p2349
I2
sS'breaking'
p2350
I9
sS'conducted'
p2351
I2
sS'stayed'
p2352
I2
sS'occasionally'
p2353
I2
sS'stemming'
p2354
I2
sS'earnings'
p2355
I9
sS'speeding'
p2356
I2
sS'7*slashhere*16'
p2357
I5
sS'explains'
p2358
I2
sS'vietnam'
p2359
I4
sS'plant'
p2360
I4
sS'plans'
p2361
I6
sS'includes'
p2362
I2
sS'advice'
p2363
I3
sS'mapping'
p2364
I2
sS'plane'
p2365
I3
sS'lighting'
p2366
I5
sS'unsurprising'
p2367
I2
sS'coming'
p2368
I4
sS'remediation'
p2369
I2
sS'deukmejian'
p2370
I2
sS'concentrating'
p2371
I2
sS'hooliganism'
p2372
I2
sS'a'
I423
sS'refuse'
p2373
I2
sS'criticize'
p2374
I2
sS'worcester'
p2375
I2
sS'register'
p2376
I2
sS'crippling'
p2377
I2
sS'anytime'
p2378
I2
sS')'
I23
sS'shore'
p2379
I2
sS'fundamental'
p2380
I2
sS'media'
p2381
I5
sS'banks'
p2382
I17
sS'putting'
p2383
I2
sS'egg'
p2384
I3
sS'playing'
p2385
I4
sS'lynch'
p2386
I2
sS'help'
p2387
I12
sS'ashurst'
p2388
I5
sS'september'
p2389
I6
sS'developed'
p2390
I4
sS'soon'
p2391
I4
sS'u.s.-soviet'
p2392
I2
sS'trade'
p2393
I7
sS'tator'
p2394
I3
sS'held'
p2395
I7
sS'paper'
p2396
I10
sS'scott'
p2397
I2
sS'committee'
p2398
I5
sS'signs'
p2399
I3
sS'dozens'
p2400
I2
sS'clarinet'
p2401
I4
sS'atrun'
p2402
I2
sS'its'
p2403
I58
sS'24'
p2404
I2
sS'25'
p2405
I2
sS'26'
p2406
I2
sS'8.63'
p2407
I2
sS'20'
p2408
I4
sS'21'
p2409
I2
sS'agnelli'
p2410
I16
sS'environmentalist'
p2411
I2
sS'gerald'
p2412
I2
sS'w.a.'
p2413
I2
sS'sale'
p2414
I6
sS'28'
p2415
I2
sS'29'
p2416
I2
sS'actually'
p2417
I6
sS'late'
p2418
I8
sS'harmless'
p2419
I2
sS'detected'
p2420
I2
sS'disclosed'
p2421
I4
sS'high-ranking'
p2422
I2
sS'conn.'
p2423
I3
sS'stephen'
p2424
I2
sS'peanuts'
p2425
I2
sS'might'
p2426
I12
sS'lire'
p2427
I7
sS'550,000'
p2428
I2
sS'good'
p2429
I8
sS'return'
p2430
I5
sS'seeking'
p2431
I7
sS'food'
p2432
I3
sS'19-year-olds'
p2433
I2
sS'males'
p2434
I2
sS'hunter'
p2435
I2
sS'reigning'
p2436
I2
sS'reflected'
p2437
I2
sS'permissible'
p2438
I2
sS'anticipates'
p2439
I3
sS'executions'
p2440
I3
sS'bancorp'
p2441
I2
sS'embezzled'
p2442
I2
sS'association'
p2443
I5
sS'easily'
p2444
I3
sS'stopper'
p2445
I2
sS'purdue'
p2446
I2
sS'fully'
p2447
I2
sS'assemblies'
p2448
I2
sS'loosely'
p2449
I2
sS'semiannual'
p2450
I3
sS'depository'
p2451
I2
sS'spy'
p2452
I4
sS'courses'
p2453
I2
sS'65.7'
p2454
I2
sS'habits'
p2455
I2
sS'stopped'
p2456
I2
sS'found'
p2457
I4
sS'repeating'
p2458
I3
sS'difficult'
p2459
I5
sS'14-judge'
p2460
I2
sS'characterized'
p2461
I2
sS'heavy'
p2462
I2
sS'week'
p2463
I7
sS'harm'
p2464
I2
sS'everyone'
p2465
I2
sS'england'
p2466
I2
sS'savored'
p2467
I2
sS'8.337'
p2468
I2
sS'generation'
p2469
I2
sS'house'
p2470
I13
sS'healthvest'
p2471
I13
sS'hard'
p2472
I6
sS'positioned'
p2473
I2
sS'idea'
p2474
I5
sS'him'
p2475
I12
sS'police'
p2476
I3
sS'ball'
p2477
I2
sS'expect'
p2478
I7
sS'advertisers'
p2479
I2
sS'operation'
p2480
I6
sS'beyond'
p2481
I4
sS'insurance'
p2482
I5
sS'creamier'
p2483
I2
sS'really'
p2484
I4
sS'itel'
p2485
I3
sS'initiatives'
p2486
I2
sS'creditor'
p2487
I3
sS'sherblom'
p2488
I2
sS's.a.'
p2489
I3
sS'enfield'
p2490
I8
sS'robert'
p2491
I2
sS'since'
p2492
I9
sS'testify'
p2493
I2
sS'douglas'
p2494
I13
sS'research'
p2495
I3
sS'overused'
p2496
I2
sS'1.76'
p2497
I2
sS'equate'
p2498
I2
sS'health'
p2499
I4
sS'longtime'
p2500
I2
sS'7'
I3
sS'congenial'
p2501
I2
sS'compounding'
p2502
I2
sS'feb.'
p2503
I2
sS'issue'
p2504
I10
sS'disobedience'
p2505
I15
sS'bass'
p2506
I2
sS'lawrence'
p2507
I3
sS'upon'
p2508
I2
sS'yale'
p2509
I3
sS'abounds'
p2510
I2
sS'mikhail'
p2511
I2
sS'extraordinary'
p2512
I3
sS'reason'
p2513
I2
sS'base'
p2514
I4
sS'included'
p2515
I2
sS'members'
p2516
I5
sS'four-month'
p2517
I2
sS'put'
p2518
I5
sS'matthews'
p2519
I2
sS'beginning'
p2520
I5
sS'generate'
p2521
I2
sS'improved'
p2522
I2
sS'fiat'
p2523
I6
sS'benefits'
p2524
I2
sS'flier'
p2525
I2
sS'english'
p2526
I2
sS'rep.'
p2527
I2
sS'computers'
p2528
I11
sS'diversion'
p2529
I2
sS'rice'
p2530
I2
sS'american'
p2531
I12
sS'businessmen'
p2532
I2
sS'pilots'
p2533
I20
sS'interviews'
p2534
I2
sS'major'
p2535
I9
sS'amounted'
p2536
I2
sS'feel'
p2537
I3
sS'mistakenly'
p2538
I2
sS'number'
p2539
I6
sS'fancy'
p2540
I2
sS'traveled'
p2541
I2
sS'feet'
p2542
I3
sS'heinz'
p2543
I2
sS'done'
p2544
I3
sS'embraced'
p2545
I2
sS'investors'
p2546
I15
sS'says'
p2547
I41
sS'income'
p2548
I2
sS'financing'
p2549
I4
sS'arbitration'
p2550
I2
sS'passes'
p2551
I3
sS'story'
p2552
I2
sS'heads'
p2553
I2
sS'laboratorium'
p2554
I2
sS'frankel'
p2555
I2
sS'leading'
p2556
I4
sS'imelda'
p2557
I2
sS'threatening'
p2558
I2
sS'least'
p2559
I5
sS'obligatory'
p2560
I2
sS'180'
p2561
I3
sS'station'
p2562
I2
sS'pins'
p2563
I2
sS'statement'
p2564
I4
sS'justified'
p2565
I2
sS'rates'
p2566
I11
sS'scheme'
p2567
I2
sS'recovered'
p2568
I2
sS'woodwind'
p2569
I2
sS'grass-roots'
p2570
I2
sS'selling'
p2571
I8
sS'erupted'
p2572
I2
sS'relationship'
p2573
I2
sS'seagram'
p2574
I6
sS'praised'
p2575
I2
sS'sensation'
p2576
I2
sS'appreciation'
p2577
I2
sS'part'
p2578
I8
sS'telerate'
p2579
I3
sS'doctors'
p2580
I3
sS'recourse'
p2581
I2
sS'believe'
p2582
I2
sS'grace'
p2583
I2
sS'reliever'
p2584
I2
sS'linking'
p2585
I2
sS'mclaughlin'
p2586
I4
sS'legs'
p2587
I2
sS'nagging'
p2588
I2
sS'state-owned'
p2589
I3
sS'gotten'
p2590
I2
sS'largely'
p2591
I5
sS'youth'
p2592
I2
sS'greg'
p2593
I2
sS'marriage'
p2594
I3
sS'dfc'
p2595
I2
sS'sole'
p2596
I2
sS'lease'
p2597
I3
sS'ousted'
p2598
I2
sS'risky'
p2599
I2
sS'lilting'
p2600
I2
sS'outstanding'
p2601
I2
sS'strengthen'
p2602
I4
sS'ious'
p2603
I2
sS'berthold'
p2604
I4
sS'takeoff'
p2605
I3
sS'defect'
p2606
I2
sS'guarding'
p2607
I2
sS'substantial'
p2608
I4
sS'perestroika'
p2609
I2
sS'oriole'
p2610
I2
sS'orders'
p2611
I2
sS'1.175'
p2612
I2
sS'sell'
p2613
I5
sS'lie'
p2614
I2
sS'u.s'
p2615
I4
sS'built'
p2616
I3
sS'discounts'
p2617
I2
sS'gorbachev'
p2618
I13
sS'jeopardize'
p2619
I2
sS'accountable'
p2620
I2
sS'targets'
p2621
I2
sS'also'
p2622
I29
sS'appellate'
p2623
I2
sS'chairman'
p2624
I10
sS'finding'
p2625
I3
sS'sherry'
p2626
I2
sS'collateralized'
p2627
I3
sS'play'
p2628
I7
sS'added'
p2629
I4
sS'critics'
p2630
I2
sS'electric'
p2631
I2
sS'albert'
p2632
I2
sS'eggs'
p2633
I2
sS'measures'
p2634
I3
sS'reach'
p2635
I3
sS'walt'
p2636
I2
sS'freddie'
p2637
I4
sS'most'
p2638
I21
sS'brooklyn'
p2639
I2
sS'hired'
p2640
I2
sS'shareholder'
p2641
I4
sS'72'
p2642
I3
sS'significant'
p2643
I7
sS'nondemocratic'
p2644
I2
sS'nothing'
p2645
I3
sS'seasons'
p2646
I2
sS'prestige'
p2647
I2
sS'extremely'
p2648
I3
sS'approved'
p2649
I7
sS'soared'
p2650
I2
sS'stands'
p2651
I2
sS'gas-tax-increasing'
p2652
I2
sS'toronto-based'
p2653
I2
sS'dealers'
p2654
I2
sS'arson'
p2655
I2
sS'mobile'
p2656
I2
sS'performances'
p2657
I2
sS'clear'
p2658
I4
sS'sometimes'
p2659
I2
sS'cover'
p2660
I4
sS'rockefeller'
p2661
I2
sS'283.9'
p2662
I2
sS'concessions'
p2663
I2
sS'barred'
p2664
I2
sS'pa.'
p2665
I2
sS'tymnet'
p2666
I2
sS'velocity'
p2667
I2
sS'justify'
p2668
I3
sS'physics'
p2669
I2
sS'institutions'
p2670
I10
sS'joining'
p2671
I2
sS'stones'
p2672
I2
sS'spirits'
p2673
I2
sS'7,400'
p2674
I2
sS'directorate'
p2675
I3
sS'golf'
p2676
I2
sS'pottery'
p2677
I2
sS'disturbances'
p2678
I2
sS'gas-tax'
p2679
I2
sS'commissions'
p2680
I4
sS'lay'
p2681
I2
sS'restarters'
p2682
I2
sS'session'
p2683
I5
sS'businesses'
p2684
I5
sS'battle'
p2685
I2
sS'carefully'
p2686
I2
sS'stores'
p2687
I5
sS'heavens'
p2688
I2
sS'11*slashhere*16'
p2689
I3
sS'75'
p2690
I2
sS'occupation'
p2691
I2
sS'impact'
p2692
I4
sS'keychain'
p2693
I2
sS'deserts'
p2694
I2
sS'northern'
p2695
I2
sS'merger'
p2696
I3
sS'writer'
p2697
I3
sS'failed'
p2698
I7
sS'flights'
p2699
I2
sS'comparison'
p2700
I2
sS'stirs'
p2701
I2
sS'equity'
p2702
I2
sS'override'
p2703
I3
sS'8'
I23
sS'distributes'
p2704
I2
sS'merged'
p2705
I2
sS'enhanced'
p2706
I2
sS'toronto'
p2707
I4
sS'counterpoint'
p2708
I3
sS'his'
p2709
I53
sS'founding'
p2710
I3
sS'gains'
p2711
I3
sS'permission'
p2712
I2
sS'express'
p2713
I8
sS'kind'
p2714
I3
sS'mortgage-backed'
p2715
I3
sS'observatory'
p2716
I2
sS'listed'
p2717
I2
sS'closely'
p2718
I3
sS'reporters'
p2719
I3
sS'during'
p2720
I6
sS'items'
p2721
I2
sS';'
I50
sS'merchandise'
p2722
I3
sS'alexander'
p2723
I2
sS'grievances'
p2724
I3
sS'resolve'
p2725
I3
sS'left-wing'
p2726
I2
sS'roles'
p2727
I2
sS'interbank'
p2728
I3
sS'transgenic'
p2729
I4
sS'alisarda'
p2730
I2
sS'statism'
p2731
I2
sS'civilized'
p2732
I2
sS'watched'
p2733
I2
sS'banking'
p2734
I5
sS'mistakes'
p2735
I2
sS'statist'
p2736
I2
sS'double'
p2737
I2
sS'switzerland'
p2738
I2
sS'weaver'
p2739
I3
sS'66.50'
p2740
I2
sS'wrote'
p2741
I2
sS'manger'
p2742
I2
sS'scanning'
p2743
I2
sS'set'
p2744
I12
sS'collateral'
p2745
I2
sS'throwing'
p2746
I3
sS'opposing'
p2747
I3
sS'shareholders'
p2748
I5
sS'potent'
p2749
I2
sS'sex'
p2750
I2
sS'culture'
p2751
I3
sS'see'
p2752
I4
sS'individual'
p2753
I4
sS'sec'
p2754
I3
sS'are'
p2755
I81
sS'sea'
p2756
I5
sS'tender'
p2757
I2
sS'close'
p2758
I3
sS'institutes'
p2759
I4
sS'2.7'
p2760
I2
sS'2.6'
p2761
I2
sS'declined'
p2762
I3
sS'chose'
p2763
I2
sS'alcoholic'
p2764
I2
sS'repairs'
p2765
I2
sS'learns'
p2766
I2
sS'1,214'
p2767
I2
sS'pictures'
p2768
I4
sS'user'
p2769
I3
sS'currently'
p2770
I4
sS'please'
p2771
I2
sS'precocious'
p2772
I2
sS'pickup'
p2773
I2
sS'won'
p2774
I3
sS'various'
p2775
I5
sS'certificate'
p2776
I2
sS'woe'
p2777
I2
sS'probably'
p2778
I5
sS'burned'
p2779
I2
sS'corruption'
p2780
I2
sS'favor'
p2781
I2
sS'risks'
p2782
I2
sS'europe'
p2783
I9
sS'solo'
p2784
I2
sS'karim'
p2785
I2
sS'recently'
p2786
I8
sS'unconscious'
p2787
I2
sS'initially'
p2788
I2
sS'dividends'
p2789
I4
sS'sold'
p2790
I9
sS'attention'
p2791
I3
sS'subject'
p2792
I5
sS'labella'
p2793
I2
sS'aircraft'
p2794
I5
sS'succeed'
p2795
I3
sS'scuttle'
p2796
I2
sS'opposition'
p2797
I2
sS'invisible'
p2798
I2
sS'assemblages'
p2799
I2
sS'legislature'
p2800
I2
sS'both'
p2801
I13
sS'defunct'
p2802
I2
sS'feeling'
p2803
I2
sS'last'
p2804
I15
sS'license'
p2805
I2
sS'secrets'
p2806
I2
sS'annual'
p2807
I5
sS'assumed'
p2808
I2
sS'rubendall'
p2809
I4
sS'foreign'
p2810
I20
sS'sensitive'
p2811
I2
sS'became'
p2812
I4
sS'redemptions'
p2813
I2
sS'long-term'
p2814
I3
sS'toxicology'
p2815
I2
sS'bond'
p2816
I7
sS'whole'
p2817
I6
sS'flies'
p2818
I2
sS'soundings'
p2819
I2
sS'electrician'
p2820
I2
sS'point'
p2821
I3
sS'reasons'
p2822
I5
sS'sweet'
p2823
I2
sS'prosecuting'
p2824
I2
sS'community'
p2825
I2
sS'fashion'
p2826
I3
sS'simply'
p2827
I4
sS'ornette'
p2828
I2
sS'scottish'
p2829
I2
sS'vessel'
p2830
I2
sS'throughout'
p2831
I2
sS'headaches'
p2832
I2
sS'bolster'
p2833
I3
sS'described'
p2834
I2
sS'raise'
p2835
I10
sS'arrest'
p2836
I2
sS'monthly'
p2837
I6
sS'damp'
p2838
I2
sS'acceptance'
p2839
I2
sS'hashidate'
p2840
I2
sS'due'
p2841
I3
sS'appears'
p2842
I2
sS'rivals'
p2843
I2
sS'trespasses'
p2844
I2
sS'association-college'
p2845
I2
sS'3*slashhere*4'
p2846
I5
sS'collected'
p2847
I2
sS'reduced-fat'
p2848
I2
sS'meeting'
p2849
I27
sS'woke'
p2850
I2
sS'walter'
p2851
I2
sS'firm'
p2852
I7
sS'dialogue'
p2853
I2
sS'partly'
p2854
I2
sS'regroup'
p2855
I2
sS'fire'
p2856
I3
sS'then-21'
p2857
I2
sS'gas'
p2858
I2
sS'great'
p2859
I7
sS'else'
p2860
I2
sS'fund'
p2861
I22
sS'lives'
p2862
I3
sS'representative'
p2863
I3
sS'bidding'
p2864
I2
sS'demand'
p2865
I3
sS'prices'
p2866
I5
sS'financiers'
p2867
I2
sS'despite'
p2868
I5
sS'plants'
p2869
I2
sS'stolen'
p2870
I2
sS'classifications'
p2871
I2
sS'look'
p2872
I4
sS'solid'
p2873
I2
sS'straight'
p2874
I2
sS'bill'
p2875
I9
sS'budget'
p2876
I4
sS'governor'
p2877
I2
sS'unprecedented'
p2878
I2
sS'pace'
p2879
I3
sS'while'
p2880
I7
sS'3.35'
p2881
I2
sS'tweaking'
p2882
I2
sS'32'
p2883
I2
sS'fun'
p2884
I2
sS'fleet'
p2885
I2
sS'p.'
p2886
I3
sS'morsels'
p2887
I2
sS'manner'
p2888
I3
sS'real'
p2889
I6
sS'incriminating'
p2890
I2
sS'voters'
p2891
I2
sS'cents'
p2892
I8
sS'violently'
p2893
I2
sS'dotting'
p2894
I2
sS'motors'
p2895
I2
sS'audience-friendly'
p2896
I2
sS'itself'
p2897
I3
sS'headway'
p2898
I2
sS'centennial'
p2899
I2
sS'owes'
p2900
I2
sS'ready'
p2901
I2
sS'fannie'
p2902
I8
sS'attach'
p2903
I2
sS'caygill'
p2904
I2
sS'italy'
p2905
I6
sS'shaw'
p2906
I2
sS'anymore'
p2907
I3
sS'grant'
p2908
I2
sS'872'
p2909
I2
sS'shorter'
p2910
I2
sS'read'
p2911
I3
sS'discourse'
p2912
I2
sS'virtually'
p2913
I2
sS'widely'
p2914
I4
sS'peoples'
p2915
I2
sS'9'
I7
sS'products'
p2916
I11
sS'advise'
p2917
I3
sS'doubleday'
p2918
I2
sS'higher'
p2919
I5
sS'pleadings'
p2920
I2
sS'used'
p2921
I7
sS'temporary'
p2922
I4
sS'biochemist'
p2923
I2
sS'ratings'
p2924
I2
sS'blair'
p2925
I8
sS'cardholders'
p2926
I2
sS'yesterday'
p2927
I10
sS'alert'
p2928
I4
sS'moment'
p2929
I4
sS'levels'
p2930
I5
sS'uses'
p2931
I5
sS'143,800'
p2932
I2
sS'brussels'
p2933
I2
sS'tobacco'
p2934
I3
sS'recent'
p2935
I5
sS'gestures'
p2936
I2
sS'lower'
p2937
I8
sS'surrogate'
p2938
I2
sS'anxious'
p2939
I2
sS'poland'
p2940
I2
sS'alleging'
p2941
I3
sS'bounces'
p2942
I2
sS'phil'
p2943
I2
sS'person'
p2944
I3
sS'cheer'
p2945
I2
sS'edge'
p2946
I2
sS'machinery'
p2947
I4
sS'ltd.'
p2948
I4
sS'grip'
p2949
I2
sS'organization'
p2950
I2
sS'meanwhile'
p2951
I3
sS'7.62'
p2952
I2
sS'yankees'
p2953
I2
sS'grievance'
p2954
I3
sS'one-year'
p2955
I3
sS'hypothesized'
p2956
I2
sS'settlements'
p2957
I3
sS'proxies'
p2958
I2
sS'officers'
p2959
I2
sS'distracting'
p2960
I2
sS'world'
p2961
I11
sS'useful'
p2962
I3
sS'alternative'
p2963
I3
sS'prince'
p2964
I2
sS'profitable'
p2965
I2
sS'metric'
p2966
I2
sS'cut'
p2967
I8
sS'helping'
p2968
I2
sS'$'
I92
sS'over-the-counter'
p2969
I3
sS'informal'
p2970
I10
sS'surprises'
p2971
I3
sS'workers'
p2972
I8
sS'deputy'
p2973
I2
sS'guaranteed'
p2974
I3
sS'contractor'
p2975
I2
sS'revenue'
p2976
I4
sS'rangers'
p2977
I2
sS'internal'
p2978
I3
sS'parents'
p2979
I3
sS'location'
p2980
I2
sS'homeland'
p2981
I2
sS'waleson'
p2982
I2
sS'guarantees'
p2983
I2
sS'administrative'
p2984
I3
sS'remaining'
p2985
I4
sS'surprised'
p2986
I3
sS'build'
p2987
I2
sS'...'
p2988
I3
sS'customers'
p2989
I8
sS'electromagnets'
p2990
I2
sS'march'
p2991
I6
sS'emergency'
p2992
I3
sS'demands'
p2993
I2
sS'big'
p2994
I8
sS'bid'
p2995
I3
sS'discriminatory'
p2996
I2
sS'results'
p2997
I4
sS'matters'
p2998
I3
sS'game'
p2999
I3
sS'333'
p3000
I2
sS'foreigners'
p3001
I3
sS'guide'
p3002
I2
sS'necessary'
p3003
I3
sS'bit'
p3004
I2
sS'buddy'
p3005
I2
sS'projects'
p3006
I4
sS'formal'
p3007
I5
sS'stimulators'
p3008
I7
sS'summit'
p3009
I7
sS'sorting'
p3010
I2
sS'lost'
p3011
I6
sS'spine'
p3012
I2
sS'follows'
p3013
I3
sS'yielded'
p3014
I2
sS'kremlin'
p3015
I2
sS'consensus'
p3016
I2
sS'communications'
p3017
I3
sS'continue'
p3018
I4
sS'yields'
p3019
I4
sS'yorker'
p3020
I2
sS'jolted'
p3021
I2
sS'fault'
p3022
I2
sS'54.5'
p3023
I2
sS'spins'
p3024
I2
sS'subverted'
p3025
I2
sS'circles'
p3026
I2
sS'motor'
p3027
I7
sS'senate'
p3028
I6
sS'obliged'
p3029
I2
sS'30s'
p3030
I2
sS'some'
p3031
I36
sS'back'
p3032
I13
sS'bach'
p3033
I3
sS'redistributionism'
p3034
I2
sS'3.6'
p3035
I2
sS'economic'
p3036
I12
sS'3.2'
p3037
I2
sS'fabric'
p3038
I2
sS'hispanics'
p3039
I2
sS'hard-line'
p3040
I2
sS'fanfare'
p3041
I3
sS'67-year-old'
p3042
I2
sS'3.9'
p3043
I2
sS'delivered'
p3044
I3
sS'jewelry'
p3045
I9
sS'decision'
p3046
I8
sS'transactions'
p3047
I3
sS'91-day'
p3048
I2
sS'per'
p3049
I2
sS'seller'
p3050
I2
sS'quickly'
p3051
I2
sS'bankruptcy-law'
p3052
I2
sS'eliminate'
p3053
I2
sS'313.2'
p3054
I2
sS'superiority'
p3055
I2
sS'anne'
p3056
I2
sS'durables'
p3057
I2
sS'approves'
p3058
I2
sS'payments'
p3059
I11
sS'be'
p3060
I80
sS'patient'
p3061
I3
sS'300'
p3062
I3
sS'innovated'
p3063
I2
sS'lose'
p3064
I4
sS'continuing'
p3065
I3
sS'agreement'
p3066
I12
sS'refused'
p3067
I3
sS'feelings'
p3068
I2
sS'restrictive'
p3069
I2
sS'step'
p3070
I2
sS'4.67'
p3071
I2
sS'concealed'
p3072
I2
sS'lasts'
p3073
I2
sS'hindemith'
p3074
I2
sS'at&t'
p3075
I2
sS'pitchers'
p3076
I3
sS'by'
p3077
I96
sS'lerman'
p3078
I2
sS'dormant'
p3079
I2
sS'faith'
p3080
I2
sS'1,200'
p3081
I2
sS'consumption'
p3082
I2
sS'anything'
p3083
I5
sS'exaggerated'
p3084
I2
sS'tracing'
p3085
I2
sS'weatherbeaten'
p3086
I2
sS'in-depth'
p3087
I2
sS'mrs.'
p3088
I13
sS'range'
p3089
I3
sS'involving'
p3090
I4
sS'biennial'
p3091
I2
sS'together'
p3092
I2
sS'blackmailed'
p3093
I2
sS'hatred'
p3094
I2
sS'block'
p3095
I4
sS'plan'
p3096
I14
sS'seeing'
p3097
I3
sS'letter'
p3098
I3
sS'garbage'
p3099
I2
sS'nsa'
p3100
I2
sS'into'
p3101
I20
sS'within'
p3102
I5
sS'seating'
p3103
I2
sS'services'
p3104
I2
sS'racism'
p3105
I2
sS'primarily'
p3106
I2
sS'repaid'
p3107
I3
sS'sports'
p3108
I2
sS'bankruptcy'
p3109
I7
sS'statistics'
p3110
I2
sS'computer'
p3111
I7
sS'traduce'
p3112
I2
sS'conduits'
p3113
I2
sS'question'
p3114
I4
sS'long'
p3115
I7
sS'eurobond'
p3116
I2
sS'1.50'
p3117
I2
sS'back-pay'
p3118
I2
sS'pixie-like'
p3119
I2
sS'suit'
p3120
I4
sS'quake-relief'
p3121
I2
sS'mounting'
p3122
I2
sS'disallowed'
p3123
I2
sS'files'
p3124
I3
sS'zealand'
p3125
I10
sS'himself'
p3126
I2
sS'ireland'
p3127
I2
sS'registered'
p3128
I3
sS'murphy'
p3129
I2
sS'specialty'
p3130
I2
sS'hoped'
p3131
I2
sS'properly'
p3132
I2
sS'two-part'
p3133
I2
sS'filed'
p3134
I9
sS'hopes'
p3135
I2
sS'subsidiary'
p3136
I4
sS'line'
p3137
I7
sS'considerable'
p3138
I2
sS'raising'
p3139
I4
sS'posted'
p3140
I4
sS'directed'
p3141
I2
sS'hair'
p3142
I2
sS'cia'
p3143
I5
sS'rejection'
p3144
I2
sS'circuits'
p3145
I2
sS'geraldo'
p3146
I2
sS'generating'
p3147
I2
sS'up'
p3148
I36
sS'us'
p3149
I3
sS'par'
p3150
I2
sS'maturity'
p3151
I3
sS"'re"
p3152
I11
sS'cautiously'
p3153
I2
sS'defendant'
p3154
I2
sS'planes'
p3155
I2
sS'unexpected'
p3156
I2
sS'mortgage-securities'
p3157
I2
sS'similar'
p3158
I6
sS'called'
p3159
I6
sS'painfully'
p3160
I2
sS'socially'
p3161
I2
sS'39-year-old'
p3162
I2
sS'genial'
p3163
I2
sS'associated'
p3164
I2
sS'adults'
p3165
I3
sS'stripped'
p3166
I2
sS'u.s.a'
p3167
I2
sS'impasse'
p3168
I2
sS'quantification'
p3169
I2
sS'single'
p3170
I2
sS'associates'
p3171
I3
sS'three-to-five-year'
p3172
I2
sS'treaty'
p3173
I3
sS'as'
p3174
I87
sS'%'
I109
sS'amounts'
p3175
I4
sS'ballot'
p3176
I3
sS'peace'
p3177
I5
sS'politicians'
p3178
I2
sS'electrical'
p3179
I3
sS'minimum-wage'
p3180
I5
sS'department'
p3181
I7
sS'mcdonnell'
p3182
I4
sS'wellesley'
p3183
I2
sS'manhattan'
p3184
I2
sS'draw'
p3185
I3
sS'elements'
p3186
I2
sS'clean'
p3187
I2
sS'provided'
p3188
I2
sS'oat'
p3189
I3
sS'sided'
p3190
I2
sS'six-cent'
p3191
I2
sS'problems'
p3192
I5
sS'robots'
p3193
I2
sS'visits'
p3194
I2
sS'william'
p3195
I3
sS'generated'
p3196
I3
sS'allowing'
p3197
I2
sS'prepares'
p3198
I2
sS'hazardous-waste-site'
p3199
I2
sS'sides'
p3200
I6
sS'structure'
p3201
I2
sS'ago'
p3202
I9
sS'tailored'
p3203
I2
sS'land'
p3204
I2
sS'abetted'
p3205
I2
sS'vice'
p3206
I14
sS'scotch'
p3207
I3
sS'age'
p3208
I4
sS'required'
p3209
I5
sS'backed'
p3210
I4
sS'maturities'
p3211
I2
sS'walked'
p3212
I2
sS'dow'
p3213
I2
sS'norwegians'
p3214
I2
sS'6.25'
p3215
I2
sS'2005'
p3216
I2
sS'walker'
p3217
I2
sS'requires'
p3218
I2
sS'having'
p3219
I2
sS'once'
p3220
I7
sS'magnetically'
p3221
I2
sS'code'
p3222
I2
sS'minors'
p3223
I2
sS'fixed-rate'
p3224
I3
sS'issued'
p3225
I5
sS'thomas'
p3226
I2
sS'soften'
p3227
I2
sS'oct.'
p3228
I4
sS'pardoned'
p3229
I2
sS'kato'
p3230
I3
sS'intricate'
p3231
I2
sS'particularly'
p3232
I3
sS'maccabee'
p3233
I2
sS'15,000'
p3234
I3
sS'issues'
p3235
I7
sS'seemed'
p3236
I4
sS'compact'
p3237
I2
sS'excludes'
p3238
I2
sS'boom-or-bust'
p3239
I2
sS'disposal'
p3240
I2
sS'concerned'
p3241
I2
sS'young'
p3242
I6
sS'send'
p3243
I2
sS'uninformative'
p3244
I2
sS'reductions'
p3245
I2
sS'chaps'
p3246
I2
sS'excluded'
p3247
I2
sS'quarterly'
p3248
I6
sS'breach'
p3249
I2
sS'dislike'
p3250
I2
sS'include'
p3251
I2
sS'resources'
p3252
I4
sS'labels'
p3253
I4
sS'murderous'
p3254
I2
sS'tribunal'
p3255
I2
sS'wave'
p3256
I2
sS'nixed'
p3257
I2
sS'wash.'
p3258
I2
sS'execution'
p3259
I2
sS'specific'
p3260
I3
sS'drinking'
p3261
I2
sS'continued'
p3262
I3
sS'minerals'
p3263
I2
sS'720,000'
p3264
I2
sS'posture'
p3265
I2
sS'ariz.'
p3266
I2
sS'positions'
p3267
I2
sS'notes'
p3268
I2
sS'michael'
p3269
I2
sS'watered'
p3270
I2
sS'fewer'
p3271
I2
sS'try'
p3272
I2
sS'reich'
p3273
I5
sS'three-judge'
p3274
I2
sS'md-80'
p3275
I2
sS'medium-grade'
p3276
I2
sS'someday'
p3277
I2
sS'smaller'
p3278
I2
sS'victim'
p3279
I2
sS'carter'
p3280
I2
sS'picket'
p3281
I2
sS'vitally'
p3282
I2
sS'visuals'
p3283
I2
sS'1982'
p3284
I2
sS'mediterranean'
p3285
I2
sS'malice'
p3286
I2
sS'demonstrations'
p3287
I7
sS's.p'
p3288
I4
sS'expense'
p3289
I2
sS'licenses'
p3290
I3
sS'beanballs'
p3291
I2
sS'traced'
p3292
I2
sS'nests'
p3293
I2
sS'makers'
p3294
I7
sS'index'
p3295
I5
sS'edison'
p3296
I2
sS'jr.'
p3297
I2
sS'plays'
p3298
I3
sS'power'
p3299
I9
sS'chicago'
p3300
I5
sS'giving'
p3301
I3
sS'shivers'
p3302
I2
sS'expressed'
p3303
I2
sS'find'
p3304
I2
sS'access'
p3305
I4
sS'consistently'
p3306
I2
sS'waiting'
p3307
I2
sS'gubernatorial'
p3308
I2
sS'capital'
p3309
I8
sS'collins'
p3310
I5
sS'firms'
p3311
I6
sS'nights'
p3312
I2
sS'exercise'
p3313
I2
sS'body'
p3314
I2
sS'n.m'
p3315
I2
sS'focuses'
p3316
I2
sS'led'
p3317
I6
sS'filings'
p3318
I2
sS'exchange'
p3319
I9
sS'commercial'
p3320
I12
sS'save'
p3321
I2
sS'growing'
p3322
I5
sS'puckish'
p3323
I2
sS'objects'
p3324
I2
sS'let'
p3325
I7
sS'healing'
p3326
I2
sS'others'
p3327
I8
sS'safer'
p3328
I2
sS'b'
I2
sS'extreme'
p3329
I2
sS'39'
p3330
I2
sS'receive'
p3331
I4
sS'involved'
p3332
I4
sS'31'
p3333
I4
sS'adjusts'
p3334
I2
sS'37'
p3335
I4
sS'rehabilitation'
p3336
I3
sS'justice'
p3337
I3
sS'resulting'
p3338
I2
sS'fulton'
p3339
I2
sS'oversees'
p3340
I2
sS'opinion'
p3341
I2
sS'{'
I4
sS'makes'
p3342
I2
sS'maker'
p3343
I10
sS'fake'
p3344
I3
sS'examining'
p3345
I2
sS'named'
p3346
I9
sS'claim'
p3347
I10
sS'win'
p3348
I2
sS'kennewick'
p3349
I2
sS'7.55'
p3350
I2
sS'private'
p3351
I3
sS'privately'
p3352
I2
sS'composer'
p3353
I3
sS'limb'
p3354
I2
sS'apply'
p3355
I6
sS'canada'
p3356
I5
sS'cloud'
p3357
I2
sS'use'
p3358
I12
sS'from'
p3359
I87
sS'hippie'
p3360
I2
sS'zip'
p3361
I3
sS'&'
I12
sS'hudson'
p3362
I2
sS'theme'
p3363
I2
sS'flat'
p3364
I3
sS'next'
p3365
I14
sS'few'
p3366
I8
sS'camera'
p3367
I2
sS'face-to-face'
p3368
I3
sS'timing'
p3369
I2
sS'themselves'
p3370
I6
sS'start'
p3371
I3
sS'midday'
p3372
I2
sS'bureaucracy'
p3373
I2
sS'journalists'
p3374
I2
sS'infamy'
p3375
I2
sS'bronfman'
p3376
I2
sS'started'
p3377
I6
sS'sister'
p3378
I2
sS'visibility'
p3379
I2
sS'missile'
p3380
I2
sS'dealings'
p3381
I2
sS'federally'
p3382
I2
sS'afl-cio'
p3383
I2
sS'arranging'
p3384
I2
sS'actual'
p3385
I3
sS'shostakovich'
p3386
I2
sS'iii'
p3387
I2
sS'appointed'
p3388
I2
sS'carried'
p3389
I2
sS'non-communist'
p3390
I2
sS'majority'
p3391
I2
sS'account'
p3392
I5
sS'us$'
p3393
I3
sS'animals'
p3394
I3
sS'63.6'
p3395
I2
sS'announcing'
p3396
I2
sS'this'
p3397
I49
sS'challenge'
p3398
I2
sS'clients'
p3399
I4
sS'critic'
p3400
I2
sS'erwin'
p3401
I2
sS'condominium'
p3402
I2
sS'crossed'
p3403
I2
sS'client'
p3404
I2
sS'servants'
p3405
I2
sS'industrial'
p3406
I8
sS'meet'
p3407
I4
sS'closing'
p3408
I2
sS'5*slashhere*16'
p3409
I2
sS'institute'
p3410
I2
sS'painless'
p3411
I2
sS'performed'
p3412
I2
sS'control'
p3413
I9
sS'tap'
p3414
I2
sS'120-day'
p3415
I3
sS'links'
p3416
I2
sS'plate'
p3417
I2
sS'rejoining'
p3418
I2
sS'tax'
p3419
I11
sS'purposes'
p3420
I3
sS'pieces'
p3421
I5
sS'high'
p3422
I8
sS'kavanagh'
p3423
I2
sS'reserves'
p3424
I2
sS'exclaims'
p3425
I2
sS'something'
p3426
I5
sS'employs'
p3427
I3
sS'sought'
p3428
I4
sS'standard'
p3429
I3
sS'fearsome'
p3430
I2
sS'tumor'
p3431
I2
sS'united'
p3432
I6
sS'sit'
p3433
I3
sS'six'
p3434
I7
sS'bodegas'
p3435
I2
sS'owned'
p3436
I4
sS'responsibilities'
p3437
I2
sS'carrier'
p3438
I5
sS'animal'
p3439
I3
sS'instead'
p3440
I3
sS'ferdinand'
p3441
I2
sS'blackstone'
p3442
I3
sS'immoral'
p3443
I2
sS'stock'
p3444
I14
sS'vintage'
p3445
I2
sS'204.3'
p3446
I2
sS'baa-1'
p3447
I2
sS'tied'
p3448
I4
sS'bothered'
p3449
I2
sS'ronald'
p3450
I2
sS'most-favored'
p3451
I2
sS'pigs'
p3452
I2
sS'ethnic'
p3453
I2
sS'ties'
p3454
I3
sS'industrywide'
p3455
I2
sS'wisecracks'
p3456
I2
sS'referring'
p3457
I2
sS'7.80'
p3458
I2
sS'improviser'
p3459
I2
sS'pocket'
p3460
I2
sS'boeing'
p3461
I2
sS'light'
p3462
I7
sS'lines'
p3463
I4
sS'chief'
p3464
I14
sS'improvised'
p3465
I2
sS'healthcare'
p3466
I15
sS'kinji'
p3467
I2
sS'looking'
p3468
I2
sS'secured'
p3469
I2
sS'houston'
p3470
I7
sS'neglect'
p3471
I2
sS'creation'
p3472
I3
sS'136,800'
p3473
I2
sS'producer'
p3474
I2
sS'institutional'
p3475
I2
sS'tropics'
p3476
I3
sS'move'
p3477
I8
sS'produced'
p3478
I4
sS'contractions'
p3479
I3
sS'including'
p3480
I13
sS'directs'
p3481
I2
sS'quake'
p3482
I2
sS'finanziario'
p3483
I2
sS'mentioned'
p3484
I2
sS'letters'
p3485
I3
sS'year-earlier'
p3486
I3
sS'industries'
p3487
I5
sS'chemical'
p3488
I2
sS'negotiated'
p3489
I2
sS'complicate'
p3490
I2
sS'la'
p3491
I3
sS'chosen'
p3492
I2
sS'ships'
p3493
I2
sS'anti-nuclear'
p3494
I2
sS'labor'
p3495
I7
sS'owe'
p3496
I3
sS'permanent'
p3497
I2
sS'asking'
p3498
I3
sS'melloan'
p3499
I2
sS'criminal'
p3500
I3
sS'crowds'
p3501
I2
sS'8.3875'
p3502
I2
sS'non-invasive'
p3503
I3
sS'crash'
p3504
I7
sS'greater'
p3505
I2
sS'enemy'
p3506
I2
sS'wells'
p3507
I2
sS'auto'
p3508
I5
sS'outlined'
p3509
I2
sS'material'
p3510
I3
sS'operator'
p3511
I2
sS'federico'
p3512
I2
sS'flash'
p3513
I2
sS'cutting'
p3514
I2
sS'sonata'
p3515
I2
sS'hands'
p3516
I4
sS'front'
p3517
I4
sS'insisting'
p3518
I2
sS'republican'
p3519
I3
sS'investor'
p3520
I2
sS'fled'
p3521
I3
sS'capital-gains'
p3522
I2
sS'literacy'
p3523
I2
sS'toes'
p3524
I2
sS'earring'
p3525
I2
sS'warned'
p3526
I3
sS'university'
p3527
I10
sS'cellists'
p3528
I2
sS'boringly'
p3529
I2
sS'registrations'
p3530
I3
sS'slide'
p3531
I4
sS'issuers'
p3532
I3
sS'interview'
p3533
I3
sS'references'
p3534
I2
sS'bickford'
p3535
I2
sS'bills'
p3536
I3
sS'discount'
p3537
I3
sS'activate'
p3538
I2
sS'jones'
p3539
I2
sS'doing'
p3540
I3
sS'11-member'
p3541
I2
sS'chunk'
p3542
I2
sS'registration'
p3543
I3
sS'700'
p3544
I3
sS'levy'
p3545
I5
sS'related'
p3546
I2
sS'society'
p3547
I2
sS'89'
p3548
I2
sS'sands'
p3549
I2
sS'astronomer'
p3550
I2
sS'measure'
p3551
I3
sS'83'
p3552
I2
sS'80'
p3553
I3
sS'bay'
p3554
I2
sS'witness'
p3555
I2
sS'out'
p3556
I19
sS'gallant'
p3557
I2
sS'six-month'
p3558
I2
sS'trifari'
p3559
I4
sS'honorably'
p3560
I2
sS"'"
I23
sS'entertainment'
p3561
I3
sS'aga'
p3562
I7
sS'dismissal'
p3563
I3
sS'unencumbered'
p3564
I2
sS'day'
p3565
I3
sS'settlement'
p3566
I6
sS'strokes'
p3567
I2
sS'superbly'
p3568
I2
sS'motifs'
p3569
I2
sS'istituto'
p3570
I2
sS'electronics'
p3571
I2
sS'steered'
p3572
I2
sS'cause'
p3573
I5
sS'announced'
p3574
I9
sS'common'
p3575
I3
sS'harold'
p3576
I2
sS'dictionary'
p3577
I2
sS'unwieldy'
p3578
I2
sS'frank'
p3579
I2
sS'delegates'
p3580
I2
sS'anyone'
p3581
I2
sS'fourteen'
p3582
I2
sS'attributed'
p3583
I2
sS'completely'
p3584
I2
sS'provident'
p3585
I2
sS'york'
p3586
I14
sS'improvisational'
p3587
I2
sS'regulatory'
p3588
I2
sS'apt'
p3589
I2
sS'232.4'
p3590
I2
sS'20,000'
p3591
I2
sS'afterward'
p3592
I2
sS'allies'
p3593
I3
sS'hostile'
p3594
I3
sS'sardinia'
p3595
I2
sS'dubbed'
p3596
I4
sS'determining'
p3597
I2
sS'could'
p3598
I27
sS'florida'
p3599
I2
sS'whacker'
p3600
I2
sS'keep'
p3601
I3
sS'length'
p3602
I2
sS'abuse'
p3603
I2
sS'navies'
p3604
I2
sS'sidley-ashurst'
p3605
I2
sS'timed'
p3606
I2
sS'retain'
p3607
I3
sS'discussions'
p3608
I2
sS'retail'
p3609
I2
sS'austin'
p3610
I3
sS'museum'
p3611
I2
sS'south'
p3612
I4
sS'prospective'
p3613
I2
sS'plastics'
p3614
I3
sS'succeeds'
p3615
I3
sS'third'
p3616
I4
sS'powerful'
p3617
I2
sS'programmatic'
p3618
I2
sS'unsupported'
p3619
I2
sS'strategic'
p3620
I3
sS'embarrassed'
p3621
I2
sS'cardiac'
p3622
I2
sS'galvanized'
p3623
I2
sS'puppet'
p3624
I2
sS'proposing'
p3625
I2
sS'aisles'
p3626
I2
sS'drinker'
p3627
I3
sS'probation'
p3628
I2
sS'1989'
p3629
I6
sS'quality'
p3630
I2
sS'legislative'
p3631
I2
sS'vetoed'
p3632
I3
sS'explain'
p3633
I2
sS'management'
p3634
I6
sS'publication'
p3635
I2
sS'nerves'
p3636
I7
sS'single-a-3'
p3637
I6
sS'single-a-2'
p3638
I5
sS'demonstration'
p3639
I5
sS'assure'
p3640
I2
sS'system'
p3641
I11
sS'relations'
p3642
I3
sS'their'
p3643
I46
sS'attack'
p3644
I3
sS'w.'
p3645
I2
sS'final'
p3646
I4
sS'interests'
p3647
I4
sS'tidbit'
p3648
I2
sS'activists'
p3649
I2
sS'12-month'
p3650
I2
sS'quarry'
p3651
I2
sS'smolder'
p3652
I2
sS'doomed'
p3653
I2
sS'debate'
p3654
I4
sS'7.45'
p3655
I2
sS'slides'
p3656
I2
sS'environmental'
p3657
I3
sS'counterespionage'
p3658
I2
sS'bassist'
p3659
I2
sS'manipulation'
p3660
I2
sS'fuzzy'
p3661
I2
sS'july'
p3662
I7
sS'completes'
p3663
I2
sS'outline'
p3664
I2
sS'colleagues'
p3665
I4
sS'liquid'
p3666
I2
sS'cash-flush'
p3667
I2
sS'marston'
p3668
I3
sS'employer'
p3669
I2
sS'lecheria'
p3670
I3
sS'creators'
p3671
I2
sS'submitted'
p3672
I3
sS'potpourri'
p3673
I2
sS'16-year-olds'
p3674
I2
sS'patients'
p3675
I3
sS'decided'
p3676
I3
sS'bind'
p3677
I3
sS'flashes'
p3678
I3
sS'india'
p3679
I3
sS'providing'
p3680
I2
sS'creditors'
p3681
I6
sS'1.4'
p3682
I2
sS'imaginative'
p3683
I2
sS'1.6'
p3684
I2
sS'1.1'
p3685
I2
sS'1.2'
p3686
I2
sS'julian'
p3687
I2
sS'unchanged'
p3688
I2
sS'partnership'
p3689
I3
sS'1.8'
p3690
I2
sS'teenagers'
p3691
I2
sS'comfortable'
p3692
I2
sS'tide'
p3693
I2
sS'cleverly'
p3694
I2
sS'9.78'
p3695
I2
sS'unlikely'
p3696
I4
sS'have'
p3697
I66
sS'2.2'
p3698
I2
sS'need'
p3699
I3
sS'9.75'
p3700
I2
sS'apparently'
p3701
I3
sS'clearly'
p3702
I3
sS'instrumentation'
p3703
I2
sS'tomash'
p3704
I4
sS'documents'
p3705
I8
sS'how-to'
p3706
I2
sS'bassoon'
p3707
I2
sS'studying'
p3708
I2
sS'agency'
p3709
I12
sS'able'
p3710
I11
sS'parks'
p3711
I2
sS'arm'
p3712
I4
sS'instance'
p3713
I3
sS'relatives'
p3714
I2
sS'concerns'
p3715
I4
sS'326'
p3716
I2
sS'which'
p3717
I51
sS'bus'
p3718
I2
sS'souled'
p3719
I2
sS'martha'
p3720
I2
sS'1.35'
p3721
I2
sS'1.37'
p3722
I2
sS'brazil'
p3723
I2
sS'duels'
p3724
I2
sS'agenda'
p3725
I3
sS'combat'
p3726
I2
sS'collaboration'
p3727
I2
sS'who'
p3728
I38
sS'mandatory'
p3729
I4
sS'accountants'
p3730
I2
sS'acceptances'
p3731
I2
sS'preliminary'
p3732
I5
sS'device'
p3733
I3
sS'finery'
p3734
I2
sS'nuisance'
p3735
I2
sS'sfe'
p3736
I4
sS'intrinsic'
p3737
I2
sS'payment'
p3738
I3
sS'gurus'
p3739
I2
sS'so-called'
p3740
I3
sS'quotations'
p3741
I2
sS'410,000'
p3742
I2
sS'consequences'
p3743
I2
sS'8.25'
p3744
I2
sS'stronger'
p3745
I3
sS'face'
p3746
I2
sS'looked'
p3747
I3
sS'consorting'
p3748
I2
sS'lowered'
p3749
I2
sS'error'
p3750
I2
sS'guinea'
p3751
I2
sS'brew'
p3752
I2
sS'disobey'
p3753
I2
sS'typical'
p3754
I2
sS'normally'
p3755
I2
sS'fact'
p3756
I3
sS'gnu-emacs'
p3757
I3
sS'impression'
p3758
I2
sS'parker'
p3759
I2
sS'money-fund'
p3760
I3
sS'chances'
p3761
I2
sS'galvanizing'
p3762
I2
sS'agreed'
p3763
I10
sS'charles'
p3764
I3
sS'quarter-to-quarter'
p3765
I2
sS'brother'
p3766
I2
sS'vacancy'
p3767
I2
sS'wanting'
p3768
I2
sS'planning'
p3769
I2
sS'democrats'
p3770
I6
sS'portfolio'
p3771
I2
sS'889,000'
p3772
I2
sS'thicket'
p3773
I2
sS'feat'
p3774
I2
sS'pleased'
p3775
I3
sS'leg'
p3776
I2
sS'staff'
p3777
I4
sS'litigation'
p3778
I2
sS'partners'
p3779
I2
sS'communism'
p3780
I2
sS'based'
p3781
I8
sS'comfort'
p3782
I2
sS'('
I24
sS'95.2'
p3783
I2
sS'fans'
p3784
I2
sS'controls'
p3785
I4
sS'should'
p3786
I6
sS'terminal'
p3787
I3
sS'bases'
p3788
I2
sS'tape'
p3789
I2
sS'newsprint'
p3790
I7
sS'printers'
p3791
I2
sS'employed'
p3792
I4
sS'communist'
p3793
I2
sS'beeper'
p3794
I2
sS'thousands'
p3795
I3
sS'hope'
p3796
I6
sS'q.'
p3797
I2
sS'meant'
p3798
I3
sS'chicago-based'
p3799
I2
sS'means'
p3800
I4
sS'cigar-chomping'
p3801
I2
sS'michigan'
p3802
I3
sS'overall'
p3803
I4
sS'sipping'
p3804
I2
sS'listener'
p3805
I2
sS'joint'
p3806
I7
sS'october'
p3807
I8
sS'legitimate'
p3808
I2
sS'downturn'
p3809
I2
sS'buyer'
p3810
I3
sS'penetrate'
p3811
I2
sS'kong'
p3812
I2
sS'procedures'
p3813
I2
sS'already'
p3814
I2
sS'areas'
p3815
I3
sS'processes'
p3816
I2
sS'pursued'
p3817
I2
sS'unauthorized'
p3818
I2
sS'course'
p3819
I4
sS'approach'
p3820
I4
sS'evaders'
p3821
I2
sS'one-quarter-cent'
p3822
I2
sS'calling'
p3823
I4
sS'intermission'
p3824
I2
sS'stuff'
p3825
I3
sS'dpc'
p3826
I2
sS'she'
p3827
I7
sS'allegation'
p3828
I2
sS'ballplayers'
p3829
I2
sS'grab'
p3830
I2
sS'co.'
p3831
I14
sS'costume'
p3832
I3
sS'official'
p3833
I5
sS'acquired'
p3834
I3
sS'national'
p3835
I15
sS'juxtapose'
p3836
I2
sS'edition'
p3837
I2
sS'officials'
p3838
I8
sS'j.e.'
p3839
I2
sS'desperate'
p3840
I2
sS'operated'
p3841
I2
sS'36.6'
p3842
I2
sS'425,000'
p3843
I2
sS'amtran'
p3844
I2
sS'hiring'
p3845
I2
sS'extend'
p3846
I2
sS'attempting'
p3847
I3
sS'mid-november'
p3848
I2
sS'nature'
p3849
I3
sS'thumb'
p3850
I2
sS'brunt'
p3851
I2
sS'genius'
p3852
I2
sS'state'
p3853
I16
sS'closed'
p3854
I4
sS'tens'
p3855
I2
sS'pure-voiced'
p3856
I2
sS'theft'
p3857
I2
sS'environmentalists'
p3858
I2
sS'wiry'
p3859
I2
sS'comparable'
p3860
I3
sS'handful'
p3861
I2
sS'spares'
p3862
I2
sS'opening'
p3863
I4
sS'importance'
p3864
I2
sS'packaged'
p3865
I2
sS'beverages'
p3866
I2
sS'antics'
p3867
I2
sS'agencies'
p3868
I3
sS'ifint'
p3869
I4
sS'embarrassment'
p3870
I2
sS'job'
p3871
I3
sS'joe'
p3872
I2
sS'key'
p3873
I3
sS'200,000'
p3874
I2
sS'probing'
p3875
I2
sS'one-stop'
p3876
I2
sS'precious'
p3877
I2
sS'declining'
p3878
I3
sS'david'
p3879
I4
sS'restrictions'
p3880
I2
sS'hits'
p3881
I3
sS'figured'
p3882
I2
sS'drum'
p3883
I2
sS'buster'
p3884
I2
sS'limits'
p3885
I5
sS'always'
p3886
I2
sS'invited'
p3887
I2
sS'drug'
p3888
I5
sS'popularize'
p3889
I2
sS'etc'
p3890
I2
sS'admit'
p3891
I2
sS'urging'
p3892
I3
sS'attributes'
p3893
I2
sS'kinds'
p3894
I3
sS'jersey'
p3895
I4
sS'comment'
p3896
I5
sS'undermined'
p3897
I2
sS'co'
p3898
I3
sS'wall'
p3899
I4
sS'tuesday'
p3900
I5
sS'570'
p3901
I2
sS'disarmament'
p3902
I2
sS'supreme'
p3903
I3
sS'health-conscious'
p3904
I2
sS'packaging'
p3905
I2
sS'9*slashhere*16'
p3906
I3
sS'recognized'
p3907
I2
sS'dividend'
p3908
I2
sS'table'
p3909
I2
sS'oakland'
p3910
I2
sS'appeared'
p3911
I2
sS'indications'
p3912
I2
sS'april'
p3913
I3
sS'yastrzemski'
p3914
I2
sS'8.5'
p3915
I2
sS'7.875'
p3916
I2
sS'addition'
p3917
I4
sS'trademark'
p3918
I2
sS'pinpointed'
p3919
I2
sS'arbitrator'
p3920
I8
sS'willing'
p3921
I3
sS'slowly'
p3922
I2
sS'agreements'
p3923
I4
sS'looting'
p3924
I2
sS'indicators'
p3925
I2
sS'proposal'
p3926
I3
sS'waste'
p3927
I2
sS'recurring'
p3928
I2
sS'partial'
p3929
I2
sS'remedies'
p3930
I2
sS'suggested'
p3931
I2
sS'tissues'
p3932
I2
sS'controlled'
p3933
I2
sS'c.'
p3934
I3
sS'league'
p3935
I5
sS'moved'
p3936
I3
sS'thrusting'
p3937
I2
sS'c$'
p3938
I2
sS'terminated'
p3939
I2
sS'atlanta'
p3940
I2
sS'an'
p3941
I68
sS'chivas'
p3942
I8
sS'bipartisan'
p3943
I2
sS'overuse'
p3944
I2
sS'slept'
p3945
I2
sS'appearance'
p3946
I5
sS'examine'
p3947
I2
sS'value'
p3948
I5
sS'choices'
p3949
I2
sS'will'
p3950
I74
sS'instigated'
p3951
I2
sS'petition'
p3952
I2
sS'owns'
p3953
I6
sS'rigged'
p3954
I2
sS'campaigns'
p3955
I2
sS'stuffing'
p3956
I2
sS'19.95'
p3957
I2
sS'7.96'
p3958
I2
sS'resident'
p3959
I2
sS"m'bow"
p3960
I4
sS'lush'
p3961
I2
sS'site'
p3962
I2
sS'landfills'
p3963
I2
sS'audiences'
p3964
I3
sS'demanded'
p3965
I2
sS'lightweight'
p3966
I2
sS'claimed'
p3967
I2
sS'partner'
p3968
I3
sS'wage-floor'
p3969
I2
sS'underwriters'
p3970
I2
sS'amadou-mahtar'
p3971
I2
sS'perhaps'
p3972
I3
sS'marcoses'
p3973
I2
sS'privileges'
p3974
I3
sS'administration'
p3975
I6
sS'proceeds'
p3976
I2
sS'member'
p3977
I3
sS'parts'
p3978
I4
sS'mahatma'
p3979
I2
sS'northwest'
p3980
I5
sS'largest'
p3981
I10
sS'units'
p3982
I4
sS'party'
p3983
I2
sS'terrorism'
p3984
I2
sS'planned'
p3985
I3
sS'injured'
p3986
I2
sS'spirited'
p3987
I2
sS'practice'
p3988
I4
sS'columbia'
p3989
I3
sS'raymond'
p3990
I2
sS'emotionally'
p3991
I2
sS'again'
p3992
I4
sS'premiere'
p3993
I2
sS'appearances'
p3994
I2
sS'drink'
p3995
I3
sS'disagree'
p3996
I2
sS'effect'
p3997
I4
sS'mediobanca'
p3998
I3
sS'tsunami'
p3999
I2
sS'taste'
p4000
I2
sS'frequently'
p4001
I2
sS'impeccable'
p4002
I2
sS'expand'
p4003
I2
sS'destruction'
p4004
I2
sS'transaction'
p4005
I6
sS'off'
p4006
I12
sS'center'
p4007
I4
sS'i'
I24
sS'approve'
p4008
I2
sS'well'
p4009
I9
sS'fighting'
p4010
I2
sS'bran'
p4011
I3
sS'thought'
p4012
I3
sS'352'
p4013
I2
sS'sets'
p4014
I2
sS'position'
p4015
I4
sS'limp'
p4016
I2
sS'muscle'
p4017
I3
sS'soviet'
p4018
I17
sS'inc.'
p4019
I23
sS'latest'
p4020
I3
sS'spy-chaser'
p4021
I2
sS'laid-back'
p4022
I2
sS'routinely'
p4023
I3
sS'less'
p4024
I7
sS'increasingly'
p4025
I2
sS'executive'
p4026
I13
sS'domestic'
p4027
I4
sS'reflects'
p4028
I2
sS'clinic'
p4029
I3
sS'interim'
p4030
I2
sS'seats'
p4031
I2
sS'tone'
p4032
I2
sS'paul'
p4033
I2
sS'hess'
p4034
I4
sS'transportation'
p4035
I2
sS'taken'
p4036
I7
sS'topping'
p4037
I2
sS'non-brain'
p4038
I2
sS'ads'
p4039
I2
sS'stoltzman'
p4040
I11
sS'residential'
p4041
I2
sS'bell'
p4042
I3
sS'smith'
p4043
I3
sS'deposits'
p4044
I2
sS'handy'
p4045
I2
sS'288'
p4046
I2
sS'add'
p4047
I2
sS'valid'
p4048
I2
sS'attractive'
p4049
I2
sS'mitre'
p4050
I2
sS'sventek'
p4051
I3
sS'loan'
p4052
I6
sS'tests'
p4053
I7
sS'increased'
p4054
I5
sS'counterclaims'
p4055
I2
sS'government'
p4056
I23
sS'devised'
p4057
I2
sS'suggestions'
p4058
I2
sS'protesters'
p4059
I5
sS'low-paid'
p4060
I2
sS'increases'
p4061
I2
sS'historic'
p4062
I2
sS'five'
p4063
I9
sS'know'
p4064
I3
sS'desk'
p4065
I2
sS'press'
p4066
I5
sS'reginald'
p4067
I2
sS'prominent'
p4068
I2
sS'loss'
p4069
I3
sS'displaced'
p4070
I2
sS'forcing'
p4071
I2
sS'crisp'
p4072
I2
sS'like'
p4073
I11
sS'success'
p4074
I3
sS'karen'
p4075
I2
sS'admitted'
p4076
I3
sS'loses'
p4077
I2
sS'taxpayers'
p4078
I2
sS'clarinetist'
p4079
I4
sS'january'
p4080
I4
sS'become'
p4081
I10
sS'works'
p4082
I2
sS'kucharski'
p4083
I2
sS'replacement'
p4084
I3
sS'amendment'
p4085
I2
sS'parity'
p4086
I4
sS'mccartin'
p4087
I2
sS'because'
p4088
I20
sS'classical'
p4089
I3
sS'foreseeable'
p4090
I2
sS'searching'
p4091
I2
sS'ideals'
p4092
I2
sS'growth'
p4093
I4
sS'cleveland'
p4094
I2
sS'home'
p4095
I15
sS'novelist'
p4096
I2
sS'peter'
p4097
I5
sS'employment'
p4098
I2
sS'righthander'
p4099
I2
sS'251'
p4100
I2
sS'lead'
p4101
I5
sS'severance'
p4102
I2
sS'avoid'
p4103
I5
sS'lean'
p4104
I2
sS'morris'
p4105
I2
sS'demonstrators'
p4106
I2
sS'does'
p4107
I11
sS'assuming'
p4108
I2
sS'york-based'
p4109
I2
sS'leader'
p4110
I8
sS'?'
I9
sS'extraordinarily'
p4111
I2
sS'mania'
p4112
I2
sS'thoroughfare'
p4113
I2
sS'journal'
p4114
I6
sS'outlets'
p4115
I2
sS'pressure'
p4116
I3
sS'neurosurgeon'
p4117
I3
sS'expire'
p4118
I2
sS'eurodollars'
p4119
I2
sS'benefit'
p4120
I2
sS'although'
p4121
I4
sS'27.4'
p4122
I2
sS'frustrate'
p4123
I2
sS'loans'
p4124
I6
sS'handling'
p4125
I2
sS'panel'
p4126
I3
sS'about'
p4127
I27
sS'rare'
p4128
I2
sS'puts'
p4129
I2
sS'getting'
p4130
I5
sS'freedom'
p4131
I3
sS'cleans'
p4132
I2
sS'urged'
p4133
I3
sS'concerts'
p4134
I2
sS'angeles'
p4135
I3
sS'proposals'
p4136
I2
sS'23.4'
p4137
I2
sS'sweat'
p4138
I2
sS'introduced'
p4139
I4
sS'create'
p4140
I2
sS'executives'
p4141
I5
sS'own'
p4142
I7
sS'polished'
p4143
I2
sS'title-insurance'
p4144
I2
sS'previously'
p4145
I6
sS'political'
p4146
I5
sS'warrants'
p4147
I2
sS'washington'
p4148
I4
sS'billions'
p4149
I2
sS'ismaili'
p4150
I2
sS'banca'
p4151
I2
sS'promise'
p4152
I2
sS'actions'
p4153
I2
sS'female'
p4154
I3
sS'lawful'
p4155
I5
sS'luxembourg-based'
p4156
I2
sS'currier'
p4157
I2
sS'mere'
p4158
I2
sS'negotiable'
p4159
I3
sS'utility'
p4160
I2
sS'1986'
p4161
I4
sS'1987'
p4162
I4
sS'postal'
p4163
I3
sS'1985'
p4164
I4
sS'accused'
p4165
I2
sS'additional'
p4166
I3
sS'transfer'
p4167
I2
sS'justifying'
p4168
I2
sS'beer'
p4169
I4
sS'1988'
p4170
I3
sS'awarded'
p4171
I2
sS'inner'
p4172
I3
sS'obstacle'
p4173
I2
sS'biggest'
p4174
I5
sS'developing'
p4175
I2
sS'pretax'
p4176
I2
sS'jealously'
p4177
I2
sS'function'
p4178
I3
sS'building'
p4179
I4
sS'buy'
p4180
I5
sS'north'
p4181
I3
sS'interest'
p4182
I16
sS'triggered'
p4183
I4
sS'funds'
p4184
I11
sS'brand'
p4185
I4
sS'sequel'
p4186
I2
sS'but'
p4187
I73
sS'delivery'
p4188
I4
sS'expected'
p4189
I12
sS'construction'
p4190
I3
sS'wealthier'
p4191
I2
sS'gain'
p4192
I3
sS'courts'
p4193
I2
sS'automated'
p4194
I2
sS'squeeze'
p4195
I2
sS'25-year-old'
p4196
I2
sS'he'
p4197
I110
sS'made'
p4198
I12
sS'tactics'
p4199
I2
sS'evident'
p4200
I2
sS'chained'
p4201
I2
sS'whether'
p4202
I7
sS'mozart'
p4203
I2
sS'flip'
p4204
I2
sS'excitement'
p4205
I2
sS'record'
p4206
I7
sS'below'
p4207
I3
sS'converted'
p4208
I2
sS'limit'
p4209
I2
sS'ruling'
p4210
I9
sS'invest'
p4211
I3
sS'static'
p4212
I2
sS'problem'
p4213
I6
sS'piece'
p4214
I4
sS'minutes'
p4215
I4
sS'odds'
p4216
I3
sS'8.395'
p4217
I2
sS'wage-discrimination'
p4218
I2
sS'settled'
p4219
I3
sS'kowtow'
p4220
I2
sS'devise'
p4221
I2
sS'recognize'
p4222
I2
sS'recounts'
p4223
I2
sS'911,606'
p4224
I2
sS'sweetheart'
p4225
I2
sS'ploys'
p4226
I2
sS'our'
p4227
I7
sS'nazionale'
p4228
I2
sS'education'
p4229
I3
sS'campus'
p4230
I2
sS'inc'
p4231
I4
sS'diego'
p4232
I2
sS'mutual'
p4233
I2
sS'compared'
p4234
I2
sS'nonetheless'
p4235
I2
sS'standing-room-only'
p4236
I2
sS'44'
p4237
I2
sS'45'
p4238
I3
sS'percent'
p4239
I2
sS'detail'
p4240
I2
sS'40'
p4241
I2
sS'lately'
p4242
I3
sS'surreal'
p4243
I2
sS'other'
p4244
I38
sS'compares'
p4245
I2
sS'special'
p4246
I6
sS'branch'
p4247
I5
sS'relive'
p4248
I2
sS'hand-held'
p4249
I2
sS'republicans'
p4250
I2
sS'tight'
p4251
I2
sS'monday'
p4252
I4
sS'moody'
p4253
I5
sS'class'
p4254
I7
sS'475'
p4255
I2
sS'june'
p4256
I6
sS'shown'
p4257
I3
sS'stay'
p4258
I3
sS'chance'
p4259
I4
sS'priced'
p4260
I2
sS'friends'
p4261
I2
sS'4.25'
p4262
I5
sS'4.27'
p4263
I2
sS'constant'
p4264
I2
sS'stirred'
p4265
I2
sS'using'
p4266
I4
sS'repertoire'
p4267
I3
sS'colorado'
p4268
I2
sS'martin'
p4269
I3
sS'rule'
p4270
I5
sS'intentionally'
p4271
I2
sS'impair'
p4272
I2
sS'pension'
p4273
I6
sS'diagnosis'
p4274
I2
sS'ideological'
p4275
I2
sS'smoke-filled'
p4276
I2
sS'biotechnology'
p4277
I2
sS'theory-teaching'
p4278
I2
sS'indirectly'
p4279
I2
sS'grocery'
p4280
I2
sS'compromised'
p4281
I2
s.