(dp1
S'1,800'
p2
I2
sS'del.'
p3
I2
sS'four'
p4
I14
sS'looking'
p5
I2
sS'minor-leaguer'
p6
I2
sS'eligible'
p7
I3
sS'electricity'
p8
I4
sS'herbicide'
p9
I5
sS'hormone'
p10
I2
sS'propane'
p11
I3
sS'regional'
p12
I2
sS'sideline-business'
p13
I2
sS'leisurely'
p14
I2
sS'classifications'
p15
I2
sS'bringing'
p16
I3
sS'disturb'
p17
I3
sS'specialties'
p18
I3
sS'reliable'
p19
I2
sS'non-violent'
p20
I14
sS'charter'
p21
I3
sS'specially'
p22
I2
sS'miller'
p23
I3
sS'270'
p24
I2
sS'elegant'
p25
I3
sS'second'
p26
I25
sS'e.'
p27
I6
sS'single-b'
p28
I2
sS'sterile'
p29
I3
sS'errors'
p30
I2
sS'cooking'
p31
I2
sS'contributed'
p32
I6
sS'fingers'
p33
I5
sS'designing'
p34
I2
sS'increasing'
p35
I3
sS'shocks'
p36
I4
sS'specialist'
p37
I2
sS'off-again'
p38
I2
sS'interrupting'
p39
I2
sS'here'
p40
I12
sS'reported'
p41
I16
sS'china'
p42
I15
sS'pittsburgh-based'
p43
I2
sS'eg&g'
p44
I6
sS'calculate'
p45
I2
sS'substance'
p46
I2
sS'elaborate'
p47
I3
sS'climbed'
p48
I2
sS'reports'
p49
I10
sS'karim'
p50
I2
sS'neurologist'
p51
I4
sS'military'
p52
I9
sS'criticism'
p53
I2
sS'golden'
p54
I10
sS'replace'
p55
I3
sS'brought'
p56
I10
sS'unix'
p57
I4
sS'stern'
p58
I2
sS'scoffed'
p59
I2
sS'2008-2009'
p60
I2
sS'unit'
p61
I16
sS'opponents'
p62
I2
sS'spoke'
p63
I2
sS'music'
p64
I7
sS'bedrock'
p65
I2
sS'strike'
p66
I3
sS'heralded'
p67
I2
sS'2680'
p68
I2
sS'until'
p69
I18
sS'populations'
p70
I2
sS'successful'
p71
I7
sS'brings'
p72
I3
sS'hurt'
p73
I3
sS'99'
p74
I2
sS'98'
p75
I2
sS'5.16'
p76
I2
sS'hurl'
p77
I2
sS'90'
p78
I9
sS'hole'
p79
I3
sS'hold'
p80
I9
sS'94'
p81
I2
sS'circumstances'
p82
I4
sS'morally'
p83
I2
sS'pursue'
p84
I4
sS'self-styled'
p85
I2
sS'selections'
p86
I2
sS'plunged'
p87
I4
sS'rulings'
p88
I2
sS'13*slashhere*16'
p89
I2
sS'concepts'
p90
I2
sS'revenues'
p91
I2
sS'example'
p92
I15
sS'vanities'
p93
I2
sS'unjust'
p94
I2
sS'household'
p95
I2
sS'turkmenia'
p96
I2
sS'organized'
p97
I2
sS'currency'
p98
I3
sS'caution'
p99
I2
sS'want'
p100
I16
sS'automobile-parts'
p101
I2
sS'arenas'
p102
I2
sS'complaining'
p103
I2
sS'travel'
p104
I2
sS'damage'
p105
I7
sS'leaguers'
p106
I2
sS'machine'
p107
I16
sS'how'
p108
I32
sS'hot'
p109
I2
sS'casualty-loss'
p110
I2
sS'719,000'
p111
I2
sS'wrong'
p112
I4
sS'gottesman'
p113
I2
sS'types'
p114
I2
sS'effective'
p115
I8
sS'wins'
p116
I4
sS'attracts'
p117
I2
sS'headquarters'
p118
I2
sS'presiding'
p119
I2
sS'first-mortgage'
p120
I2
sS'18th'
p121
I2
sS'democratic'
p122
I4
sS'wing'
p123
I2
sS'wind'
p124
I2
sS'senators'
p125
I2
sS'welcomed'
p126
I2
sS'derring-do'
p127
I2
sS'reforms'
p128
I4
sS'vary'
p129
I3
sS'620'
p130
I2
sS'fidelity'
p131
I2
sS'bread-and-butter'
p132
I2
sS'ex-dividend'
p133
I2
sS'fit'
p134
I3
sS'72-game'
p135
I2
sS'fix'
p136
I2
sS'wales'
p137
I2
sS'hidden'
p138
I2
sS'easier'
p139
I4
sS'lambert'
p140
I2
sS'slate'
p141
I3
sS'educating'
p142
I3
sS'effects'
p143
I2
sS'yourself'
p144
I2
sS'slats'
p145
I3
sS'silver'
p146
I2
sS'represents'
p147
I3
sS'porsche-like'
p148
I2
sS'debut'
p149
I2
sS'pleasantries'
p150
I2
sS'financial'
p151
I21
sS'series'
p152
I13
sS'solution'
p153
I3
sS'raw-materials'
p154
I2
sS'substantially'
p155
I2
sS'laboratory'
p156
I7
sS'high-temperature'
p157
I2
sS'bnl'
p158
I7
sS'waive'
p159
I2
sS'george'
p160
I6
sS'encourage'
p161
I2
sS'engineer'
p162
I2
sS'assured'
p163
I2
sS'threatened'
p164
I2
sS'7.962'
p165
I2
sS'managerial'
p166
I2
sS'sensory'
p167
I3
sS'estimate'
p168
I2
sS'competes'
p169
I2
sS'bates'
p170
I2
sS'mosbacher'
p171
I2
sS'scruff'
p172
I2
sS'lorimar'
p173
I2
sS'r.'
p174
I6
sS'greenhouse-produced'
p175
I2
sS'108.8'
p176
I2
sS'speeds'
p177
I2
sS'subtlety'
p178
I2
sS'mingo'
p179
I6
sS'wash'
p180
I2
sS'179'
p181
I2
sS'seizures'
p182
I2
sS'exchequer'
p183
I2
sS'service'
p184
I13
sS'similarly'
p185
I3
sS'lawsuits'
p186
I5
sS'needed'
p187
I3
sS'master'
p188
I7
sS'listed'
p189
I5
sS'nz$'
p190
I2
sS'legs'
p191
I2
sS'bitter'
p192
I3
sS'ranging'
p193
I3
sS'rewards'
p194
I2
sS'collapse'
p195
I2
sS'geneva'
p196
I2
sS'aoyama'
p197
I2
sS'satisfaction'
p198
I2
sS'predictable'
p199
I2
sS'showed'
p200
I7
sS'tree'
p201
I2
sS'nations'
p202
I5
sS'project'
p203
I7
sS'273'
p204
I2
sS'feeling'
p205
I3
sS'acquisition'
p206
I10
sS'goya'
p207
I6
sS'willingness'
p208
I3
sS'boston'
p209
I8
sS'pigs'
p210
I3
sS'antagonistic'
p211
I2
sS'on-again'
p212
I2
sS'dozen'
p213
I2
sS'affairs'
p214
I4
sS'person'
p215
I6
sS'responsible'
p216
I6
sS'floating-rate'
p217
I3
sS'doors'
p218
I3
sS'283-132'
p219
I2
sS'elanco'
p220
I3
sS'concedes'
p221
I5
sS'even'
p222
I49
sS'shall'
p223
I2
sS'object'
p224
I2
sS'wells'
p225
I3
sS'simplify'
p226
I2
sS'affirmation'
p227
I2
sS'blackmailed'
p228
I2
sS'letter'
p229
I8
sS'entry'
p230
I2
sS'drought'
p231
I2
sS'thriller'
p232
I2
sS'dummy'
p233
I2
sS'singer'
p234
I3
sS'stupid'
p235
I2
sS'professor'
p236
I2
sS'camp'
p237
I3
sS'scream'
p238
I2
sS'came'
p239
I16
sS'saying'
p240
I7
sS'reactor'
p241
I4
sS'insects'
p242
I3
sS'meetings'
p243
I7
sS'echoing'
p244
I2
sS'gauge'
p245
I2
sS'participate'
p246
I4
sS'hungary'
p247
I3
sS'hounded'
p248
I2
sS'lessons'
p249
I2
sS'menu'
p250
I2
sS'wastewater'
p251
I4
sS'than'
p252
I94
sS'theme'
p253
I3
sS'rich'
p254
I2
sS'rice'
p255
I5
sS'capel'
p256
I3
sS'lady'
p257
I2
sS'plate'
p258
I3
sS'klein'
p259
I2
sS'higher-fat'
p260
I2
sS'honda'
p261
I10
sS'pocket'
p262
I2
sS'kinji'
p263
I2
sS'altogether'
p264
I4
sS'tips'
p265
I2
sS'looting'
p266
I2
sS'jaguar'
p267
I34
sS'patch'
p268
I2
sS'greene'
p269
I2
sS'three-year'
p270
I5
sS'release'
p271
I2
sS'saul'
p272
I2
sS'respond'
p273
I2
sS'programmatic'
p274
I2
sS'mandatory'
p275
I5
sS'disaster'
p276
I2
sS'unexpectedly'
p277
I2
sS'result'
p278
I17
sS'fail'
p279
I3
sS'resigned'
p280
I7
sS'best'
p281
I9
sS'sedans'
p282
I4
sS'shupe'
p283
I2
sS'lots'
p284
I5
sS'irs'
p285
I16
sS'ira'
p286
I2
sS'pirate'
p287
I2
sS'entrekin'
p288
I2
sS'preserve'
p289
I2
sS'wage'
p290
I16
sS'40.9'
p291
I2
sS'extend'
p292
I5
sS'nature'
p293
I5
sS'felony'
p294
I2
sS'superficial'
p295
I2
sS'agnelli-related'
p296
I2
sS'debt'
p297
I12
sS'well-lighted'
p298
I2
sS'pity'
p299
I2
sS'accident'
p300
I2
sS'country'
p301
I16
sS'heating'
p302
I2
sS'demanded'
p303
I2
sS'planned'
p304
I7
sS'argue'
p305
I6
sS'asked'
p306
I14
sS'irresponsible'
p307
I4
sS'active'
p308
I6
sS'250'
p309
I4
sS'251'
p310
I3
sS'five-by-eight-inch'
p311
I2
sS'contestants'
p312
I2
sS'billing'
p313
I2
sS'holdings'
p314
I4
sS'30-year-old'
p315
I2
sS'.'
I1943
sS'much'
p316
I42
sS'stadium'
p317
I3
sS'privilege'
p318
I6
sS'tallest'
p319
I2
sS'renk'
p320
I3
sS'life'
p321
I7
sS'homeland'
p322
I2
sS'eastern'
p323
I27
sS'hospitalized'
p324
I2
sS'worker'
p325
I2
sS'irving'
p326
I2
sS'dave'
p327
I2
sS'lift'
p328
I4
sS'worked'
p329
I4
sS'excorciate'
p330
I2
sS'1466.29'
p331
I2
sS'commerce'
p332
I6
sS'castro'
p333
I3
sS'appeals'
p334
I2
sS'bognato'
p335
I3
sS'played'
p336
I6
sS'player'
p337
I4
sS'electromagnets'
p338
I2
sS'upscale'
p339
I4
sS'trustee'
p340
I2
sS'hong'
p341
I8
sS'things'
p342
I13
sS'feuding'
p343
I3
sS'achenbaum'
p344
I20
sS'babies'
p345
I2
sS'european'
p346
I9
sS'fairly'
p347
I4
sS'effortlessly'
p348
I2
sS'pontiac'
p349
I2
sS'middle-aged'
p350
I3
sS'marched'
p351
I2
sS'ownership'
p352
I3
sS'pioneers'
p353
I2
sS'tune'
p354
I4
sS'midsized'
p355
I3
sS'tribune-democrat'
p356
I2
sS'academic'
p357
I3
sS'academia'
p358
I2
sS'corporate'
p359
I15
sS'maxima'
p360
I3
sS'spurred'
p361
I2
sS'financially'
p362
I2
sS'uncombed'
p363
I2
sS'plight'
p364
I2
sS'succeeding'
p365
I7
sS'previous'
p366
I7
sS'ease'
p367
I5
sS'had'
p368
I91
sS'nuances'
p369
I2
sS'innocent'
p370
I2
sS'prison'
p371
I2
sS'manfred'
p372
I2
sS'has'
p373
I176
sS'municipal'
p374
I2
sS'casually'
p375
I2
sS'posed'
p376
I3
sS'possible'
p377
I13
sS'possibly'
p378
I3
sS'anthers'
p379
I5
sS'unique'
p380
I2
sS'desire'
p381
I3
sS'alice'
p382
I2
sS'festivities'
p383
I2
sS'steps'
p384
I2
sS'misdemeanors'
p385
I2
sS'attorney'
p386
I14
sS'right'
p387
I16
sS'old'
p388
I16
sS'crowd'
p389
I3
sS'people'
p390
I26
sS'topping'
p391
I2
sS'consultants'
p392
I3
sS'insistence'
p393
I2
sS'fiduciary'
p394
I2
sS'enemies'
p395
I2
sS'27.125'
p396
I2
sS'for'
p397
I430
sS'bottom'
p398
I2
sS'myung'
p399
I2
sS'creative'
p400
I4
sS'contributing'
p401
I3
sS'continue'
p402
I10
sS'summoned'
p403
I2
sS'eduard'
p404
I3
sS'6,000'
p405
I2
sS'binder'
p406
I2
sS'defensive'
p407
I2
sS'losing'
p408
I2
sS'brokerage'
p409
I3
sS'manufacturing'
p410
I7
sS'shaken'
p411
I2
sS'marketers'
p412
I4
sS'filipino'
p413
I2
sS'dollars'
p414
I6
sS'citizens'
p415
I2
sS'bicentennial'
p416
I2
sS'annualized'
p417
I2
sS'reps.'
p418
I2
sS'suggestions'
p419
I2
sS'slightly'
p420
I3
sS'lifland'
p421
I2
sS'nixon'
p422
I3
sS'barred'
p423
I2
sS'consulting'
p424
I9
sS'statements'
p425
I3
sS'facility'
p426
I2
sS'material'
p427
I3
sS'son'
p428
I3
sS'administer'
p429
I3
sS'presenters'
p430
I2
sS'rome-based'
p431
I2
sS'magazines'
p432
I4
sS'sow'
p433
I2
sS'consumer-products'
p434
I2
sS'sox'
p435
I4
sS'defendants'
p436
I3
sS'schimberg'
p437
I2
sS'fabric'
p438
I3
sS'support'
p439
I11
sS'solicitors'
p440
I2
sS'one-time'
p441
I3
sS'joseph'
p442
I2
sS'british-owned'
p443
I2
sS'authorized'
p444
I3
sS'resulted'
p445
I4
sS'halls'
p446
I2
sS'launching'
p447
I2
sS'therefore'
p448
I2
sS'manufacturers'
p449
I4
sS'nonvoting'
p450
I2
sS'grass-roots'
p451
I2
sS'talents'
p452
I2
sS'unamended'
p453
I2
sS'robertson'
p454
I2
sS'2,750'
p455
I2
sS'nov.'
p456
I19
sS'inside'
p457
I2
sS'devices'
p458
I12
sS'stolzman'
p459
I2
sS'jan.'
p460
I3
sS'stonemason'
p461
I2
sS'refillable'
p462
I3
sS'151'
p463
I2
sS'150'
p464
I9
sS'153'
p465
I2
sS'later'
p466
I13
sS'proved'
p467
I2
sS'157'
p468
I2
sS'156'
p469
I3
sS'steady'
p470
I4
sS"''"
p471
I267
sS'proves'
p472
I2
sS'accounting'
p473
I5
sS'dealer'
p474
I3
sS'negotiations'
p475
I5
sS'lees'
p476
I2
sS'eventual'
p477
I2
sS'floor'
p478
I4
sS'relax'
p479
I2
sS'cambodia'
p480
I3
sS'flood'
p481
I2
sS'role'
p482
I8
sS'ambitious'
p483
I2
sS'developers'
p484
I3
sS'roll'
p485
I3
sS'greenery'
p486
I3
sS"'s"
p487
I481
sS'palms'
p488
I2
sS'get-together'
p489
I3
sS'models'
p490
I4
sS'pitcher-coach'
p491
I2
sS"'d"
p492
I5
sS'intent'
p493
I2
sS'miranda'
p494
I2
sS'rolling'
p495
I3
sS"'m"
p496
I8
sS'shootout'
p497
I2
sS'reorganization'
p498
I4
sS'kgb'
p499
I4
sS'time'
p500
I51
sS'push'
p501
I3
sS'overturned'
p502
I2
sS'cincinnati'
p503
I3
sS'chain'
p504
I4
sS'resources'
p505
I6
sS'chair'
p506
I2
sS'93'
p507
I2
sS'92'
p508
I3
sS'oversight'
p509
I2
sS'bogus'
p510
I2
sS'prepaid'
p511
I3
sS'choice'
p512
I3
sS'gloomy'
p513
I2
sS'drexel'
p514
I2
sS'remora'
p515
I2
sS'stays'
p516
I2
sS'corp.'
p517
I44
sS'short-range'
p518
I2
sS'unificationism'
p519
I2
sS'leave'
p520
I7
sS'settle'
p521
I2
sS'team'
p522
I15
sS'depository'
p523
I2
sS'speculation'
p524
I2
sS'bonfire'
p525
I2
sS'prevent'
p526
I5
sS'findings'
p527
I2
sS'trails'
p528
I2
sS'soft-spoken'
p529
I2
sS'sign'
p530
I5
sS'sino-british'
p531
I2
sS'hewlett-packard'
p532
I4
sS'takashi'
p533
I2
sS'current'
p534
I14
sS'falling'
p535
I2
sS'boost'
p536
I7
sS'drafted'
p537
I2
sS'jury'
p538
I11
sS'exceptions'
p539
I3
sS'address'
p540
I2
sS'alone'
p541
I5
sS'along'
p542
I8
sS'passengers'
p543
I3
sS'financiers'
p544
I2
sS'brilliant'
p545
I2
sS'studied'
p546
I2
sS'funded'
p547
I2
sS'brazilian'
p548
I3
sS'accomplished'
p549
I2
sS'studies'
p550
I6
sS'reclaim'
p551
I2
sS'tasks'
p552
I2
sS'love'
p553
I2
sS'prefer'
p554
I4
sS'bloody'
p555
I2
sS'fake'
p556
I3
sS'sky'
p557
I2
sS'working'
p558
I11
sS'positive'
p559
I4
sS'angry'
p560
I2
sS'tightly'
p561
I2
sS'opposed'
p562
I3
sS'films'
p563
I2
sS'scope'
p564
I3
sS'``'
p565
I356
sS'afford'
p566
I2
sS'subsistence'
p567
I2
sS'apparent'
p568
I2
sS'refrain'
p569
I3
sS'honed'
p570
I2
sS'non-family'
p571
I2
sS'sierra'
p572
I2
sS'visual'
p573
I2
sS'virtue'
p574
I3
sS'behalf'
p575
I5
sS'honey'
p576
I2
sS'valued'
p577
I4
sS'md-80'
p578
I2
sS'originally'
p579
I5
sS'pretend'
p580
I2
sS'believes'
p581
I5
sS'impasse'
p582
I2
sS'zhao'
p583
I2
sS'printing'
p584
I3
sS'values'
p585
I3
sS'stature'
p586
I2
sS'believed'
p587
I3
sS'1*slashhere*4'
p588
I4
sS'1*slashhere*2'
p589
I8
sS'awesome'
p590
I2
sS'french-speaking'
p591
I2
sS'mrs.'
p592
I14
sS'allowed'
p593
I7
sS'230'
p594
I2
sS'gimmickry'
p595
I2
sS'savor'
p596
I2
sS's.'
p597
I3
sS'coleman'
p598
I2
sS'five-year'
p599
I3
sS'landmark'
p600
I3
sS'rigors'
p601
I2
sS'spot'
p602
I2
sS'kalison'
p603
I2
sS'applications'
p604
I2
sS'sideline'
p605
I2
sS'date'
p606
I4
sS'such'
p607
I65
sS'acceptances'
p608
I2
sS'data'
p609
I10
sS'natural'
p610
I5
sS'sectors'
p611
I3
sS'biographical'
p612
I2
sS'sclerosis'
p613
I2
sS'so'
p614
I57
sS'tadahiko'
p615
I2
sS'skirmish'
p616
I2
sS'pulled'
p617
I3
sS'12.75'
p618
I2
sS'seven-bedroom'
p619
I2
sS'montgolfier'
p620
I2
sS'flips'
p621
I2
sS'years'
p622
I77
sS'hiring'
p623
I3
sS'bucking'
p624
I2
sS'tendency'
p625
I2
sS'middle-management'
p626
I2
sS'limbs'
p627
I2
sS'overhaul'
p628
I2
sS'thumb'
p629
I3
sS'lackluster'
p630
I2
sS'jim'
p631
I2
sS'troubles'
p632
I3
sS'aviv'
p633
I2
sS'attraction'
p634
I2
sS'suspicion'
p635
I2
sS'suspension'
p636
I3
sS'troubled'
p637
I4
sS'decades'
p638
I2
sS'petition'
p639
I2
sS'militant'
p640
I2
sS'thereby'
p641
I4
sS'm.w.'
p642
I2
sS'nation'
p643
I10
sS'records'
p644
I10
sS'concocts'
p645
I2
sS'compelled'
p646
I3
sS'non-brain'
p647
I2
sS'maintaining'
p648
I2
sS'establishing'
p649
I2
sS'quarter'
p650
I12
sS'repaired'
p651
I2
sS'quartet'
p652
I3
sS'square'
p653
I4
sS'retrieve'
p654
I2
sS'178.5'
p655
I2
sS'178.9'
p656
I2
sS'beloved'
p657
I2
sS'bovine'
p658
I2
sS'entering'
p659
I2
sS'canvas'
p660
I2
sS'beauty'
p661
I2
sS'squared'
p662
I2
sS'seriously'
p663
I3
sS'investigation'
p664
I6
sS'suggesting'
p665
I3
sS'formula'
p666
I3
sS'uptempo'
p667
I2
sS'sheffield'
p668
I2
sS'million'
p669
I139
sS'possibility'
p670
I4
sS'loyalty'
p671
I2
sS'ontario'
p672
I3
sS'complicated'
p673
I2
sS'plea'
p674
I5
sS'cahoon'
p675
I2
sS'training'
p676
I16
sS'distilled'
p677
I2
sS'modest'
p678
I5
sS'chevy'
p679
I3
sS'undesirable'
p680
I3
sS'neglect'
p681
I2
sS'spoken'
p682
I3
sS'clause'
p683
I3
sS'one'
p684
I103
sS'specifically'
p685
I3
sS'spanish'
p686
I2
sS'vote'
p687
I6
sS'potted'
p688
I2
sS'open'
p689
I10
sS'kuan'
p690
I2
sS'city'
p691
I8
sS'wrath'
p692
I2
sS'bite'
p693
I2
sS'structured'
p694
I3
sS'36-year-old'
p695
I2
sS'indicate'
p696
I2
sS'2'
I10
sS'draft'
p697
I2
sS'cite'
p698
I2
sS'suit'
p699
I6
sS'12,275'
p700
I2
sS'forward'
p701
I2
sS'ridiculous'
p702
I2
sS'slashed'
p703
I2
sS'specialists'
p704
I2
sS'surged'
p705
I2
sS'inventor'
p706
I2
sS':'
I76
sS'conn.'
p707
I4
sS'depressed'
p708
I3
sS'rival'
p709
I3
sS'unprecedented'
p710
I2
sS'future'
p711
I11
sS'glossy'
p712
I3
sS'cavalier'
p713
I2
sS'youths'
p714
I2
sS'dutifully'
p715
I2
sS'sao'
p716
I2
sS'san'
p717
I4
sS'sam'
p718
I2
sS'royalties'
p719
I2
sS'drogoul'
p720
I2
sS'turned'
p721
I4
sS'argument'
p722
I3
sS'alley'
p723
I2
sS'sad'
p724
I2
sS'picketing'
p725
I2
sS'say'
p726
I37
sS'financier'
p727
I2
sS'borough'
p728
I2
sS'saw'
p729
I2
sS'sat'
p730
I3
sS'serials'
p731
I2
sS'fashionable'
p732
I3
sS'aside'
p733
I7
sS'zoo'
p734
I2
sS'note'
p735
I6
sS'goodman'
p736
I2
sS'283.9'
p737
I2
sS'take'
p738
I20
sS'destroy'
p739
I2
sS'concern'
p740
I19
sS'high-technology'
p741
I2
sS'ironically'
p742
I2
sS'altered'
p743
I2
sS'opposite'
p744
I3
sS'staffed'
p745
I2
sS'backlogs'
p746
I2
sS'airing'
p747
I3
sS'printed'
p748
I2
sS'remarks'
p749
I3
sS'knee'
p750
I2
sS'inserted'
p751
I3
sS'pages'
p752
I3
sS'lawn'
p753
I2
sS'average'
p754
I25
sS'farmers'
p755
I3
sS'trifari'
p756
I4
sS'drive'
p757
I5
sS'sodas'
p758
I2
sS'ways'
p759
I8
sS'9.192'
p760
I2
sS'mass.'
p761
I5
sS'liquidity'
p762
I3
sS'low-base-price'
p763
I2
sS'laws'
p764
I4
sS'walking'
p765
I2
sS'q45'
p766
I2
sS'surplus'
p767
I2
sS'sales-tax'
p768
I2
sS'bright'
p769
I2
sS'aggressive'
p770
I7
sS'slow'
p771
I5
sS'cloak'
p772
I2
sS'tears'
p773
I2
sS'going'
p774
I19
sS'outrage'
p775
I2
sS'robe'
p776
I2
sS'azoff'
p777
I5
sS'congressional'
p778
I12
sS'carolina'
p779
I3
sS'misdemeanor'
p780
I2
sS'assistant'
p781
I5
sS'outlet'
p782
I2
sS'prime'
p783
I6
sS'krishna'
p784
I2
sS'borrow'
p785
I2
sS'worried'
p786
I5
sS'roger'
p787
I3
sS'where'
p788
I19
sS'top-level'
p789
I2
sS'surgery'
p790
I7
sS'individual-retirement-account'
p791
I2
sS'untapped'
p792
I2
sS'jumped'
p793
I2
sS'representatives'
p794
I2
sS'dormitory'
p795
I2
sS'affecting'
p796
I2
sS'enjoys'
p797
I2
sS'jobs'
p798
I7
sS'last-minute'
p799
I2
sS'screen'
p800
I2
sS'concentrate'
p801
I3
sS'spare'
p802
I2
sS'jets'
p803
I2
sS'spark'
p804
I3
sS'uncharacteristically'
p805
I2
sS'abramson'
p806
I2
sS'undermine'
p807
I2
sS'many'
p808
I35
sS'paring'
p809
I2
sS'concentrates'
p810
I2
sS'now-defunct'
p811
I2
sS'sprays'
p812
I3
sS'testimonial'
p813
I2
sS'stretch'
p814
I2
sS'west'
p815
I18
sS'locally'
p816
I2
sS'airlines'
p817
I8
sS'combined'
p818
I3
sS'motives'
p819
I3
sS'prototype'
p820
I2
sS'wants'
p821
I7
sS'enable'
p822
I3
sS'accusatory'
p823
I2
sS'thousand'
p824
I2
sS'formed'
p825
I3
sS'centerpiece'
p826
I3
sS'photos'
p827
I2
sS'former'
p828
I25
sS'consultant'
p829
I7
sS'engineering'
p830
I7
sS'rancor'
p831
I2
sS'policies'
p832
I4
sS'pennzoil'
p833
I3
sS'newspaper'
p834
I5
sS'situation'
p835
I5
sS'spotlight'
p836
I2
sS'brow'
p837
I2
sS'non-japanese'
p838
I2
sS'engaged'
p839
I2
sS'dubious'
p840
I2
sS'13.5'
p841
I2
sS'technology'
p842
I8
sS'13.3'
p843
I2
sS'13.1'
p844
I2
sS'research-based'
p845
I2
sS'550,000'
p846
I2
sS'otto'
p847
I2
sS'workout'
p848
I2
sS'cramming'
p849
I2
sS'breakdown'
p850
I2
sS'oceanographic'
p851
I2
sS'singapore'
p852
I16
sS'boosted'
p853
I3
sS'reverts'
p854
I2
sS'wpp'
p855
I3
sS'domineering'
p856
I2
sS'barber'
p857
I2
sS'recapture'
p858
I2
sS'tracking'
p859
I2
sS'bailiff'
p860
I2
sS'peculiarities'
p861
I2
sS'costs'
p862
I14
sS'779.8'
p863
I2
sS'sunnyvale'
p864
I2
sS'trains'
p865
I3
sS'minpeco'
p866
I3
sS'gdp'
p867
I3
sS'summer'
p868
I7
sS'koreagate'
p869
I2
sS'being'
p870
I31
sS'rest'
p871
I9
sS'safeguards'
p872
I2
sS'recycled'
p873
I4
sS'weekly'
p874
I2
sS'instrument'
p875
I2
sS'brezinski'
p876
I2
sS'dicks'
p877
I2
sS'tadzhikistan'
p878
I2
sS'aspects'
p879
I4
sS'around'
p880
I8
sS'rejoin'
p881
I3
sS'unveil'
p882
I2
sS'gestures'
p883
I2
sS'spokespersons'
p884
I2
sS'traffic'
p885
I4
sS'preference'
p886
I3
sS'world'
p887
I32
sS'postal'
p888
I3
sS'dare'
p889
I2
sS'okobank'
p890
I2
sS'intel'
p891
I2
sS'amputation'
p892
I2
sS'clad'
p893
I2
sS'discarded'
p894
I2
sS'tsunami'
p895
I2
sS'superiority'
p896
I3
sS'offenders'
p897
I2
sS'seating'
p898
I2
sS'superintendent'
p899
I2
sS'landowner'
p900
I2
sS'100-share'
p901
I2
sS'368.3'
p902
I2
sS'13.50'
p903
I2
sS'memories'
p904
I2
sS'noon'
p905
I2
sS'graeme'
p906
I2
sS'lucid'
p907
I2
sS'unsuccessfully'
p908
I2
sS'scientific'
p909
I4
sS'power'
p910
I27
sS'retains'
p911
I3
sS'gauloises'
p912
I2
sS'windfalls'
p913
I2
sS'leadership'
p914
I5
sS'inflation-adjusted'
p915
I2
sS'ducking'
p916
I2
sS'stone'
p917
I2
sS'industry'
p918
I19
sS'favorite'
p919
I4
sS'meal'
p920
I2
sS'tumor'
p921
I2
sS'act'
p922
I7
sS'johnston'
p923
I2
sS'bond'
p924
I9
sS'image'
p925
I6
sS'parties'
p926
I2
sS'legacy'
p927
I2
sS'her'
p928
I21
sS'philadelphia'
p929
I3
sS'sealed'
p930
I3
sS'garment'
p931
I2
sS'capital-raising'
p932
I2
sS'innovated'
p933
I2
sS'survives'
p934
I2
sS'complete'
p935
I7
sS'saatchi'
p936
I3
sS'tailored'
p937
I2
sS'survived'
p938
I2
sS'elimination'
p939
I3
sS'technologies'
p940
I6
sS'aide'
p941
I2
sS'with'
p942
I256
sS'buying'
p943
I10
sS'abused'
p944
I2
sS'pull'
p945
I3
sS'regimen'
p946
I2
sS'miss.'
p947
I2
sS'rage'
p948
I2
sS'nearest'
p949
I2
sS'31.1'
p950
I2
sS'8.019'
p951
I2
sS'dependents'
p952
I2
sS'politically'
p953
I3
sS'trips'
p954
I2
sS'kirgizia'
p955
I3
sS'detailed'
p956
I3
sS'gone'
p957
I4
sS'ad'
p958
I14
sS'ag'
p959
I2
sS'pinpointed'
p960
I2
sS'certain'
p961
I15
sS'stealing'
p962
I2
sS'am'
p963
I10
sS'al'
p964
I3
sS'mundo'
p965
I2
sS'an'
p966
I169
sS'as'
p967
I239
sS'ensuing'
p968
I2
sS'yokohama'
p969
I2
sS'aids'
p970
I2
sS'watched'
p971
I4
sS'appalling'
p972
I2
sS'cream'
p973
I2
sS'nomura'
p974
I13
sS'moniker'
p975
I2
sS'yogi'
p976
I2
sS'abolish'
p977
I2
sS'tight'
p978
I2
sS'summit'
p979
I7
sS'near-luxury'
p980
I2
sS'deterrant'
p981
I2
sS'congress'
p982
I11
sS'forgettable'
p983
I2
sS'a.'
p984
I14
sS'planners'
p985
I2
sS'tricky'
p986
I2
sS'eight-time'
p987
I2
sS'waived'
p988
I2
sS'tricks'
p989
I3
sS'mass'
p990
I3
sS'nelson'
p991
I2
sS'dyes'
p992
I2
sS'original'
p993
I6
sS'7.14'
p994
I2
sS'neige'
p995
I2
sS'consider'
p996
I7
sS'caused'
p997
I7
sS'daignault'
p998
I2
sS'ceramic'
p999
I2
sS'tours'
p1000
I3
sS'minicar'
p1001
I2
sS'mason'
p1002
I4
sS'improperly'
p1003
I2
sS'tv'
p1004
I7
sS'riots'
p1005
I2
sS'to'
p1006
I1116
sS'paying'
p1007
I4
sS'khmer'
p1008
I4
sS'calif.'
p1009
I10
sS'returned'
p1010
I2
sS'candid'
p1011
I2
sS'existing'
p1012
I2
sS'condition'
p1013
I2
sS'`'
I7
sS'long-simmering'
p1014
I2
sS'cable'
p1015
I3
sS'venezuela'
p1016
I3
sS'laying'
p1017
I2
sS'joined'
p1018
I2
sS'large'
p1019
I15
sS'deja'
p1020
I2
sS'sand'
p1021
I3
sS'harry'
p1022
I2
sS'small'
p1023
I17
sS'pozen'
p1024
I2
sS'j.p.'
p1025
I3
sS'penalties'
p1026
I4
sS'paso'
p1027
I2
sS'past'
p1028
I23
sS'displays'
p1029
I2
sS'pass'
p1030
I3
sS'investment'
p1031
I24
sS'offbeat'
p1032
I2
sS'richard'
p1033
I11
sS'section'
p1034
I6
sS'trend-setters'
p1035
I2
sS'neave'
p1036
I4
sS'scientists'
p1037
I6
sS'super-user'
p1038
I2
sS'contrast'
p1039
I2
sS'full'
p1040
I10
sS'leaping'
p1041
I2
sS'timberlands'
p1042
I2
sS'hours'
p1043
I4
sS'smartest'
p1044
I2
sS'november'
p1045
I5
sS'backlash'
p1046
I2
sS'compliance'
p1047
I3
sS'showrooms'
p1048
I2
sS'experience'
p1049
I6
sS'prior'
p1050
I3
sS'social'
p1051
I4
sS'action'
p1052
I10
sS'via'
p1053
I8
sS'followed'
p1054
I7
sS'enactment'
p1055
I2
sS'mohandas'
p1056
I2
sS'whimsically'
p1057
I2
sS'pulls'
p1058
I2
sS'coercion'
p1059
I2
sS'select'
p1060
I2
sS'montgoris'
p1061
I2
sS'objectives'
p1062
I2
sS'pitching'
p1063
I2
sS'6'
I9
sS'more'
p1064
I114
sS'door'
p1065
I2
sS'befitting'
p1066
I2
sS'initiated'
p1067
I2
sS'company'
p1068
I106
sS'enormous'
p1069
I2
sS'big-name'
p1070
I2
sS'tested'
p1071
I3
sS'objections'
p1072
I2
sS'cult'
p1073
I3
sS'keeping'
p1074
I7
sS'science'
p1075
I2
sS'sent'
p1076
I7
sS'morgan'
p1077
I8
sS'male'
p1078
I10
sS'mehl'
p1079
I3
sS'prompt'
p1080
I2
sS'stated'
p1081
I2
sS'neglected'
p1082
I2
sS'accept'
p1083
I3
sS'states'
p1084
I11
sS'fiercely'
p1085
I2
sS'sense'
p1086
I5
sS'dress'
p1087
I2
sS'tapestry'
p1088
I2
sS'information'
p1089
I10
sS'imminent'
p1090
I2
sS'hugo'
p1091
I3
sS'conventioners'
p1092
I2
sS'earnings'
p1093
I17
sS'hugs'
p1094
I2
sS'plant'
p1095
I28
sS'534,000'
p1096
I2
sS'seoul'
p1097
I4
sS'1970s'
p1098
I4
sS'mapping'
p1099
I2
sS'plane'
p1100
I5
sS'ethics'
p1101
I2
sS'acquisitions'
p1102
I6
sS'refuse'
p1103
I2
sS'resemble'
p1104
I2
sS'register'
p1105
I2
sS'broadcasting'
p1106
I4
sS'fundamental'
p1107
I3
sS'functionaries'
p1108
I2
sS'greats'
p1109
I3
sS'adorned'
p1110
I2
sS'fraser'
p1111
I4
sS'trade'
p1112
I13
sS'wide-ranging'
p1113
I2
sS'redefinition'
p1114
I2
sS'attitude'
p1115
I3
sS'embassy'
p1116
I2
sS'scott'
p1117
I4
sS'signs'
p1118
I3
sS'itt'
p1119
I2
sS'its'
p1120
I161
sS'rapidly'
p1121
I3
sS'sumitomo'
p1122
I3
sS'gerald'
p1123
I2
sS'novametrix'
p1124
I2
sS'inquiry'
p1125
I6
sS'ally'
p1126
I3
sS'tentatively'
p1127
I2
sS'subtitled'
p1128
I2
sS'anti-hooligan'
p1129
I2
sS'stewed'
p1130
I2
sS'purdue'
p1131
I2
sS'always'
p1132
I4
sS'assemblies'
p1133
I2
sS'loosely'
p1134
I2
sS'courses'
p1135
I2
sS'found'
p1136
I7
sS'chipping'
p1137
I2
sS'investigators'
p1138
I3
sS'week'
p1139
I22
sS'england'
p1140
I3
sS'8.337'
p1141
I2
sS'reduce'
p1142
I4
sS'slowdown'
p1143
I2
sS'measurement'
p1144
I2
sS'advertisers'
p1145
I3
sS'operation'
p1146
I9
sS'really'
p1147
I9
sS'anxious'
p1148
I2
sS'scoops'
p1149
I2
sS'research'
p1150
I14
sS'ministerial'
p1151
I2
sS'discounting'
p1152
I2
sS'non-callable'
p1153
I2
sS'stock-margin'
p1154
I2
sS'risen'
p1155
I3
sS'drifting'
p1156
I2
sS'sparked'
p1157
I2
sS'cockpit'
p1158
I2
sS'qualify'
p1159
I2
sS'proxy'
p1160
I2
sS'rises'
p1161
I2
sS'director'
p1162
I21
sS'positioning'
p1163
I2
sS'major'
p1164
I28
sS'kirkendall'
p1165
I2
sS'thereafter'
p1166
I2
sS'number'
p1167
I17
sS'heads'
p1168
I3
sS'introduction'
p1169
I2
sS'avec'
p1170
I2
sS'threatening'
p1171
I2
sS'heady'
p1172
I2
sS'calculations'
p1173
I2
sS'dfc'
p1174
I2
sS'relationship'
p1175
I12
sS'seagram'
p1176
I8
sS'interviewed'
p1177
I2
sS'appreciation'
p1178
I3
sS'satirical'
p1179
I2
sS'demonstrations'
p1180
I7
sS'focusing'
p1181
I2
sS'grace'
p1182
I2
sS'observatory'
p1183
I2
sS'aaa'
p1184
I2
sS'carla'
p1185
I2
sS'pennsylvania'
p1186
I9
sS'determined'
p1187
I2
sS'marriage'
p1188
I3
sS'defect'
p1189
I2
sS'guarding'
p1190
I2
sS'vitally'
p1191
I2
sS'sell'
p1192
I19
sS'destabilizing'
p1193
I2
sS'extorted'
p1194
I2
sS'jeopardize'
p1195
I2
sS'also'
p1196
I75
sS'internal'
p1197
I7
sS'play'
p1198
I7
sS'monastery'
p1199
I2
sS'edison'
p1200
I2
sS'anti-takeover'
p1201
I2
sS'virus'
p1202
I2
sS'shake-up'
p1203
I2
sS'plan'
p1204
I22
sS'defections'
p1205
I3
sS'toronto-based'
p1206
I2
sS'arson'
p1207
I2
sS'sometimes'
p1208
I4
sS'cover'
p1209
I5
sS'three-month'
p1210
I5
sS'proliferated'
p1211
I2
sS'dragged'
p1212
I2
sS'golf'
p1213
I4
sS'gold'
p1214
I5
sS'defended'
p1215
I2
sS'session'
p1216
I7
sS'freight'
p1217
I2
sS'occupation'
p1218
I2
sS'impact'
p1219
I4
sS'indicator'
p1220
I2
sS'keychain'
p1221
I2
sS'writer'
p1222
I4
sS'189.8'
p1223
I2
sS'failed'
p1224
I10
sS'condom'
p1225
I3
sS'factor'
p1226
I2
sS'indifference'
p1227
I2
sS'giants'
p1228
I3
sS'banned'
p1229
I2
sS'closely'
p1230
I8
sS'reporters'
p1231
I4
sS'enemy'
p1232
I2
sS'railbikes'
p1233
I2
sS'debt-equity'
p1234
I4
sS'banking'
p1235
I6
sS'weaver'
p1236
I4
sS'river'
p1237
I4
sS'manger'
p1238
I2
sS'set'
p1239
I17
sS'activists'
p1240
I2
sS'instituted'
p1241
I2
sS'potent'
p1242
I2
sS'sex'
p1243
I2
sS'see'
p1244
I12
sS'sec'
p1245
I13
sS'gas-turbine'
p1246
I2
sS'sen'
p1247
I3
sS'institutes'
p1248
I4
sS'aberdeen'
p1249
I2
sS'seminars'
p1250
I2
sS'#'
I2
sS'spirits'
p1251
I2
sS'movie'
p1252
I2
sS'currently'
p1253
I9
sS'pickup'
p1254
I2
sS'europe'
p1255
I22
sS'targeted'
p1256
I5
sS'brewing'
p1257
I3
sS'incident'
p1258
I2
sS'dividend'
p1259
I6
sS'legislature'
p1260
I2
sS'prospects'
p1261
I2
sS'rennie'
p1262
I2
sS'last'
p1263
I39
sS'barely'
p1264
I4
sS'slogans'
p1265
I2
sS'timorous'
p1266
I2
sS'long-term'
p1267
I7
sS'toxicology'
p1268
I2
sS'whole'
p1269
I9
sS'messiah'
p1270
I2
sS'soundings'
p1271
I2
sS'electrician'
p1272
I2
sS'bell'
p1273
I3
sS'loan'
p1274
I16
sS'community'
p1275
I6
sS'rosa'
p1276
I2
sS'agents'
p1277
I3
sS'church'
p1278
I16
sS'publishing'
p1279
I2
sS'monthly'
p1280
I9
sS'12-inches'
p1281
I2
sS'suburbs'
p1282
I2
sS'incentive-backed'
p1283
I2
sS'decades-old'
p1284
I2
sS'firm'
p1285
I13
sS'sweetheart'
p1286
I2
sS'fire'
p1287
I4
sS'then-21'
p1288
I2
sS'mine'
p1289
I3
sS'fund'
p1290
I25
sS'awake'
p1291
I2
sS'representative'
p1292
I4
sS'insiders'
p1293
I9
sS'handling'
p1294
I2
sS'judicial'
p1295
I6
sS'straight'
p1296
I4
sS'expanded'
p1297
I2
sS'budget'
p1298
I12
sS'technical'
p1299
I4
sS'error'
p1300
I2
sS'budged'
p1301
I2
sS'owed'
p1302
I4
sS'hoping'
p1303
I2
sS'backing'
p1304
I2
sS'dotting'
p1305
I2
sS'motors'
p1306
I7
sS'dabney'
p1307
I2
sS'centennial'
p1308
I2
sS'owes'
p1309
I2
sS'coca-cola'
p1310
I5
sS'chase'
p1311
I5
sS'cuisine'
p1312
I2
sS'caygill'
p1313
I2
sS'pacemakers'
p1314
I2
sS'savings-and-loan'
p1315
I2
sS'872'
p1316
I2
sS'shorter'
p1317
I2
sS'rules'
p1318
I8
sS'virtually'
p1319
I4
sS'survey'
p1320
I3
sS'cardholders'
p1321
I2
sS'alert'
p1322
I4
sS'nondeductible'
p1323
I2
sS'levels'
p1324
I6
sS'{'
I19
sS'infamous'
p1325
I2
sS'recent'
p1326
I18
sS'then-president'
p1327
I2
sS'surrogate'
p1328
I2
sS'alleging'
p1329
I4
sS'immigrant'
p1330
I2
sS'concrete'
p1331
I2
sS'ltd.'
p1332
I5
sS'hypothesized'
p1333
I2
sS'schedules'
p1334
I2
sS'50.1'
p1335
I2
sS'readers'
p1336
I3
sS'surprises'
p1337
I3
sS'signals'
p1338
I2
sS'rangers'
p1339
I2
sS'snappy'
p1340
I2
sS'parents'
p1341
I4
sS'location'
p1342
I2
sS'sydney'
p1343
I2
sS'waleson'
p1344
I2
sS'ruled'
p1345
I5
sS'out-and-out'
p1346
I2
sS'disobey'
p1347
I2
sS'surprised'
p1348
I5
sS'australia'
p1349
I5
sS'victims'
p1350
I5
sS'emergency'
p1351
I3
sS'demands'
p1352
I3
sS'couple'
p1353
I2
sS'1099'
p1354
I2
sS'7.55'
p1355
I2
sS'high-ranking'
p1356
I2
sS'baskets'
p1357
I3
sS'projects'
p1358
I10
sS'formal'
p1359
I6
sS'sorting'
p1360
I2
sS'imposed'
p1361
I2
sS'dai-ichi'
p1362
I2
sS'spine'
p1363
I2
sS'ex-accountant'
p1364
I2
sS'consensus'
p1365
I2
sS'communications'
p1366
I9
sS'individuals'
p1367
I3
sS'yields'
p1368
I13
sS'reduces'
p1369
I2
sS'spins'
p1370
I2
sS'names'
p1371
I4
sS'senate'
p1372
I8
sS'spring'
p1373
I5
sS'b.'
p1374
I4
sS'palm'
p1375
I2
sS'palo'
p1376
I2
sS'hard-line'
p1377
I2
sS'seisho'
p1378
I2
sS'transactions'
p1379
I8
sS'religion'
p1380
I4
sS'jokingly'
p1381
I2
sS'fortney'
p1382
I2
sS'durables'
p1383
I2
sS'be'
p1384
I202
sS'performed'
p1385
I2
sS'agreement'
p1386
I21
sS'concealed'
p1387
I2
sS'santa'
p1388
I2
sS'tidal'
p1389
I2
sS'by'
p1390
I245
sS'1,200'
p1391
I2
sS'zip'
p1392
I4
sS'anything'
p1393
I12
sS'exaggerated'
p1394
I4
sS'weatherbeaten'
p1395
I2
sS'biennial'
p1396
I2
sS'johanson'
p1397
I2
sS'cockburn'
p1398
I4
sS'repair'
p1399
I2
sS'colorado'
p1400
I4
sS'garbage'
p1401
I2
sS'into'
p1402
I48
sS'montpelier'
p1403
I2
sS'150-member'
p1404
I3
sS'primarily'
p1405
I4
sS'repaid'
p1406
I3
sS'enthusiasms'
p1407
I2
sS'traduce'
p1408
I2
sS'spending'
p1409
I3
sS'bargaining'
p1410
I3
sS'submit'
p1411
I3
sS'crackdown'
p1412
I3
sS'pixie-like'
p1413
I2
sS'fund-raisers'
p1414
I2
sS'conrail'
p1415
I2
sS'considerably'
p1416
I3
sS'elsewhere'
p1417
I3
sS'stock-price'
p1418
I2
sS'atop'
p1419
I2
sS'metromedia'
p1420
I6
sS'deductions'
p1421
I4
sS'atlantic'
p1422
I3
sS'competition'
p1423
I2
sS'line'
p1424
I10
sS'considerable'
p1425
I2
sS'posted'
p1426
I4
sS'cia'
p1427
I5
sS'redeemed'
p1428
I2
sS'testaments'
p1429
I2
sS'up'
p1430
I104
sS'us'
p1431
I12
sS'maturity'
p1432
I6
sS'mature'
p1433
I2
sS'mortgage-securities'
p1434
I2
sS'75-cent'
p1435
I2
sS'medical'
p1436
I5
sS'yelled'
p1437
I3
sS'39-year-old'
p1438
I2
sS'genial'
p1439
I2
sS'armstrong'
p1440
I14
sS'defined'
p1441
I4
sS'likewise'
p1442
I3
sS'start-up'
p1443
I3
sS'squinted'
p1444
I2
sS'influence'
p1445
I4
sS'u.s.a'
p1446
I2
sS'arms-reduction'
p1447
I2
sS'jcp'
p1448
I3
sS'reimbursed'
p1449
I2
sS'occasional'
p1450
I2
sS'elements'
p1451
I4
sS'o.'
p1452
I3
sS'sided'
p1453
I2
sS'robots'
p1454
I2
sS'hazardous-waste-site'
p1455
I2
sS'sider'
p1456
I3
sS'sides'
p1457
I12
sS'mood'
p1458
I3
sS'ago'
p1459
I22
sS'worsened'
p1460
I2
sS'lane'
p1461
I7
sS'land'
p1462
I6
sS'finery'
p1463
I2
sS'vries'
p1464
I2
sS'age'
p1465
I6
sS'walked'
p1466
I3
sS'purged'
p1467
I2
sS'norwegians'
p1468
I2
sS'6.25'
p1469
I2
sS'walker'
p1470
I2
sS'having'
p1471
I7
sS'code'
p1472
I3
sS'partial'
p1473
I2
sS'scratch'
p1474
I2
sS'results'
p1475
I6
sS'soften'
p1476
I2
sS'illustrated'
p1477
I2
sS'amiss'
p1478
I2
sS'maccabee'
p1479
I2
sS'centers'
p1480
I2
sS'seemed'
p1481
I5
sS'longstanding'
p1482
I2
sS'concerned'
p1483
I4
sS'young'
p1484
I9
sS'send'
p1485
I2
sS'magisterially'
p1486
I2
sS'dislike'
p1487
I2
sS'indicating'
p1488
I4
sS'probe'
p1489
I4
sS'continues'
p1490
I4
sS'abduction'
p1491
I2
sS'animals'
p1492
I4
sS'continued'
p1493
I7
sS'minerals'
p1494
I2
sS'categories'
p1495
I2
sS'timely'
p1496
I2
sS'sen.'
p1497
I2
sS'real-estate'
p1498
I2
sS'transmission'
p1499
I3
sS'fewer'
p1500
I3
sS'try'
p1501
I6
sS'race'
p1502
I2
sS'reich'
p1503
I5
sS'visuals'
p1504
I2
sS'mediterranean'
p1505
I2
sS'noticias'
p1506
I2
sS'recruitment'
p1507
I2
sS'licenses'
p1508
I5
sS'omnicom'
p1509
I2
sS'odd'
p1510
I2
sS'index'
p1511
I25
sS'shivers'
p1512
I2
sS'expressed'
p1513
I3
sS'consistently'
p1514
I2
sS'indian'
p1515
I2
sS'turnaround'
p1516
I3
sS'flowing'
p1517
I3
sS'firms'
p1518
I7
sS'equivalent'
p1519
I2
sS'thin'
p1520
I3
sS'die-hard'
p1521
I2
sS'led'
p1522
I10
sS'lee'
p1523
I11
sS'leg'
p1524
I2
sS'respectively'
p1525
I2
sS'puckish'
p1526
I2
sS'les'
p1527
I2
sS'let'
p1528
I14
sS'aerodynamic'
p1529
I2
sS'great'
p1530
I14
sS'engage'
p1531
I2
sS'mid-to-late'
p1532
I2
sS'receive'
p1533
I5
sS'involved'
p1534
I8
sS'resulting'
p1535
I3
sS'defeat'
p1536
I2
sS'opinion'
p1537
I5
sS'residents'
p1538
I3
sS'makes'
p1539
I6
sS'maker'
p1540
I19
sS'involves'
p1541
I3
sS'kennewick'
p1542
I2
sS'330'
p1543
I2
sS'333'
p1544
I2
sS'foreign-exchange'
p1545
I2
sS'boxy'
p1546
I3
sS'standing'
p1547
I3
sS'confidence'
p1548
I2
sS'excursions'
p1549
I2
sS'certificate'
p1550
I3
sS'illegal'
p1551
I5
sS'bush'
p1552
I35
sS'next'
p1553
I31
sS'doubt'
p1554
I2
sS'face-to-face'
p1555
I3
sS'midday'
p1556
I2
sS'givens'
p1557
I4
sS'heiwa'
p1558
I2
sS'infamy'
p1559
I2
sS'gendarme'
p1560
I2
sS'dealings'
p1561
I5
sS'federally'
p1562
I2
sS'sharply'
p1563
I3
sS'payrolls'
p1564
I2
sS'practicing'
p1565
I2
sS'63.6'
p1566
I2
sS'this'
p1567
I119
sS'challenge'
p1568
I3
sS'clients'
p1569
I20
sS'unknowns'
p1570
I2
sS'publications'
p1571
I3
sS'1.45'
p1572
I2
sS'fulfill'
p1573
I2
sS'coffin'
p1574
I2
sS'wedge'
p1575
I2
sS'process'
p1576
I8
sS'rode'
p1577
I2
sS'purposes'
p1578
I3
sS'pieces'
p1579
I5
sS'high'
p1580
I19
sS'slip'
p1581
I2
sS'yutaka'
p1582
I2
sS'reynolds'
p1583
I2
sS'ideology'
p1584
I2
sS'trumpet'
p1585
I2
sS'delay'
p1586
I2
sS'animal'
p1587
I3
sS'abrasive'
p1588
I2
sS'blocks'
p1589
I2
sS'await'
p1590
I2
sS'tied'
p1591
I6
sS'most-favored'
p1592
I2
sS'notebook'
p1593
I2
sS'ties'
p1594
I6
sS'boeing'
p1595
I2
sS'counter'
p1596
I3
sS'stennett'
p1597
I2
sS'allow'
p1598
I10
sS'intellectuals'
p1599
I2
sS'christopher'
p1600
I2
sS'counted'
p1601
I3
sS'houston'
p1602
I10
sS'brahms'
p1603
I2
sS'producer'
p1604
I3
sS'produces'
p1605
I2
sS'insight'
p1606
I2
sS'produced'
p1607
I13
sS'directs'
p1608
I3
sS'finanziario'
p1609
I2
sS'8.55'
p1610
I3
sS'year-earlier'
p1611
I4
sS'55,500'
p1612
I2
sS'bodegas'
p1613
I2
sS'mitsui'
p1614
I3
sS'chosen'
p1615
I2
sS'dispose'
p1616
I2
sS'meantime'
p1617
I2
sS'2019'
p1618
I2
sS'hobby'
p1619
I3
sS'designs'
p1620
I2
sS'outlined'
p1621
I2
sS'federico'
p1622
I2
sS'legendary'
p1623
I2
sS'traced'
p1624
I2
sS'merge'
p1625
I3
sS'rising'
p1626
I4
sS'doing'
p1627
I11
sS'204.3'
p1628
I2
sS'society'
p1629
I3
sS'books'
p1630
I4
sS'static'
p1631
I2
sS'astronomer'
p1632
I2
sS'witness'
p1633
I2
sS'fundamentally'
p1634
I2
sS"'"
I43
sS'dismissal'
p1635
I3
sS'superbly'
p1636
I2
sS'motifs'
p1637
I2
sS'shut'
p1638
I3
sS'tempe'
p1639
I2
sS'unwieldy'
p1640
I2
sS'opinion-makers'
p1641
I2
sS'hyundai'
p1642
I4
sS'quisling'
p1643
I2
sS'regulatory'
p1644
I3
sS'182-day'
p1645
I2
sS'dubbed'
p1646
I4
sS'could'
p1647
I53
sS'put'
p1648
I16
sS'david'
p1649
I8
sS'length'
p1650
I3
sS'ratification'
p1651
I2
sS'sidley-ashurst'
p1652
I2
sS'troublemakers'
p1653
I2
sS'scare'
p1654
I2
sS'jurists'
p1655
I2
sS'scene'
p1656
I2
sS'owned'
p1657
I7
sS'disposed'
p1658
I2
sS'owner'
p1659
I6
sS'leasing'
p1660
I2
sS'legislative'
p1661
I2
sS'pryor'
p1662
I2
sS'los'
p1663
I10
sS'ordering'
p1664
I2
sS'system'
p1665
I20
sS'instruction-set'
p1666
I2
sS'behaved'
p1667
I2
sS'pervasive'
p1668
I2
sS'enforcement'
p1669
I2
sS'quarry'
p1670
I2
sS'depressing'
p1671
I2
sS'steel'
p1672
I2
sS'colleagues'
p1673
I4
sS'reacted'
p1674
I2
sS'extraordinarily'
p1675
I2
sS'potpourri'
p1676
I2
sS'16-year-olds'
p1677
I2
sS'appealing'
p1678
I3
sS'allure'
p1679
I2
sS'vax9000'
p1680
I2
sS'steep'
p1681
I2
sS'downpayments'
p1682
I2
sS'steer'
p1683
I2
sS'partnership'
p1684
I4
sS'seaborne'
p1685
I2
sS'reassuring'
p1686
I2
sS'gentle'
p1687
I2
sS'9.78'
p1688
I2
sS'9.75'
p1689
I2
sS'affinities'
p1690
I2
sS'blockbuster'
p1691
I2
sS'clearly'
p1692
I6
sS'prohibits'
p1693
I2
sS'documents'
p1694
I10
sS'how-to'
p1695
I2
sS'fireballs'
p1696
I2
sS'bassoon'
p1697
I2
sS'studying'
p1698
I2
sS'jurisdictions'
p1699
I2
sS'equaling'
p1700
I3
sS'korean'
p1701
I7
sS'worldwide'
p1702
I2
sS'lancaster'
p1703
I2
sS'delayed'
p1704
I2
sS'device'
p1705
I3
sS'cabinet'
p1706
I2
sS'segment'
p1707
I2
sS'so-called'
p1708
I6
sS'bred'
p1709
I2
sS'stronger'
p1710
I5
sS'thanksgiving'
p1711
I4
sS'face'
p1712
I6
sS'consorting'
p1713
I2
sS'mechanical'
p1714
I3
sS'brew'
p1715
I2
sS'painting'
p1716
I2
sS'fact'
p1717
I5
sS'vacancy'
p1718
I2
sS'bring'
p1719
I6
sS'greenhouse'
p1720
I2
sS'rouge'
p1721
I4
sS'unconnected'
p1722
I2
sS'rough'
p1723
I2
sS'economist'
p1724
I2
sS'brauerei'
p1725
I2
sS'decade'
p1726
I5
sS'principal'
p1727
I4
sS'95.2'
p1728
I2
sS'should'
p1729
I14
sS'buttons'
p1730
I2
sS'planted'
p1731
I2
sS'tape'
p1732
I2
sS'printers'
p1733
I2
sS'riding'
p1734
I3
sS'secretaries'
p1735
I3
sS'hope'
p1736
I7
sS'exchanged'
p1737
I2
sS'move'
p1738
I19
sS'bonds'
p1739
I24
sS'cigar-chomping'
p1740
I2
sS'familiar'
p1741
I4
sS'listener'
p1742
I2
sS'envy-quotient'
p1743
I2
sS'wilmington'
p1744
I3
sS'taxes'
p1745
I5
sS'summon'
p1746
I2
sS'stuff'
p1747
I3
sS'allegation'
p1748
I3
sS'ohio'
p1749
I2
sS'medium-grade'
p1750
I2
sS'temporarily'
p1751
I2
sS'packet'
p1752
I2
sS'travis'
p1753
I2
sS'subcommittee'
p1754
I4
sS'bidders'
p1755
I3
sS'425,000'
p1756
I2
sS'packed'
p1757
I2
sS'amtran'
p1758
I2
sS'80-plus'
p1759
I2
sS'nuclear'
p1760
I12
sS'unravel'
p1761
I2
sS'nominees'
p1762
I3
sS'pistol'
p1763
I2
sS'wiry'
p1764
I2
sS'ends'
p1765
I3
sS'restrictions'
p1766
I4
sS'figured'
p1767
I3
sS'drum'
p1768
I2
sS'invited'
p1769
I2
sS'deficits'
p1770
I2
sS'drug'
p1771
I5
sS'etc'
p1772
I2
sS'figures'
p1773
I8
sS'32.5'
p1774
I2
sS'invites'
p1775
I2
sS'13.625'
p1776
I2
sS'adjusted'
p1777
I6
sS'belzberg'
p1778
I2
sS'co'
p1779
I15
sS'conclude'
p1780
I2
sS'malcolm'
p1781
I2
sS'570'
p1782
I2
sS'cd'
p1783
I10
sS'rapidement'
p1784
I2
sS'whispering'
p1785
I2
sS'allocated'
p1786
I2
sS'labor'
p1787
I9
sS'yastrzemski'
p1788
I2
sS'8.5'
p1789
I2
sS'balloonists'
p1790
I4
sS'midland'
p1791
I2
sS'powered'
p1792
I2
sS'genetic'
p1793
I11
sS'bewkes'
p1794
I2
sS'waste'
p1795
I2
sS'louisiana'
p1796
I2
sS'c.'
p1797
I3
sS'rioting'
p1798
I3
sS'c$'
p1799
I2
sS'atlanta'
p1800
I3
sS'harriton'
p1801
I2
sS'5*slashhere*8'
p1802
I3
sS'rigged'
p1803
I2
sS'maul'
p1804
I2
sS'stuffing'
p1805
I2
sS'diversification'
p1806
I2
sS'norodom'
p1807
I2
sS'lush'
p1808
I2
sS'site'
p1809
I2
sS'optimistic'
p1810
I2
sS'winnetka'
p1811
I2
sS'amadou-mahtar'
p1812
I2
sS'marcoses'
p1813
I2
sS'microsystems'
p1814
I2
sS'paulo'
p1815
I2
sS'interloping'
p1816
I2
sS'ariz.'
p1817
I2
sS'panisse'
p1818
I5
sS'ball'
p1819
I2
sS'columbia'
p1820
I9
sS'raymond'
p1821
I3
sS'emotionally'
p1822
I2
sS'dusk'
p1823
I2
sS'drink'
p1824
I4
sS'upon'
p1825
I3
sS'4.7'
p1826
I2
sS'infiniti'
p1827
I10
sS'robotic'
p1828
I2
sS'identity'
p1829
I2
sS'audit'
p1830
I3
sS'labor-intensive'
p1831
I2
sS'off'
p1832
I26
sS'hartt'
p1833
I3
sS'7.77'
p1834
I2
sS'352'
p1835
I2
sS'350'
p1836
I5
sS'7.78'
p1837
I2
sS'negligence'
p1838
I2
sS'less'
p1839
I19
sS'protections'
p1840
I2
sS'clocks'
p1841
I2
sS'paul'
p1842
I5
sS'agnellis'
p1843
I3
sS'stoltzman'
p1844
I11
sS'residential'
p1845
I3
sS'arrest'
p1846
I2
sS'cosmetics'
p1847
I5
sS'clipped'
p1848
I2
sS'exempt'
p1849
I2
sS'enfield'
p1850
I8
sS'tcmp'
p1851
I4
sS'increased'
p1852
I10
sS'counterclaims'
p1853
I2
sS'government'
p1854
I55
sS'checking'
p1855
I2
sS'chancellor'
p1856
I2
sS'low-paid'
p1857
I2
sS'fuji'
p1858
I3
sS'increases'
p1859
I6
sS'cedar'
p1860
I2
sS'desk'
p1861
I2
sS'belgium'
p1862
I3
sS'reginald'
p1863
I2
sS'crisp'
p1864
I2
sS'chairs'
p1865
I2
sS'become'
p1866
I15
sS'replacement'
p1867
I4
sS'amendment'
p1868
I5
sS'indications'
p1869
I3
sS'terminal'
p1870
I3
sS'foreseeable'
p1871
I2
sS'thief'
p1872
I2
sS'ballot'
p1873
I3
sS'transport'
p1874
I2
sS'disbelief'
p1875
I2
sS'literally'
p1876
I2
sS'leveraged'
p1877
I3
sS'salaries'
p1878
I2
sS'demonstrators'
p1879
I2
sS'does'
p1880
I28
sS'passion'
p1881
I3
sS'shareholdings'
p1882
I2
sS'pressure'
p1883
I8
sS'accompanied'
p1884
I2
sS'loans'
p1885
I13
sS'stage'
p1886
I3
sS'gained'
p1887
I2
sS'sister'
p1888
I2
sS'25.5'
p1889
I2
sS'puts'
p1890
I3
sS'25.7'
p1891
I2
sS'debentures'
p1892
I2
sS'arkoma'
p1893
I2
sS'angeles'
p1894
I8
sS'union'
p1895
I13
sS'seeds'
p1896
I8
sS'concession'
p1897
I2
sS'3.89'
p1898
I2
sS'software'
p1899
I5
sS'contractions'
p1900
I3
sS'letters'
p1901
I7
sS'title-insurance'
p1902
I2
sS'ismaili'
p1903
I2
sS'banca'
p1904
I2
sS'dixie'
p1905
I2
sS'mere'
p1906
I2
sS'negotiable'
p1907
I3
sS'terminated'
p1908
I2
sS'spouse'
p1909
I2
sS'off-speed'
p1910
I2
sS'housing'
p1911
I2
sS'yoshio'
p1912
I2
sS'spots'
p1913
I2
sS'peters'
p1914
I9
sS'restricts'
p1915
I2
sS'bros.'
p1916
I3
sS'venezuelan'
p1917
I2
sS'pretax'
p1918
I2
sS'naturally'
p1919
I2
sS'function'
p1920
I3
sS'building'
p1921
I12
sS'19,000'
p1922
I2
sS'lowered'
p1923
I3
sS'fishing*slashhere*processing'
p1924
I2
sS'entered'
p1925
I3
sS'beeper'
p1926
I2
sS'disbursement'
p1927
I2
sS'evident'
p1928
I3
sS'chained'
p1929
I2
sS'wife'
p1930
I4
sS'smooth'
p1931
I3
sS'imbalances'
p1932
I2
sS'excitement'
p1933
I2
sS'placed'
p1934
I2
sS'problem'
p1935
I10
sS'bearing'
p1936
I2
sS'kowtow'
p1937
I2
sS'recognize'
p1938
I3
sS'slowing'
p1939
I3
sS'consumed'
p1940
I2
sS'moonie'
p1941
I2
sS'159.7'
p1942
I2
sS'compared'
p1943
I8
sS'variety'
p1944
I2
sS'mccartin'
p1945
I2
sS'lately'
p1946
I3
sS'compares'
p1947
I2
sS'details'
p1948
I2
sS'mound'
p1949
I2
sS'reckless'
p1950
I2
sS'jumbos'
p1951
I2
sS'francisco'
p1952
I3
sS'monday'
p1953
I15
sS'oppression'
p1954
I3
sS'outlets'
p1955
I3
sS'chance'
p1956
I6
sS'mastermind'
p1957
I2
sS'exposure'
p1958
I2
sS'searches'
p1959
I2
sS'mozart'
p1960
I2
sS'rule'
p1961
I11
sS'strings'
p1962
I2
sS'compete'
p1963
I5
sS'pension'
p1964
I7
sS'475'
p1965
I2
sS'rural'
p1966
I5
sS'tax-exempt'
p1967
I2
sS'linsey'
p1968
I2
sS'magnetic'
p1969
I10
sS'outlining'
p1970
I2
sS'self-incrimination'
p1971
I4
sS'controversial'
p1972
I5
sS'mansion'
p1973
I2
sS'oldest'
p1974
I3
sS'integrity'
p1975
I2
sS'relationships'
p1976
I4
sS'pedro'
p1977
I2
sS'edward'
p1978
I5
sS'voted'
p1979
I2
sS'regal'
p1980
I2
sS'worth'
p1981
I3
sS'alternating'
p1982
I2
sS'distort'
p1983
I2
sS'yanking'
p1984
I2
sS'mania'
p1985
I2
sS'jacob'
p1986
I2
sS'electronics'
p1987
I4
sS'jotaro'
p1988
I2
sS'investigator'
p1989
I2
sS'samurai'
p1990
I2
sS'monsanto'
p1991
I3
sS'announced'
p1992
I18
sS'reinvent'
p1993
I2
sS'chew'
p1994
I2
sS'hori'
p1995
I2
sS'chez'
p1996
I5
sS'chef'
p1997
I3
sS'panda'
p1998
I2
sS'machines'
p1999
I14
sS'established'
p2000
I4
sS'above'
p2001
I9
sS'churches'
p2002
I2
sS'officially'
p2003
I3
sS'consisting'
p2004
I3
sS'told'
p2005
I14
sS'crunch'
p2006
I2
sS'simultaneously'
p2007
I2
sS'residual'
p2008
I2
sS'conglomerate'
p2009
I3
sS'protection'
p2010
I4
sS'obtained'
p2011
I2
sS'watchers'
p2012
I2
sS'daughter'
p2013
I2
sS'items'
p2014
I4
sS'employees'
p2015
I17
sS'high-security'
p2016
I2
sS'spooks'
p2017
I2
sS'secure'
p2018
I2
sS'highly'
p2019
I8
sS'shun'
p2020
I2
sS'total'
p2021
I14
sS'alligator'
p2022
I2
sS'indians'
p2023
I3
sS'negative'
p2024
I2
sS'1930s'
p2025
I2
sS'slow-startup'
p2026
I2
sS'hahn'
p2027
I3
sS'giovanni'
p2028
I9
sS'aware'
p2029
I2
sS'mather'
p2030
I5
sS'emeritus'
p2031
I3
sS'unraveled'
p2032
I2
sS'blocking'
p2033
I5
sS'1991'
p2034
I10
sS'1990'
p2035
I8
sS'1993'
p2036
I5
sS'1992'
p2037
I3
sS'1995'
p2038
I2
sS'wore'
p2039
I2
sS'divorced'
p2040
I2
sS'1996'
p2041
I2
sS'work'
p2042
I27
sS'theories'
p2043
I2
sS'grover'
p2044
I2
sS'half-forgotten'
p2045
I2
sS'era'
p2046
I2
sS'elegantly'
p2047
I2
sS'camry'
p2048
I2
sS'indicated'
p2049
I2
sS'cited'
p2050
I4
sS'india'
p2051
I3
sS'550'
p2052
I2
sS'uaw'
p2053
I4
sS'impair'
p2054
I2
sS'indicates'
p2055
I3
sS'8.35'
p2056
I2
sS'8.33'
p2057
I2
sS'8.32'
p2058
I2
sS'8.30'
p2059
I2
sS'totaled'
p2060
I3
sS'8.38'
p2061
I2
sS'recovery'
p2062
I5
sS'carriers'
p2063
I4
sS'provide'
p2064
I11
sS'indirectly'
p2065
I2
sS'rookie'
p2066
I2
sS'interview'
p2067
I5
sS'ordinary'
p2068
I4
sS'saint-saens'
p2069
I3
sS'beach'
p2070
I4
sS'gamble'
p2071
I3
sS'bebop'
p2072
I2
sS'after'
p2073
I58
sS'lab'
p2074
I4
sS'induce'
p2075
I5
sS'arco'
p2076
I2
sS'austere'
p2077
I2
sS'homeowners'
p2078
I2
sS'harmony'
p2079
I2
sS'green'
p2080
I10
sS'ambulance'
p2081
I2
sS'order'
p2082
I11
sS'office'
p2083
I22
sS'devote'
p2084
I2
sS'satisfied'
p2085
I2
sS'6.7'
p2086
I2
sS'6.5'
p2087
I3
sS'plastics'
p2088
I3
sS'6.2'
p2089
I2
sS'12.5'
p2090
I2
sS'innovative'
p2091
I4
sS'japan'
p2092
I51
sS'15*slashhere*16'
p2093
I2
sS'droopy-eyed'
p2094
I2
sS'mayor'
p2095
I3
sS'somewhere'
p2096
I4
sS'recreational'
p2097
I2
sS'50,000'
p2098
I3
sS'production'
p2099
I7
sS'split'
p2100
I7
sS'then'
p2101
I33
sS'them'
p2102
I40
sS'affected'
p2103
I2
sS'amenable'
p2104
I2
sS'break'
p2105
I3
sS'hispanics'
p2106
I2
sS'cichan'
p2107
I2
sS'they'
p2108
I129
sS'autographed'
p2109
I2
sS'bank'
p2110
I42
sS'rocks'
p2111
I2
sS'7.98'
p2112
I2
sS'7.99'
p2113
I2
sS'7.94'
p2114
I2
sS'puppet'
p2115
I2
sS'7.96'
p2116
I3
sS'7.90'
p2117
I5
sS'7.91'
p2118
I2
sS'7.92'
p2119
I2
sS'7.93'
p2120
I2
sS'lifted'
p2121
I4
sS'crimes'
p2122
I3
sS'stronger-than-expected'
p2123
I2
sS'recognizable'
p2124
I2
sS'burnham'
p2125
I2
sS'network'
p2126
I9
sS'cameras'
p2127
I2
sS'diesel'
p2128
I3
sS'vessels'
p2129
I2
sS'daniel'
p2130
I2
sS'imperialists'
p2131
I2
sS'disputed'
p2132
I3
sS'vetoed'
p2133
I3
sS'veto'
p2134
I3
sS'gardiner'
p2135
I2
sS'114.63'
p2136
I2
sS'admits'
p2137
I3
sS'appointments'
p2138
I2
sS'disputes'
p2139
I2
sS'pro-democracy'
p2140
I2
sS'delver'
p2141
I2
sS'delves'
p2142
I2
sS'baseman'
p2143
I2
sS'created'
p2144
I9
sS'240,000'
p2145
I2
sS'lousy'
p2146
I2
sS'oppose'
p2147
I3
sS'delved'
p2148
I2
sS'organize'
p2149
I2
sS'guzzle'
p2150
I2
sS'another'
p2151
I36
sS'comic'
p2152
I4
sS'electronic'
p2153
I4
sS'illustrate'
p2154
I4
sS'rated'
p2155
I10
sS'gooseberry'
p2156
I2
sS'secaucus'
p2157
I2
sS'takeovers'
p2158
I2
sS'approximately'
p2159
I4
sS'airs'
p2160
I2
sS'rates'
p2161
I21
sS'inflate'
p2162
I2
sS'john'
p2163
I15
sS'damaging'
p2164
I2
sS'kiwi'
p2165
I2
sS'5-10'
p2166
I2
sS'190-point'
p2167
I2
sS'diversified'
p2168
I2
sS'albert'
p2169
I2
sS'rejected'
p2170
I2
sS'hazelnut'
p2171
I2
sS'alberg'
p2172
I2
sS'toronto'
p2173
I4
sS'target'
p2174
I2
sS'negotiator'
p2175
I2
sS'seated'
p2176
I2
sS'hollander'
p2177
I6
sS'solely'
p2178
I2
sS'editing*slashhere*electronic'
p2179
I2
sS'interests'
p2180
I10
sS'500,000'
p2181
I5
sS'30.4'
p2182
I2
sS'manner'
p2183
I4
sS'forced'
p2184
I3
sS'strength'
p2185
I5
sS'genuine'
p2186
I2
sS'small-lot'
p2187
I2
sS'practices'
p2188
I4
sS'luxury'
p2189
I7
sS'forces'
p2190
I9
sS'unsecured'
p2191
I4
sS'circles'
p2192
I3
sS'nobody'
p2193
I4
sS'6*slashhere*2'
p2194
I2
sS'maiden'
p2195
I2
sS'400,000'
p2196
I2
sS'bruce'
p2197
I2
sS'iceland'
p2198
I2
sS'indemnification'
p2199
I2
sS'exercised'
p2200
I2
sS'involving'
p2201
I7
sS'germany'
p2202
I12
sS'phase'
p2203
I4
sS'germans'
p2204
I3
sS'intergroup'
p2205
I2
sS'ls400'
p2206
I2
sS'calculated'
p2207
I4
sS'newcomers'
p2208
I2
sS'perozo'
p2209
I2
sS'investing'
p2210
I4
sS'deeply'
p2211
I2
sS'voting'
p2212
I4
sS'responded'
p2213
I3
sS'reserve'
p2214
I5
sS'd.'
p2215
I13
sS'asia-pacific'
p2216
I3
sS'religions'
p2217
I2
sS'7.1'
p2218
I2
sS'cogeneration-plant'
p2219
I2
sS'toast'
p2220
I2
sS'politician'
p2221
I2
sS'painfully'
p2222
I2
sS'sentence'
p2223
I2
sS'glasnost'
p2224
I3
sS'pursuing'
p2225
I2
sS'gideon'
p2226
I3
sS'adequate'
p2227
I3
sS'personality'
p2228
I2
sS'predecessor'
p2229
I2
sS'do'
p2230
I44
sS'di'
p2231
I2
sS'de'
p2232
I5
sS'preferred'
p2233
I7
sS'yielded'
p2234
I3
sS'25,000'
p2235
I2
sS'vividly'
p2236
I3
sS'du'
p2237
I4
sS'runs'
p2238
I3
sS'pearson'
p2239
I2
sS'covering'
p2240
I2
sS'irregularities'
p2241
I2
sS'explanations'
p2242
I2
sS'secretary'
p2243
I8
sS'etudes'
p2244
I2
sS'9.35'
p2245
I2
sS'w.'
p2246
I3
sS'observed'
p2247
I3
sS'checks'
p2248
I2
sS'projections'
p2249
I2
sS'cattle'
p2250
I4
sS'discussions'
p2251
I6
sS'techniques'
p2252
I2
sS'draws'
p2253
I2
sS'away'
p2254
I10
sS'biosource'
p2255
I3
sS'unable'
p2256
I5
sS'cooperation'
p2257
I4
sS'drawn'
p2258
I2
sS'co.'
p2259
I45
sS'disavowed'
p2260
I2
sS'accord'
p2261
I4
sS'terms'
p2262
I14
sS'wo'
p2263
I13
sS'handful'
p2264
I2
sS'packaged'
p2265
I2
sS'42.9'
p2266
I2
sS'disservice'
p2267
I2
sS'convertible'
p2268
I3
sS'packages'
p2269
I3
sS'downgraded'
p2270
I2
sS'scribbling'
p2271
I2
sS'received'
p2272
I10
sS'climate'
p2273
I2
sS'amble'
p2274
I2
sS'exceeds'
p2275
I2
sS'requests'
p2276
I4
sS'bran'
p2277
I3
sS'publicity-seeking'
p2278
I2
sS'negotiation'
p2279
I2
sS'year-end'
p2280
I2
sS'tone'
p2281
I3
sS'c.d.s'
p2282
I2
sS'zellers'
p2283
I2
sS'tons'
p2284
I4
sS'tony'
p2285
I2
sS'telecommunications'
p2286
I5
sS'headlights'
p2287
I2
sS'knowns'
p2288
I2
sS'petty'
p2289
I3
sS'engines'
p2290
I2
sS'condemned'
p2291
I2
sS'sachs'
p2292
I3
sS'drafting'
p2293
I2
sS'refurbished'
p2294
I2
sS'dozens'
p2295
I3
sS'duties'
p2296
I5
sS'cutouts'
p2297
I2
sS'easy'
p2298
I4
sS'single-b-plus'
p2299
I2
sS'catering'
p2300
I2
sS'novitiates'
p2301
I2
sS'pejorative'
p2302
I2
sS'ogilvy'
p2303
I6
sS'0.19'
p2304
I2
sS'applied'
p2305
I7
sS'east'
p2306
I7
sS'6.84'
p2307
I2
sS'publicly'
p2308
I6
sS'launches'
p2309
I2
sS'air'
p2310
I13
sS'thrash'
p2311
I2
sS'aid'
p2312
I5
sS'voice'
p2313
I3
sS'launched'
p2314
I5
sS'38.5'
p2315
I2
sS'crowning'
p2316
I2
sS'skipping'
p2317
I2
sS'tissue'
p2318
I3
sS'world-wide'
p2319
I2
sS'exile'
p2320
I3
sS'confirmed'
p2321
I2
sS'descent'
p2322
I2
sS'demonstration'
p2323
I5
sS'trashing'
p2324
I2
sS'indictment'
p2325
I3
sS'spy-chasing'
p2326
I2
sS'independent'
p2327
I3
sS'hani'
p2328
I2
sS'springing'
p2329
I2
sS'blames'
p2330
I2
sS'rain'
p2331
I2
sS'hand'
p2332
I7
sS'liberties'
p2333
I2
sS'producers'
p2334
I9
sS'blamed'
p2335
I2
sS'kept'
p2336
I9
sS'1978'
p2337
I3
sS'1977'
p2338
I2
sS'1976'
p2339
I4
sS'1975'
p2340
I4
sS'1974'
p2341
I2
sS'1973'
p2342
I2
sS'taint'
p2343
I2
sS'1971'
p2344
I3
sS'ragged'
p2345
I2
sS'hispanic'
p2346
I5
sS'client'
p2347
I5
sS'the'
p2348
I2493
sS'musical'
p2349
I3
sS'unified'
p2350
I2
sS'quoted'
p2351
I3
sS'athletic'
p2352
I2
sS'gods'
p2353
I2
sS'farther'
p2354
I2
sS'victim'
p2355
I2
sS'wallingford'
p2356
I2
sS'mediobanca'
p2357
I3
sS'8.12'
p2358
I2
sS'adding'
p2359
I3
sS'comparisons'
p2360
I2
sS'hills'
p2361
I2
sS'flooring'
p2362
I2
sS'similarities'
p2363
I2
sS'passive'
p2364
I2
sS'spread'
p2365
I4
sS'board'
p2366
I21
sS'evidenced'
p2367
I2
sS'mayo'
p2368
I2
sS'bridgers'
p2369
I2
sS'souled'
p2370
I2
sS'unification'
p2371
I6
sS'designers'
p2372
I3
sS'vacaville'
p2373
I2
sS'retreat'
p2374
I2
sS'a.g.'
p2375
I2
sS'securities'
p2376
I45
sS'gandhi'
p2377
I3
sS'security'
p2378
I7
sS'webb'
p2379
I2
sS'lashed'
p2380
I2
sS'denies'
p2381
I2
sS'humor'
p2382
I2
sS'house-painting'
p2383
I2
sS'asking'
p2384
I5
sS'denied'
p2385
I5
sS'beating'
p2386
I2
sS'participation'
p2387
I5
sS'marketing'
p2388
I13
sS'confer'
p2389
I2
sS'illustration'
p2390
I2
sS'plc'
p2391
I2
sS'graduated'
p2392
I2
sS'post'
p2393
I4
sS'properties'
p2394
I6
sS'pulp'
p2395
I2
sS'theirs'
p2396
I2
sS'newspapers'
p2397
I5
sS'months'
p2398
I45
sS'gentler'
p2399
I2
sS'canonie'
p2400
I3
sS'banker'
p2401
I2
sS'horizon'
p2402
I2
sS'dilemma'
p2403
I2
sS'wasting'
p2404
I2
sS'pays'
p2405
I2
sS'float'
p2406
I2
sS'beneficial'
p2407
I5
sS'balances'
p2408
I2
sS'capped'
p2409
I3
sS'pollen-inhibiting'
p2410
I3
sS'wah'
p2411
I2
sS'wad'
p2412
I2
sS'legislation'
p2413
I4
sS'liquidated'
p2414
I2
sS'fight'
p2415
I8
sS'conservation'
p2416
I2
sS'way'
p2417
I24
sS'150,000'
p2418
I2
sS'was'
p2419
I203
sS'war'
p2420
I9
sS'becoming'
p2421
I6
sS'mysterious'
p2422
I2
sS'boon'
p2423
I2
sS'true'
p2424
I5
sS'reset'
p2425
I5
sS'throw'
p2426
I2
sS'responding'
p2427
I2
sS'high-quality'
p2428
I2
sS'reproductive'
p2429
I2
sS'maximum'
p2430
I3
sS'monitored'
p2431
I2
sS'crystal'
p2432
I2
sS'complaint'
p2433
I3
sS'coverings'
p2434
I2
sS'emotional'
p2435
I2
sS'private-sector'
p2436
I3
sS'moore'
p2437
I2
sS'computing'
p2438
I2
sS'long-debated'
p2439
I2
sS'abstract'
p2440
I2
sS'evidence'
p2441
I4
sS'promised'
p2442
I3
sS'allegheny'
p2443
I2
sS'physical'
p2444
I3
sS'weakened'
p2445
I3
sS'stake'
p2446
I17
sS'naji'
p2447
I2
sS'topped'
p2448
I2
sS'negotiators'
p2449
I3
sS'interested'
p2450
I8
sS'holding'
p2451
I18
sS'65,200'
p2452
I2
sS'test'
p2453
I2
sS'joni'
p2454
I2
sS'brothers'
p2455
I4
sS'montgolfiere'
p2456
I2
sS'update'
p2457
I2
sS'improvisation'
p2458
I2
sS'scores'
p2459
I3
sS'omega'
p2460
I2
sS'mullins'
p2461
I2
sS'normally'
p2462
I2
sS'affidavit'
p2463
I4
sS'governed'
p2464
I2
sS'n.j.'
p2465
I2
sS'campaneris'
p2466
I5
sS'concept'
p2467
I4
sS'diplomacy'
p2468
I2
sS'dance'
p2469
I2
sS'global'
p2470
I3
sS'35.5'
p2471
I2
sS'big-time'
p2472
I2
sS'battle'
p2473
I4
sS'superpower'
p2474
I2
sS'certainly'
p2475
I7
sS'factories'
p2476
I2
sS'producing'
p2477
I6
sS'flash'
p2478
I2
sS'compensate'
p2479
I3
sS'dissatisfied'
p2480
I2
sS'division'
p2481
I10
sS'charles'
p2482
I4
sS'blase'
p2483
I3
sS'seemingly'
p2484
I2
sS'12.9375'
p2485
I2
sS'10-year'
p2486
I3
sS'trouble'
p2487
I6
sS'blast'
p2488
I2
sS'presented'
p2489
I2
sS'presenter'
p2490
I2
sS'guy'
p2491
I4
sS'revolution'
p2492
I4
sS'discover'
p2493
I2
sS'cost'
p2494
I9
sS'889,000'
p2495
I2
sS'acrimonious'
p2496
I2
sS'appear'
p2497
I9
sS'246.6'
p2498
I2
sS'rapeseeds'
p2499
I2
sS'shares'
p2500
I41
sS'uniform'
p2501
I2
sS'saluting'
p2502
I2
sS'appeal'
p2503
I6
sS'4,300'
p2504
I2
sS'satisfy'
p2505
I2
sS'collateral'
p2506
I3
sS'genes'
p2507
I3
sS'rubicam'
p2508
I2
sS'appears'
p2509
I2
sS'change'
p2510
I11
sS'sending'
p2511
I3
sS'incoming'
p2512
I2
sS'trial'
p2513
I7
sS'usually'
p2514
I6
sS'mellowed'
p2515
I2
sS'retired'
p2516
I3
sS'extra'
p2517
I2
sS'lending'
p2518
I4
sS'paragon'
p2519
I2
sS'fbi'
p2520
I2
sS'rarely'
p2521
I3
sS'market'
p2522
I52
sS'jan'
p2523
I2
sS'angell'
p2524
I2
sS'prove'
p2525
I4
sS'live'
p2526
I6
sS'jam'
p2527
I3
sS'commissioner'
p2528
I2
sS'club'
p2529
I4
sS'minimum-wage'
p2530
I5
sS'state-funded'
p2531
I2
sS'clue'
p2532
I2
sS'pettit'
p2533
I2
sS'organizations'
p2534
I6
sS'ibj'
p2535
I2
sS'ibm'
p2536
I2
sS'car'
p2537
I26
sS'paragould'
p2538
I3
sS'can'
p2539
I55
sS'trans'
p2540
I4
sS'stimulating'
p2541
I2
sS'heart'
p2542
I6
sS'expanding'
p2543
I2
sS'chip'
p2544
I3
sS'1980s'
p2545
I2
sS'heard'
p2546
I2
sS'chicago-based'
p2547
I2
sS'chic'
p2548
I2
sS'occur'
p2549
I4
sS'domenici'
p2550
I2
sS'productive'
p2551
I2
sS'discussion'
p2552
I3
sS'spreads'
p2553
I2
sS'buttoned-up'
p2554
I2
sS'write'
p2555
I3
sS'47-year-old'
p2556
I2
sS'allowable'
p2557
I2
sS'economy'
p2558
I17
sS'product'
p2559
I4
sS'peerless'
p2560
I2
sS'southern'
p2561
I10
sS'whacker'
p2562
I2
sS'produce'
p2563
I6
sS'vases'
p2564
I2
sS'5.4'
p2565
I2
sS'heroes'
p2566
I2
sS'iraq'
p2567
I2
sS'ponied'
p2568
I2
sS'goal'
p2569
I2
sS'eurodollars'
p2570
I2
sS'remember'
p2571
I3
sS'futures'
p2572
I2
sS'rather'
p2573
I14
sS'typical'
p2574
I2
sS'no.'
p2575
I2
sS'serving'
p2576
I2
sS'indeed'
p2577
I4
sS'raised'
p2578
I8
sS'ended'
p2579
I11
sS'stayed'
p2580
I2
sS'still'
p2581
I28
sS'birds'
p2582
I2
sS'deactivates'
p2583
I2
sS'8.0087'
p2584
I2
sS'reacting'
p2585
I2
sS'window'
p2586
I3
sS'maxwell'
p2587
I2
sS'hackles'
p2588
I2
sS'norway'
p2589
I2
sS'inefficiency'
p2590
I2
sS'fukuyama'
p2591
I2
sS'100,000'
p2592
I4
sS'sweetened'
p2593
I2
sS'introduce'
p2594
I4
sS'1955'
p2595
I2
sS'1954'
p2596
I2
sS'half'
p2597
I17
sS'not'
p2598
I81
sS'now'
p2599
I45
sS'provision'
p2600
I2
sS'discuss'
p2601
I5
sS'nor'
p2602
I5
sS'enacted'
p2603
I2
sS'unauthorized'
p2604
I2
sS'galloway'
p2605
I2
sS'january'
p2606
I6
sS'drop'
p2607
I7
sS'stockholm'
p2608
I2
sS'entirely'
p2609
I2
sS'concerts'
p2610
I2
sS'el'
p2611
I2
sS'fired'
p2612
I4
sS'mixed-up'
p2613
I2
sS'kane'
p2614
I2
sS'challenges'
p2615
I3
sS'fires'
p2616
I2
sS'one-quarter-cent'
p2617
I2
sS'year'
p2618
I96
sS'naming'
p2619
I2
sS'avoided'
p2620
I2
sS'pills'
p2621
I13
sS'8.75'
p2622
I2
sS'album'
p2623
I2
sS'shown'
p2624
I6
sS'accomplish'
p2625
I2
sS'opened'
p2626
I4
sS'space'
p2627
I2
sS'lawyers'
p2628
I12
sS'increase'
p2629
I17
sS'celimene'
p2630
I2
sS'rational'
p2631
I2
sS'fargo'
p2632
I2
sS'viable'
p2633
I2
sS'shows'
p2634
I5
sS'rebuilding'
p2635
I2
sS'high-performing'
p2636
I2
sS'defenses'
p2637
I2
sS'cars'
p2638
I17
sS'epinal'
p2639
I2
sS'position'
p2640
I10
sS'carl'
p2641
I6
sS'obligation'
p2642
I3
sS'card'
p2643
I2
sS'care'
p2644
I2
sS'1994'
p2645
I3
sS'19th-century'
p2646
I2
sS'vehemently'
p2647
I3
sS'british'
p2648
I14
sS'lindsey'
p2649
I2
sS'tangled'
p2650
I2
sS'invitation'
p2651
I3
sS'styles'
p2652
I2
sS'promotion'
p2653
I9
sS'515'
p2654
I2
sS'altitude'
p2655
I2
sS'sprawling'
p2656
I2
sS'concertos'
p2657
I2
sS'flying'
p2658
I3
sS'striking'
p2659
I2
sS'blink'
p2660
I2
sS'reykjavik'
p2661
I2
sS'directly'
p2662
I9
sS'comprises'
p2663
I2
sS'impossible'
p2664
I2
sS'drove'
p2665
I3
sS'tomorrow'
p2666
I3
sS'size'
p2667
I5
sS'officials'
p2668
I29
sS'caught'
p2669
I4
sS'free-lance'
p2670
I3
sS'friend'
p2671
I3
sS'zayadi'
p2672
I3
sS'mostly'
p2673
I4
sS'that'
p2674
I422
sS'pittsburgh'
p2675
I4
sS'brains'
p2676
I4
sS'taxation'
p2677
I2
sS'repossess'
p2678
I2
sS'eliminated'
p2679
I2
sS'flowers'
p2680
I2
sS'interbank'
p2681
I4
sS'titans'
p2682
I2
sS'television'
p2683
I6
sS'edition'
p2684
I2
sS'transferred'
p2685
I3
sS'overcollateralized'
p2686
I2
sS'respectability'
p2687
I2
sS'investors'
p2688
I39
sS'remained'
p2689
I6
sS'premier'
p2690
I2
sS'anger'
p2691
I2
sS'recover'
p2692
I2
sS'offering'
p2693
I9
sS'veteran'
p2694
I2
sS'offer'
p2695
I13
sS'equipment'
p2696
I6
sS'mr.'
p2697
I238
sS'batman'
p2698
I3
sS'objective'
p2699
I2
sS'swelled'
p2700
I2
sS'begin'
p2701
I10
sS'price'
p2702
I20
sS'america'
p2703
I17
sS'manville'
p2704
I14
sS'forever'
p2705
I2
sS'egg'
p2706
I3
sS'attempting'
p2707
I3
sS'implications'
p2708
I4
sS'hurled'
p2709
I2
sS'professional'
p2710
I5
sS'typically'
p2711
I9
sS'filing'
p2712
I4
sS'brainchild'
p2713
I2
sS'german'
p2714
I5
sS'discovered'
p2715
I5
sS'yankee-come-lately'
p2716
I2
sS'maine'
p2717
I2
sS'fifth'
p2718
I2
sS'ground'
p2719
I4
sS'upgrade'
p2720
I2
sS'peduzzi'
p2721
I2
sS'title'
p2722
I4
sS'industrialize'
p2723
I2
sS'jolt'
p2724
I2
sS'texture'
p2725
I2
sS'filipinos'
p2726
I4
sS'only'
p2727
I63
sS'kluge'
p2728
I2
sS'inventions'
p2729
I2
sS'thompson'
p2730
I2
sS'interstate'
p2731
I2
sS'cannon'
p2732
I2
sS'samuel'
p2733
I2
sS'truly'
p2734
I3
sS'loath'
p2735
I2
sS'kiki'
p2736
I2
sS'stroll'
p2737
I2
sS'leather'
p2738
I2
sS'seldom'
p2739
I3
sS'losers'
p2740
I2
sS'reorganizes'
p2741
I2
sS'husband'
p2742
I2
sS'salomon'
p2743
I2
sS'concert'
p2744
I3
sS'color-coding'
p2745
I2
sS'elected'
p2746
I6
sS'actively'
p2747
I2
sS'flat-footed'
p2748
I2
sS'sport'
p2749
I2
sS'reputed'
p2750
I2
sS'europeans'
p2751
I3
sS'israeli'
p2752
I3
sS'atrun'
p2753
I2
sS'tackling'
p2754
I2
sS'willard'
p2755
I2
sS'serkin'
p2756
I2
sS'3'
I11
sS'190,000'
p2757
I2
sS'between'
p2758
I29
sS'import'
p2759
I2
sS'justified'
p2760
I2
sS'takagi'
p2761
I2
sS'armenian'
p2762
I2
sS'article'
p2763
I7
sS'rippe'
p2764
I2
sS'agnelli'
p2765
I16
sS'environmentalist'
p2766
I2
sS'comes'
p2767
I4
sS'nearby'
p2768
I3
sS'passenger'
p2769
I3
sS'hybrids'
p2770
I3
sS'jeans'
p2771
I3
sS'mirroring'
p2772
I2
sS'learning'
p2773
I2
sS'moreover'
p2774
I3
sS'fruitful'
p2775
I2
sS'eight-team'
p2776
I2
sS'informed'
p2777
I2
sS'systems'
p2778
I13
sS'impugn'
p2779
I2
sS'monsieur'
p2780
I2
sS'4.875'
p2781
I2
sS'wounds'
p2782
I2
sS'foggs'
p2783
I2
sS'external'
p2784
I2
sS'suspected'
p2785
I3
sS'realities'
p2786
I2
sS'developing'
p2787
I9
sS'these'
p2788
I33
sS'trick'
p2789
I2
sS'blinkers'
p2790
I2
sS'lire'
p2791
I7
sS'sorghum'
p2792
I2
sS'exercisable'
p2793
I3
sS'non-flight'
p2794
I2
sS'misanthrope'
p2795
I2
sS'alcoholic'
p2796
I2
sS'soil'
p2797
I3
sS'metric'
p2798
I2
sS'health-care'
p2799
I3
sS'bias'
p2800
I2
sS'heels'
p2801
I2
sS'trimming'
p2802
I2
sS'worry'
p2803
I6
sS'farmwives'
p2804
I2
sS'quarter-to-quarter'
p2805
I2
sS'develop'
p2806
I6
sS'media'
p2807
I5
sS'followers'
p2808
I2
sS'angered'
p2809
I2
sS'squatted'
p2810
I2
sS'investigates'
p2811
I2
sS'thornburgh'
p2812
I2
sS'racketeering'
p2813
I2
sS'tradition'
p2814
I2
sS'complained'
p2815
I4
sS'alfresco'
p2816
I2
sS'charges'
p2817
I10
sS'constitutional'
p2818
I3
sS'rama'
p2819
I2
sS'severe'
p2820
I3
sS'laboratories'
p2821
I3
sS'charged'
p2822
I6
sS'knowledgeable'
p2823
I2
sS'superconductors'
p2824
I5
sS'valuable'
p2825
I3
sS'anticipates'
p2826
I3
sS'civilized'
p2827
I2
sS'touch'
p2828
I4
sS'melton'
p2829
I2
sS'speed'
p2830
I4
sS'renewed'
p2831
I2
sS'thinking'
p2832
I2
sS'lender'
p2833
I2
sS'treatment'
p2834
I6
sS'sportif'
p2835
I2
sS'struck'
p2836
I3
sS'ca'
p2837
I11
sS'momentum'
p2838
I2
sS'real'
p2839
I19
sS'non-clients'
p2840
I2
sS'overturning'
p2841
I2
sS'spectacular'
p2842
I2
sS'overused'
p2843
I2
sS'read'
p2844
I7
sS'swig'
p2845
I2
sS'pse'
p2846
I2
sS'early'
p2847
I20
sS'listening'
p2848
I4
sS'using'
p2849
I11
sS'execution'
p2850
I2
sS'reap'
p2851
I2
sS'snail-like'
p2852
I2
sS'proponent'
p2853
I2
sS'utterances'
p2854
I2
sS'annually'
p2855
I5
sS'benefit'
p2856
I7
sS'fully'
p2857
I3
sS'output'
p2858
I5
sS'dilution'
p2859
I2
sS'geraldo'
p2860
I2
sS'meringues'
p2861
I2
sS'apologists'
p2862
I2
sS'eddie'
p2863
I3
sS'intend'
p2864
I2
sS'27,500'
p2865
I2
sS'oakland'
p2866
I3
sS'abetted'
p2867
I2
sS'sunbird'
p2868
I3
sS'conservative'
p2869
I4
sS'2170'
p2870
I2
sS'dealership'
p2871
I5
sS'deficit'
p2872
I3
sS'racism'
p2873
I2
sS'business'
p2874
I39
sS'chefs'
p2875
I2
sS'credits'
p2876
I2
sS'sixty'
p2877
I2
sS'exciting'
p2878
I3
sS'athletics'
p2879
I2
sS'comparison'
p2880
I2
sS'central'
p2881
I8
sS'chop'
p2882
I2
sS'testimony'
p2883
I6
sS'invested'
p2884
I2
sS'processor'
p2885
I2
sS'groundball'
p2886
I2
sS'8.53'
p2887
I2
sS'protests'
p2888
I2
sS'earring'
p2889
I2
sS'involvement'
p2890
I2
sS'operator'
p2891
I3
sS'your'
p2892
I15
sS'intervention'
p2893
I5
sS'shags'
p2894
I2
sS'area'
p2895
I9
sS'assumed'
p2896
I2
sS'minn.'
p2897
I3
sS'stark'
p2898
I2
sS'start'
p2899
I8
sS'low'
p2900
I4
sS'lot'
p2901
I7
sS'somerset'
p2902
I2
sS'jones'
p2903
I5
sS'pitches'
p2904
I2
sS'philosophers'
p2905
I2
sS'two-thirds'
p2906
I2
sS'trying'
p2907
I5
sS'hire'
p2908
I3
sS'fraud'
p2909
I3
sS'proof-of-purchases'
p2910
I2
sS'intermission'
p2911
I2
sS'recurring'
p2912
I2
sS'interiors'
p2913
I2
sS'popularize'
p2914
I2
sS'9*slashhere*16'
p2915
I3
sS'600'
p2916
I2
sS'moved'
p2917
I7
sS'sales'
p2918
I49
sS'moves'
p2919
I5
sS'innings'
p2920
I2
sS'unwelcome'
p2921
I2
sS'englishman'
p2922
I2
sS'foothills'
p2923
I2
sS'valid'
p2924
I2
sS'acceptance'
p2925
I2
sS'you'
p2926
I41
sS'forcing'
p2927
I3
sS'poor'
p2928
I3
sS'massachusetts'
p2929
I5
sS'coverage'
p2930
I3
sS'pool'
p2931
I2
sS'alcohol'
p2932
I2
sS'fiscal'
p2933
I8
sS'repay'
p2934
I2
sS'requisition'
p2935
I2
sS'overseas'
p2936
I8
sS'bolton'
p2937
I2
sS'blue-chip'
p2938
I2
sS'monte'
p2939
I2
sS'pointing'
p2940
I2
sS'48-year-old'
p2941
I2
sS'month'
p2942
I23
sS'heavy-water'
p2943
I2
sS'unrest'
p2944
I2
sS'deadline'
p2945
I2
sS'publish'
p2946
I2
sS'renege'
p2947
I2
sS'pipsqueak'
p2948
I2
sS'religious'
p2949
I2
sS'carpet'
p2950
I8
sS'dreadful'
p2951
I2
sS'referring'
p2952
I3
sS'foster'
p2953
I2
sS'music-publishing'
p2954
I2
sS'sustain'
p2955
I3
sS'reneging'
p2956
I2
sS'confidential'
p2957
I2
sS'divisions'
p2958
I2
sS'very'
p2959
I19
sS'kremlin'
p2960
I2
sS'mph'
p2961
I3
sS'109.85'
p2962
I2
sS'decide'
p2963
I3
sS'rehearing'
p2964
I2
sS'heaven'
p2965
I2
sS'--'
p2966
I101
sS'louis'
p2967
I2
sS'ky.'
p2968
I2
sS'atsushi'
p2969
I2
sS'circuit'
p2970
I2
sS'value'
p2971
I12
sS'well-meaning'
p2972
I2
sS'consumers'
p2973
I8
sS'raw-material'
p2974
I2
sS'boardrooms'
p2975
I2
sS'fractional'
p2976
I2
sS'certificates'
p2977
I8
sS'learned'
p2978
I2
sS'multinational'
p2979
I2
sS'turmoil'
p2980
I2
sS'estate'
p2981
I35
sS'answers'
p2982
I4
sS'tracks'
p2983
I4
sS'selective'
p2984
I2
sS'gramm-rudman'
p2985
I3
sS'11.80'
p2986
I2
sS'excess'
p2987
I2
sS'spielvogel'
p2988
I15
sS'strong'
p2989
I9
sS'757-200s'
p2990
I3
sS'ahead'
p2991
I6
sS'inspired'
p2992
I3
sS'losses'
p2993
I10
sS'johnnie'
p2994
I2
sS'amount'
p2995
I9
sS'advertising'
p2996
I12
sS'hime'
p2997
I2
sS'cardinals'
p2998
I2
sS'gun-carrying'
p2999
I2
sS'toughness'
p3000
I2
sS'family'
p3001
I10
sS'requiring'
p3002
I2
sS'thatcher'
p3003
I3
sS'virgins'
p3004
I2
sS'aimed'
p3005
I4
sS'trained'
p3006
I3
sS'lewdness'
p3007
I2
sS'334.5'
p3008
I2
sS'conventional'
p3009
I6
sS'khan'
p3010
I7
sS'takes'
p3011
I3
sS'bipartisan'
p3012
I2
sS'one-day'
p3013
I2
sS'strauss'
p3014
I2
sS'oil-producing'
p3015
I2
sS'taken'
p3016
I15
sS'injury'
p3017
I3
sS'bankamerica'
p3018
I3
sS'ejected'
p3019
I2
sS'jr.'
p3020
I4
sS'excuse'
p3021
I4
sS'cadwell'
p3022
I2
sS'broke'
p3023
I2
sS'underwriter'
p3024
I2
sS'hurry'
p3025
I2
sS'pretense'
p3026
I2
sS'consortia'
p3027
I2
sS'nine'
p3028
I9
sS'budgets'
p3029
I2
sS'delegates'
p3030
I2
sS'brain-wave'
p3031
I2
sS'history'
p3032
I5
sS'nautilus'
p3033
I2
sS'746'
p3034
I2
sS'749'
p3035
I2
sS'pushed'
p3036
I3
sS'quartets'
p3037
I2
sS'cows'
p3038
I2
sS'exclude'
p3039
I2
sS'f.'
p3040
I7
sS'firmly'
p3041
I2
sS'english-language'
p3042
I2
sS'processors'
p3043
I3
sS'ratified'
p3044
I2
sS'surpassed'
p3045
I2
sS'tried'
p3046
I6
sS'tries'
p3047
I2
sS'remediation'
p3048
I2
sS'hooliganism'
p3049
I2
sS'a'
I1034
sS'criticize'
p3050
I3
sS'keio'
p3051
I2
sS'fallen'
p3052
I2
sS'minicars'
p3053
I2
sS'overnight'
p3054
I2
sS'anytime'
p3055
I2
sS'ego'
p3056
I3
sS'banks'
p3057
I31
sS'dream'
p3058
I3
sS'yuppie'
p3059
I2
sS'help'
p3060
I19
sS'soon'
p3061
I7
sS'show-piece'
p3062
I2
sS'held'
p3063
I17
sS'committee'
p3064
I11
sS'helm'
p3065
I2
sS'clarinet'
p3066
I4
sS'80-page'
p3067
I2
sS'taxpayer'
p3068
I3
sS'w.a.'
p3069
I2
sS'teeming'
p3070
I2
sS'actually'
p3071
I10
sS'disclosed'
p3072
I8
sS'peanuts'
p3073
I3
sS'fines'
p3074
I2
sS'fool'
p3075
I2
sS'evening'
p3076
I4
sS'food'
p3077
I4
sS'reigning'
p3078
I2
sS'permissible'
p3079
I2
sS'sweeping'
p3080
I2
sS'linking'
p3081
I2
sS'terrorism'
p3082
I2
sS'desperately'
p3083
I2
sS'stopper'
p3084
I3
sS'occasions'
p3085
I2
sS'intervene'
p3086
I2
sS'semiannual'
p3087
I3
sS'capability'
p3088
I2
sS'stopped'
p3089
I4
sS'ifi'
p3090
I7
sS'trailer'
p3091
I3
sS'referred'
p3092
I2
sS'heavy'
p3093
I4
sS'savored'
p3094
I2
sS'healthvest'
p3095
I13
sS'positioned'
p3096
I2
sS'beyond'
p3097
I6
sS'event'
p3098
I3
sS'creamier'
p3099
I2
sS'steered'
p3100
I2
sS'magnet'
p3101
I4
sS'pins'
p3102
I2
sS'robert'
p3103
I9
sS'since'
p3104
I26
sS'temporary'
p3105
I7
sS'testify'
p3106
I3
sS'douglas'
p3107
I14
sS'equate'
p3108
I2
sS'safety'
p3109
I4
sS'7'
I7
sS'issue'
p3110
I34
sS'bass'
p3111
I2
sS'dirt'
p3112
I2
sS'unificationist'
p3113
I3
sS'houses'
p3114
I3
sS'reason'
p3115
I7
sS'base'
p3116
I5
sS'ask'
p3117
I4
sS'matthews'
p3118
I5
sS'broad-based'
p3119
I2
sS'persuading'
p3120
I2
sS'american'
p3121
I30
sS'businessmen'
p3122
I3
sS'imelda'
p3123
I2
sS'partnerships'
p3124
I2
sS'16th-century'
p3125
I2
sS'ever-growing'
p3126
I2
sS'reflected'
p3127
I2
sS'morita'
p3128
I2
sS'miss'
p3129
I3
sS'arbitration'
p3130
I2
sS'horse'
p3131
I2
sS'st.'
p3132
I3
sS'airborne'
p3133
I3
sS'station'
p3134
I3
sS'expand'
p3135
I2
sS'hundred'
p3136
I3
sS'shifted'
p3137
I2
sS'selling'
p3138
I11
sS'financing'
p3139
I6
sS'grew'
p3140
I2
sS'state-owned'
p3141
I3
sS'greg'
p3142
I2
sS'store'
p3143
I3
sS'toward'
p3144
I7
sS'ousted'
p3145
I5
sS'deciding'
p3146
I2
sS'heaviest'
p3147
I2
sS'affirmative'
p3148
I2
sS'randomly'
p3149
I2
sS'substantial'
p3150
I5
sS'perestroika'
p3151
I2
sS'organs'
p3152
I3
sS'1.175'
p3153
I2
sS'lid'
p3154
I2
sS'lie'
p3155
I3
sS'u.s'
p3156
I7
sS'evasion'
p3157
I3
sS'patterns'
p3158
I3
sS'officers'
p3159
I3
sS'lit'
p3160
I2
sS'j&b'
p3161
I2
sS'lip'
p3162
I2
sS'elianti'
p3163
I2
sS'towards'
p3164
I2
sS'approves'
p3165
I2
sS'exempted'
p3166
I2
sS'freddie'
p3167
I5
sS'hired'
p3168
I2
sS'knotty'
p3169
I2
sS'approved'
p3170
I9
sS'ark.'
p3171
I3
sS'creators'
p3172
I2
sS'mobile'
p3173
I2
sS'performances'
p3174
I2
sS'clear'
p3175
I7
sS'calling'
p3176
I6
sS'rockefeller'
p3177
I15
sS'clean'
p3178
I2
sS'velocity'
p3179
I2
sS'latest'
p3180
I7
sS'physics'
p3181
I2
sS'stalked'
p3182
I2
sS'7,400'
p3183
I2
sS'hovered'
p3184
I2
sS'gas-tax'
p3185
I2
sS'heavens'
p3186
I2
sS'church-owned'
p3187
I2
sS'northern'
p3188
I3
sS'justice'
p3189
I6
sS'convinced'
p3190
I2
sS'flights'
p3191
I3
sS'surveyed'
p3192
I2
sS'pretty'
p3193
I2
sS'2142.6'
p3194
I2
sS'grocery'
p3195
I2
sS'famous'
p3196
I2
sS'competing'
p3197
I2
sS'during'
p3198
I20
sS'soft-drink'
p3199
I4
sS'alexander'
p3200
I3
sS'left-wing'
p3201
I2
sS'transgenic'
p3202
I4
sS'11-member'
p3203
I2
sS'interim'
p3204
I2
sS'switzerland'
p3205
I2
sS'66.50'
p3206
I2
sS'scanning'
p3207
I2
sS'maurice'
p3208
I2
sS'throwing'
p3209
I3
sS'culture'
p3210
I5
sS'drenching'
p3211
I2
sS'close'
p3212
I16
sS'probable'
p3213
I2
sS'pictures'
p3214
I6
sS'won'
p3215
I5
sS'woe'
p3216
I2
sS'probably'
p3217
I8
sS'conditions'
p3218
I3
sS'unconscious'
p3219
I2
sS'missing'
p3220
I2
sS'unstoppable'
p3221
I2
sS'spray'
p3222
I4
sS'invisible'
p3223
I2
sS'arrears'
p3224
I2
sS'both'
p3225
I30
sS'secrets'
p3226
I2
sS'second-largest'
p3227
I2
sS'wage-floor'
p3228
I2
sS'sensitive'
p3229
I3
sS'liked'
p3230
I2
sS'headed'
p3231
I3
sS'whatever'
p3232
I3
sS'vessel'
p3233
I2
sS'rebate'
p3234
I2
sS'described'
p3235
I2
sS'off-budget'
p3236
I2
sS'damp'
p3237
I2
sS'association-college'
p3238
I2
sS'collected'
p3239
I2
sS'reduced-fat'
p3240
I2
sS'walter'
p3241
I4
sS'budgeted'
p3242
I2
sS'box'
p3243
I2
sS'35549.44'
p3244
I2
sS'alongside'
p3245
I2
sS'partly'
p3246
I3
sS'regroup'
p3247
I2
sS'wet'
p3248
I2
sS'else'
p3249
I5
sS'lives'
p3250
I5
sS'compromised'
p3251
I2
sS'bidding'
p3252
I7
sS'pact'
p3253
I5
sS'floating-point'
p3254
I2
sS'look'
p3255
I10
sS'governor'
p3256
I3
sS'pace'
p3257
I5
sS'while'
p3258
I23
sS'mainframe'
p3259
I2
sS'match'
p3260
I2
sS'fleet'
p3261
I2
sS'mitchell'
p3262
I3
sS'guide'
p3263
I2
sS'pack'
p3264
I2
sS'bailiffs'
p3265
I2
sS'costly'
p3266
I2
sS'voters'
p3267
I3
sS'loosened'
p3268
I2
sS'ready'
p3269
I2
sS'industrial-product'
p3270
I2
sS'fannie'
p3271
I8
sS'fairer'
p3272
I2
sS'marble-columned'
p3273
I2
sS'shaw'
p3274
I6
sS'anymore'
p3275
I3
sS'grant'
p3276
I2
sS'grand'
p3277
I9
sS'well-hit'
p3278
I2
sS'composition'
p3279
I2
sS'conflict'
p3280
I5
sS'pleadings'
p3281
I2
sS'covetous'
p3282
I2
sS'indianapolis'
p3283
I3
sS'70.3'
p3284
I2
sS'ratings'
p3285
I2
sS'blair'
p3286
I9
sS'uses'
p3287
I7
sS'143,800'
p3288
I2
sS'brussels'
p3289
I3
sS'older'
p3290
I4
sS'12-month'
p3291
I2
sS'poland'
p3292
I4
sS'five'
p3293
I20
sS'docket'
p3294
I2
sS'appalled'
p3295
I2
sS'yankees'
p3296
I2
sS'alvin'
p3297
I2
sS'settlements'
p3298
I3
sS'quarters'
p3299
I2
sS'whopping'
p3300
I2
sS'fertilizing'
p3301
I2
sS'taiwan'
p3302
I4
sS'11-week'
p3303
I2
sS'akio'
p3304
I2
sS'retirement'
p3305
I5
sS'$'
I214
sS'over-the-counter'
p3306
I4
sS'informal'
p3307
I11
sS'guaranteed'
p3308
I3
sS'nikko'
p3309
I3
sS'stock-market'
p3310
I2
sS'guarantees'
p3311
I2
sS'remaining'
p3312
I9
sS'...'
p3313
I14
sS'march'
p3314
I9
sS'evaluate'
p3315
I4
sS'showing'
p3316
I3
sS'finding'
p3317
I4
sS'game'
p3318
I6
sS'thousand-person'
p3319
I2
sS'defied'
p3320
I2
sS'stimulators'
p3321
I7
sS'outright'
p3322
I2
sS'outselling'
p3323
I2
sS'toyota'
p3324
I12
sS'trade-in'
p3325
I2
sS'popular'
p3326
I3
sS'resold'
p3327
I2
sS'parade'
p3328
I2
sS'journalism'
p3329
I2
sS'creation'
p3330
I3
sS'some'
p3331
I84
sS'trends'
p3332
I2
sS'experienced'
p3333
I2
sS'trendy'
p3334
I2
sS'fanfare'
p3335
I4
sS'67-year-old'
p3336
I2
sS'delivered'
p3337
I3
sS'exceeding'
p3338
I2
sS'sympathetic'
p3339
I2
sS'run'
p3340
I8
sS'processing'
p3341
I2
sS'rebates'
p3342
I2
sS'jazzy'
p3343
I2
sS'step'
p3344
I7
sS'macy'
p3345
I2
sS'lasts'
p3346
I2
sS'nerves'
p3347
I7
sS'at&t'
p3348
I2
sS'panhandle'
p3349
I3
sS'abroad'
p3350
I4
sS'johnstown'
p3351
I4
sS'faith'
p3352
I2
sS'tracing'
p3353
I2
sS'in-depth'
p3354
I2
sS'wicker'
p3355
I3
sS'classics'
p3356
I3
sS'block'
p3357
I7
sS'disclosure'
p3358
I2
sS'within'
p3359
I10
sS'guangdong'
p3360
I2
sS'pentagon'
p3361
I3
sS'statistics'
p3362
I6
sS'classical'
p3363
I3
sS'insider'
p3364
I3
sS'disallowed'
p3365
I2
sS'manufacture'
p3366
I3
sS'himself'
p3367
I7
sS'registered'
p3368
I4
sS'specialty'
p3369
I2
sS'bolsters'
p3370
I2
sS'properly'
p3371
I2
sS'authority'
p3372
I4
sS'russian'
p3373
I2
sS'investment-banking'
p3374
I2
sS'dull'
p3375
I2
sS'ideals'
p3376
I2
sS'circuits'
p3377
I2
sS'vacancies'
p3378
I2
sS'cautiously'
p3379
I3
sS'similar'
p3380
I10
sS'ordered'
p3381
I5
sS'adults'
p3382
I3
sS'corrective'
p3383
I2
sS'languishing'
p3384
I2
sS'carmen'
p3385
I2
sS'cotton'
p3386
I15
sS'liberalize'
p3387
I2
sS'amounts'
p3388
I4
sS'spokesmen'
p3389
I2
sS'application'
p3390
I2
sS'politicians'
p3391
I4
sS'electrical'
p3392
I3
sS'department'
p3393
I18
sS'manhattan'
p3394
I4
sS'draw'
p3395
I4
sS'spectators'
p3396
I2
sS'reportedly'
p3397
I2
sS're-election'
p3398
I3
sS'kansas'
p3399
I2
sS'visits'
p3400
I2
sS'william'
p3401
I6
sS'drag'
p3402
I2
sS'oregon'
p3403
I2
sS'structure'
p3404
I2
sS'revamped'
p3405
I4
sS'required'
p3406
I12
sS'turbines'
p3407
I2
sS'bribe'
p3408
I2
sS'berries'
p3409
I2
sS'requires'
p3410
I5
sS'avoid'
p3411
I6
sS'co-author'
p3412
I2
sS'fixed-rate'
p3413
I3
sS'oct.'
p3414
I11
sS'ga'
p3415
I2
sS'kato'
p3416
I3
sS'go'
p3417
I9
sS'gm'
p3418
I12
sS'compact'
p3419
I4
sS'excludes'
p3420
I2
sS'alamos'
p3421
I3
sS'arrogance'
p3422
I2
sS'uninformative'
p3423
I2
sS'excluded'
p3424
I2
sS'cluttered'
p3425
I2
sS'friendly'
p3426
I3
sS'murderous'
p3427
I2
sS'wave'
p3428
I2
sS'wash.'
p3429
I3
sS'cellular'
p3430
I2
sS'g.'
p3431
I2
sS'meant'
p3432
I4
sS'positions'
p3433
I4
sS'unusual'
p3434
I3
sS'michael'
p3435
I5
sS'watered'
p3436
I2
sS'8.95'
p3437
I3
sS'verdict'
p3438
I2
sS'guber'
p3439
I9
sS'2.25'
p3440
I2
sS'carter'
p3441
I2
sS'picket'
p3442
I2
sS'arbitragers'
p3443
I2
sS'naggings'
p3444
I2
sS'graying'
p3445
I2
sS'picked'
p3446
I4
sS'plays'
p3447
I5
sS'bluntly'
p3448
I2
sS'espresso'
p3449
I2
sS'cell'
p3450
I3
sS'collins'
p3451
I5
sS';'
I82
sS'nicholas'
p3452
I5
sS'marketer'
p3453
I2
sS'brunei'
p3454
I2
sS'focuses'
p3455
I2
sS'filings'
p3456
I5
sS'stance'
p3457
I2
sS'commercial'
p3458
I17
sS'following'
p3459
I8
sS'focused'
p3460
I2
sS'affidavits'
p3461
I2
sS'webster'
p3462
I2
sS'convert'
p3463
I2
sS'morsels'
p3464
I2
sS'neurosurgeon'
p3465
I3
sS'products'
p3466
I17
sS'oversees'
p3467
I2
sS'zen-like'
p3468
I2
sS'gene'
p3469
I12
sS'deterrents'
p3470
I2
sS'examining'
p3471
I2
sS'felled'
p3472
I2
sS'danger'
p3473
I2
sS'win'
p3474
I5
sS'manage'
p3475
I2
sS'clout'
p3476
I3
sS'diversion'
p3477
I2
sS'wit'
p3478
I2
sS'cloud'
p3479
I2
sS'metaphor'
p3480
I2
sS'remains'
p3481
I6
sS'adversary'
p3482
I2
sS'hudson'
p3483
I3
sS'camera'
p3484
I2
sS'crab'
p3485
I2
sS'vehicle'
p3486
I3
sS'means'
p3487
I7
sS'hiding'
p3488
I3
sS'historically'
p3489
I2
sS'reflects'
p3490
I6
sS'bureaucracy'
p3491
I3
sS'started'
p3492
I8
sS'tennis'
p3493
I3
sS'benchmark'
p3494
I2
sS'self-criticism'
p3495
I2
sS'missile'
p3496
I2
sS'mitsubishi'
p3497
I25
sS'rivalry'
p3498
I2
sS'appointed'
p3499
I2
sS'announcing'
p3500
I2
sS'sanctions'
p3501
I2
sS'ride'
p3502
I5
sS'recession'
p3503
I3
sS'crossed'
p3504
I3
sS'servants'
p3505
I2
sS'meet'
p3506
I7
sS'drops'
p3507
I2
sS'stoll'
p3508
I12
sS'control'
p3509
I21
sS'beijing'
p3510
I2
sS'links'
p3511
I2
sS'cheapens'
p3512
I2
sS'rejoining'
p3513
I2
sS'evans-black'
p3514
I2
sS'pulling'
p3515
I2
sS'dictation'
p3516
I2
sS'sought'
p3517
I7
sS'hit'
p3518
I6
sS'fearsome'
p3519
I2
sS'hesitate'
p3520
I2
sS'meanwhile'
p3521
I8
sS'arrangement'
p3522
I3
sS'ferdinand'
p3523
I2
sS'blackstone'
p3524
I3
sS'immoral'
p3525
I2
sS'farm'
p3526
I2
sS'ronald'
p3527
I2
sS'sardinia'
p3528
I2
sS'spelling'
p3529
I2
sS'agenda'
p3530
I3
sS'healthcare'
p3531
I15
sS'executives'
p3532
I18
sS'soggy'
p3533
I4
sS'136,800'
p3534
I2
sS'alliance'
p3535
I2
sS'including'
p3536
I24
sS'costume'
p3537
I3
sS'mentioned'
p3538
I2
sS'brood'
p3539
I2
sS'temporal'
p3540
I2
sS'melloan'
p3541
I2
sS'auto'
p3542
I20
sS'sweets'
p3543
I2
sS'hands'
p3544
I7
sS'front'
p3545
I4
sS'handy'
p3546
I2
sS'literacy'
p3547
I2
sS'101.225'
p3548
I2
sS'university'
p3549
I16
sS'boringly'
p3550
I2
sS'registrations'
p3551
I3
sS'slide'
p3552
I5
sS'promises'
p3553
I4
sS'commonwealth'
p3554
I2
sS'inputs'
p3555
I2
sS'chunk'
p3556
I2
sS'700'
p3557
I4
sS'145'
p3558
I2
sS'sands'
p3559
I2
sS'measure'
p3560
I7
sS'margins'
p3561
I4
sS'special'
p3562
I13
sS'gallant'
p3563
I2
sS'sandor'
p3564
I2
sS'entertainment'
p3565
I12
sS'strokes'
p3566
I3
sS'siena'
p3567
I2
sS'cause'
p3568
I5
sS'dissented'
p3569
I2
sS'1984'
p3570
I5
sS'ill.'
p3571
I2
sS'completely'
p3572
I4
sS'intruder'
p3573
I2
sS'improvisational'
p3574
I2
sS'1982'
p3575
I6
sS'232.4'
p3576
I2
sS'20,000'
p3577
I2
sS'hostile'
p3578
I7
sS'determining'
p3579
I2
sS'diminished'
p3580
I3
sS'membership'
p3581
I5
sS'keep'
p3582
I10
sS'counterpart'
p3583
I2
sS'timed'
p3584
I2
sS'austin'
p3585
I3
sS'justifying'
p3586
I2
sS'prospective'
p3587
I2
sS'succeeds'
p3588
I4
sS'zero-sum'
p3589
I2
sS'powerful'
p3590
I4
sS'unsupported'
p3591
I3
sS'cardiac'
p3592
I2
sS'drinker'
p3593
I3
sS'precisely'
p3594
I3
sS'quality'
p3595
I3
sS'management'
p3596
I22
sS'durable'
p3597
I2
sS'relations'
p3598
I7
sS'attach'
p3599
I2
sS'attack'
p3600
I4
sS'perfectly'
p3601
I2
sS'final'
p3602
I8
sS'exactly'
p3603
I4
sS'picturesquely'
p3604
I2
sS'chemicals'
p3605
I2
sS'countercultural'
p3606
I2
sS'bassist'
p3607
I2
sS'manipulation'
p3608
I3
sS'fuzzy'
p3609
I2
sS'overwhelming'
p3610
I2
sS'outline'
p3611
I2
sS'photograph'
p3612
I2
sS'9.7'
p3613
I3
sS'submitted'
p3614
I4
sS'claim'
p3615
I10
sS'soviets'
p3616
I17
sS'providing'
p3617
I2
sS'distinguished'
p3618
I2
sS'bet'
p3619
I2
sS'exhibit'
p3620
I2
sS'julian'
p3621
I2
sS'unchanged'
p3622
I6
sS'cleverly'
p3623
I2
sS'goldberg'
p3624
I2
sS'2.2'
p3625
I2
sS'need'
p3626
I10
sS'border'
p3627
I2
sS'instrumentation'
p3628
I3
sS'pursued'
p3629
I2
sS'able'
p3630
I16
sS'battles'
p3631
I2
sS'arm'
p3632
I6
sS'instance'
p3633
I3
sS'relatives'
p3634
I2
sS'issuing'
p3635
I2
sS'2.5'
p3636
I2
sS'ind.'
p3637
I2
sS'coke'
p3638
I14
sS'refocusing'
p3639
I2
sS'mileage'
p3640
I2
sS'duels'
p3641
I2
sS'fibreboard'
p3642
I2
sS'passionately'
p3643
I2
sS'expires'
p3644
I3
sS'learns'
p3645
I2
sS'demise'
p3646
I2
sS'nuisance'
p3647
I2
sS'intrinsic'
p3648
I2
sS'132.00'
p3649
I2
sS'delivery'
p3650
I5
sS'consequences'
p3651
I3
sS'8.25'
p3652
I2
sS'scrambled'
p3653
I2
sS'daiwa'
p3654
I2
sS'conventional-arms'
p3655
I3
sS'impression'
p3656
I3
sS'emerging'
p3657
I2
sS'parker'
p3658
I2
sS'partners'
p3659
I4
sS'based'
p3660
I19
sS'earned'
p3661
I4
sS'('
I78
sS'winner'
p3662
I2
sS'employer'
p3663
I2
sS'lightest'
p3664
I2
sS'bases'
p3665
I4
sS'employee'
p3666
I2
sS'employed'
p3667
I4
sS'michigan'
p3668
I4
sS'overall'
p3669
I6
sS'mgm'
p3670
I2
sS'sipping'
p3671
I2
sS'120'
p3672
I4
sS'joint'
p3673
I17
sS'122'
p3674
I3
sS'legitimate'
p3675
I2
sS'joins'
p3676
I3
sS'downturn'
p3677
I2
sS'buyer'
p3678
I3
sS'kong'
p3679
I8
sS'procedures'
p3680
I3
sS'gray'
p3681
I3
sS'processes'
p3682
I3
sS'trucks'
p3683
I2
sS'course'
p3684
I7
sS'imperious'
p3685
I2
sS'evaders'
p3686
I2
sS'dpc'
p3687
I2
sS'she'
p3688
I12
sS'insist'
p3689
I3
sS'grab'
p3690
I2
sS'official'
p3691
I19
sS'humans'
p3692
I2
sS'34.2'
p3693
I2
sS'inkling'
p3694
I2
sS'argued'
p3695
I7
sS'accused'
p3696
I6
sS'theocracy'
p3697
I2
sS'desperate'
p3698
I2
sS'operated'
p3699
I2
sS'written'
p3700
I3
sS'tens'
p3701
I2
sS'neither'
p3702
I5
sS'sabotage'
p3703
I2
sS'comparable'
p3704
I4
sS'attention'
p3705
I10
sS'spares'
p3706
I2
sS'importance'
p3707
I2
sS'sidley'
p3708
I6
sS'interfere'
p3709
I3
sS'efficiency'
p3710
I3
sS'key'
p3711
I7
sS'police'
p3712
I5
sS'precious'
p3713
I2
sS'hits'
p3714
I5
sS'2.45'
p3715
I2
sS'limits'
p3716
I6
sS'career'
p3717
I4
sS'minds'
p3718
I3
sS'strains'
p3719
I2
sS'revitalized'
p3720
I3
sS'a.m.'
p3721
I2
sS'publicized'
p3722
I2
sS'jersey'
p3723
I5
sS'tuesday'
p3724
I10
sS'quit'
p3725
I2
sS'addition'
p3726
I5
sS'wills'
p3727
I2
sS'slowly'
p3728
I2
sS'industriale'
p3729
I2
sS'controlled'
p3730
I3
sS'league'
p3731
I8
sS'smoking'
p3732
I2
sS'chivas'
p3733
I8
sS'novel'
p3734
I2
sS'countermove'
p3735
I2
sS'owns'
p3736
I9
sS'resident'
p3737
I2
sS'4.55'
p3738
I2
sS'recorded'
p3739
I5
sS'7.160'
p3740
I2
sS'began'
p3741
I4
sS'campus'
p3742
I2
sS'strange'
p3743
I2
sS'northwest'
p3744
I5
sS'incumbent'
p3745
I2
sS'party'
p3746
I8
sS'inc'
p3747
I14
sS'promoters'
p3748
I2
sS'appearances'
p3749
I2
sS'effect'
p3750
I9
sS'market-share'
p3751
I2
sS'sagged'
p3752
I2
sS'frequently'
p3753
I3
sS'spree'
p3754
I2
sS'impeccable'
p3755
I2
sS'single'
p3756
I5
sS'destruction'
p3757
I3
sS'transaction'
p3758
I14
sS'reflection'
p3759
I2
sS'i'
I85
sS'nonetheless'
p3760
I5
sS'well'
p3761
I20
sS'240sx'
p3762
I2
sS'corporation'
p3763
I9
sS'12,345'
p3764
I2
sS'spy-chaser'
p3765
I2
sS'evenhanded'
p3766
I2
sS'increasingly'
p3767
I4
sS'oak'
p3768
I2
sS'sources'
p3769
I3
sS'mistakes'
p3770
I2
sS'laurel'
p3771
I6
sS'hess'
p3772
I4
sS'high-grade'
p3773
I3
sS'stock-picking'
p3774
I2
sS'deposits'
p3775
I3
sS'nissans'
p3776
I2
sS'nato'
p3777
I8
sS'subordinated'
p3778
I4
sS'mitre'
p3779
I2
sS'sventek'
p3780
I3
sS'warrant'
p3781
I3
sS'canter'
p3782
I3
sS'definitive'
p3783
I2
sS'fate'
p3784
I2
sS'devised'
p3785
I2
sS'crushed'
p3786
I2
sS'breach-of-contract'
p3787
I2
sS'historic'
p3788
I2
sS'267'
p3789
I2
sS'burden'
p3790
I3
sS'turbulence'
p3791
I2
sS'prominent'
p3792
I3
sS'loss'
p3793
I4
sS'candu'
p3794
I2
sS'necessary'
p3795
I7
sS'lost'
p3796
I11
sS'stevenson'
p3797
I3
sS'payments'
p3798
I16
sS'lose'
p3799
I8
sS'truckee'
p3800
I2
sS'shed'
p3801
I2
sS'eurobond'
p3802
I2
sS'motive'
p3803
I2
sS'repeat'
p3804
I2
sS'cleveland'
p3805
I2
sS'home'
p3806
I21
sS'peter'
p3807
I6
sS'leery'
p3808
I2
sS'demonstrates'
p3809
I2
sS"o'kicki"
p3810
I14
sS'filers'
p3811
I4
sS'intersections'
p3812
I2
sS'?'
I27
sS'reaching'
p3813
I2
sS'journal'
p3814
I8
sS'monetary'
p3815
I2
sS'expansion'
p3816
I3
sS'ridley'
p3817
I10
sS'90,000'
p3818
I2
sS'unhinged'
p3819
I2
sS'freedom'
p3820
I4
sS'cleans'
p3821
I2
sS'recognized'
p3822
I3
sS'23.4'
p3823
I2
sS'stakes'
p3824
I3
sS'equally'
p3825
I2
sS'previously'
p3826
I8
sS'hashidate'
p3827
I2
sS'washington'
p3828
I8
sS'h.'
p3829
I2
sS'managing'
p3830
I6
sS'utility'
p3831
I5
sS'additional'
p3832
I6
sS'lagged'
p3833
I3
sS'imperial'
p3834
I5
sS'inner'
p3835
I3
sS'jealously'
p3836
I2
sS'revised'
p3837
I2
sS'north'
p3838
I8
sS'99.75'
p3839
I2
sS'administrators'
p3840
I2
sS'gain'
p3841
I8
sS'courts'
p3842
I3
sS'ear'
p3843
I2
sS'25-year-old'
p3844
I2
sS'orioles'
p3845
I2
sS's.p'
p3846
I4
sS'he'
p3847
I251
sS'signed'
p3848
I6
sS'projecting'
p3849
I2
sS'limit'
p3850
I5
sS'piece'
p3851
I5
sS'display'
p3852
I3
sS'urging'
p3853
I4
sS'marketplace'
p3854
I2
sS'devise'
p3855
I3
sS'reservations'
p3856
I2
sS'beatrice'
p3857
I2
sS'dialogue'
p3858
I3
sS'upsets'
p3859
I2
sS'education'
p3860
I3
sS'diego'
p3861
I2
sS'functions'
p3862
I2
sS'contest'
p3863
I3
sS'offensive'
p3864
I2
sS'policy-making'
p3865
I2
sS'trunkline'
p3866
I2
sS'disposing'
p3867
I2
sS'pussy-willow'
p3868
I2
sS'stay'
p3869
I4
sS'dew-sodden'
p3870
I2
sS'additionally'
p3871
I2
sS'deter'
p3872
I3
sS'friends'
p3873
I3
sS'persistent'
p3874
I2
sS'portion'
p3875
I4
sS'diagnosis'
p3876
I2
sS'theory-teaching'
p3877
I2
sS'moshe'
p3878
I2
sS'frankfurt'
p3879
I3
sS'retirees'
p3880
I2
sS'secondly'
p3881
I2
sS'similarity'
p3882
I2
sS'uzbekistan'
p3883
I2
sS'obstruction'
p3884
I2
sS'protest'
p3885
I5
sS'asian'
p3886
I4
sS'aides'
p3887
I6
sS'consists'
p3888
I3
sS'undersecretary'
p3889
I2
sS'captain'
p3890
I2
sS'whose'
p3891
I12
sS'porche'
p3892
I2
sS'marcos'
p3893
I19
sS'swan'
p3894
I2
sS'crozier'
p3895
I2
sS'nominal'
p3896
I2
sS'swap'
p3897
I3
sS'collaborate'
p3898
I2
sS'cruising'
p3899
I2
sS'non-``'
p3900
I2
sS'flashpoint'
p3901
I2
sS'georgia'
p3902
I2
sS'fourth-largest'
p3903
I2
sS'overcomes'
p3904
I2
sS'affect'
p3905
I5
sS'hitch'
p3906
I2
sS'vast'
p3907
I3
sS'pilgrim'
p3908
I3
sS'moonies'
p3909
I3
sS'crops'
p3910
I7
sS'companies'
p3911
I33
sS'commons'
p3912
I3
sS'herbert'
p3913
I2
sS'convenience'
p3914
I2
sS'unrelated'
p3915
I3
sS'cholesterol'
p3916
I3
sS'heading'
p3917
I3
sS'force'
p3918
I10
sS'japanese'
p3919
I50
sS'likely'
p3920
I13
sS'southwide'
p3921
I2
sS'tangential'
p3922
I2
sS'afl-cio'
p3923
I2
sS'joint-research'
p3924
I2
sS'spouses'
p3925
I3
sS'nec'
p3926
I2
sS'asia'
p3927
I8
sS'spokesman'
p3928
I11
sS'liberated'
p3929
I2
sS'3.35'
p3930
I2
sS'dr.'
p3931
I9
sS'new'
p3932
I132
sS'net'
p3933
I11
sS'ever'
p3934
I7
sS'deemed'
p3935
I2
sS'back-on-terra-firma'
p3936
I2
sS'men'
p3937
I6
sS'disposable'
p3938
I3
sS'drew'
p3939
I4
sS'met'
p3940
I2
sS'109'
p3941
I2
sS'102'
p3942
I2
sS'price-cutting'
p3943
I2
sS'100'
p3944
I15
sS'101'
p3945
I5
sS'contraction'
p3946
I2
sS'dry'
p3947
I2
sS'vulnerability'
p3948
I2
sS'credit'
p3949
I9
sS'harass'
p3950
I2
sS'suitable'
p3951
I2
sS'avena'
p3952
I2
sS'besides'
p3953
I4
sS'campaign'
p3954
I6
sS'revenue-raising'
p3955
I2
sS'reagan'
p3956
I6
sS'county'
p3957
I15
sS'ninety'
p3958
I2
sS'moral'
p3959
I2
sS'guests'
p3960
I2
sS'criminals'
p3961
I2
sS'army'
p3962
I2
sS'watering'
p3963
I2
sS'arms'
p3964
I6
sS'call'
p3965
I7
sS'calm'
p3966
I2
sS'survive'
p3967
I3
sS'type'
p3968
I3
sS'tell'
p3969
I6
sS'supporters'
p3970
I2
sS'wary'
p3971
I2
sS'composite'
p3972
I3
sS'wars'
p3973
I2
sS'berlin'
p3974
I2
sS'warm'
p3975
I3
sS'adult'
p3976
I2
sS'aligned'
p3977
I2
sS'chi-chi'
p3978
I2
sS'zama'
p3979
I2
sS'2.68'
p3980
I2
sS'rights'
p3981
I25
sS'gasoline'
p3982
I2
sS'movies'
p3983
I6
sS'laid-back'
p3984
I2
sS'guise'
p3985
I3
sS'give'
p3986
I14
sS'laughs'
p3987
I3
sS'lafalce'
p3988
I3
sS'involve'
p3989
I4
sS'10,000'
p3990
I7
sS'foods'
p3991
I2
sS'degenerate'
p3992
I2
sS'szeto'
p3993
I2
sS'advancing'
p3994
I2
sS'aging'
p3995
I2
sS'argonne'
p3996
I2
sS'amazing'
p3997
I3
sS'answer'
p3998
I3
sS'faulty'
p3999
I2
sS'massive'
p4000
I2
sS'minority'
p4001
I7
sS'disassemble'
p4002
I2
sS'vicious'
p4003
I2
sS'president'
p4004
I80
sS'deutsche'
p4005
I2
sS'purchase'
p4006
I21
sS'attempt'
p4007
I5
sS'third'
p4008
I10
sS'baa-1'
p4009
I2
sS'maintain'
p4010
I5
sS'uninsured'
p4011
I2
sS'fraudulently'
p4012
I2
sS'operate'
p4013
I3
sS'operations'
p4014
I16
sS'murray'
p4015
I2
sS'before'
p4016
I25
sS'10.2'
p4017
I2
sS'personal'
p4018
I12
sS'soaking'
p4019
I2
sS','
I2416
sS'better'
p4020
I12
sS'encounter'
p4021
I2
sS'enlisted'
p4022
I2
sS'weeks'
p4023
I12
sS'overcome'
p4024
I2
sS'dec.'
p4025
I5
sS'sterilization'
p4026
I2
sS'weakness'
p4027
I2
sS'unemployed'
p4028
I2
sS'academics'
p4029
I2
sS'therapy'
p4030
I3
sS'downright'
p4031
I2
sS'cautiousness'
p4032
I2
sS'pollution-control'
p4033
I3
sS'arrested'
p4034
I2
sS'schieffelin'
p4035
I2
sS'pollen-producing'
p4036
I2
sS'fringes'
p4037
I2
sS'leaned'
p4038
I2
sS'went'
p4039
I9
sS'side'
p4040
I7
sS'mean'
p4041
I8
sS'enthusiasts'
p4042
I2
sS'principles'
p4043
I3
sS'marital'
p4044
I6
sS'milan'
p4045
I3
sS'used'
p4046
I12
sS'trading'
p4047
I16
sS'awry'
p4048
I2
sS'clauses'
p4049
I2
sS'dawn'
p4050
I3
sS'contend'
p4051
I3
sS'merchants'
p4052
I2
sS'velvet'
p4053
I2
sS'gaelic'
p4054
I2
sS'crucial'
p4055
I2
sS'second-level'
p4056
I2
sS'content'
p4057
I3
sS'surprise'
p4058
I4
sS'sluggish'
p4059
I3
sS'tashi'
p4060
I3
sS'turning'
p4061
I4
sS'11.08'
p4062
I2
sS'u.s.'
p4063
I112
sS'ascending'
p4064
I3
sS'ramos'
p4065
I2
sS'aisle'
p4066
I2
sS'starts'
p4067
I2
sS'signature'
p4068
I2
sS'arrived'
p4069
I2
sS'stewart'
p4070
I3
sS'features'
p4071
I3
sS'economists'
p4072
I4
sS'reassure'
p4073
I2
sS'comforted'
p4074
I2
sS'executions'
p4075
I3
sS'featured'
p4076
I4
sS'plurality'
p4077
I2
sS'robust'
p4078
I3
sS'ditch'
p4079
I3
sS'feb.'
p4080
I3
sS'twisted'
p4081
I2
sS'38-year-old'
p4082
I2
sS'overstating'
p4083
I2
sS'woodwind'
p4084
I2
sS'burgess'
p4085
I2
sS'hollywood'
p4086
I2
sS'government-business'
p4087
I2
sS'digs'
p4088
I2
sS'georgia-pacific'
p4089
I2
sS'somewhat'
p4090
I2
sS'begins'
p4091
I3
sS'distance'
p4092
I4
sS'anxiety'
p4093
I2
sS'matter'
p4094
I5
sS'street'
p4095
I8
sS'silly'
p4096
I3
sS'divisiveness'
p4097
I2
sS'enables'
p4098
I2
sS'bidder'
p4099
I4
sS'sees'
p4100
I3
sS'palace'
p4101
I2
sS'chickens'
p4102
I2
sS'mind'
p4103
I2
sS'eyes'
p4104
I3
sS'all-time'
p4105
I2
sS'seed'
p4106
I10
sS'seen'
p4107
I3
sS'seem'
p4108
I5
sS'seek'
p4109
I7
sS'tells'
p4110
I2
sS'tweezers'
p4111
I2
sS'50.46'
p4112
I2
sS'transnational'
p4113
I2
sS'gabele'
p4114
I2
sS'regular'
p4115
I2
sS'holliger'
p4116
I2
sS'maria'
p4117
I2
sS'zealand'
p4118
I12
sS'don'
p4119
I2
sS'alarm'
p4120
I3
sS'competitors'
p4121
I3
sS'points'
p4122
I9
sS'principle'
p4123
I3
sS'consumer'
p4124
I12
sS'dow'
p4125
I9
sS'double-a'
p4126
I2
sS'retire'
p4127
I3
sS'liberty'
p4128
I5
sS'stepping'
p4129
I2
sS'judges'
p4130
I6
sS'northeast'
p4131
I2
sS'unleashes'
p4132
I2
sS'representing'
p4133
I2
sS'explain'
p4134
I2
sS'debts'
p4135
I4
sS'integrate'
p4136
I2
sS'jailed'
p4137
I3
sS'wearing'
p4138
I3
sS'praised'
p4139
I2
sS'exports'
p4140
I2
sS'stop'
p4141
I3
sS'coast'
p4142
I3
sS'equity-purchase'
p4143
I3
sS'765'
p4144
I2
sS'u.n.'
p4145
I4
sS'tymnet'
p4146
I2
sS'earl'
p4147
I2
sS'earn'
p4148
I3
sS'bar'
p4149
I6
sS'sailing'
p4150
I2
sS'fields'
p4151
I3
sS'rothschild'
p4152
I2
sS'bay'
p4153
I4
sS'bad'
p4154
I2
sS'architecture'
p4155
I2
sS'favors'
p4156
I2
sS'ban'
p4157
I2
sS'pug-nosed'
p4158
I2
sS'ethical'
p4159
I2
sS'fascinating'
p4160
I2
sS'testing'
p4161
I2
sS'decided'
p4162
I5
sS'half-an-hour'
p4163
I3
sS'subject'
p4164
I9
sS'brazil'
p4165
I3
sS'voyage'
p4166
I2
sS'said'
p4167
I262
sS'fastballs'
p4168
I2
sS'continent'
p4169
I2
sS'2120.5'
p4170
I2
sS'tolerance'
p4171
I2
sS'anti-western'
p4172
I2
sS'gems'
p4173
I2
sS'juxtapose'
p4174
I2
sS'vows'
p4175
I2
sS'vernon'
p4176
I2
sS'trade-off'
p4177
I2
sS'picking'
p4178
I2
sS'suggested'
p4179
I5
sS'disorderly'
p4180
I2
sS'resistant'
p4181
I3
sS'uncertainty'
p4182
I3
sS'pollinated'
p4183
I3
sS'against'
p4184
I48
sS'nekoosa'
p4185
I2
sS'appeared'
p4186
I2
sS'tiant'
p4187
I3
sS'offerings'
p4188
I2
sS'ballparks'
p4189
I2
sS'initiative'
p4190
I2
sS'39.125'
p4191
I2
sS'asks'
p4192
I3
sS'basis'
p4193
I6
sS'three'
p4194
I31
sS'tiny'
p4195
I4
sS'particulars'
p4196
I2
sS'commission'
p4197
I10
sS'interest'
p4198
I35
sS'basic'
p4199
I4
sS'basin'
p4200
I4
sS'lovely'
p4201
I4
sS'threw'
p4202
I3
sS'deeper'
p4203
I2
sS'mci'
p4204
I2
sS'dismiss'
p4205
I2
sS'mca'
p4206
I5
sS'connoisseur'
p4207
I2
sS'jewels'
p4208
I2
sS'personally'
p4209
I3
sS'aviation'
p4210
I3
sS'tank'
p4211
I2
sS'vendetta'
p4212
I2
sS'oboist'
p4213
I2
sS'economies'
p4214
I5
sS'auction'
p4215
I8
sS'near'
p4216
I9
sS'suppose'
p4217
I2
sS'itinerary'
p4218
I2
sS'balance'
p4219
I5
sS'study'
p4220
I2
sS'seven'
p4221
I5
sS'30-share'
p4222
I2
sS'metropolitan'
p4223
I3
sS'is'
p4224
I337
sS'it'
p4225
I265
sS'ii'
p4226
I4
sS'in'
p4227
I839
sS'80,000'
p4228
I2
sS'if'
p4229
I59
sS'grown'
p4230
I4
sS'bottles'
p4231
I3
sS'belle'
p4232
I2
sS'make'
p4233
I40
sS'stickier'
p4234
I2
sS'unfortunate'
p4235
I2
sS'sidelines'
p4236
I3
sS'meets'
p4237
I3
sS'discriminatory'
p4238
I2
sS'human-rights'
p4239
I2
sS'redevelop'
p4240
I2
sS'delight'
p4241
I3
sS'8.62'
p4242
I2
sS'kim'
p4243
I3
sS'opportunity'
p4244
I4
sS'kid'
p4245
I2
sS'butter'
p4246
I3
sS'waggishly'
p4247
I2
sS'practiced'
p4248
I3
sS'programs'
p4249
I11
sS'settled'
p4250
I3
sS'stimuli'
p4251
I2
sS'materials'
p4252
I3
sS'claims'
p4253
I7
sS'800'
p4254
I4
sS'investments'
p4255
I11
sS'left'
p4256
I10
sS'gov.'
p4257
I2
sS'protocol'
p4258
I2
sS'just'
p4259
I37
sS'yen'
p4260
I15
sS'sporting'
p4261
I2
sS'assigned'
p4262
I2
sS'human'
p4263
I4
sS'yes'
p4264
I2
sS'yet'
p4265
I13
sS'yew'
p4266
I2
sS'candidate'
p4267
I2
sS'legion'
p4268
I2
sS'save'
p4269
I2
sS'jahn'
p4270
I3
sS'braumeisters'
p4271
I2
sS'supervisors'
p4272
I2
sS'background'
p4273
I2
sS'wanting'
p4274
I2
sS'shoulder'
p4275
I2
sS'dignity'
p4276
I2
sS'profit-seeking'
p4277
I2
sS'unnecessary'
p4278
I3
sS'brunswick'
p4279
I2
sS'dean'
p4280
I3
sS'deal'
p4281
I12
sS'somehow'
p4282
I3
sS'short-term'
p4283
I8
sS'separately'
p4284
I6
sS'unfit'
p4285
I2
sS'trace'
p4286
I2
sS'78.64'
p4287
I2
sS'collect'
p4288
I2
sS'outspoken'
p4289
I2
sS'single-family'
p4290
I2
sS'motor-control'
p4291
I3
sS'bold'
p4292
I3
sS'bank-backed'
p4293
I2
sS'burn'
p4294
I2
sS'confrontation'
p4295
I3
sS'magazine'
p4296
I4
sS'afternoon'
p4297
I4
sS'automatically'
p4298
I5
sS'nerve'
p4299
I4
sS'motivate'
p4300
I2
sS'managers'
p4301
I6
sS'formerly'
p4302
I4
sS'amounted'
p4303
I2
sS'chooses'
p4304
I3
sS'down'
p4305
I35
sS'pair'
p4306
I2
sS'thinned'
p4307
I2
sS'cardiff'
p4308
I2
sS'amsterdam'
p4309
I2
sS'nervy'
p4310
I2
sS'initial'
p4311
I5
sS'lowering'
p4312
I2
sS'ifint'
p4313
I4
sS'editor'
p4314
I4
sS'fraction'
p4315
I2
sS'at-bat'
p4316
I2
sS'bert'
p4317
I2
sS'chiappa'
p4318
I2
sS'form'
p4319
I5
sS'immorality'
p4320
I2
sS'penney'
p4321
I5
sS'landing'
p4322
I2
sS'ford'
p4323
I17
sS'failure'
p4324
I4
sS'martex'
p4325
I2
sS'syndicate'
p4326
I3
sS'225'
p4327
I2
sS'analyst'
p4328
I13
sS'prevents'
p4329
I2
sS'attached'
p4330
I4
sS'economic'
p4331
I22
sS'stages'
p4332
I3
sS'long-distance'
p4333
I2
sS'phil'
p4334
I2
sS'one-third'
p4335
I3
sS'covers'
p4336
I2
sS'sale'
p4337
I18
sS'hot-air'
p4338
I3
sS'marking'
p4339
I2
sS'agreeing'
p4340
I2
sS'million-dollar'
p4341
I2
sS'generally'
p4342
I5
sS'handed'
p4343
I2
sS'digital'
p4344
I5
sS'exporter'
p4345
I2
sS'dies'
p4346
I3
sS'felt'
p4347
I4
sS'utilities'
p4348
I3
sS'vu'
p4349
I2
sS'fell'
p4350
I7
sS'resurfaced'
p4351
I2
sS'authorities'
p4352
I3
sS'weekend'
p4353
I2
sS'died'
p4354
I8
sS'billion'
p4355
I49
sS'assume'
p4356
I5
sS'annuity'
p4357
I3
sS'daily'
p4358
I5
sS'parcels'
p4359
I2
sS'profits'
p4360
I9
sS'overdue'
p4361
I3
sS'managed'
p4362
I3
sS'stimulator'
p4363
I2
sS'invent'
p4364
I2
sS'manager'
p4365
I10
sS'mile'
p4366
I3
sS'leche'
p4367
I4
sS'mill'
p4368
I2
sS'milk'
p4369
I10
sS'21st'
p4370
I2
sS'anticipation'
p4371
I2
sS'flaherty'
p4372
I2
sS'disorders'
p4373
I2
sS'technique'
p4374
I8
sS'father'
p4375
I3
sS'editors'
p4376
I2
sS'finally'
p4377
I6
sS'unpleasant'
p4378
I2
sS'emasculation'
p4379
I2
sS'marks'
p4380
I5
sS'misstatements'
p4381
I2
sS'advises'
p4382
I2
sS'ballooning'
p4383
I9
sS'keck'
p4384
I2
sS'string'
p4385
I3
sS'tnt'
p4386
I3
sS'construction'
p4387
I6
sS'lynch'
p4388
I4
sS'uneventful'
p4389
I2
sS'advised'
p4390
I2
sS'word'
p4391
I3
sS'66-year-old'
p4392
I2
sS'governments'
p4393
I7
sS'1997'
p4394
I3
sS'did'
p4395
I30
sS'permits'
p4396
I2
sS'proposals'
p4397
I6
sS'itel'
p4398
I3
sS'item'
p4399
I3
sS'59-dealer'
p4400
I2
sS'attracting'
p4401
I3
sS'unexpected'
p4402
I2
sS'fearing'
p4403
I2
sS'dealing'
p4404
I2
sS'telerate'
p4405
I3
sS'diapers'
p4406
I2
sS'stamford'
p4407
I3
sS'eating'
p4408
I3
sS'targets'
p4409
I4
sS'21.44'
p4410
I2
sS'majors'
p4411
I5
sS'adds'
p4412
I6
sS'troops'
p4413
I2
sS'page-one'
p4414
I2
sS'norris'
p4415
I4
sS'10-point'
p4416
I2
sS'suspect'
p4417
I2
sS'international'
p4418
I24
sS'filled'
p4419
I2
sS'growls'
p4420
I2
sS'proclaiming'
p4421
I2
sS'transportation'
p4422
I3
sS'wain'
p4423
I2
sS'wail'
p4424
I2
sS'clerk'
p4425
I2
sS'involuntarily'
p4426
I2
sS'french'
p4427
I13
sS'polyrhythms'
p4428
I2
sS'dewar'
p4429
I2
sS'stem'
p4430
I2
sS'earthquake'
p4431
I3
sS'superconductor'
p4432
I4
sS'alto'
p4433
I2
sS'cuckoo'
p4434
I4
sS'canadian'
p4435
I11
sS'institute'
p4436
I5
sS'salvage'
p4437
I2
sS'57.4'
p4438
I2
sS'suggestion'
p4439
I3
sS'high-tech'
p4440
I2
sS'priceless'
p4441
I2
sS'bob'
p4442
I2
sS'taipei'
p4443
I2
sS'adjustable'
p4444
I3
sS'useful'
p4445
I5
sS'merely'
p4446
I3
sS'hindemith'
p4447
I2
sS'licensing'
p4448
I2
sS'spring-early'
p4449
I2
sS'pitchers'
p4450
I3
sS'everybody'
p4451
I2
sS'wealth'
p4452
I2
sS'visit'
p4453
I2
sS'france'
p4454
I7
sS'creamy'
p4455
I2
sS'lorenzo'
p4456
I2
sS'sharing'
p4457
I2
sS'fine-tuned'
p4458
I2
sS'acceptable'
p4459
I2
sS'tandem'
p4460
I2
sS'rigid'
p4461
I2
sS'realty'
p4462
I2
sS'effort'
p4463
I6
sS'fly'
p4464
I3
sS'tokyo'
p4465
I19
sS'kouji'
p4466
I2
sS'soul'
p4467
I2
sS'wallet'
p4468
I2
sS'growing'
p4469
I10
sS'making'
p4470
I14
sS'dispute'
p4471
I13
sS'lords'
p4472
I2
sS'uruguay'
p4473
I2
sS'lobbying'
p4474
I2
sS'agent'
p4475
I2
sS'sample'
p4476
I2
sS'pointedly'
p4477
I2
sS'non-invasive'
p4478
I3
sS'council'
p4479
I4
sS'spanning'
p4480
I2
sS'pro-'
p4481
I2
sS'pine'
p4482
I3
sS'galbani'
p4483
I2
sS'chemical'
p4484
I8
sS'pure'
p4485
I2
sS'tile'
p4486
I2
sS'sworn'
p4487
I3
sS'ceremony'
p4488
I2
sS'designer'
p4489
I3
sS'140'
p4490
I2
sS'may'
p4491
I43
sS'149'
p4492
I2
sS'mac'
p4493
I5
sS'mae'
p4494
I8
sS'designed'
p4495
I5
sS'epileptics'
p4496
I2
sS'aisles'
p4497
I2
sS'grow'
p4498
I4
sS'pressuring'
p4499
I2
sS'man'
p4500
I9
sS'relinquish'
p4501
I2
sS'scrambling'
p4502
I2
sS'hannover'
p4503
I2
sS'neck'
p4504
I2
sS'johnson'
p4505
I4
sS'maybe'
p4506
I5
sS'borrowing'
p4507
I4
sS'tale'
p4508
I3
sS'switch'
p4509
I2
sS'deposit'
p4510
I5
sS'african'
p4511
I4
sS'basket'
p4512
I7
sS'talk'
p4513
I7
sS'nearly'
p4514
I10
sS'cute'
p4515
I2
sS'shoes'
p4516
I2
sS'canberra'
p4517
I2
sS'seeing'
p4518
I3
sS'wishing'
p4519
I2
sS'seimei'
p4520
I2
sS'argues'
p4521
I2
sS'recoup'
p4522
I2
sS'cuts'
p4523
I2
sS'250.2'
p4524
I2
sS'group'
p4525
I47
sS'monitor'
p4526
I4
sS'interesting'
p4527
I3
sS'undermined'
p4528
I2
sS'pontiac-cadillac'
p4529
I2
sS'listing'
p4530
I2
sS'policy'
p4531
I8
sS'mail'
p4532
I5
sS'mcenaney'
p4533
I3
sS'main'
p4534
I3
sS'sterility'
p4535
I2
sS'texas'
p4536
I16
sS'finance'
p4537
I9
sS'views'
p4538
I3
sS'impulses'
p4539
I3
sS'undisclosed'
p4540
I2
sS'sooner'
p4541
I2
sS'killed'
p4542
I2
sS'possess'
p4543
I2
sS'attorneys'
p4544
I3
sS'1.9'
p4545
I2
sS'careless'
p4546
I2
sS'rock'
p4547
I2
sS'scolded'
p4548
I2
sS'zurich'
p4549
I2
sS'scheme'
p4550
I3
sS's&p'
p4551
I7
sS's&l'
p4552
I5
sS'whirlwinds'
p4553
I2
sS'relive'
p4554
I2
sS'canada'
p4555
I12
sS'living'
p4556
I2
sS'deficit-reduction'
p4557
I2
sS'enjoyable'
p4558
I2
sS'hemmer'
p4559
I2
sS'bailout'
p4560
I7
sS'imperative'
p4561
I2
sS'correct'
p4562
I3
sS'earlier'
p4563
I21
sS'mercantile'
p4564
I2
sS'sideways'
p4565
I2
sS'wildbad'
p4566
I2
sS'california'
p4567
I8
sS'keith'
p4568
I2
sS'220,000'
p4569
I2
sS'advance'
p4570
I4
sS'underwear'
p4571
I2
sS'carnival'
p4572
I2
sS'ministry'
p4573
I2
sS'suisse'
p4574
I3
sS'thing'
p4575
I7
sS'economic-forecasting'
p4576
I2
sS'think'
p4577
I17
sS'frequent'
p4578
I5
sS'first'
p4579
I53
sS'exotic'
p4580
I2
sS'americans'
p4581
I8
sS'fast'
p4582
I3
sS'suspended'
p4583
I3
sS'carry'
p4584
I6
sS'corporations'
p4585
I9
sS'sounds'
p4586
I2
sS'rome'
p4587
I2
sS'single-b-1'
p4588
I2
sS'little'
p4589
I15
sS'single-b-3'
p4590
I2
sS'slept'
p4591
I2
sS'anyone'
p4592
I5
sS'speaking'
p4593
I2
sS'mining'
p4594
I2
sS'allegedly'
p4595
I4
sS'streaked'
p4596
I2
sS'moscow'
p4597
I7
sS'pompano'
p4598
I2
sS'sequels'
p4599
I2
sS'ricca'
p4600
I2
sS'once-cozy'
p4601
I2
sS'bio-analytical'
p4602
I2
sS'11'
p4603
I11
sS'10'
p4604
I34
sS'13'
p4605
I7
sS'12'
p4606
I9
sS'15'
p4607
I20
sS'14'
p4608
I5
sS'17'
p4609
I5
sS'16'
p4610
I6
sS'19'
p4611
I10
sS'18'
p4612
I5
sS'protected'
p4613
I2
sS'swearing-in'
p4614
I2
sS'venture'
p4615
I17
sS'were'
p4616
I96
sS'gathering'
p4617
I2
sS'briefs'
p4618
I2
sS'voices'
p4619
I3
sS'conspiracy'
p4620
I3
sS'pastry'
p4621
I4
sS'unaltered'
p4622
I2
sS'warsaw'
p4623
I5
sS'efficient'
p4624
I2
sS'answering'
p4625
I2
sS'shocked'
p4626
I2
sS'potential'
p4627
I11
sS'performance'
p4628
I8
sS'1,250'
p4629
I2
sS'channel'
p4630
I2
sS'200'
p4631
I3
sS'pain'
p4632
I2
sS'norman'
p4633
I2
sS'theatre'
p4634
I2
sS'normal'
p4635
I2
sS'track'
p4636
I2
sS'208'
p4637
I2
sS'kuehn'
p4638
I4
sS'paid'
p4639
I14
sS'sheets'
p4640
I2
sS'complaints'
p4641
I2
sS'tracy'
p4642
I2
sS'proxies'
p4643
I2
sS'conlon'
p4644
I3
sS'12,500'
p4645
I2
sS'especially'
p4646
I4
sS'surprising'
p4647
I2
sS'shuwa'
p4648
I2
sS'172.5'
p4649
I2
sS'obligatto'
p4650
I2
sS'georgeson'
p4651
I2
sS'shop'
p4652
I2
sS'rating'
p4653
I6
sS'show'
p4654
I10
sS'delta'
p4655
I3
sS'contemporary'
p4656
I4
sS'rep.'
p4657
I7
sS'cambodian'
p4658
I3
sS'forecast'
p4659
I2
sS'dice'
p4660
I2
sS'dick'
p4661
I2
sS'enough'
p4662
I6
sS'black'
p4663
I10
sS'treasury'
p4664
I22
sS'awareness'
p4665
I2
sS'ranking'
p4666
I2
sS'savoring'
p4667
I2
sS'montgolfing'
p4668
I2
sS'get'
p4669
I24
sS'contracts'
p4670
I4
sS'pricings'
p4671
I2
sS'employers'
p4672
I3
sS'hailed'
p4673
I2
sS'procreation'
p4674
I2
sS'conjunction'
p4675
I2
sS'secondary'
p4676
I3
sS'yield'
p4677
I19
sS'morning'
p4678
I6
sS'miles'
p4679
I3
sS'limited-production'
p4680
I2
sS'audited'
p4681
I2
sS'declared'
p4682
I3
sS'seat'
p4683
I5
sS'relative'
p4684
I2
sS'j.'
p4685
I9
sS'misconduct'
p4686
I2
sS'stigma'
p4687
I2
sS'wonder'
p4688
I5
sS'indicted'
p4689
I2
sS'label'
p4690
I4
sS'cultural-reform'
p4691
I2
sS'behind'
p4692
I8
sS'sihanouk'
p4693
I3
sS'metromedia-itt'
p4694
I2
sS'geometric'
p4695
I2
sS'reading'
p4696
I2
sS'across'
p4697
I5
sS'oversized'
p4698
I2
sS'infrastructure'
p4699
I2
sS'august'
p4700
I15
sS'parent'
p4701
I3
sS'signaled'
p4702
I2
sS'oberstar'
p4703
I2
sS'dates'
p4704
I3
sS'trades'
p4705
I3
sS'according'
p4706
I21
sS'sketchy'
p4707
I2
sS'marietta'
p4708
I3
sS'patrons'
p4709
I2
sS'holders'
p4710
I5
sS'traded'
p4711
I3
sS'nonentity'
p4712
I2
sS'among'
p4713
I18
sS'stretches'
p4714
I2
sS'maintained'
p4715
I3
sS'clambered'
p4716
I2
sS'considering'
p4717
I6
sS'mare'
p4718
I2
sS'arts'
p4719
I2
sS'capable'
p4720
I2
sS'quake-relief'
p4721
I2
sS'mark'
p4722
I2
sS'cecelia'
p4723
I2
sS'marunouchi'
p4724
I4
sS'shopping'
p4725
I2
sS'hodgepodge'
p4726
I2
sS'offered'
p4727
I20
sS'cattrall'
p4728
I2
sS'dramatic'
p4729
I3
sS'wake'
p4730
I3
sS'declaration'
p4731
I2
sS'prof.'
p4732
I2
sS'odyssey'
p4733
I2
sS'those'
p4734
I34
sS'sound'
p4735
I3
sS'predicament'
p4736
I2
sS'stacked'
p4737
I2
sS'6.056'
p4738
I2
sS"n't"
p4739
I160
sS'warning'
p4740
I2
sS'margin'
p4741
I3
sS'philosophies'
p4742
I2
sS'inadvertence'
p4743
I2
sS'conferences'
p4744
I5
sS'eventually'
p4745
I11
sS'sincere'
p4746
I2
sS'coffee'
p4747
I3
sS'sleeping'
p4748
I2
sS'middle'
p4749
I2
sS'sudden'
p4750
I2
sS'three-to-five-year'
p4751
I2
sS'tourist'
p4752
I3
sS'par'
p4753
I5
sS'harsh'
p4754
I2
sS'pay'
p4755
I31
sS'edwin'
p4756
I2
sS'same'
p4757
I9
sS'thinning'
p4758
I2
sS'speech'
p4759
I2
sS'arguments'
p4760
I4
sS'fireproofing'
p4761
I2
sS'1900s'
p4762
I2
sS'stepped'
p4763
I2
sS'pao'
p4764
I4
sS'buy-outs'
p4765
I2
sS'oil'
p4766
I5
sS'companion'
p4767
I3
sS'running'
p4768
I6
sS'totally'
p4769
I5
sS'drain'
p4770
I3
sS'businesslike'
p4771
I3
sS'markus'
p4772
I3
sS'wellington'
p4773
I6
sS'mortgages'
p4774
I13
sS'accountable'
p4775
I2
sS'bottle'
p4776
I2
sS'pa.'
p4777
I3
sS'alfalfa'
p4778
I2
sS'bromley'
p4779
I3
sS'peace'
p4780
I5
sS'monet'
p4781
I2
sS'asset-backed'
p4782
I3
sS'flier'
p4783
I2
sS'money'
p4784
I31
sS'adjustments'
p4785
I4
sS'leeway'
p4786
I2
sS'multiples'
p4787
I2
sS'statesmen'
p4788
I2
sS'dipped'
p4789
I2
sS'mcdonald'
p4790
I2
sS'trespasses'
p4791
I2
sS'4'
I7
sS'preflight'
p4792
I2
sS'pill'
p4793
I12
sS'safeguarded'
p4794
I2
sS'grip'
p4795
I2
sS'jake'
p4796
I3
sS'mow'
p4797
I2
sS'credentials'
p4798
I2
sS'railroad'
p4799
I2
sS'aiming'
p4800
I2
sS'disappointed'
p4801
I5
sS'christina'
p4802
I2
sS'acquainted'
p4803
I2
sS'serves'
p4804
I2
sS"'ve"
p4805
I6
sS'chamber'
p4806
I4
sS'audience'
p4807
I8
sS'either'
p4808
I9
sS'retailers'
p4809
I3
sS'served'
p4810
I3
sS'voluntarily'
p4811
I2
sS'tator'
p4812
I3
sS'pittsburg'
p4813
I2
sS'imprisonment'
p4814
I2
sS'specified'
p4815
I2
sS'images'
p4816
I3
sS'organizing'
p4817
I2
sS'matching'
p4818
I2
sS'gross'
p4819
I2
sS'genetics'
p4820
I2
sS'calculating'
p4821
I2
sS'confirm'
p4822
I2
sS'affiliate'
p4823
I2
sS'staffs'
p4824
I2
sS'measuring'
p4825
I2
sS'specializing'
p4826
I2
sS'underwriters'
p4827
I4
sS'manufactured'
p4828
I2
sS'notable'
p4829
I2
sS'broker'
p4830
I2
sS'notably'
p4831
I2
sS'846'
p4832
I2
sS'conducting'
p4833
I4
sS'preoccupied'
p4834
I2
sS'40,800'
p4835
I2
sS'7.649'
p4836
I2
sS'airline'
p4837
I8
sS'mounting'
p4838
I2
sS'mixed'
p4839
I3
sS'road'
p4840
I4
sS'fertile'
p4841
I2
sS'coupon'
p4842
I10
sS'spreading'
p4843
I2
sS'references'
p4844
I3
sS'gomez'
p4845
I4
sS'acquiesced'
p4846
I2
sS'spring-training'
p4847
I2
sS'styling'
p4848
I3
sS'hanover'
p4849
I2
sS'tycoon'
p4850
I2
sS'pleased'
p4851
I3
sS'sophisticated'
p4852
I2
sS'arranged'
p4853
I2
sS'co-chief'
p4854
I3
sS'centerfielder'
p4855
I2
sS'1.76'
p4856
I2
sS'manuel'
p4857
I2
sS'citation'
p4858
I2
sS'deep'
p4859
I5
sS'fellow'
p4860
I3
sS'examine'
p4861
I3
sS'file'
p4862
I8
sS'girlfriend'
p4863
I2
sS'fill'
p4864
I2
sS'again'
p4865
I8
sS'retiring'
p4866
I2
sS'personnel'
p4867
I3
sS'drivers'
p4868
I2
sS'hybrid'
p4869
I14
sS'narcotics'
p4870
I2
sS'field'
p4871
I13
sS'privatized'
p4872
I2
sS'4,000'
p4873
I2
sS'students'
p4874
I3
sS'forbidding-looking'
p4875
I2
sS'important'
p4876
I5
sS'brands'
p4877
I7
sS'prudent'
p4878
I3
sS'assets'
p4879
I17
sS'hugely'
p4880
I2
sS'husky'
p4881
I2
sS'starting'
p4882
I2
sS'represent'
p4883
I2
sS'suny'
p4884
I3
sS'founder'
p4885
I4
sS'suns'
p4886
I4
sS'suburban'
p4887
I2
sS'dollar'
p4888
I9
sS'founded'
p4889
I3
sS'cooperative'
p4890
I3
sS'talks'
p4891
I19
sS'sung'
p4892
I2
sS'reluctant'
p4893
I3
sS'modernization'
p4894
I2
sS'wako'
p4895
I2
sS'mandela'
p4896
I2
sS'paos'
p4897
I2
sS'premium'
p4898
I5
sS'returning'
p4899
I2
sS'witter'
p4900
I2
sS'fall'
p4901
I6
sS'difference'
p4902
I2
sS'13,249'
p4903
I2
sS'grand-jury'
p4904
I4
sS'celebrity'
p4905
I2
sS'wsj'
p4906
I3
sS'applicable'
p4907
I2
sS'donovan'
p4908
I3
sS'economically'
p4909
I3
sS'exemptions'
p4910
I2
sS'neighborhood'
p4911
I2
sS'conn.-based'
p4912
I2
sS'solicitations'
p4913
I2
sS'anti-abortionists'
p4914
I2
sS'ritter'
p4915
I2
sS'7*slashhere*8'
p4916
I7
sS'timberland'
p4917
I2
sS'titles'
p4918
I2
sS'perspective'
p4919
I2
sS'lawyer'
p4920
I7
sS'further'
p4921
I7
sS'10.48'
p4922
I3
sS'ziyang'
p4923
I2
sS'stood'
p4924
I3
sS'opted'
p4925
I2
sS'public'
p4926
I19
sS'movement'
p4927
I9
sS'ranged'
p4928
I3
sS'component'
p4929
I3
sS'ranges'
p4930
I2
sS'operating'
p4931
I11
sS'weekes'
p4932
I6
sS'standard'
p4933
I5
sS'campaigns'
p4934
I2
sS'search'
p4935
I2
sS'prosecutors'
p4936
I9
sS'repaying'
p4937
I2
sS'airport'
p4938
I3
sS'published'
p4939
I3
sS'streamline'
p4940
I3
sS'toxicity'
p4941
I2
sS'milks'
p4942
I2
sS'authorize'
p4943
I2
sS'tiananmen'
p4944
I3
sS'cowardly'
p4945
I2
sS'africa'
p4946
I2
sS'establish'
p4947
I5
sS'legislator'
p4948
I2
sS'readily'
p4949
I2
sS'shareholders'
p4950
I18
sS'twa'
p4951
I2
sS'eye'
p4952
I3
sS'uniformity'
p4953
I2
sS'interest-bearing'
p4954
I2
sS'two'
p4955
I78
sS'libel'
p4956
I3
sS'restraints'
p4957
I2
sS'achieving'
p4958
I2
sS'pawing'
p4959
I2
sS'tobacco'
p4960
I3
sS'chortled'
p4961
I2
sS'purse'
p4962
I2
sS'leonard'
p4963
I3
sS'apprehensions'
p4964
I2
sS'controlling'
p4965
I2
sS'bros'
p4966
I2
sS'particular'
p4967
I3
sS'town'
p4968
I4
sS'none'
p4969
I8
sS'hour'
p4970
I12
sS'strain'
p4971
I2
sS'recall'
p4972
I2
sS'phrasing'
p4973
I2
sS'dei'
p4974
I2
sS'remain'
p4975
I7
sS'pressing'
p4976
I2
sS'del'
p4977
I3
sS'subterfuge'
p4978
I2
sS'abandon'
p4979
I3
sS'strategies'
p4980
I3
sS'eichof'
p4981
I2
sS'specialized'
p4982
I2
sS'marble'
p4983
I2
sS'purchases'
p4984
I11
sS'share'
p4985
I50
sS'minimum'
p4986
I9
sS'numbers'
p4987
I2
sS'purchased'
p4988
I4
sS'sharp'
p4989
I4
sS'robinson'
p4990
I3
sS'narrowly'
p4991
I2
sS'needs'
p4992
I5
sS'engages'
p4993
I2
sS'subminimum'
p4994
I4
sS'13.2'
p4995
I2
sS'plans'
p4996
I15
sS'comfort'
p4997
I3
sS'morning-session'
p4998
I2
sS'heartwarmingly'
p4999
I2
sS'advice'
p5000
I3
sS'different'
p5001
I8
sS'deprogrammings'
p5002
I2
sS'coming'
p5003
I7
sS'deukmejian'
p5004
I2
sS'crippling'
p5005
I2
sS'pleasure'
p5006
I2
sS'playing'
p5007
I6
sS'rifles'
p5008
I2
sS'rounded'
p5009
I2
sS'watergate-beleaguered'
p5010
I2
sS'azerbaijan'
p5011
I2
sS'u.s.-soviet'
p5012
I2
sS'industrial'
p5013
I10
sS'through'
p5014
I27
sS'deterring'
p5015
I2
sS'arrogant'
p5016
I2
sS'golfing'
p5017
I2
sS'24'
p5018
I5
sS'25'
p5019
I10
sS'26'
p5020
I4
sS'27'
p5021
I3
sS'20'
p5022
I11
sS'21'
p5023
I4
sS'22'
p5024
I2
sS'23'
p5025
I6
sS'28'
p5026
I4
sS'29'
p5027
I5
sS'late'
p5028
I15
sS'detected'
p5029
I2
sS'penn'
p5030
I2
sS'hurting'
p5031
I2
sS'good'
p5032
I19
sS'postwar'
p5033
I2
sS'males'
p5034
I2
sS'socially'
p5035
I2
sS'oka'
p5036
I4
sS'formulating'
p5037
I3
sS'complain'
p5038
I4
sS'association'
p5039
I16
sS'mystery'
p5040
I2
sS'easily'
p5041
I4
sS'accusations'
p5042
I2
sS'rigueur'
p5043
I2
sS'65.7'
p5044
I2
sS'habits'
p5045
I3
sS'repeating'
p5046
I3
sS'integrated-circuit'
p5047
I2
sS'14-judge'
p5048
I2
sS'exquisite'
p5049
I2
sS'harm'
p5050
I3
sS'everyone'
p5051
I6
sS'house'
p5052
I31
sS'energy'
p5053
I6
sS'hard'
p5054
I8
sS'idea'
p5055
I7
sS'connect'
p5056
I2
sS'seniority'
p5057
I4
sS'dignitaries'
p5058
I2
sS'insurance'
p5059
I8
sS'initiatives'
p5060
I2
sS'uninvited'
p5061
I2
sS'funding'
p5062
I4
sS's.a.'
p5063
I3
sS'projected'
p5064
I4
sS'1.75'
p5065
I2
sS'participants'
p5066
I5
sS'longtime'
p5067
I3
sS'1.78'
p5068
I2
sS'disobedience'
p5069
I15
sS'crouched'
p5070
I2
sS'lawrence'
p5071
I3
sS'paschi'
p5072
I2
sS'backer'
p5073
I7
sS'mikhail'
p5074
I4
sS'extraordinary'
p5075
I4
sS'members'
p5076
I14
sS'backed'
p5077
I8
sS'beginning'
p5078
I10
sS'benefits'
p5079
I3
sS'computers'
p5080
I18
sS'pilote'
p5081
I2
sS'conducted'
p5082
I2
sS'pilots'
p5083
I21
sS'dons'
p5084
I2
sS'mistakenly'
p5085
I3
sS'done'
p5086
I9
sS'embraced'
p5087
I2
sS'wages'
p5088
I2
sS'0.05'
p5089
I2
sS'bullied'
p5090
I2
sS'joint-venture'
p5091
I2
sS'least'
p5092
I12
sS'obligatory'
p5093
I2
sS'paint'
p5094
I2
sS'regulation'
p5095
I2
sS'statement'
p5096
I10
sS'compromise'
p5097
I13
sS'shahal'
p5098
I2
sS'lease'
p5099
I3
sS'catapult'
p5100
I2
sS'muscles'
p5101
I3
sS'pest-control'
p5102
I2
sS'favorably'
p5103
I2
sS'wildly'
p5104
I2
sS'sensation'
p5105
I2
sS'sizable'
p5106
I2
sS'part'
p5107
I33
sS'muscled'
p5108
I2
sS'favorable'
p5109
I4
sS'doctors'
p5110
I3
sS'one-stop'
p5111
I2
sS'believe'
p5112
I11
sS'mail-sorting'
p5113
I2
sS'stirs'
p5114
I2
sS'869'
p5115
I3
sS'868'
p5116
I2
sS'mclaughlin'
p5117
I4
sS'b'
I6
sS'gotten'
p5118
I2
sS'cross-pollinated'
p5119
I2
sS'youth'
p5120
I3
sS'supposed'
p5121
I4
sS'treated'
p5122
I2
sS'chanted'
p5123
I3
sS'lilting'
p5124
I2
sS'aug.'
p5125
I3
sS'orders'
p5126
I5
sS'mountain'
p5127
I2
sS'collateralized'
p5128
I5
sS'built'
p5129
I7
sS'depending'
p5130
I2
sS'gorbachev'
p5131
I15
sS'majority'
p5132
I8
sS'appellate'
p5133
I4
sS'build'
p5134
I11
sS'province'
p5135
I2
sS'eggs'
p5136
I3
sS'most'
p5137
I44
sS'significant'
p5138
I7
sS'services'
p5139
I10
sS'extremely'
p5140
I3
sS'kiddies'
p5141
I3
sS'pocketing'
p5142
I2
sS'charitable'
p5143
I3
sS'fudosan'
p5144
I2
sS'joining'
p5145
I3
sS'sector'
p5146
I2
sS'216'
p5147
I2
sS'thomas'
p5148
I3
sS'directorate'
p5149
I3
sS'particularly'
p5150
I6
sS'disturbances'
p5151
I2
sS'obligations'
p5152
I3
sS'commissions'
p5153
I6
sS'businesses'
p5154
I13
sS'carefully'
p5155
I2
sS'fine'
p5156
I2
sS'find'
p5157
I7
sS'giant'
p5158
I3
sS'merger'
p5159
I4
sS'distributed'
p5160
I2
sS'unhappy'
p5161
I2
sS'generators'
p5162
I3
sS'override'
p5163
I3
sS'8'
I26
sS'distributes'
p5164
I2
sS'merged'
p5165
I2
sS'prowess'
p5166
I2
sS'permission'
p5167
I3
sS'express'
p5168
I9
sS'theft'
p5169
I4
sS'merchandise'
p5170
I3
sS'guile'
p5171
I2
sS'resolve'
p5172
I5
sS'transitional'
p5173
I2
sS'alisarda'
p5174
I2
sS'testifying'
p5175
I2
sS'remove'
p5176
I3
sS'six-month'
p5177
I7
sS'redefined'
p5178
I2
sS'common'
p5179
I7
sS'unfettered'
p5180
I2
sS'restaurants'
p5181
I3
sS'natural-resources'
p5182
I2
sS'opposing'
p5183
I3
sS'tended'
p5184
I2
sS'marston'
p5185
I3
sS'individual'
p5186
I6
sS'tender'
p5187
I2
sS'double-crossed'
p5188
I2
sS'n.j'
p5189
I2
sS'repairs'
p5190
I2
sS'1,214'
p5191
I2
sS'burner'
p5192
I3
sS'splendidly'
p5193
I2
sS'fans'
p5194
I6
sS'eight-year'
p5195
I2
sS'burned'
p5196
I2
sS'champagne'
p5197
I2
sS'responses'
p5198
I2
sS'complementary'
p5199
I2
sS'dividends'
p5200
I4
sS'environmentalists'
p5201
I2
sS'labella'
p5202
I2
sS'aircraft'
p5203
I7
sS'scuttle'
p5204
I3
sS'full-time'
p5205
I3
sS'restaurant'
p5206
I5
sS'powers'
p5207
I2
sS'annual'
p5208
I10
sS'foreign'
p5209
I27
sS'upgraded'
p5210
I2
sS'7.875'
p5211
I2
sS'point'
p5212
I5
sS'simple'
p5213
I3
sS'prosecuting'
p5214
I2
sS'ga.'
p5215
I2
sS'tennessee'
p5216
I3
sS'simply'
p5217
I10
sS'throughout'
p5218
I3
sS'expensive'
p5219
I5
sS'headaches'
p5220
I3
sS'n.v.'
p5221
I2
sS'raise'
p5222
I18
sS'create'
p5223
I6
sS'rivals'
p5224
I3
sS'secret'
p5225
I2
sS'dropping'
p5226
I2
sS'ireland'
p5227
I2
sS'meeting'
p5228
I32
sS'addison'
p5229
I2
sS'first-year'
p5230
I2
sS'assorted'
p5231
I2
sS'gas'
p5232
I6
sS'priced'
p5233
I14
sS'gao'
p5234
I2
sS'repertoire'
p5235
I3
sS'non-russian'
p5236
I2
sS'understand'
p5237
I4
sS'prices'
p5238
I23
sS'resisted'
p5239
I2
sS'replaces'
p5240
I2
sS'stertz'
p5241
I2
sS'grains'
p5242
I2
sS'solid'
p5243
I2
sS'bill'
p5244
I24
sS'elections'
p5245
I5
sS'replaced'
p5246
I2
sS'denominations'
p5247
I2
sS'fun'
p5248
I3
sS'advising'
p5249
I2
sS'incriminating'
p5250
I2
sS'century'
p5251
I5
sS'cents'
p5252
I23
sS'violently'
p5253
I2
sS'audience-friendly'
p5254
I2
sS'itself'
p5255
I6
sS'lomas'
p5256
I2
sS'okla.'
p5257
I2
sS'all-important'
p5258
I2
sS'italy'
p5259
I7
sS'sociologist'
p5260
I2
sS'benign'
p5261
I2
sS'discourse'
p5262
I2
sS'copying'
p5263
I2
sS'horton'
p5264
I3
sS'development'
p5265
I11
sS'praising'
p5266
I2
sS'yesterday'
p5267
I25
sS'moment'
p5268
I7
sS'purpose'
p5269
I4
sS'predecessors'
p5270
I2
sS'safe'
p5271
I3
sS'spent'
p5272
I6
sS'swiss'
p5273
I2
sS'organization'
p5274
I4
sS'spend'
p5275
I2
sS'howl'
p5276
I2
sS'one-year'
p5277
I6
sS'junk-bond'
p5278
I2
sS'ludicrous'
p5279
I2
sS'distracting'
p5280
I3
sS'openly'
p5281
I2
sS'unesco'
p5282
I9
sS'alternative'
p5283
I6
sS'predominantly'
p5284
I2
sS'timber'
p5285
I3
sS'letting'
p5286
I3
sS'fullscale'
p5287
I2
sS'cut'
p5288
I14
sS'cup'
p5289
I3
sS'deputy'
p5290
I2
sS'source'
p5291
I5
sS'subjects'
p5292
I5
sS'snap'
p5293
I2
sS'administrative'
p5294
I3
sS'big'
p5295
I16
sS'bid'
p5296
I14
sS'jerked'
p5297
I2
sS'matters'
p5298
I6
sS'foreigners'
p5299
I4
sS'bit'
p5300
I5
sS'pollinate'
p5301
I3
sS'knock'
p5302
I2
sS'follows'
p5303
I5
sS'alltel'
p5304
I4
sS'1.2'
p5305
I2
sS'glove'
p5306
I2
sS'indication'
p5307
I2
sS'depositary'
p5308
I2
sS'jolted'
p5309
I2
sS'54.5'
p5310
I2
sS'often'
p5311
I9
sS'absolutely'
p5312
I2
sS'obliged'
p5313
I2
sS'30s'
p5314
I2
sS'back'
p5315
I33
sS'bach'
p5316
I3
sS'redistributionism'
p5317
I2
sS'delegation'
p5318
I2
sS'pricing'
p5319
I3
sS'scuttled'
p5320
I2
sS'vietnamese-backed'
p5321
I2
sS'pronounced'
p5322
I2
sS'scale'
p5323
I3
sS'jewelry'
p5324
I9
sS'culprit'
p5325
I2
sS'contacts'
p5326
I2
sS'decision'
p5327
I17
sS'91-day'
p5328
I2
sS'per'
p5329
I3
sS'eliminate'
p5330
I3
sS'313.2'
p5331
I2
sS'full-scale'
p5332
I2
sS'patient'
p5333
I4
sS'300'
p5334
I6
sS'continuing'
p5335
I3
sS'use'
p5336
I22
sS'restrictive'
p5337
I2
sS'lerman'
p5338
I2
sS'goods'
p5339
I4
sS'conciliatory'
p5340
I2
sS'tenants'
p5341
I2
sS'pollution'
p5342
I3
sS'8.04'
p5343
I3
sS'harassed'
p5344
I2
sS'nsa'
p5345
I2
sS'abusive'
p5346
I3
sS'retailer'
p5347
I2
sS'exercises'
p5348
I2
sS'steven'
p5349
I2
sS'bankruptcy'
p5350
I10
sS'forth'
p5351
I2
sS'satoko'
p5352
I2
sS'conduits'
p5353
I2
sS'1.50'
p5354
I2
sS's.c.'
p5355
I2
sS'adjusting'
p5356
I2
sS'murphy'
p5357
I2
sS'hoped'
p5358
I2
sS'boys'
p5359
I2
sS'two-part'
p5360
I4
sS'hopes'
p5361
I8
sS'subsidiary'
p5362
I7
sS'directed'
p5363
I2
sS'rejection'
p5364
I2
sS'generating'
p5365
I2
sS'halfhearted'
p5366
I2
sS"'re"
p5367
I18
sS'planes'
p5368
I3
sS'jumbo'
p5369
I3
sS'well-known'
p5370
I2
sS'curt'
p5371
I2
sS'constant'
p5372
I3
sS'stripped'
p5373
I3
sS'lackeys'
p5374
I2
sS'deprive'
p5375
I2
sS'consulted'
p5376
I2
sS'dragging'
p5377
I2
sS'%'
I252
sS'sterilize'
p5378
I2
sS'spanish-language'
p5379
I2
sS'lend'
p5380
I2
sS'testified'
p5381
I4
sS'prepared'
p5382
I4
sS'visibility'
p5383
I2
sS'prepares'
p5384
I2
sS'japan-u.s'
p5385
I2
sS'vehicles'
p5386
I6
sS'bankers'
p5387
I3
sS'notion'
p5388
I2
sS'2001'
p5389
I3
sS'2004'
p5390
I2
sS'2005'
p5391
I2
sS'magnetically'
p5392
I2
sS'debenture'
p5393
I2
sS'minors'
p5394
I2
sS'fitch'
p5395
I2
sS'j.c.'
p5396
I5
sS'intricate'
p5397
I2
sS'15,000'
p5398
I4
sS'gm-jaguar'
p5399
I2
sS'rc6280'
p5400
I3
sS'boom-or-bust'
p5401
I2
sS'intensive'
p5402
I5
sS'chaps'
p5403
I2
sS'quarterly'
p5404
I8
sS'lilly'
p5405
I4
sS'labels'
p5406
I4
sS'dessert'
p5407
I2
sS'nixed'
p5408
I2
sS'putting'
p5409
I2
sS'entire'
p5410
I4
sS'uncovering'
p5411
I2
sS'knight'
p5412
I2
sS'rearing'
p5413
I2
sS'flex-time'
p5414
I2
sS'crop'
p5415
I5
sS'yetnikoff'
p5416
I5
sS'nests'
p5417
I2
sS'staffers'
p5418
I3
sS'pittance'
p5419
I2
sS'chicago'
p5420
I6
sS'giving'
p5421
I6
sS'access'
p5422
I5
sS'clipboard'
p5423
I3
sS'industrialized'
p5424
I2
sS'irreparable'
p5425
I2
sS'exercise'
p5426
I3
sS'body'
p5427
I4
sS'exchange'
p5428
I20
sS'jointly'
p5429
I2
sS'objects'
p5430
I2
sS'healing'
p5431
I2
sS'others'
p5432
I14
sS'luis'
p5433
I2
sS'safer'
p5434
I2
sS'extreme'
p5435
I3
sS'39'
p5436
I2
sS'32'
p5437
I4
sS'31'
p5438
I7
sS'30'
p5439
I27
sS'37'
p5440
I4
sS'alaska'
p5441
I2
sS'35'
p5442
I3
sS'34'
p5443
I2
sS'honor'
p5444
I2
sS'named'
p5445
I21
sS'limp'
p5446
I2
sS'private'
p5447
I4
sS'minnesota'
p5448
I2
sS'gordon'
p5449
I2
sS'decrease'
p5450
I2
sS'privately'
p5451
I4
sS'composer'
p5452
I3
sS'limb'
p5453
I2
sS'scandal'
p5454
I3
sS'year-ago'
p5455
I2
sS'themselves'
p5456
I10
sS'defendant'
p5457
I2
sS'trait'
p5458
I2
sS'trail'
p5459
I2
sS'train'
p5460
I2
sS'9.85'
p5461
I2
sS'tattered'
p5462
I2
sS'arranging'
p5463
I2
sS'80%-owned'
p5464
I2
sS'iii'
p5465
I3
sS'non-communist'
p5466
I2
sS'account'
p5467
I9
sS'16.05'
p5468
I2
sS'erwin'
p5469
I3
sS'obvious'
p5470
I3
sS'closing'
p5471
I4
sS'rehabilitation'
p5472
I3
sS'something'
p5473
I5
sS'reserved'
p5474
I2
sS'proportions'
p5475
I3
sS'effectively'
p5476
I2
sS'reserves'
p5477
I2
sS'exclaims'
p5478
I2
sS'employs'
p5479
I4
sS'10.05'
p5480
I2
sS'maturities'
p5481
I4
sS'dinners'
p5482
I2
sS'holds'
p5483
I5
sS'regions'
p5484
I3
sS'responsibilities'
p5485
I3
sS'winners'
p5486
I2
sS'forest'
p5487
I2
sS'stock'
p5488
I46
sS'buildings'
p5489
I2
sS'204.8'
p5490
I2
sS'waters'
p5491
I2
sS'market-research'
p5492
I2
sS'collection'
p5493
I2
sS'bothered'
p5494
I2
sS'nullify'
p5495
I2
sS'leisure'
p5496
I2
sS'wisecracks'
p5497
I2
sS'fray'
p5498
I2
sS'rev.'
p5499
I2
sS'bind'
p5500
I3
sS'944'
p5501
I2
sS'lines'
p5502
I5
sS'chief'
p5503
I27
sS'metaphors'
p5504
I2
sS'testament-style'
p5505
I2
sS'800,000'
p5506
I2
sS'aiken'
p5507
I2
sS'institutional'
p5508
I7
sS'ever-changing'
p5509
I2
sS'duffers'
p5510
I2
sS'agricultural'
p5511
I4
sS'industries'
p5512
I10
sS'negotiated'
p5513
I5
sS'la'
p5514
I4
sS'2-for-1'
p5515
I2
sS'acres'
p5516
I2
sS'willing'
p5517
I7
sS'yamaichi'
p5518
I2
sS'criminal'
p5519
I3
sS'greater'
p5520
I5
sS'fiesta'
p5521
I2
sS'cutting'
p5522
I5
sS'courtroom'
p5523
I4
sS'sonata'
p5524
I2
sS'insisting'
p5525
I3
sS'dax'
p5526
I2
sS'day'
p5527
I12
sS'capital-gains'
p5528
I2
sS'phineas'
p5529
I2
sS'february'
p5530
I2
sS'l.'
p5531
I6
sS'warned'
p5532
I4
sS'preclude'
p5533
I2
sS'identified'
p5534
I2
sS'morris'
p5535
I2
sS'warner'
p5536
I32
sS'activate'
p5537
I2
sS'thwart'
p5538
I2
sS'administrator'
p5539
I2
sS'salesman'
p5540
I3
sS'announcer'
p5541
I2
sS'aga'
p5542
I7
sS'defend'
p5543
I2
sS'istituto'
p5544
I2
sS'insolvent'
p5545
I2
sS'postpone'
p5546
I3
sS'red'
p5547
I7
sS'harold'
p5548
I2
sS'582'
p5549
I2
sS'coed'
p5550
I2
sS'frank'
p5551
I6
sS'fourteen'
p5552
I2
sS'clarify'
p5553
I2
sS'afterward'
p5554
I2
sS'receipts'
p5555
I2
sS'allies'
p5556
I7
sS'recipes'
p5557
I5
sS'abuse'
p5558
I2
sS'barriers'
p5559
I2
sS'retain'
p5560
I5
sS'retail'
p5561
I2
sS'south'
p5562
I18
sS'finest'
p5563
I2
sS'2,000'
p5564
I5
sS'strategic'
p5565
I6
sS'embarrassed'
p5566
I2
sS'alleys'
p5567
I2
sS'rusticated'
p5568
I2
sS'reached'
p5569
I8
sS'pershare'
p5570
I2
sS'single-a-3'
p5571
I6
sS'single-a-2'
p5572
I5
sS'recapitalization'
p5573
I2
sS'bosco'
p5574
I2
sS'smolder'
p5575
I2
sS'completed'
p5576
I9
sS'acquire'
p5577
I4
sS'7.45'
p5578
I2
sS'environmental'
p5579
I3
sS'completes'
p5580
I2
sS'glamorous'
p5581
I2
sS'shevardnadze'
p5582
I4
sS'bullhorns'
p5583
I2
sS'asean'
p5584
I2
sS'compensation'
p5585
I4
sS'circumspect'
p5586
I2
sS'embody'
p5587
I2
sS'visited'
p5588
I5
sS'abolished'
p5589
I2
sS'pardoned'
p5590
I2
sS'imaginative'
p5591
I3
sS'comfortable'
p5592
I2
sS'tide'
p5593
I3
sS'38.2'
p5594
I2
sS'unlikely'
p5595
I5
sS'have'
p5596
I172
sS'dictate'
p5597
I2
sS'apparently'
p5598
I5
sS'tomash'
p5599
I4
sS'dallas'
p5600
I2
sS'parks'
p5601
I2
sS'mix'
p5602
I2
sS'concerns'
p5603
I6
sS'326'
p5604
I2
sS'provoked'
p5605
I3
sS'1.31'
p5606
I2
sS'1.34'
p5607
I2
sS'1.35'
p5608
I2
sS'1.37'
p5609
I2
sS'unless'
p5610
I7
sS'eight'
p5611
I2
sS'preliminary'
p5612
I6
sS'sedan'
p5613
I4
sS'sfe'
p5614
I4
sS'reveling'
p5615
I2
sS'payment'
p5616
I6
sS'gurus'
p5617
I2
sS'quotations'
p5618
I2
sS'enthusiastic'
p5619
I3
sS'request'
p5620
I4
sS'1,000'
p5621
I3
sS'1,001'
p5622
I2
sS'}'
I19
sS'gnu-emacs'
p5623
I3
sS'selection'
p5624
I2
sS'galvanizing'
p5625
I2
sS'supported'
p5626
I3
sS'portfolio'
p5627
I3
sS'30,180'
p5628
I2
sS'thicket'
p5629
I2
sS'staff'
p5630
I6
sS'communism'
p5631
I2
sS'grabbed'
p5632
I3
sS'restyled'
p5633
I2
sS'controls'
p5634
I5
sS'loafers'
p5635
I3
sS'communist'
p5636
I4
sS'regularly'
p5637
I3
sS'beat'
p5638
I4
sS'october'
p5639
I12
sS'timing'
p5640
I4
sS'areas'
p5641
I6
sS'organ'
p5642
I2
sS'362'
p5643
I2
sS'teams'
p5644
I3
sS'ballplayers'
p5645
I2
sS'fixed'
p5646
I3
sS'38,000'
p5647
I2
sS'national'
p5648
I26
sS'we'
p5649
I55
sS'grudging'
p5650
I2
sS'j.e.'
p5651
I2
sS'enhanced'
p5652
I3
sS'greece'
p5653
I2
sS'audits'
p5654
I6
sS'36.6'
p5655
I2
sS'exploited'
p5656
I2
sS'reform'
p5657
I3
sS'clearing'
p5658
I2
sS'brunt'
p5659
I2
sS'discounts'
p5660
I2
sS'routine'
p5661
I4
sS'progress'
p5662
I3
sS'antics'
p5663
I2
sS'7.0808'
p5664
I2
sS'armenia'
p5665
I2
sS'health-conscious'
p5666
I2
sS'buster'
p5667
I2
sS'taking'
p5668
I6
sS'attributed'
p5669
I4
sS'agree'
p5670
I8
sS'assure'
p5671
I2
sS'liquidating'
p5672
I3
sS'attributes'
p5673
I2
sS'comment'
p5674
I9
sS'fostering'
p5675
I2
sS'clues'
p5676
I2
sS'disarmament'
p5677
I2
sS'bikini'
p5678
I2
sS'manhood'
p5679
I2
sS'flourishing'
p5680
I2
sS'copies'
p5681
I2
sS'tyler'
p5682
I2
sS'indicators'
p5683
I9
sS'proposal'
p5684
I8
sS'pravda'
p5685
I4
sS'essentially'
p5686
I3
sS'finished'
p5687
I2
sS'bull'
p5688
I3
sS'general'
p5689
I29
sS'locales'
p5690
I2
sS'homes'
p5691
I2
sS'plaid'
p5692
I2
sS'crowds'
p5693
I2
sS'appearance'
p5694
I5
sS'promoter'
p5695
I2
sS'augusta'
p5696
I2
sS'instigated'
p5697
I2
sS'fault'
p5698
I2
sS'at'
p5699
I242
sS'almost'
p5700
I10
sS"m'bow"
p5701
I4
sS'helped'
p5702
I7
sS'landfills'
p5703
I2
sS'claimed'
p5704
I4
sS'partner'
p5705
I7
sS'inspector'
p5706
I2
sS')'
I73
sS'administration'
p5707
I10
sS'mahatma'
p5708
I2
sS'fifth-largest'
p5709
I2
sS'frivolous'
p5710
I2
sS'injured'
p5711
I2
sS'kidnapping'
p5712
I2
sS'cubic'
p5713
I2
sS'reporting'
p5714
I4
sS'never'
p5715
I10
sS'257.8'
p5716
I2
sS'recourse'
p5717
I2
sS'center'
p5718
I16
sS'yates'
p5719
I2
sS'nevertheless'
p5720
I2
sS'ious'
p5721
I2
sS'thought'
p5722
I5
sS'sets'
p5723
I2
sS'pre-trial'
p5724
I2
sS'muscle'
p5725
I3
sS'soviet'
p5726
I30
sS'usual'
p5727
I2
sS'stores'
p5728
I5
sS'executive'
p5729
I27
sS'domestic'
p5730
I11
sS'clinic'
p5731
I3
sS'41-lawyer'
p5732
I2
sS'seats'
p5733
I3
sS'tough'
p5734
I3
sS'ads'
p5735
I8
sS'demographic'
p5736
I2
sS'bench'
p5737
I6
sS'288'
p5738
I2
sS'add'
p5739
I5
sS'forbes'
p5740
I2
sS'stimulate'
p5741
I2
sS'ought'
p5742
I6
sS'resolved'
p5743
I4
sS'tests'
p5744
I8
sS'judiciary'
p5745
I3
sS'hees'
p5746
I7
sS'displaced'
p5747
I2
sS'motorola'
p5748
I2
sS'like'
p5749
I25
sS'success'
p5750
I7
sS'porous'
p5751
I2
sS'admitted'
p5752
I3
sS'works'
p5753
I3
sS'soft'
p5754
I3
sS'kucharski'
p5755
I2
sS'italian'
p5756
I2
sS'accessible'
p5757
I2
sS'outfield'
p5758
I2
sS'cellists'
p5759
I2
sS'propel'
p5760
I2
sS'alive'
p5761
I2
sS'hair'
p5762
I3
sS'proper'
p5763
I2
sS'novelist'
p5764
I2
sS'righthander'
p5765
I2
sS'garrett'
p5766
I2
sS'hurricane'
p5767
I3
sS'assuming'
p5768
I3
sS'speak'
p5769
I2
sS'slight'
p5770
I2
sS'host'
p5771
I3
sS'expire'
p5772
I2
sS'although'
p5773
I14
sS'hospitable'
p5774
I2
sS'panel'
p5775
I4
sS'retribution'
p5776
I2
sS'about'
p5777
I78
sS'actual'
p5778
I3
sS'boards'
p5779
I2
sS'peelback'
p5780
I2
sS'discard'
p5781
I2
sS'introduced'
p5782
I7
sS'baseless'
p5783
I2
sS'seniors'
p5784
I2
sS'depart'
p5785
I2
sS'billions'
p5786
I3
sS'guard'
p5787
I2
sS'female'
p5788
I7
sS'luxembourg-based'
p5789
I2
sS'currier'
p5790
I2
sS'1986'
p5791
I9
sS'1987'
p5792
I11
sS'knuckles'
p5793
I2
sS'1985'
p5794
I7
sS'ridge'
p5795
I2
sS'1983'
p5796
I4
sS'1980'
p5797
I4
sS'1981'
p5798
I4
sS'general-practice'
p5799
I2
sS'1988'
p5800
I12
sS'awarded'
p5801
I3
sS'stimulative'
p5802
I2
sS'biggest'
p5803
I6
sS'buy'
p5804
I16
sS'bus'
p5805
I2
sS'brand'
p5806
I5
sS'sequel'
p5807
I3
sS'but'
p5808
I180
sS'insured'
p5809
I4
sS'repeated'
p5810
I2
sS'8.27'
p5811
I2
sS'wealthier'
p5812
I3
sS'money-fund'
p5813
I3
sS'strident'
p5814
I2
sS'wise'
p5815
I2
sS'dangerous'
p5816
I2
sS'mists'
p5817
I2
sS'flip'
p5818
I2
sS'seib'
p5819
I2
sS'lecheria'
p5820
I3
sS'minutes'
p5821
I6
sS'tastes'
p5822
I3
sS'wage-discrimination'
p5823
I2
sS'supreme'
p5824
I4
sS'recounts'
p5825
I2
sS'crusade'
p5826
I2
sS'inflation-fighting'
p5827
I2
sS'periods'
p5828
I2
sS'83'
p5829
I2
sS'nazionale'
p5830
I2
sS'mysteriously'
p5831
I2
sS'proceeds'
p5832
I5
sS'49'
p5833
I3
sS'46'
p5834
I2
sS'47'
p5835
I2
sS'44'
p5836
I4
sS'45'
p5837
I5
sS'42'
p5838
I2
sS'detail'
p5839
I4
sS'40'
p5840
I6
sS'surreal'
p5841
I2
sS'oat'
p5842
I3
sS'sandy'
p5843
I2
sS'out'
p5844
I48
sS'stirred'
p5845
I2
sS'resolution'
p5846
I2
sS'baker'
p5847
I2
sS'industry-government'
p5848
I2
sS'biotechnology'
p5849
I4
sS'cookbook'
p5850
I2
sS'41,900'
p5851
I2
sS'limited'
p5852
I11
sS'7.15'
p5853
I2
sS'hats'
p5854
I2
sS'sterilizing'
p5855
I2
sS'sleek'
p5856
I3
sS'facilities'
p5857
I6
sS'nwa'
p5858
I2
sS'hate'
p5859
I2
sS'rendezvoused'
p5860
I2
sS'public-relations'
p5861
I2
sS'1.12'
p5862
I2
sS'violate'
p5863
I3
sS'1.11'
p5864
I2
sS'paris'
p5865
I4
sS'1.18'
p5866
I2
sS'7.62'
p5867
I2
sS'under'
p5868
I39
sS'stationery'
p5869
I2
sS'pride'
p5870
I3
sS'merchant'
p5871
I2
sS'lure'
p5872
I2
sS'u.s.-japan'
p5873
I3
sS'legislators'
p5874
I3
sS'risk'
p5875
I7
sS'rise'
p5876
I11
sS'risc'
p5877
I6
sS'position-squaring'
p5878
I2
sS'every'
p5879
I5
sS'softened'
p5880
I2
sS'harms'
p5881
I2
sS'missionary'
p5882
I2
sS'get-togethers'
p5883
I2
sS'school'
p5884
I6
sS'pooled'
p5885
I2
sS'antisony'
p5886
I2
sS'173.1'
p5887
I2
sS'flashy'
p5888
I2
sS'enjoy'
p5889
I4
sS'u.s.-philippine'
p5890
I2
sS'leaders'
p5891
I17
sS'estimates'
p5892
I8
sS'direct'
p5893
I5
sS'fabulous'
p5894
I2
sS'borrowings'
p5895
I2
sS'estimated'
p5896
I12
sS'shining'
p5897
I2
sS'blue'
p5898
I2
sS'anti-apartheid'
p5899
I2
sS'hide'
p5900
I2
sS'selected'
p5901
I2
sS'profitability'
p5902
I2
sS'poison'
p5903
I22
sS'steriles'
p5904
I2
sS'conduct'
p5905
I3
sS'supplier'
p5906
I2
sS'seeks'
p5907
I4
sS'teachers'
p5908
I3
sS'hundreds'
p5909
I5
sS'standing-room-only'
p5910
I2
sS'studio'
p5911
I7
sS'represented'
p5912
I3
sS'property'
p5913
I6
sS'ventures'
p5914
I6
sS'leaves'
p5915
I2
sS'changed'
p5916
I4
sS'analysts'
p5917
I14
sS'chateau'
p5918
I2
sS'changes'
p5919
I14
sS'issuers'
p5920
I3
sS'swearing'
p5921
I2
sS'feelings'
p5922
I2
sS'visible'
p5923
I3
sS'punching'
p5924
I2
sS'2692.65'
p5925
I2
sS'philip'
p5926
I2
sS'swings'
p5927
I3
sS'would'
p5928
I123
sS'hospital'
p5929
I3
sS'm.'
p5930
I2
sS'wordplay'
p5931
I2
sS'asset'
p5932
I3
sS'assessment'
p5933
I2
sS'preserved'
p5934
I2
sS'single-handedly'
p5935
I2
sS'naive'
p5936
I2
sS'muse'
p5937
I2
sS'phone'
p5938
I3
sS'excellent'
p5939
I2
sS'must'
p5940
I13
sS'me'
p5941
I12
sS'join'
p5942
I3
sS'tremendously'
p5943
I2
sS'crescott'
p5944
I2
sS'deficiencies'
p5945
I2
sS'install'
p5946
I3
sS'my'
p5947
I28
sS'male-fertile'
p5948
I3
sS'loosen'
p5949
I2
sS'receivables'
p5950
I5
sS'florida'
p5951
I5
sS'preserving'
p5952
I2
sS'7.80'
p5953
I2
sS'jetliner'
p5954
I2
sS'times'
p5955
I10
sS'attract'
p5956
I4
sS'guarantee'
p5957
I2
sS'male-sterile'
p5958
I5
sS'end'
p5959
I21
sS'75.1'
p5960
I2
sS'bunt'
p5961
I2
sS'adjacent'
p5962
I3
sS'widespread'
p5963
I2
sS'badly'
p5964
I5
sS'pre-approved'
p5965
I2
sS'claptrap'
p5966
I2
sS'kavanagh'
p5967
I2
sS'amid'
p5968
I4
sS'acknowledged'
p5969
I3
sS'enter'
p5970
I3
sS'civil-service'
p5971
I2
sS'over'
p5972
I52
sS'expects'
p5973
I10
sS'london'
p5974
I14
sS'fairway'
p5975
I2
sS'expectations'
p5976
I3
sS'writing'
p5977
I2
sS'16.3'
p5978
I3
sS'400'
p5979
I5
sS'diseases'
p5980
I2
sS'payouts'
p5981
I2
sS'matagorda'
p5982
I2
sS'roost'
p5983
I2
sS'mosher'
p5984
I2
sS'26.125'
p5985
I2
sS'tourism'
p5986
I2
sS'30-year'
p5987
I3
sS'alex'
p5988
I2
sS'cronyism'
p5989
I2
sS'detroit'
p5990
I5
sS'filling'
p5991
I2
sS'dollar-denominated'
p5992
I2
sS'newport'
p5993
I4
sS'each'
p5994
I28
sS'lasting'
p5995
I2
sS'signing'
p5996
I3
sS'autry'
p5997
I2
sS'worded'
p5998
I2
sS'magnets'
p5999
I2
sS'combining'
p6000
I4
sS'saturday'
p6001
I3
sS't.'
p6002
I2
sS'looseleaf'
p6003
I2
sS'driving'
p6004
I3
sS'sang'
p6005
I2
sS'god'
p6006
I3
sS'collaborated'
p6007
I2
sS'laid'
p6008
I2
sS'got'
p6009
I10
sS'newly'
p6010
I4
sS'gop'
p6011
I2
sS'independence'
p6012
I3
sS'sept.'
p6013
I6
sS'merchandising'
p6014
I2
sS'free'
p6015
I12
sS'fred'
p6016
I2
sS'masterpiece'
p6017
I2
sS'formation'
p6018
I2
sS'time-limited'
p6019
I5
sS'boosting'
p6020
I2
sS'wanted'
p6021
I7
sS'inexpensive'
p6022
I2
sS'days'
p6023
I33
sS'pence'
p6024
I8
sS'20th'
p6025
I2
sS'soda'
p6026
I2
sS'already'
p6027
I13
sS'researcher'
p6028
I5
sS'researches'
p6029
I2
sS'primary'
p6030
I4
sS'hearing'
p6031
I7
sS'adopted'
p6032
I8
sS'insulation'
p6033
I2
sS'portable'
p6034
I2
sS'their'
p6035
I100
sS'0.02'
p6036
I2
sS'top'
p6037
I18
sS'heights'
p6038
I3
sS'too'
p6039
I15
sS'tom'
p6040
I2
sS'percentage'
p6041
I9
sS'urban'
p6042
I3
sS'tool'
p6043
I4
sS'serve'
p6044
I3
sS'took'
p6045
I12
sS'negotiating'
p6046
I5
sS'western'
p6047
I9
sS'longer-term'
p6048
I2
sS'roles'
p6049
I2
sS'bloated'
p6050
I2
sS'tourists'
p6051
I2
sS'18.8'
p6052
I2
sS'precocious'
p6053
I2
sS'classes'
p6054
I3
sS'flame'
p6055
I2
sS'bridge'
p6056
I2
sS'fashion'
p6057
I5
sS'pollination'
p6058
I2
sS'ran'
p6059
I3
sS'commercializing'
p6060
I2
sS'talking'
p6061
I4
sS'epp'
p6062
I2
sS'rap'
p6063
I2
sS'seminar'
p6064
I2
sS'relatively'
p6065
I4
sS'founding'
p6066
I3
sS'1969'
p6067
I3
sS'bronfman'
p6068
I2
sS'thoroughly'
p6069
I2
sS'1967'
p6070
I2
sS'-'
I5
sS'isolated'
p6071
I4
sS'thorough'
p6072
I3
sS'situated'
p6073
I2
sS'laughed'
p6074
I2
sS'teito'
p6075
I2
sS'though'
p6076
I11
sS'8.03'
p6077
I2
sS'8.01'
p6078
I2
sS'plenty'
p6079
I4
sS'8.05'
p6080
I3
sS'8.09'
p6081
I2
sS'618,000'
p6082
I2
sS'treats'
p6083
I2
sS'flow'
p6084
I6
sS'treaty'
p6085
I9
sS'reputation'
p6086
I3
sS'after-tax'
p6087
I2
sS'entertaining'
p6088
I2
sS'agnew'
p6089
I2
sS'arousing'
p6090
I2
sS'sanctuary'
p6091
I2
sS'reductions'
p6092
I3
sS'random'
p6093
I2
sS'sage'
p6094
I2
sS'colors'
p6095
I2
sS'radio'
p6096
I3
sS'bail'
p6097
I2
sS'sunsets'
p6098
I2
sS'20-year'
p6099
I2
sS'delays'
p6100
I2
sS'stanza'
p6101
I6
sS'542'
p6102
I2
sS'supremacy'
p6103
I2
sS'announce'
p6104
I4
sS'oct'
p6105
I2
sS'5*slashhere*16'
p6106
I2
sS'borrowed'
p6107
I2
sS'watch'
p6108
I2
sS'criticized'
p6109
I2
sS'despite'
p6110
I13
sS'report'
p6111
I18
sS'interrogated'
p6112
I2
sS'19-year-olds'
p6113
I2
sS'countries'
p6114
I10
sS'twice'
p6115
I2
sS'shots'
p6116
I2
sS'isolation'
p6117
I2
sS'automatic'
p6118
I2
sS'mergers'
p6119
I2
sS'thanks'
p6120
I4
sS'car-crash'
p6121
I2
sS'habit'
p6122
I2
sS'liquor'
p6123
I2
sS'1960s'
p6124
I2
sS'resist'
p6125
I2
sS'keenan'
p6126
I8
sS'corrupt'
p6127
I3
sS'capacity'
p6128
I2
sS"bird's-eye"
p6129
I2
sS'interviewing'
p6130
I2
sS'machinists'
p6131
I2
sS'mud'
p6132
I2
sS'brushbacks'
p6133
I2
sS'finger'
p6134
I2
sS'approach'
p6135
I8
sS'12-story-high'
p6136
I2
sS'weak'
p6137
I2
sS'however'
p6138
I15
sS'boss'
p6139
I2
sS'33,000'
p6140
I2
sS'southeast'
p6141
I2
sS'censorship'
p6142
I2
sS'news'
p6143
I7
sS'sipped'
p6144
I2
sS'predates'
p6145
I2
sS'improve'
p6146
I8
sS'faced'
p6147
I2
sS'protect'
p6148
I7
sS'citicorp'
p6149
I4
sS'credit-card'
p6150
I5
sS'participating'
p6151
I2
sS'players'
p6152
I9
sS'merging'
p6153
I2
sS'games'
p6154
I2
sS'encore'
p6155
I2
sS'faces'
p6156
I3
sS'expense'
p6157
I2
sS'telepictures'
p6158
I2
sS'borden'
p6159
I4
sS'governmental-affairs'
p6160
I2
sS'karen'
p6161
I2
sS'towels'
p6162
I2
sS'trust'
p6163
I21
sS'conference'
p6164
I4
sS'jobless'
p6165
I4
sS'beef'
p6166
I2
sS'rebounded'
p6167
I2
sS'been'
p6168
I86
sS'quickly'
p6169
I8
sS'confident'
p6170
I3
sS'beer'
p6171
I7
sS'expected'
p6172
I25
sS'republicans'
p6173
I2
sS'900'
p6174
I5
sS'enterprises'
p6175
I2
sS'craft'
p6176
I2
sS'lorded'
p6177
I2
sS'catch'
p6178
I4
sS'feminine-care'
p6179
I2
sS'kentucky'
p6180
I2
sS'gumbel'
p6181
I2
sS'dashboard'
p6182
I2
sS'precede'
p6183
I2
sS's&ls'
p6184
I2
sS'accessories'
p6185
I2
sS'expenses'
p6186
I2
sS'brewed'
p6187
I2
sS'experts'
p6188
I5
sS'containing'
p6189
I2
sS'complex'
p6190
I5
sS'isikoff'
p6191
I2
sS'several'
p6192
I24
sS'peaks'
p6193
I2
sS'workings'
p6194
I2
sS'insisted'
p6195
I2
sS'tassel'
p6196
I2
sS'shortly'
p6197
I3
sS'neurologists'
p6198
I2
sS'town-watching'
p6199
I2
sS'charlie'
p6200
I2
sS'savings'
p6201
I4
sS'greatest'
p6202
I3
sS'mother'
p6203
I2
sS'hearts'
p6204
I2
sS'alabama'
p6205
I3
sS'outnumbered'
p6206
I2
sS'seasonal'
p6207
I2
sS'whimsical'
p6208
I2
sS'die-hards'
p6209
I2
sS'departed'
p6210
I2
sS'proposed'
p6211
I14
sS'unemployment'
p6212
I7
sS'luxury-car'
p6213
I2
sS'proposes'
p6214
I2
sS'vivaldi-at-brunch'
p6215
I2
sS'resigning'
p6216
I2
sS'eli'
p6217
I4
sS'orange-and-blue'
p6218
I2
sS'greenwich'
p6219
I2
sS'exempting'
p6220
I2
sS'non-u.s.'
p6221
I2
sS'cinzano'
p6222
I2
sS'interprets'
p6223
I2
sS'sherbet'
p6224
I2
sS'gave'
p6225
I7
sS'casting'
p6226
I2
sS'bands'
p6227
I2
sS'cultural'
p6228
I4
sS'descending'
p6229
I2
sS'judge'
p6230
I77
sS'appearing'
p6231
I2
sS'advanced'
p6232
I2
sS'apart'
p6233
I4
sS'exxon'
p6234
I3
sS'59'
p6235
I3
sS'gift'
p6236
I3
sS'55'
p6237
I4
sS'54'
p6238
I4
sS'hunt'
p6239
I14
sS'51'
p6240
I4
sS'50'
p6241
I15
sS'53'
p6242
I4
sS'specific'
p6243
I7
sS'renamed'
p6244
I2
sS'offices'
p6245
I2
sS'officer'
p6246
I23
sS'wakeman'
p6247
I4
sS'malaysia'
p6248
I2
sS'donald'
p6249
I2
sS'meters'
p6250
I2
sS'election'
p6251
I4
sS'indirect'
p6252
I2
sS'unsuspecting'
p6253
I2
sS'clash'
p6254
I3
sS'orwellian'
p6255
I2
sS'reinvest'
p6256
I3
sS'ice'
p6257
I2
sS'everything'
p6258
I7
sS'newsprint'
p6259
I7
sS'banxquote'
p6260
I6
sS'flaps'
p6261
I3
sS'core'
p6262
I5
sS'corn'
p6263
I11
sS'discount'
p6264
I7
sS'corp'
p6265
I6
sS'chapter'
p6266
I3
sS'burbank'
p6267
I2
sS'dinner'
p6268
I2
sS'misleading'
p6269
I2
sS'ensure'
p6270
I3
sS'steadily'
p6271
I2
sS'efforts'
p6272
I13
sS'twitch'
p6273
I2
sS'civic'
p6274
I2
sS'civil'
p6275
I18
sS'accommodate'
p6276
I2
sS'accomplishments'
p6277
I3
sS'tribune'
p6278
I2
sS'11,450'
p6279
I2
sS'rely'
p6280
I2
sS'transform'
p6281
I2
sS'class'
p6282
I8
sS'stuck'
p6283
I2
sS'fought'
p6284
I4
sS'purposely'
p6285
I2
sS'head'
p6286
I8
sS'successfully'
p6287
I5
sS'amateur'
p6288
I3
sS'fragrance'
p6289
I2
sS'dataproducts'
p6290
I3
sS'attempted'
p6291
I2
sS'differences'
p6292
I2
sS'removes'
p6293
I2
sS'libor'
p6294
I2
sS'payable'
p6295
I5
sS'heat'
p6296
I2
sS'hear'
p6297
I2
sS'insider-trading'
p6298
I3
sS'counsel'
p6299
I4
sS'versions'
p6300
I6
sS'compositional'
p6301
I2
sS'bids'
p6302
I9
sS'kitschy'
p6303
I2
sS'simplifying'
p6304
I2
sS'plant-sciences'
p6305
I2
sS'trim'
p6306
I2
sS'obfuscation'
p6307
I2
sS'peruvian'
p6308
I2
sS'suspicions'
p6309
I2
sS'0.60'
p6310
I2
sS'check'
p6311
I3
sS'radically'
p6312
I2
sS'propagandists'
p6313
I2
sS'faithful'
p6314
I2
sS'no'
p6315
I53
sS'when'
p6316
I63
sS'proceedings'
p6317
I2
sS'setting'
p6318
I4
sS'papers'
p6319
I3
sS'picture'
p6320
I3
sS'reconsider'
p6321
I2
sS'loan-loss'
p6322
I2
sS'unifirst'
p6323
I4
sS'cambria'
p6324
I12
sS'rapeseed'
p6325
I2
sS'younger'
p6326
I3
sS'faster'
p6327
I2
sS'uncovered'
p6328
I2
sS'vietnam'
p6329
I4
sS'oeufs'
p6330
I2
sS'doubleday'
p6331
I2
sS'serious'
p6332
I2
sS'intimacy'
p6333
I2
sS'pistils'
p6334
I2
sS'remarkable'
p6335
I4
sS'alternatives'
p6336
I2
sS'focus'
p6337
I3
sS'deliveries'
p6338
I2
sS'obviate'
p6339
I2
sS'leads'
p6340
I3
sS'roy'
p6341
I2
sS'savings-type'
p6342
I3
sS'row'
p6343
I3
sS'environment'
p6344
I4
sS'charge'
p6345
I10
sS'promoting'
p6346
I2
sS'discovering'
p6347
I2
sS"l'heureux"
p6348
I2
sS'federation'
p6349
I2
sS'advantage'
p6350
I3
sS'sloppy'
p6351
I2
sS'tanks'
p6352
I9
sS'cook'
p6353
I2
sS'8.61'
p6354
I2
sS'emphasized'
p6355
I2
sS'8.63'
p6356
I2
sS'clouds'
p6357
I2
sS'impressive'
p6358
I2
sS'level'
p6359
I11
sS'philippines'
p6360
I6
sS'camaraderie'
p6361
I2
sS'posts'
p6362
I3
sS'hawaii'
p6363
I2
sS'standards'
p6364
I8
sS'yale'
p6365
I3
sS'quick'
p6366
I6
sS'money-market'
p6367
I2
sS'pork'
p6368
I2
sS'heinz'
p6369
I2
sS'says'
p6370
I83
sS'tougher'
p6371
I4
sS'trend'
p6372
I4
sS'injunction'
p6373
I2
sS'slowed'
p6374
I2
sS'journalistic'
p6375
I2
sS'takeoff'
p6376
I3
sS'port'
p6377
I2
sS'substitute'
p6378
I4
sS'irritated'
p6379
I2
sS'constitution'
p6380
I3
sS'minikes'
p6381
I2
sS'goes'
p6382
I4
sS'groupe'
p6383
I2
sS'water'
p6384
I3
sS'pioneered'
p6385
I4
sS'baseball'
p6386
I8
sS'groups'
p6387
I6
sS'crippled'
p6388
I2
sS'healthy'
p6389
I2
sS'guilty'
p6390
I4
sS'proud'
p6391
I2
sS'noticeably'
p6392
I2
sS'navigation'
p6393
I2
sS'emerge'
p6394
I2
sS'shelled'
p6395
I2
sS'soybeans'
p6396
I2
sS'morale'
p6397
I2
sS'bribery'
p6398
I2
sS'paralyzed'
p6399
I3
sS'pianist*slashhere*bassoonist*slashhere*composer'
p6400
I2
sS'crisis'
p6401
I2
sS'sporty'
p6402
I2
sS'third-quarter'
p6403
I5
sS'sports'
p6404
I4
sS'handles'
p6405
I3
sS'memory'
p6406
I5
sS'australian'
p6407
I2
sS'today'
p6408
I19
sS'unwarranted'
p6409
I2
sS'dismay'
p6410
I2
sS'7.0826'
p6411
I2
sS'cases'
p6412
I8
sS'insights'
p6413
I2
sS'tribunal'
p6414
I2
sS'thousands'
p6415
I3
sS'butterfat'
p6416
I4
sS'modified'
p6417
I2
sS'flagship'
p6418
I2
sS'ms.'
p6419
I15
sS'judy'
p6420
I2
sS'laughter'
p6421
I2
sS'lighter-than-air'
p6422
I2
sS'performer'
p6423
I2
sS'nursing'
p6424
I2
sS'figure'
p6425
I5
sS'demagoguery'
p6426
I2
sS'critic'
p6427
I3
sS'dropped'
p6428
I7
sS'parliamentary'
p6429
I2
sS'requirements'
p6430
I3
sS'secured'
p6431
I2
sS'1'
I18
sS'ornette'
p6432
I2
sS'fourth'
p6433
I5
sS'subsidiaries'
p6434
I4
sS'!'
I6
sS'3.45'
p6435
I2
sS'nixdorf'
p6436
I3
sS'huge'
p6437
I6
sS'birthday'
p6438
I2
sS'receptivity'
p6439
I2
sS'branches'
p6440
I4
sS'rollie'
p6441
I2
sS'liquid'
p6442
I2
sS'equities'
p6443
I2
sS'refund'
p6444
I2
sS'exclusive'
p6445
I2
sS'acts'
p6446
I2
sS'furnished'
p6447
I2
sS'undervalued'
p6448
I2
sS'mignanelli'
p6449
I2
sS'mainly'
p6450
I2
sS'swank'
p6451
I3
sS'courthouse'
p6452
I3
sS'presence'
p6453
I6
sS'offers'
p6454
I5
sS'farmer'
p6455
I2
sS'prebon'
p6456
I2
sS'delighted'
p6457
I2
sS'78,600'
p6458
I2
sS'31.25'
p6459
I2
sS'term'
p6460
I3
sS'name'
p6461
I9
sS'clutch'
p6462
I2
sS'corolla'
p6463
I2
sS'vt.'
p6464
I2
sS'possibilities'
p6465
I2
sS'weighted'
p6466
I3
sS'asbestos-related'
p6467
I2
sS'begun'
p6468
I3
sS'distributor'
p6469
I2
sS'obsession'
p6470
I2
sS'sunrise'
p6471
I2
sS'intended'
p6472
I4
sS'hacker'
p6473
I8
sS'ultimately'
p6474
I6
sS'computer-market'
p6475
I2
sS'factors'
p6476
I4
sS'profit'
p6477
I5
sS'tensions'
p6478
I2
sS'factory'
p6479
I3
sS'attracted'
p6480
I4
sS'overflowing'
p6481
I2
sS'attendee'
p6482
I2
sS'attended'
p6483
I2
sS'albuquerque'
p6484
I2
sS'rolls-royce'
p6485
I2
sS'dirk'
p6486
I2
sS'motion'
p6487
I3
sS'turn'
p6488
I8
sS'best-known'
p6489
I2
sS'place'
p6490
I4
sS'retreating'
p6491
I2
sS'turf'
p6492
I2
sS'laboratorium'
p6493
I2
sS'merrill'
p6494
I4
sS'revenue'
p6495
I15
sS'oversaw'
p6496
I2
sS'soaring'
p6497
I3
sS'array'
p6498
I2
sS'pleaded'
p6499
I2
sS'millions'
p6500
I2
sS'given'
p6501
I5
sS'necessarily'
p6502
I2
sS'district'
p6503
I11
sS'trillion'
p6504
I8
sS'stimulation'
p6505
I3
sS'returns'
p6506
I5
sS'clinical'
p6507
I2
sS'convention'
p6508
I3
sS'white'
p6509
I15
sS'anesthetized'
p6510
I2
sS'gives'
p6511
I5
sS'exploring'
p6512
I2
sS'wrongdoing'
p6513
I2
sS'season'
p6514
I7
sS'hun'
p6515
I3
sS'alan'
p6516
I3
sS'released'
p6517
I4
sS'copy'
p6518
I3
sS'holder'
p6519
I2
sS'milton'
p6520
I2
sS'wide'
p6521
I4
sS'unfortunately'
p6522
I4
sS'require'
p6523
I6
sS'diplomatic'
p6524
I3
sS'spokeswoman'
p6525
I2
sS'computer'
p6526
I18
sS'mcbride'
p6527
I2
sS'cards'
p6528
I4
sS'usefulness'
p6529
I3
sS'and'
p6530
I890
sS'armored'
p6531
I3
sS'largely'
p6532
I6
sS'pro'
p6533
I2
sS'worcester'
p6534
I2
sS'rent'
p6535
I7
sS'sells'
p6536
I5
sS'confesses'
p6537
I2
sS'any'
p6538
I33
sS'prosperity'
p6539
I2
sS'conversion'
p6540
I2
sS'ideas'
p6541
I4
sS'sciences'
p6542
I3
sS'ideal'
p6543
I3
sS'then-current'
p6544
I2
sS'urge'
p6545
I2
sS'sure'
p6546
I6
sS'multiple'
p6547
I2
sS'visitors'
p6548
I2
sS'cleared'
p6549
I3
sS'probes'
p6550
I2
sS'considered'
p6551
I9
sS'broberg'
p6552
I4
sS'adopt'
p6553
I2
sS'hungry'
p6554
I2
sS'pores'
p6555
I2
sS'senior'
p6556
I22
sS'drastically'
p6557
I2
sS'ginseng'
p6558
I2
sS'allegations'
p6559
I7
sS'trespass'
p6560
I2
sS'dealerships'
p6561
I2
sS'trop'
p6562
I2
sS'hustles'
p6563
I2
sS'gulf'
p6564
I11
sS'genius'
p6565
I2
sS'ashurst'
p6566
I5
sS'state'
p6567
I40
sS'crime'
p6568
I3
sS'wood'
p6569
I2
sS'brissette'
p6570
I3
sS'messiaen'
p6571
I2
sS'cautioned'
p6572
I2
sS'dreaded'
p6573
I2
sS'53rd'
p6574
I2
sS'viewpoint'
p6575
I2
sS'jazz'
p6576
I5
sS'begging'
p6577
I2
sS'expectation'
p6578
I2
sS'2210'
p6579
I2
sS'lighter'
p6580
I2
sS'closure'
p6581
I2
sS'reveal'
p6582
I2
sS'regarding'
p6583
I2
sS'high-backed'
p6584
I2
sS'paper'
p6585
I11
sS'predicted'
p6586
I2
sS'discussing'
p6587
I7
sS'ignored'
p6588
I2
sS'picnic'
p6589
I2
sS'encourages'
p6590
I3
sS'violated'
p6591
I2
sS'baseball-loving'
p6592
I2
sS'college'
p6593
I4
sS'slashing'
p6594
I2
sS'stanley'
p6595
I6
sS'violates'
p6596
I2
sS'encouraged'
p6597
I2
sS'fails'
p6598
I2
sS'mortgage'
p6599
I31
sS'subcompact'
p6600
I3
sS'federal'
p6601
I36
sS'review'
p6602
I7
sS'commitments'
p6603
I5
sS'weapons'
p6604
I9
sS'outside'
p6605
I7
sS'moslems'
p6606
I2
sS'8.44'
p6607
I2
sS'8.45'
p6608
I2
sS'8.40'
p6609
I2
sS'8.49'
p6610
I2
sS'diners'
p6611
I3
sS'unusually'
p6612
I2
sS'cities'
p6613
I2
sS'come'
p6614
I15
sS'reaction'
p6615
I2
sS'bite-sized'
p6616
I2
sS'acquiring'
p6617
I4
sS'missions'
p6618
I2
sS'mob'
p6619
I2
sS'successes'
p6620
I2
sS'region'
p6621
I3
sS'shortstop'
p6622
I2
sS'berra'
p6623
I2
sS'contract'
p6624
I10
sS'columnist'
p6625
I2
sS'senator'
p6626
I2
sS'railway'
p6627
I3
sS'ntsb'
p6628
I2
sS'cabal'
p6629
I2
sS'billion-yen'
p6630
I2
sS'color'
p6631
I4
sS'cablevision'
p6632
I2
sS'colony'
p6633
I2
sS'period'
p6634
I10
sS'pop'
p6635
I4
sS'60'
p6636
I10
sS'61'
p6637
I4
sS'62'
p6638
I2
sS'white-haired'
p6639
I2
sS'65'
p6640
I2
sS'66'
p6641
I3
sS'approval'
p6642
I8
sS'68'
p6643
I3
sS'bizarre'
p6644
I3
sS'poll'
p6645
I2
sS'two-year'
p6646
I2
sS'turkey'
p6647
I2
sS'squaring'
p6648
I2
sS'howard'
p6649
I2
sS'3.53'
p6650
I2
sS'coupe'
p6651
I3
sS'declining'
p6652
I4
sS'peaceful'
p6653
I2
sS'featuring'
p6654
I2
sS'hardly'
p6655
I4
sS'500'
p6656
I11
sS'engine'
p6657
I3
sS'direction'
p6658
I5
sS'blessing'
p6659
I4
sS'andrew'
p6660
I2
sS'minister'
p6661
I7
sS'walkie-talkie'
p6662
I2
sS'pilot'
p6663
I8
sS'case'
p6664
I26
sS'per-capita'
p6665
I3
sS'myself'
p6666
I4
sS'mount'
p6667
I4
sS'thigh'
p6668
I2
sS'cash'
p6669
I16
sS'premature'
p6670
I2
sS'prime-1'
p6671
I2
sS'prime-2'
p6672
I2
sS'shops'
p6673
I2
sS'lavoro'
p6674
I2
sS'coupled'
p6675
I2
sS'telephone'
p6676
I5
sS'discrepancy'
p6677
I2
sS'someone'
p6678
I4
sS'converts'
p6679
I2
sS'kimberly-clark'
p6680
I4
sS'mcgregor'
p6681
I2
sS'79.18'
p6682
I2
sS'author'
p6683
I2
sS'granted'
p6684
I3
sS'seeking'
p6685
I7
sS'admit'
p6686
I2
sS'trip'
p6687
I2
sS'shifts'
p6688
I2
sS'manila'
p6689
I2
sS'buys'
p6690
I2
sS'events'
p6691
I4
sS'status'
p6692
I5
sS'high-production'
p6693
I2
sS'sherblom'
p6694
I2
sS'refusal'
p6695
I3
sS'driver'
p6696
I2
sS'driven'
p6697
I2
sS'delicate'
p6698
I3
sS'changing'
p6699
I2
sS'vocalist'
p6700
I2
sS'3,500'
p6701
I2
sS'perennial'
p6702
I2
sS'minimize'
p6703
I2
sS'without'
p6704
I20
sS'relief'
p6705
I3
sS'components'
p6706
I5
sS'model'
p6707
I2
sS'reward'
p6708
I2
sS'researchers'
p6709
I13
sS'justify'
p6710
I4
sS'actions'
p6711
I2
sS'lavish'
p6712
I2
sS'violent'
p6713
I3
sS'kill'
p6714
I3
sS'mazzera'
p6715
I2
sS'polish'
p6716
I2
sS'blow'
p6717
I2
sS'announcement'
p6718
I8
sS'assemblages'
p6719
I2
sS'rose'
p6720
I23
sS'seems'
p6721
I7
sS'except'
p6722
I2
sS'embezzled'
p6723
I2
sS'bloc'
p6724
I3
sS'rost'
p6725
I2
sS'disrupt'
p6726
I2
sS'sea'
p6727
I5
sS'ross'
p6728
I8
sS'scheduled'
p6729
I6
sS'virginia'
p6730
I4
sS'loaned'
p6731
I2
sS'1472.76'
p6732
I2
sS'inflation'
p6733
I3
sS'styled'
p6734
I2
sS'accepted'
p6735
I6
sS'unwilling'
p6736
I2
sS'furniture'
p6737
I2
sS'walt'
p6738
I2
sS'standstill'
p6739
I3
sS'kennedy'
p6740
I3
sS'nissan'
p6741
I56
sS'recalls'
p6742
I2
sS'tower'
p6743
I3
sS'reduced'
p6744
I7
sS'1989'
p6745
I20
sS'shunned'
p6746
I2
sS'deduct'
p6747
I2
sS'burdens'
p6748
I2
sS'nikkei'
p6749
I3
sS'pacific'
p6750
I7
sS'evade'
p6751
I2
sS'multimillion-dollar'
p6752
I2
sS'intact'
p6753
I3
sS'top-secret'
p6754
I2
sS'provided'
p6755
I5
sS'swaps'
p6756
I2
sS'legal'
p6757
I9
sS'moon'
p6758
I18
sS'provides'
p6759
I4
sS'provider'
p6760
I3
sS'porter'
p6761
I2
sS'norberto'
p6762
I2
sS'beaches'
p6763
I2
sS'on'
p6764
I258
sS'oh'
p6765
I2
sS'of'
p6766
I1171
sS'discussed'
p6767
I3
sS'mutually'
p6768
I2
sS'stand'
p6769
I5
sS'tariffs'
p6770
I2
sS'or'
p6771
I122
sS'cambridge'
p6772
I2
sS'reactions'
p6773
I2
sS'instruments'
p6774
I6
sS'spinal'
p6775
I5
sS'accounts'
p6776
I6
sS'determine'
p6777
I4
sS'burton'
p6778
I2
sS'buds'
p6779
I2
sS'strictly'
p6780
I3
sS'there'
p6781
I47
sS'alleged'
p6782
I4
sS'christianity'
p6783
I2
sS'strict'
p6784
I4
sS'fastball'
p6785
I3
sS'11*slashhere*16'
p6786
I3
sS'fundamentals'
p6787
I2
sS'beret'
p6788
I2
sS'promote'
p6789
I5
sS'longer'
p6790
I6
sS'street-corner'
p6791
I3
sS'wholesale'
p6792
I3
sS'grasp'
p6793
I2
sS'life-insurance'
p6794
I2
sS'triple-a'
p6795
I6
sS'taste'
p6796
I2
sS'20.39'
p6797
I2
sS'totaling'
p6798
I5
sS'minneapolis'
p6799
I2
sS'cbs'
p6800
I5
sS'britain'
p6801
I8
sS'together'
p6802
I3
sS'ingeniously'
p6803
I2
sS'99.1875'
p6804
I3
sS'politics'
p6805
I2
sS'belzbergs'
p6806
I2
sS'scotches'
p6807
I2
sS'4.5'
p6808
I4
sS'onerous'
p6809
I2
sS'4.3'
p6810
I2
sS'4.2'
p6811
I4
sS'4.9'
p6812
I2
sS'rubber'
p6813
I2
sS'roses'
p6814
I2
sS'5'
I8
sS'trash'
p6815
I2
sS'separate'
p6816
I10
sS'infighting'
p6817
I2
sS'includes'
p6818
I4
sS'flower'
p6819
I2
sS'included'
p6820
I4
sS'creditor'
p6821
I3
sS'stocks'
p6822
I6
sS'slowball'
p6823
I2
sS'arsenals'
p6824
I3
sS'calls'
p6825
I4
sS'refinanced'
p6826
I3
sS'invest'
p6827
I5
sS'odds'
p6828
I3
sS'directors'
p6829
I8
sS'all'
p6830
I62
sS'chinese'
p6831
I12
sS'720,000'
p6832
I2
sS'dish'
p6833
I2
sS'follow'
p6834
I2
sS'settlement'
p6835
I16
sS'decisions'
p6836
I3
sS'jerome'
p6837
I2
sS'apartment'
p6838
I2
sS'subjected'
p6839
I2
sS'agro-industry'
p6840
I2
sS'opportunities'
p6841
I2
sS'kume'
p6842
I5
sS'program'
p6843
I12
sS'dairy'
p6844
I3
sS'lawmakers'
p6845
I3
sS'activities'
p6846
I8
sS'woman'
p6847
I3
sS'worse'
p6848
I3
sS'song'
p6849
I4
sS'far'
p6850
I23
sS'fat'
p6851
I3
sS'worst'
p6852
I4
sS'sony'
p6853
I19
sS'epinalers'
p6854
I2
sS'morley'
p6855
I2
sS'stimulus'
p6856
I2
sS'list'
p6857
I2
sS'prolonged'
p6858
I2
sS'quipped'
p6859
I2
sS'employing'
p6860
I2
sS'tel'
p6861
I2
sS'tea'
p6862
I2
sS'90.5'
p6863
I2
sS'tee'
p6864
I2
sS'dalton'
p6865
I2
sS'rate'
p6866
I26
sS'design'
p6867
I3
sS'haag'
p6868
I3
sS'distributorship'
p6869
I2
sS'what'
p6870
I31
sS'sun'
p6871
I5
sS'brief'
p6872
I2
sS'version'
p6873
I4
sS'disbursed'
p6874
I2
sS'guns'
p6875
I2
sS'toes'
p6876
I3
sS'christian'
p6877
I2
sS'teodorani'
p6878
I2
sS'supposedly'
p6879
I2
sS'retraining'
p6880
I2
sS'andrews'
p6881
I2
sS'berkeley'
p6882
I8
sS'tragedy'
p6883
I2
sS'naval'
p6884
I4
sS'd.c'
p6885
I2
sS'allows'
p6886
I3
sS'gleeful'
p6887
I2
sS'ana'
p6888
I2
sS'options'
p6889
I9
sS'1721.4'
p6890
I2
sS'arms-control'
p6891
I4
sS'suddenly'
p6892
I2
sS'fla.'
p6893
I2
sS'florence'
p6894
I4
sS'clifford'
p6895
I3
sS'new-home'
p6896
I2
sS'markets'
p6897
I24
sS'minor'
p6898
I5
sS'horses'
p6899
I2
sS'flat'
p6900
I4
sS'israel'
p6901
I5
sS'muramatsu'
p6902
I3
sS'knows'
p6903
I2
sS'vining'
p6904
I2
sS're-elected'
p6905
I2
sS'oleg'
p6906
I2
sS'hissed'
p6907
I2
sS'known'
p6908
I6
sS'mellow'
p6909
I3
sS'sentra'
p6910
I3
sS'finland'
p6911
I3
sS'brown'
p6912
I3
sS'pont'
p6913
I4
sS'protects'
p6914
I2
sS'pond'
p6915
I2
sS'chores'
p6916
I3
sS'5.2'
p6917
I2
sS'court'
p6918
I25
sS'5.5'
p6919
I2
sS'5.6'
p6920
I2
sS'acrimony'
p6921
I3
sS'5.9'
p6922
I2
sS'breaking'
p6923
I9
sS'occasionally'
p6924
I2
sS'stemming'
p6925
I2
sS'speeding'
p6926
I2
sS'explains'
p6927
I2
sS'prepayment'
p6928
I4
sS'610'
p6929
I2
sS'reflect'
p6930
I2
sS'lighting'
p6931
I6
sS'unsurprising'
p6932
I2
sS'concentrating'
p6933
I2
sS'dissolving'
p6934
I2
sS'short'
p6935
I6
sS'stadiums'
p6936
I3
sS'shore'
p6937
I2
sS'balloon'
p6938
I12
sS'turnover'
p6939
I4
sS'september'
p6940
I22
sS'developed'
p6941
I9
sS'mission'
p6942
I3
sS'logan'
p6943
I2
sS'1.93'
p6944
I2
sS'inquiries'
p6945
I2
sS'developer'
p6946
I2
sS'style'
p6947
I3
sS'49,000'
p6948
I2
sS'susceptible'
p6949
I2
sS'minato-mirai'
p6950
I2
sS'harmless'
p6951
I2
sS'parts'
p6952
I6
sS'disagrees'
p6953
I2
sS'stephen'
p6954
I3
sS'soccer'
p6955
I2
sS'might'
p6956
I29
sS'alter'
p6957
I2
sS'return'
p6958
I12
sS'hunter'
p6959
I2
sS'inch'
p6960
I2
sS'communities'
p6961
I3
sS'bancorp'
p6962
I3
sS'bigger'
p6963
I4
sS'instructions'
p6964
I2
sS'marcus'
p6965
I2
sS'inherent'
p6966
I2
sS'transportable'
p6967
I2
sS'characterized'
p6968
I2
sS'weighs'
p6969
I2
sS'tilted'
p6970
I2
sS'weight'
p6971
I2
sS'generation'
p6972
I4
sS'fixture'
p6973
I2
sS'brother'
p6974
I2
sS'expect'
p6975
I13
sS'telltale'
p6976
I2
sS'imploring'
p6977
I2
sS'health'
p6978
I6
sS'congenial'
p6979
I2
sS'compounding'
p6980
I2
sS'cost-cutting'
p6981
I3
sS'fiber'
p6982
I2
sS'wisconsin'
p6983
I3
sS'ersatz'
p6984
I2
sS'disagree'
p6985
I2
sS'friday'
p6986
I4
sS'abounds'
p6987
I2
sS'experimenting'
p6988
I2
sS'four-month'
p6989
I2
sS'tassels'
p6990
I2
sS'attendant'
p6991
I2
sS'generate'
p6992
I3
sS'lag'
p6993
I2
sS'fiat'
p6994
I6
sS'frankel'
p6995
I2
sS'threat'
p6996
I4
sS'ebensburg'
p6997
I6
sS'throws'
p6998
I2
sS'feed'
p6999
I3
sS'connotation'
p7000
I2
sS'feel'
p7001
I11
sS'babelists'
p7002
I2
sS'fancy'
p7003
I3
sS'traveled'
p7004
I2
sS'feet'
p7005
I6
sS'resnick'
p7006
I2
sS'fees'
p7007
I4
sS'slower'
p7008
I3
sS'speedometer'
p7009
I3
sS'passes'
p7010
I3
sS'story'
p7011
I3
sS'leading'
p7012
I13
sS'interviews'
p7013
I2
sS'180'
p7014
I3
sS'passed'
p7015
I5
sS'moat'
p7016
I2
sS'finances'
p7017
I3
sS'recovered'
p7018
I2
sS'headache'
p7019
I2
sS'pipelines'
p7020
I2
sS'erupted'
p7021
I2
sS'hotel'
p7022
I2
sS'treasurer'
p7023
I2
sS'inaugurated'
p7024
I2
sS'five-course'
p7025
I2
sS'reliever'
p7026
I2
sS'king'
p7027
I3
sS'kind'
p7028
I5
sS'nagging'
p7029
I2
sS'double'
p7030
I2
sS'mich.'
p7031
I2
sS'arcata'
p7032
I2
sS'risks'
p7033
I3
sS'inventiveness'
p7034
I2
sS'midmorning'
p7035
I2
sS'risky'
p7036
I2
sS'amass'
p7037
I2
sS'modeled'
p7038
I2
sS'outstanding'
p7039
I7
sS'strengthen'
p7040
I5
sS'imports'
p7041
I2
sS'berthold'
p7042
I4
sS'shrewd'
p7043
I2
sS'garfield'
p7044
I2
sS'depleted'
p7045
I2
sS'oriole'
p7046
I2
sS'nights'
p7047
I2
sS'interferes'
p7048
I2
sS'cropped'
p7049
I2
sS'conforming'
p7050
I2
sS'chairman'
p7051
I23
sS'genetically'
p7052
I2
sS'sherry'
p7053
I2
sS'drinks'
p7054
I3
sS'fresca'
p7055
I4
sS'added'
p7056
I17
sS'critics'
p7057
I6
sS'electric'
p7058
I5
sS'42,455'
p7059
I2
sS'warnings'
p7060
I2
sS'intervened'
p7061
I2
sS'goldman'
p7062
I3
sS'measures'
p7063
I4
sS'reach'
p7064
I4
sS'martha'
p7065
I2
sS'76'
p7066
I2
sS'75'
p7067
I4
sS'shareholder'
p7068
I7
sS'72'
p7069
I3
sS'70'
p7070
I5
sS'nothing'
p7071
I5
sS'seasons'
p7072
I2
sS'prestige'
p7073
I2
sS'measured'
p7074
I2
sS'soared'
p7075
I2
sS'stands'
p7076
I3
sS'patterned'
p7077
I2
sS'gas-tax-increasing'
p7078
I2
sS'dealers'
p7079
I3
sS'45-year-old'
p7080
I3
sS'traditional'
p7081
I3
sS'institutions'
p7082
I11
sS'lying'
p7083
I2
sS'painewebber'
p7084
I2
sS'stones'
p7085
I2
sS'rtc'
p7086
I8
sS'cdc'
p7087
I2
sS'lay'
p7088
I2
sS'restarters'
p7089
I2
sS'cds'
p7090
I6
sS'deserts'
p7091
I2
sS'penalty'
p7092
I5
sS'root-canal'
p7093
I2
sS'counterpoint'
p7094
I3
sS'his'
p7095
I142
sS'publicity'
p7096
I2
sS'gains'
p7097
I6
sS'compiled'
p7098
I2
sS'mortgage-backed'
p7099
I3
sS'5,000'
p7100
I4
sS'industrywide'
p7101
I2
sS'him'
p7102
I29
sS'grievances'
p7103
I3
sS'western-style'
p7104
I2
sS'statism'
p7105
I2
sS'investigate'
p7106
I2
sS'statist'
p7107
I2
sS'activity'
p7108
I7
sS'precaution'
p7109
I2
sS'wrote'
p7110
I11
sS'barr'
p7111
I3
sS'dump'
p7112
I2
sS'achieved'
p7113
I2
sS'declines'
p7114
I2
sS'evangelist-industrialist'
p7115
I2
sS'defense'
p7116
I2
sS'are'
p7117
I204
sS'2.3'
p7118
I2
sS'chambers'
p7119
I4
sS'2.7'
p7120
I2
sS'2.6'
p7121
I3
sS'declined'
p7122
I10
sS'2.4'
p7123
I4
sS'spirited'
p7124
I2
sS'invest*slashhere*net'
p7125
I2
sS'user'
p7126
I3
sS'300zx'
p7127
I4
sS'various'
p7128
I12
sS'consecutive'
p7129
I3
sS'corruption'
p7130
I3
sS'law'
p7131
I35
sS'solo'
p7132
I2
sS'korea'
p7133
I12
sS'recently'
p7134
I18
sS'creating'
p7135
I4
sS'initially'
p7136
I3
sS'sold'
p7137
I20
sS'sole'
p7138
I3
sS'general-purpose'
p7139
I3
sS'outfit'
p7140
I2
sS'succeed'
p7141
I3
sS'opposition'
p7142
I3
sS'fetchingly'
p7143
I2
sS'franchise'
p7144
I4
sS'franchisee'
p7145
I2
sS'license'
p7146
I3
sS'oversee'
p7147
I2
sS'pete'
p7148
I3
sS'rubendall'
p7149
I4
sS'became'
p7150
I8
sS'redemptions'
p7151
I2
sS'context'
p7152
I2
sS'nahas'
p7153
I4
sS'flies'
p7154
I2
sS'regulates'
p7155
I2
sS'duplicity'
p7156
I2
sS'reasons'
p7157
I5
sS'sweet'
p7158
I2
sS'village'
p7159
I2
sS'slots'
p7160
I2
sS'leemans'
p7161
I4
sS'bolster'
p7162
I3
sS'decline'
p7163
I4
sS'duo'
p7164
I3
sS'352-mile'
p7165
I2
sS'political'
p7166
I18
sS'due'
p7167
I13
sS'strategy'
p7168
I7
sS'whom'
p7169
I2
sS'reduction'
p7170
I2
sS'3*slashhere*4'
p7171
I9
sS'brick'
p7172
I2
sS'3*slashhere*8'
p7173
I2
sS'chandler'
p7174
I2
sS'woke'
p7175
I2
sS'flight'
p7176
I2
sS'precision'
p7177
I3
sS'vaguely'
p7178
I2
sS'brokers'
p7179
I4
sS'demand'
p7180
I5
sS'plants'
p7181
I18
sS'stolen'
p7182
I3
sS'anticult'
p7183
I2
sS'balloons'
p7184
I3
sS'batch'
p7185
I2
sS'more-powerful'
p7186
I2
sS'tweaking'
p7187
I2
sS'p.'
p7188
I4
sS'19.7'
p7189
I3
sS'uninspired'
p7190
I2
sS'disappointing'
p7191
I2
sS'obstacle'
p7192
I3
sS'headway'
p7193
I2
sS'currents'
p7194
I2
sS'chauffeur'
p7195
I2
sS'lengthy'
p7196
I3
sS'ample'
p7197
I3
sS'arch-rival'
p7198
I2
sS'widely'
p7199
I4
sS'peoples'
p7200
I3
sS'9'
I8
sS'advise'
p7201
I3
sS'daughters'
p7202
I2
sS'higher'
p7203
I17
sS'biochemist'
p7204
I2
sS'perception'
p7205
I2
sS'painless'
p7206
I2
sS'negotiate'
p7207
I3
sS'flown'
p7208
I2
sS'moving'
p7209
I5
sS'anti-japanese'
p7210
I2
sS'mips'
p7211
I20
sS'lower'
p7212
I13
sS'cheek'
p7213
I2
sS'bounces'
p7214
I2
sS'anybody'
p7215
I2
sS'analysis'
p7216
I2
sS'cheer'
p7217
I2
sS'edge'
p7218
I3
sS'machinery'
p7219
I4
sS'plotted'
p7220
I2
sS'pollen'
p7221
I6
sS'grievance'
p7222
I3
sS'abilities'
p7223
I2
sS'52.4'
p7224
I2
sS'competitive'
p7225
I4
sS'questions'
p7226
I6
sS'immediately'
p7227
I5
sS'regardless'
p7228
I2
sS'lexus'
p7229
I6
sS'prince'
p7230
I3
sS'profitable'
p7231
I4
sS'old-time'
p7232
I2
sS'advisers'
p7233
I2
sS'workers'
p7234
I12
sS'9.19'
p7235
I2
sS'exclusively'
p7236
I2
sS'contractor'
p7237
I2
sS"tong'il"
p7238
I2
sS'tamer'
p7239
I2
sS'customers'
p7240
I10
sS'vendor'
p7241
I2
sS'hefty'
p7242
I2
sS'condemnation'
p7243
I2
sS'670'
p7244
I2
sS'buddy'
p7245
I2
sS'moody'
p7246
I13
sS'modifications'
p7247
I2
sS'shaped'
p7248
I2
sS'shapes'
p7249
I2
sS'miami'
p7250
I2
sS'arthur'
p7251
I2
sS'yorker'
p7252
I3
sS'essential'
p7253
I2
sS'hallmark'
p7254
I2
sS'new-model'
p7255
I3
sS'hinted'
p7256
I2
sS'3.6'
p7257
I3
sS'understood'
p7258
I2
sS'3.4'
p7259
I2
sS'3.5'
p7260
I3
sS'3.2'
p7261
I2
sS'3.8'
p7262
I2
sS'3.9'
p7263
I2
sS'incendiary'
p7264
I2
sS'seller'
p7265
I2
sS'bankruptcy-law'
p7266
I3
sS'innovation'
p7267
I2
sS'anne'
p7268
I2
sS'clarinetist'
p7269
I4
sS'mutts'
p7270
I2
sS'under-reported'
p7271
I2
sS'martin'
p7272
I4
sS'refused'
p7273
I5
sS'aloft'
p7274
I4
sS'4.67'
p7275
I2
sS'elixir'
p7276
I2
sS'refuses'
p7277
I2
sS'handled'
p7278
I3
sS'dormant'
p7279
I2
sS'guber-peters'
p7280
I6
sS'pipeline'
p7281
I4
sS'cautious'
p7282
I2
sS'plaza'
p7283
I3
sS'brooklyn'
p7284
I2
sS'range'
p7285
I8
sS'hatred'
p7286
I2
sS'resiliency'
p7287
I2
sS'procter'
p7288
I2
sS'intraday'
p7289
I2
sS'canal'
p7290
I4
sS'introverted'
p7291
I2
sS'question'
p7292
I5
sS'long'
p7293
I18
sS'vendors'
p7294
I2
sS'back-pay'
p7295
I2
sS'vienna'
p7296
I3
sS'files'
p7297
I4
sS'mountains'
p7298
I2
sS'plunge'
p7299
I2
sS'criteria'
p7300
I2
sS'goods-producing'
p7301
I2
sS'repeatedly'
p7302
I2
sS'filed'
p7303
I16
sS'forbidding'
p7304
I2
sS'raising'
p7305
I5
sS'declarations'
p7306
I2
sS'holler'
p7307
I2
sS'etc.'
p7308
I2
sS'called'
p7309
I17
sS'associated'
p7310
I3
sS'quantification'
p7311
I2
sS'associates'
p7312
I5
sS'rally'
p7313
I2
sS'dessert-menu'
p7314
I2
sS'119'
p7315
I2
sS'overseeing'
p7316
I2
sS'backs'
p7317
I2
sS'income'
p7318
I9
sS'mcdonnell'
p7319
I4
sS'muddled'
p7320
I2
sS'six-cent'
p7321
I2
sS'problems'
p7322
I11
sS'fertilized'
p7323
I2
sS'helping'
p7324
I2
sS'generated'
p7325
I5
sS'chugoku'
p7326
I2
sS'allowing'
p7327
I4
sS'pottery'
p7328
I2
sS'vice'
p7329
I31
sS'vosges'
p7330
I3
sS'departments'
p7331
I2
sS'broad'
p7332
I2
sS'remic'
p7333
I2
sS'intentional'
p7334
I2
sS'once'
p7335
I14
sS'gant'
p7336
I3
sS'issued'
p7337
I7
sS'resistance'
p7338
I4
sS'steve'
p7339
I3
sS'windy'
p7340
I3
sS'winds'
p7341
I2
sS'adjustment'
p7342
I2
sS'contributions'
p7343
I7
sS'issues'
p7344
I18
sS'rigidity'
p7345
I3
sS'disposal'
p7346
I2
sS'stable'
p7347
I3
sS'breach'
p7348
I2
sS'include'
p7349
I12
sS'fences'
p7350
I2
sS'1988-return'
p7351
I2
sS'engineered'
p7352
I2
sS'disquieting'
p7353
I2
sS'drinking'
p7354
I5
sS'posture'
p7355
I2
sS'infocorp'
p7356
I3
sS'notes'
p7357
I14
sS'deals'
p7358
I2
sS'49.4'
p7359
I2
sS'three-judge'
p7360
I2
sS'nine-day'
p7361
I2
sS'noted'
p7362
I4
sS'concluded'
p7363
I3
sS'someday'
p7364
I2
sS'smaller'
p7365
I6
sS'gripping'
p7366
I2
sS'wrestling'
p7367
I2
sS'malice'
p7368
I2
sS'plead'
p7369
I2
sS'beanballs'
p7370
I2
sS'abominable'
p7371
I2
sS'buffeted'
p7372
I2
sS'growers'
p7373
I3
sS'makers'
p7374
I11
sS'concessions'
p7375
I2
sS'networks'
p7376
I2
sS'waiting'
p7377
I4
sS'gubernatorial'
p7378
I2
sS'capital'
p7379
I18
sS'realignments'
p7380
I2
sS'n.m'
p7381
I2
sS'chose'
p7382
I4
sS'degree'
p7383
I4
sS'pushing'
p7384
I3
sS'explore'
p7385
I2
sS'n.y'
p7386
I2
sS'scrapped'
p7387
I2
sS'horse-breeding'
p7388
I2
sS'skyrocketed'
p7389
I2
sS'adjusts'
p7390
I2
sS'leaving'
p7391
I2
sS'suggests'
p7392
I2
sS'fulton'
p7393
I2
sS'spy'
p7394
I4
sS'apt'
p7395
I2
sS'scaled'
p7396
I2
sS'motor'
p7397
I13
sS'apply'
p7398
I7
sS'fed'
p7399
I6
sS'fee'
p7400
I3
sS'from'
p7401
I216
sS'hippie'
p7402
I2
sS'consumption'
p7403
I5
sS'&'
I42
sS'few'
p7404
I20
sS'weeping'
p7405
I2
sS'december'
p7406
I9
sS'timetable'
p7407
I3
sS'1,640'
p7408
I2
sS'sort'
p7409
I3
sS'parliament'
p7410
I3
sS'journalists'
p7411
I3
sS'inclined'
p7412
I3
sS'equity'
p7413
I4
sS'cooperate'
p7414
I2
sS'posturing'
p7415
I2
sS'shostakovich'
p7416
I2
sS'women'
p7417
I2
sS'topic'
p7418
I3
sS'us$'
p7419
I3
sS'stroke'
p7420
I3
sS'lumber'
p7421
I2
sS'proof'
p7422
I2
sS'payroll-tax'
p7423
I2
sS'tap'
p7424
I2
sS'120-day'
p7425
I3
sS'0.1'
p7426
I2
sS'0.3'
p7427
I2
sS'0.2'
p7428
I6
sS'0.5'
p7429
I3
sS'0.4'
p7430
I2
sS'0.6'
p7431
I2
sS'tad'
p7432
I2
sS'tag'
p7433
I2
sS'urged'
p7434
I4
sS'summers'
p7435
I2
sS'united'
p7436
I9
sS'sit'
p7437
I3
sS'six'
p7438
I16
sS'slovenian'
p7439
I2
sS'scotch'
p7440
I3
sS'traders'
p7441
I5
sS'brian'
p7442
I2
sS'3642.90'
p7443
I2
sS'dismissing'
p7444
I2
sS'instead'
p7445
I11
sS'tension'
p7446
I2
sS'restructured'
p7447
I2
sS'tack'
p7448
I2
sS'ethnic'
p7449
I2
sS'improviser'
p7450
I2
sS'light'
p7451
I13
sS'chapman'
p7452
I2
sS'improvised'
p7453
I2
sS'tropics'
p7454
I4
sS'looks'
p7455
I2
sS'quake'
p7456
I2
sS'badges'
p7457
I3
sS'obeisance'
p7458
I2
sS'superior'
p7459
I2
sS'complicate'
p7460
I2
sS'ships'
p7461
I2
sS'anti-nuclear'
p7462
I2
sS'nostalgic'
p7463
I2
sS'permanent'
p7464
I2
sS'restrain'
p7465
I2
sS'choose'
p7466
I2
sS'covered'
p7467
I3
sS'holiday'
p7468
I4
sS'defining'
p7469
I2
sS'pending'
p7470
I3
sS'8.3875'
p7471
I2
sS'violating'
p7472
I2
sS'crash'
p7473
I9
sS'contention'
p7474
I2
sS'orthodox'
p7475
I2
sS'practice'
p7476
I5
sS'republican'
p7477
I3
sS'investor'
p7478
I5
sS'fled'
p7479
I3
sS'articles'
p7480
I2
sS'speaks'
p7481
I2
sS'recorded-music'
p7482
I2
sS'enviable'
p7483
I2
sS'nfl'
p7484
I2
sS'trimmed'
p7485
I2
sS'bickford'
p7486
I2
sS'bills'
p7487
I7
sS'studios'
p7488
I2
sS'registration'
p7489
I3
sS'levy'
p7490
I5
sS'related'
p7491
I2
sS'89'
p7492
I2
sS'lobbied'
p7493
I2
sS'geiger'
p7494
I3
sS'our'
p7495
I27
sS'80'
p7496
I3
sS'85'
p7497
I2
sS'category'
p7498
I2
sS'honorably'
p7499
I2
sS'unencumbered'
p7500
I2
sS'supports'
p7501
I2
sS'thrifts'
p7502
I3
sS'disclose'
p7503
I2
sS'dictionary'
p7504
I2
sS'service-industry'
p7505
I3
sS'promptly'
p7506
I2
sS'provident'
p7507
I2
sS'york'
p7508
I23
sS's-cargo'
p7509
I3
sS'broker-dealer'
p7510
I2
sS'segregated'
p7511
I2
sS'navies'
p7512
I2
sS'ltd'
p7513
I8
sS'biting'
p7514
I2
sS'museum'
p7515
I2
sS'plainly'
p7516
I2
sS'baby-faced'
p7517
I2
sS'galvanized'
p7518
I2
sS'tacker'
p7519
I4
sS'proposing'
p7520
I2
sS'probation'
p7521
I2
sS'kingman'
p7522
I2
sS'umbrellas'
p7523
I2
sS'publication'
p7524
I2
sS'priority'
p7525
I3
sS'wood-paneled'
p7526
I2
sS'tidbit'
p7527
I2
sS'shell'
p7528
I2
sS'shelf'
p7529
I3
sS'doomed'
p7530
I2
sS'condominium'
p7531
I2
sS'slides'
p7532
I2
sS'reflecting'
p7533
I2
sS'july'
p7534
I11
sS'chisholm'
p7535
I2
sS'institution'
p7536
I2
sS'cash-flush'
p7537
I2
sS'kickback'
p7538
I2
sS'boring'
p7539
I2
sS'patients'
p7540
I3
sS'creditors'
p7541
I7
sS'1.4'
p7542
I2
sS'1.5'
p7543
I2
sS'1.6'
p7544
I3
sS'1.1'
p7545
I3
sS'clip'
p7546
I2
sS'1.3'
p7547
I3
sS'1.8'
p7548
I2
sS'teenagers'
p7549
I2
sS'westward'
p7550
I2
sS'sincerity'
p7551
I2
sS'faux'
p7552
I2
sS'8.50'
p7553
I3
sS'linked'
p7554
I3
sS'pallor'
p7555
I2
sS'afraid'
p7556
I2
sS'agency'
p7557
I35
sS'which'
p7558
I120
sS'funds'
p7559
I17
sS'alienating'
p7560
I2
sS'feared'
p7561
I3
sS'first-quarter'
p7562
I2
sS'combat'
p7563
I3
sS'collaboration'
p7564
I3
sS'who'
p7565
I105
sS'accountants'
p7566
I4
sS'withdrawn'
p7567
I2
sS'why'
p7568
I5
sS'subjective'
p7569
I2
sS'410,000'
p7570
I2
sS'dent'
p7571
I2
sS'looked'
p7572
I5
sS'mid-1980s'
p7573
I2
sS'guinea'
p7574
I3
sS'goals'
p7575
I3
sS'bulging'
p7576
I2
sS'chances'
p7577
I2
sS'please'
p7578
I2
sS'agreed'
p7579
I19
sS'planning'
p7580
I3
sS'democrats'
p7581
I6
sS'fear'
p7582
I3
sS'feat'
p7583
I2
sS'debate'
p7584
I11
sS'litigation'
p7585
I3
sS'bottling'
p7586
I4
sS'highest'
p7587
I4
sS'17,699'
p7588
I2
sS'candidates'
p7589
I3
sS'piano'
p7590
I2
sS'local'
p7591
I13
sS'q.'
p7592
I2
sS'vigor'
p7593
I2
sS'sued'
p7594
I2
sS'watching'
p7595
I5
sS'midnight'
p7596
I2
sS'massacre'
p7597
I2
sS'ones'
p7598
I4
sS'penetrate'
p7599
I2
sS'chips'
p7600
I2
sS'mulford'
p7601
I9
sS'brain'
p7602
I19
sS'married'
p7603
I2
sS'view'
p7604
I4
sS'available'
p7605
I5
sS'acquired'
p7606
I9
sS'gametocide'
p7607
I2
sS'unfairly'
p7608
I2
sS'acquirer'
p7609
I2
sS'acquires'
p7610
I2
sS'mid-november'
p7611
I2
sS'favor'
p7612
I5
sS'converted'
p7613
I2
sS'identification'
p7614
I2
sS'closed'
p7615
I13
sS'pure-voiced'
p7616
I2
sS'frustrated'
p7617
I2
sS'bought'
p7618
I6
sS'weighing'
p7619
I2
sS'ability'
p7620
I3
sS'opening'
p7621
I7
sS'beverages'
p7622
I2
sS'agencies'
p7623
I12
sS'reitman'
p7624
I2
sS'embarrassment'
p7625
I2
sS'job'
p7626
I7
sS'takeover'
p7627
I11
sS'joe'
p7628
I2
sS'probing'
p7629
I2
sS'jon'
p7630
I2
sS'barrett'
p7631
I2
sS'april'
p7632
I6
sS'strengthens'
p7633
I2
sS'unclear'
p7634
I2
sS'wall'
p7635
I7
sS'grinevsky'
p7636
I2
sS'narrower'
p7637
I2
sS'ploys'
p7638
I2
sS'packaging'
p7639
I3
sS'heredity'
p7640
I2
sS'table'
p7641
I3
sS'bottlers'
p7642
I2
sS'unhappiness'
p7643
I2
sS'flashes'
p7644
I3
sS'fishery'
p7645
I2
sS'trademark'
p7646
I2
sS'shima'
p7647
I2
sS'730'
p7648
I2
sS'arbitrator'
p7649
I8
sS'agreements'
p7650
I5
sS'remedies'
p7651
I2
sS'tissues'
p7652
I2
sS'thrusting'
p7653
I2
sS'defunct'
p7654
I3
sS'scrutiny'
p7655
I4
sS'improved'
p7656
I3
sS'21.18'
p7657
I2
sS'present'
p7658
I4
sS'wily'
p7659
I2
sS'unlike'
p7660
I4
sS'overuse'
p7661
I2
sS'vanilla'
p7662
I2
sS'choices'
p7663
I2
sS'will'
p7664
I175
sS'supply'
p7665
I5
sS'19.95'
p7666
I2
sS'non-proliferation'
p7667
I2
sS'thus'
p7668
I3
sS'audiences'
p7669
I4
sS'dual'
p7670
I2
sS'lightweight'
p7671
I2
sS'co-edited'
p7672
I2
sS'perhaps'
p7673
I9
sS'vintage'
p7674
I2
sS'privileges'
p7675
I3
sS'member'
p7676
I7
sS'largest'
p7677
I21
sS'units'
p7678
I5
sS'gets'
p7679
I2
sS'burnouts'
p7680
I2
sS'difficult'
p7681
I9
sS'premiere'
p7682
I2
sS'convocation'
p7683
I2
sS'mutual'
p7684
I2
sS'14.25'
p7685
I2
sS'lobby'
p7686
I3
sS'correspondent'
p7687
I2
sS'approve'
p7688
I3
sS'fighting'
p7689
I2
sS'english'
p7690
I4
sS'decliners'
p7691
I2
sS'inc.'
p7692
I51
sS'routinely'
p7693
I3
sS'heavily'
p7694
I3
sS'gyrations'
p7695
I2
sS'five-year-old'
p7696
I2
sS'obtain'
p7697
I2
sS'fishing'
p7698
I2
sS'7*slashhere*16'
p7699
I5
sS'rapid'
p7700
I2
sS'sublime'
p7701
I2
sS'kitada'
p7702
I2
sS'guts'
p7703
I2
sS'smith'
p7704
I4
sS'clyde'
p7705
I2
sS'other'
p7706
I83
sS'adoption'
p7707
I3
sS'attractive'
p7708
I4
sS'tax'
p7709
I20
sS'pampers'
p7710
I2
sS'branch'
p7711
I7
sS'provisions'
p7712
I3
sS'protesters'
p7713
I5
sS'republics'
p7714
I2
sS'siemens'
p7715
I2
sS'know'
p7716
I9
sS'catchers'
p7717
I2
sS'press'
p7718
I9
sS'safest'
p7719
I2
sS'perpetual'
p7720
I2
sS'multibillion-yen'
p7721
I2
sS'loses'
p7722
I2
sS'taxpayers'
p7723
I11
sS'counterespionage'
p7724
I2
sS'lawson'
p7725
I2
sS'hosts'
p7726
I2
sS'construe'
p7727
I2
sS'james'
p7728
I9
sS'stain-resistant'
p7729
I2
sS'parity'
p7730
I6
sS'5,600'
p7731
I2
sS'because'
p7732
I47
sS'clusters'
p7733
I2
sS'scottish'
p7734
I2
sS'searching'
p7735
I2
sS'115'
p7736
I2
sS'demeanor'
p7737
I2
sS'growth'
p7738
I11
sS'export'
p7739
I2
sS'empire'
p7740
I2
sS'employment'
p7741
I2
sS'wellesley'
p7742
I2
sS'lead'
p7743
I8
sS'severance'
p7744
I2
sS'lean'
p7745
I2
sS'york-based'
p7746
I2
sS'leader'
p7747
I15
sS'locate'
p7748
I2
sS'subverted'
p7749
I2
sS'thoroughfare'
p7750
I2
sS'27.6'
p7751
I2
sS'27.4'
p7752
I2
sS'22.8'
p7753
I2
sS'rare'
p7754
I4
sS'carried'
p7755
I3
sS'getting'
p7756
I9
sS'shipping'
p7757
I2
sS'surge'
p7758
I3
sS'carries'
p7759
I4
sS'carrier'
p7760
I8
sS'sweat'
p7761
I2
sS'urges'
p7762
I2
sS'own'
p7763
I22
sS'polished'
p7764
I2
sS'owe'
p7765
I4
sS'warrants'
p7766
I5
sS'promise'
p7767
I4
sS'lawful'
p7768
I5
sS'yankee'
p7769
I2
sS'2.53'
p7770
I2
sS'van'
p7771
I2
sS'texaco'
p7772
I2
sS'transfer'
p7773
I4
sS'continental'
p7774
I3
sS'intention'
p7775
I2
sS'ed'
p7776
I2
sS'breeding'
p7777
I3
sS'ubs-phillips'
p7778
I2
sS'triggered'
p7779
I4
sS'multistate'
p7780
I2
sS'u.s.a.'
p7781
I3
sS'english-speaking'
p7782
I2
sS'volume'
p7783
I7
sS'automated'
p7784
I2
sS'squeeze'
p7785
I2
sS'bradley'
p7786
I2
sS'made'
p7787
I27
sS'tactics'
p7788
I4
sS'whether'
p7789
I13
sS'appleyard'
p7790
I4
sS'record'
p7791
I15
sS'below'
p7792
I5
sS'ruling'
p7793
I11
sS'200,000'
p7794
I2
sS'8.395'
p7795
I2
sS'nondemocratic'
p7796
I2
sS'eagerness'
p7797
I2
sS'911,606'
p7798
I2
sS'conspired'
p7799
I2
sS"'ll"
p7800
I7
sS'percent'
p7801
I2
sS'illinois'
p7802
I2
sS'book'
p7803
I4
sS'sick'
p7804
I3
sS'incredibly'
p7805
I2
sS'hand-held'
p7806
I2
sS'kinds'
p7807
I4
sS'june'
p7808
I9
sS'contends'
p7809
I3
sS'frustrate'
p7810
I2
sS'shere'
p7811
I7
sS'income-tax'
p7812
I3
sS'gap'
p7813
I3
sS'4.25'
p7814
I6
sS'4.27'
p7815
I2
sS'extort'
p7816
I2
sS'intentionally'
p7817
I2
sS'ideological'
p7818
I2
sS'smoke-filled'
p7819
I2
s.