(dp1
S'PRP$'
p2
(dp3
g2
I1
sS'VBG'
p4
I18
sS'FW'
p5
I1
sS'VBN'
p6
I7
sS','
I3
sS'VBP'
p7
I6
sS'WDT'
p8
I1
sS'JJ'
p9
I2
sS'WP'
p10
I1
sS'VBZ'
p11
I9
sS'DT'
p12
I7
sS'#'
I1
sS'"'
I3
sS'RP'
p13
I4
sS'$'
I1
sS'NN'
p14
I3
sS'start'
p15
I15
sS')'
I1
sS'('
I2
sS'VBD'
p16
I30
sS'POS'
p17
I1
sS'.'
I1
sS'TO'
p18
I13
sS'PRP'
p19
I1
sS'RB'
p20
I5
sS':'
I2
sS'NNS'
p21
I1
sS'NNP'
p22
I1
sS'VB'
p23
I55
sS'WRB'
p24
I4
sS'`'
I1
sS'CC'
p25
I21
sS'LS'
p26
I1
sS'PDT'
p27
I1
sS'RBS'
p28
I1
sS'RBR'
p29
I1
sS'CD'
p30
I1
sS'EX'
p31
I1
sS'IN'
p32
I132
sS'WP$'
p33
I1
sS'MD'
p34
I1
sS'NNPS'
p35
I1
sS"'"
I1
sS'JJS'
p36
I1
sS'JJR'
p37
I1
sS'SYM'
p38
I1
sS'UH'
p39
I1
ssg4
(dp40
g2
I3
sg4
I5
sg5
I1
sg6
I18
sS','
I69
sg7
I43
sg8
I1
sg9
I13
sg10
I1
sg11
I41
sg12
I26
sS'#'
I1
sS'"'
I8
sg13
I1
sS'$'
I1
sg14
I48
sg15
I18
sS')'
I2
sS'('
I1
sg16
I13
sg17
I4
sS'.'
I1
sg18
I4
sg19
I2
sg20
I30
sS':'
I2
sg21
I41
sg22
I9
sg23
I11
sg24
I1
sS'`'
I1
sg25
I15
sg26
I1
sg27
I1
sg28
I1
sg29
I1
sg30
I2
sg31
I1
sg32
I103
sg33
I1
sg34
I1
sg35
I1
sS"'"
I1
sg36
I1
sg37
I1
sg38
I1
sg39
I1
ssg5
(dp41
g2
I1
sg4
I1
sg5
I4
sg6
I1
sS','
I2
sg7
I1
sg8
I1
sg9
I1
sg10
I1
sg11
I1
sg12
I1
sS'#'
I1
sS'"'
I2
sg13
I1
sS'$'
I1
sg14
I1
sg15
I2
sS')'
I1
sS'('
I1
sg16
I1
sg17
I1
sS'.'
I1
sg18
I1
sg19
I1
sg20
I1
sS':'
I1
sg21
I1
sg22
I7
sg23
I1
sg24
I1
sS'`'
I1
sg25
I1
sg26
I1
sg27
I1
sg28
I1
sg29
I1
sg30
I2
sg31
I1
sg32
I2
sg33
I1
sg34
I1
sg35
I1
sS"'"
I1
sg36
I1
sg37
I1
sg38
I1
sg39
I1
ssg6
(dp42
g2
I1
sg4
I17
sg5
I1
sg6
I20
sS','
I28
sg7
I86
sg8
I1
sg9
I2
sg10
I1
sg11
I111
sg12
I21
sS'#'
I1
sS'"'
I6
sg13
I1
sS'$'
I1
sg14
I64
sg15
I10
sS')'
I1
sS'('
I2
sg16
I93
sg17
I2
sS'.'
I1
sg18
I2
sg19
I1
sg20
I84
sS':'
I4
sg21
I53
sg22
I2
sg23
I76
sg24
I2
sS'`'
I1
sg25
I9
sg26
I1
sg27
I1
sg28
I1
sg29
I2
sg30
I6
sg31
I1
sg32
I18
sg33
I1
sg34
I2
sg35
I2
sS"'"
I1
sg36
I1
sg37
I2
sg38
I1
sg39
I1
ssS','
(dp43
g2
I1
sg4
I3
sg5
I1
sg6
I20
sS','
I1
sg7
I12
sg8
I2
sg9
I74
sg10
I3
sg11
I12
sg12
I6
sS'#'
I1
sS'"'
I1
sg13
I3
sS'$'
I1
sg14
I513
sg15
I1
sS')'
I18
sS'('
I1
sg16
I27
sg17
I1
sS'.'
I1
sg18
I3
sg19
I11
sg20
I104
sS':'
I1
sg21
I302
sg22
I432
sg23
I16
sg24
I1
sS'`'
I1
sg25
I5
sg26
I7
sg27
I1
sg28
I1
sg29
I2
sg30
I83
sg31
I1
sg32
I6
sg33
I1
sg34
I1
sg35
I21
sS"'"
I1
sg36
I4
sg37
I11
sg38
I1
sg39
I2
ssg7
(dp44
g2
I1
sg4
I2
sg5
I1
sg6
I2
sS','
I18
sg7
I1
sg8
I23
sg9
I3
sg10
I21
sg11
I1
sg12
I11
sS'#'
I1
sS'"'
I4
sg13
I1
sS'$'
I1
sg14
I23
sg15
I2
sS')'
I1
sS'('
I1
sg16
I2
sg17
I1
sS'.'
I1
sg18
I1
sg19
I118
sg20
I37
sS':'
I3
sg21
I173
sg22
I19
sg23
I3
sg24
I2
sS'`'
I1
sg25
I14
sg26
I1
sg27
I1
sg28
I1
sg29
I1
sg30
I9
sg31
I4
sg32
I3
sg33
I1
sg34
I1
sg35
I15
sS"'"
I1
sg36
I3
sg37
I1
sg38
I1
sg39
I1
ssg8
(dp45
g2
I1
sg4
I1
sg5
I1
sg6
I1
sS','
I65
sg7
I1
sg8
I1
sg9
I1
sg10
I1
sg11
I1
sg12
I1
sS'#'
I1
sS'"'
I4
sg13
I1
sS'$'
I1
sg14
I57
sg15
I3
sS')'
I1
sS'('
I1
sg16
I1
sg17
I1
sS'.'
I1
sg18
I2
sg19
I2
sg20
I1
sS':'
I3
sg21
I23
sg22
I4
sg23
I1
sg24
I1
sS'`'
I1
sg25
I3
sg26
I1
sg27
I1
sg28
I1
sg29
I1
sg30
I1
sg31
I1
sg32
I13
sg33
I1
sg34
I1
sg35
I1
sS"'"
I1
sg36
I1
sg37
I1
sg38
I1
sg39
I1
ssg9
(dp46
g2
I67
sg4
I32
sg5
I1
sg6
I35
sS','
I100
sg7
I52
sg8
I2
sg9
I217
sg10
I2
sg11
I68
sg12
I669
sS'#'
I1
sS'"'
I46
sg13
I7
sS'$'
I1
sg14
I33
sg15
I58
sS')'
I1
sS'('
I7
sg16
I52
sg17
I60
sS'.'
I1
sg18
I40
sg19
I5
sg20
I126
sS':'
I9
sg21
I33
sg22
I28
sg23
I105
sg24
I13
sS'`'
I1
sg25
I118
sg26
I1
sg27
I1
sg28
I13
sg29
I29
sg30
I42
sg31
I1
sg32
I346
sg33
I2
sg34
I1
sg35
I1
sS"'"
I1
sg36
I7
sg37
I11
sg38
I1
sg39
I1
ssg10
(dp47
g2
I1
sg4
I1
sg5
I1
sg6
I1
sS','
I34
sg7
I2
sg8
I1
sg9
I1
sg10
I1
sg11
I4
sg12
I6
sS'#'
I1
sS'"'
I8
sg13
I1
sS'$'
I1
sg14
I14
sg15
I3
sS')'
I1
sS'('
I1
sg16
I2
sg17
I1
sS'.'
I2
sg18
I2
sg19
I1
sg20
I4
sS':'
I2
sg21
I19
sg22
I2
sg23
I3
sg24
I1
sS'`'
I1
sg25
I1
sg26
I1
sg27
I1
sg28
I1
sg29
I1
sg30
I1
sg31
I1
sg32
I7
sg33
I1
sg34
I1
sg35
I3
sS"'"
I1
sg36
I1
sg37
I1
sg38
I1
sg39
I1
ssg11
(dp48
g2
I1
sg4
I2
sg5
I1
sg6
I2
sS','
I60
sg7
I1
sg8
I48
sg9
I6
sg10
I24
sg11
I1
sg12
I16
sS'#'
I1
sS'"'
I32
sg13
I1
sS'$'
I1
sg14
I171
sg15
I4
sS')'
I1
sS'('
I1
sg16
I1
sg17
I1
sS'.'
I1
sg18
I1
sg19
I120
sg20
I42
sS':'
I2
sg21
I13
sg22
I124
sg23
I2
sg24
I3
sS'`'
I1
sg25
I23
sg26
I1
sg27
I1
sg28
I2
sg29
I2
sg30
I5
sg31
I13
sg32
I5
sg33
I1
sg34
I1
sg35
I5
sS"'"
I1
sg36
I1
sg37
I1
sg38
I1
sg39
I1
ssg12
(dp49
g2
I1
sg4
I95
sg5
I1
sg6
I54
sS','
I220
sg7
I59
sg8
I8
sg9
I9
sg10
I6
sg11
I134
sg12
I8
sS'#'
I1
sS'"'
I47
sg13
I28
sS'$'
I1
sg14
I20
sg15
I303
sS')'
I3
sS'('
I7
sg16
I169
sg17
I1
sS'.'
I2
sg18
I85
sg19
I6
sg20
I53
sS':'
I25
sg21
I32
sg22
I7
sg23
I223
sg24
I13
sS'`'
I1
sg25
I108
sg26
I1
sg27
I7
sg28
I1
sg29
I9
sg30
I21
sg31
I1
sg32
I1157
sg33
I1
sg34
I2
sg35
I1
sS"'"
I1
sg36
I1
sg37
I1
sg38
I1
sg39
I1
ssS'#'
(dp50
g2
I1
sg4
I1
sg5
I1
sg6
I1
sS','
I1
sg7
I1
sg8
I1
sg9
I1
sg10
I1
sg11
I1
sg12
I1
sS'#'
I1
sS'"'
I1
sg13
I1
sS'$'
I1
sg14
I1
sg15
I1
sS')'
I1
sS'('
I1
sg16
I1
sg17
I1
sS'.'
I1
sg18
I1
sg19
I1
sg20
I1
sS':'
I1
sg21
I1
sg22
I1
sg23
I1
sg24
I1
sS'`'
I1
sg25
I1
sg26
I1
sg27
I1
sg28
I1
sg29
I1
sg30
I1
sg31
I1
sg32
I1
sg33
I1
sg34
I1
sg35
I1
sS"'"
I1
sg36
I1
sg37
I1
sg38
I1
sg39
I1
ssS'"'
(dp51
g2
I5
sg4
I4
sg5
I1
sg6
I7
sS','
I104
sg7
I3
sg8
I1
sg9
I23
sg10
I1
sg11
I8
sg12
I19
sS'#'
I1
sS'"'
I6
sg13
I1
sS'$'
I1
sg14
I46
sg15
I115
sS')'
I1
sS'('
I3
sg16
I5
sg17
I7
sS'.'
I6
sg18
I5
sg19
I6
sg20
I5
sS':'
I17
sg21
I19
sg22
I7
sg23
I7
sg24
I1
sS'`'
I1
sg25
I6
sg26
I1
sg27
I1
sg28
I1
sg29
I2
sg30
I3
sg31
I1
sg32
I24
sg33
I1
sg34
I3
sg35
I3
sS"'"
I1
sg36
I1
sg37
I1
sg38
I1
sg39
I1
ssg13
(dp52
g2
I1
sg4
I13
sg5
I1
sg6
I7
sS','
I1
sg7
I3
sg8
I1
sg9
I1
sg10
I1
sg11
I5
sg12
I1
sS'#'
I1
sS'"'
I1
sg13
I1
sS'$'
I1
sg14
I9
sg15
I1
sS')'
I1
sS'('
I1
sg16
I11
sg17
I1
sS'.'
I1
sg18
I1
sg19
I5
sg20
I2
sS':'
I1
sg21
I3
sg22
I1
sg23
I26
sg24
I1
sS'`'
I1
sg25
I1
sg26
I1
sg27
I1
sg28
I1
sg29
I1
sg30
I1
sg31
I1
sg32
I1
sg33
I1
sg34
I1
sg35
I1
sS"'"
I1
sg36
I1
sg37
I1
sg38
I1
sg39
I1
ssS'$'
(dp53
g2
I3
sg4
I8
sg5
I1
sg6
I7
sS','
I6
sg7
I1
sg8
I1
sg9
I5
sg10
I1
sg11
I5
sg12
I12
sS'#'
I1
sS'"'
I1
sg13
I2
sS'$'
I1
sg14
I2
sg15
I1
sS')'
I1
sS'('
I11
sg16
I7
sg17
I3
sS'.'
I1
sg18
I19
sg19
I1
sg20
I6
sS':'
I2
sg21
I1
sg22
I5
sg23
I5
sg24
I1
sS'`'
I1
sg25
I6
sg26
I1
sg27
I1
sg28
I1
sg29
I1
sg30
I2
sg31
I1
sg32
I55
sg33
I1
sg34
I1
sg35
I1
sS"'"
I1
sg36
I2
sg37
I1
sg38
I1
sg39
I1
ssg14
(dp54
g2
I132
sg4
I78
sg5
I1
sg6
I22
sS','
I77
sg7
I12
sg8
I2
sg9
I1001
sg10
I1
sg11
I32
sg12
I1268
sS'#'
I1
sS'"'
I42
sg13
I6
sS'$'
I1
sg14
I539
sg15
I44
sS')'
I4
sS'('
I2
sg16
I31
sg17
I129
sS'.'
I1
sg18
I23
sg19
I3
sg20
I10
sS':'
I6
sg21
I43
sg22
I155
sg23
I56
sg24
I6
sS'`'
I1
sg25
I95
sg26
I1
sg27
I1
sg28
I1
sg29
I1
sg30
I235
sg31
I1
sg32
I362
sg33
I7
sg34
I1
sg35
I9
sS"'"
I1
sg36
I20
sg37
I30
sg38
I1
sg39
I1
ssS')'
(dp55
g2
I2
sg4
I1
sg5
I1
sg6
I1
sS','
I1
sg7
I1
sg8
I1
sg9
I2
sg10
I1
sg11
I2
sg12
I1
sS'#'
I1
sS'"'
I1
sg13
I1
sS'$'
I1
sg14
I10
sg15
I6
sS')'
I1
sS'('
I1
sg16
I1
sg17
I2
sS'.'
I1
sg18
I1
sg19
I1
sg20
I1
sS':'
I1
sg21
I7
sg22
I24
sg23
I2
sg24
I1
sS'`'
I1
sg25
I1
sg26
I1
sg27
I1
sg28
I1
sg29
I1
sg30
I15
sg31
I1
sg32
I1
sg33
I1
sg34
I1
sg35
I1
sS"'"
I1
sg36
I1
sg37
I1
sg38
I1
sg39
I1
ssS'('
(dp56
g2
I1
sg4
I2
sg5
I1
sg6
I1
sS','
I2
sg7
I1
sg8
I1
sg9
I2
sg10
I1
sg11
I1
sg12
I5
sS'#'
I1
sS'"'
I4
sg13
I1
sS'$'
I1
sg14
I12
sg15
I10
sS')'
I1
sS'('
I1
sg16
I1
sg17
I1
sS'.'
I1
sg18
I2
sg19
I2
sg20
I2
sS':'
I1
sg21
I11
sg22
I18
sg23
I2
sg24
I1
sS'`'
I1
sg25
I2
sg26
I1
sg27
I1
sg28
I1
sg29
I1
sg30
I1
sg31
I1
sg32
I4
sg33
I1
sg34
I1
sg35
I2
sS"'"
I1
sg36
I1
sg37
I1
sg38
I1
sg39
I1
ssg16
(dp57
g2
I1
sg4
I2
sg5
I1
sg6
I1
sS','
I80
sg7
I2
sg8
I34
sg9
I2
sg10
I29
sg11
I1
sg12
I4
sS'#'
I1
sS'"'
I19
sg13
I1
sS'$'
I1
sg14
I179
sg15
I2
sS')'
I3
sS'('
I1
sg16
I1
sg17
I5
sS'.'
I1
sg18
I1
sg19
I162
sg20
I67
sS':'
I2
sg21
I107
sg22
I205
sg23
I2
sg24
I1
sS'`'
I1
sg25
I37
sg26
I1
sg27
I1
sg28
I1
sg29
I1
sg30
I7
sg31
I4
sg32
I1
sg33
I1
sg34
I1
sg35
I19
sS"'"
I1
sg36
I2
sg37
I2
sg38
I1
sg39
I1
ssg17
(dp58
g2
I1
sg4
I1
sg5
I1
sg6
I1
sS','
I1
sg7
I2
sg8
I1
sg9
I3
sg10
I1
sg11
I1
sg12
I1
sS'#'
I1
sS'"'
I1
sg13
I1
sS'$'
I1
sg14
I91
sg15
I1
sS')'
I1
sS'('
I1
sg16
I1
sg17
I1
sS'.'
I1
sg18
I1
sg19
I3
sg20
I2
sS':'
I1
sg21
I25
sg22
I174
sg23
I1
sg24
I1
sS'`'
I1
sg25
I1
sg26
I1
sg27
I1
sg28
I1
sg29
I1
sg30
I1
sg31
I1
sg32
I1
sg33
I1
sg34
I1
sg35
I8
sS"'"
I1
sg36
I1
sg37
I1
sg38
I1
sg39
I1
ssS'.'
(dp59
g2
I1
sg4
I5
sg5
I3
sg6
I34
sS','
I1
sg7
I11
sg8
I1
sg9
I58
sg10
I1
sg11
I19
sg12
I6
sS'#'
I1
sS'"'
I1
sg13
I8
sS'$'
I1
sg14
I481
sg15
I1
sS')'
I7
sS'('
I1
sg16
I55
sg17
I1
sS'.'
I1
sg18
I2
sg19
I23
sg20
I65
sS':'
I9
sg21
I310
sg22
I194
sg23
I21
sg24
I1
sS'`'
I1
sg25
I1
sg26
I1
sg27
I1
sg28
I1
sg29
I2
sg30
I59
sg31
I1
sg32
I3
sg33
I1
sg34
I1
sg35
I12
sS"'"
I1
sg36
I2
sg37
I7
sg38
I1
sg39
I1
ssg18
(dp60
g2
I1
sg4
I40
sg5
I1
sg6
I67
sS','
I16
sg7
I22
sg8
I1
sg9
I76
sg10
I1
sg11
I25
sg12
I1
sS'#'
I1
sS'"'
I3
sg13
I4
sS'$'
I1
sg14
I180
sg15
I5
sS')'
I2
sS'('
I1
sg16
I48
sg17
I1
sS'.'
I2
sg18
I1
sg19
I17
sg20
I41
sS':'
I1
sg21
I116
sg22
I38
sg23
I45
sg24
I8
sS'`'
I1
sg25
I7
sg26
I1
sg27
I1
sg28
I1
sg29
I2
sg30
I27
sg31
I1
sg32
I7
sg33
I1
sg34
I4
sg35
I7
sS"'"
I1
sg36
I1
sg37
I2
sg38
I1
sg39
I1
ssg19
(dp61
g2
I1
sg4
I16
sg5
I1
sg6
I5
sS','
I97
sg7
I17
sg8
I8
sg9
I3
sg10
I7
sg11
I19
sg12
I2
sS'#'
I1
sS'"'
I60
sg13
I1
sS'$'
I1
sg14
I16
sg15
I95
sS')'
I2
sS'('
I1
sg16
I63
sg17
I1
sS'.'
I3
sg18
I9
sg19
I2
sg20
I13
sS':'
I12
sg21
I12
sg22
I1
sg23
I47
sg24
I18
sS'`'
I1
sg25
I47
sg26
I1
sg27
I1
sg28
I1
sg29
I1
sg30
I2
sg31
I1
sg32
I98
sg33
I1
sg34
I2
sg35
I1
sS"'"
I1
sg36
I1
sg37
I1
sg38
I1
sg39
I1
ssg20
(dp62
g2
I3
sg4
I30
sg5
I1
sg6
I41
sS','
I85
sg7
I89
sg8
I11
sg9
I11
sg10
I4
sg11
I84
sg12
I32
sS'#'
I1
sS'"'
I17
sg13
I3
sS'$'
I1
sg14
I64
sg15
I84
sS')'
I3
sS'('
I2
sg16
I103
sg17
I1
sS'.'
I2
sg18
I12
sg19
I43
sg20
I80
sS':'
I13
sg21
I77
sg22
I35
sg23
I53
sg24
I3
sS'`'
I1
sg25
I56
sg26
I1
sg27
I1
sg28
I1
sg29
I8
sg30
I3
sg31
I2
sg32
I39
sg33
I1
sg34
I57
sg35
I5
sS"'"
I1
sg36
I2
sg37
I2
sg38
I1
sg39
I1
ssS':'
(dp63
g2
I1
sg4
I1
sg5
I1
sg6
I3
sS','
I1
sg7
I5
sg8
I1
sg9
I13
sg10
I1
sg11
I3
sg12
I1
sS'#'
I1
sS'"'
I5
sg13
I1
sS'$'
I1
sg14
I66
sg15
I1
sS')'
I8
sS'('
I1
sg16
I6
sg17
I1
sS'.'
I1
sg18
I1
sg19
I5
sg20
I5
sS':'
I1
sg21
I71
sg22
I20
sg23
I6
sg24
I1
sS'`'
I1
sg25
I1
sg26
I1
sg27
I1
sg28
I1
sg29
I1
sg30
I5
sg31
I1
sg32
I2
sg33
I1
sg34
I1
sg35
I2
sS"'"
I1
sg36
I1
sg37
I3
sg38
I1
sg39
I1
ssg21
(dp64
g2
I92
sg4
I48
sg5
I2
sg6
I28
sS','
I45
sg7
I21
sg8
I3
sg9
I605
sg10
I2
sg11
I15
sg12
I261
sS'#'
I1
sS'"'
I19
sg13
I7
sS'$'
I1
sg14
I323
sg15
I58
sS')'
I1
sS'('
I2
sg16
I25
sg17
I41
sS'.'
I3
sg18
I17
sg19
I1
sg20
I5
sS':'
I8
sg21
I23
sg22
I88
sg23
I55
sg24
I6
sS'`'
I1
sg25
I59
sg26
I1
sg27
I1
sg28
I1
sg29
I1
sg30
I196
sg31
I1
sg32
I211
sg33
I3
sg34
I2
sg35
I4
sS"'"
I1
sg36
I10
sg37
I13
sg38
I1
sg39
I1
ssg22
(dp65
g2
I15
sg4
I27
sg5
I7
sg6
I25
sS','
I196
sg7
I6
sg8
I5
sg9
I91
sg10
I2
sg11
I38
sg12
I339
sS'#'
I1
sS'"'
I31
sg13
I3
sS'$'
I1
sg14
I54
sg15
I270
sS')'
I6
sS'('
I27
sg16
I54
sg17
I31
sS'.'
I1
sg18
I48
sg19
I1
sg20
I8
sS':'
I25
sg21
I13
sg22
I1129
sg23
I33
sg24
I6
sS'`'
I1
sg25
I139
sg26
I1
sg27
I1
sg28
I1
sg29
I1
sg30
I18
sg31
I1
sg32
I523
sg33
I1
sg34
I2
sg35
I40
sS"'"
I1
sg36
I1
sg37
I2
sg38
I2
sg39
I1
ssg23
(dp66
g2
I1
sg4
I3
sg5
I1
sg6
I1
sS','
I10
sg7
I3
sg8
I1
sg9
I1
sg10
I1
sg11
I2
sg12
I2
sS'#'
I1
sS'"'
I8
sg13
I1
sS'$'
I1
sg14
I8
sg15
I10
sS')'
I1
sS'('
I3
sg16
I5
sg17
I1
sS'.'
I1
sg18
I457
sg19
I15
sg20
I121
sS':'
I3
sg21
I7
sg22
I8
sg23
I10
sg24
I1
sS'`'
I1
sg25
I35
sg26
I1
sg27
I1
sg28
I1
sg29
I1
sg30
I1
sg31
I1
sg32
I5
sg33
I1
sg34
I310
sg35
I1
sS"'"
I1
sg36
I2
sg37
I1
sg38
I1
sg39
I1
ssg24
(dp67
g2
I1
sg4
I1
sg5
I1
sg6
I3
sS','
I5
sg7
I4
sg8
I1
sg9
I4
sg10
I1
sg11
I1
sg12
I2
sS'#'
I1
sS'"'
I5
sg13
I2
sS'$'
I1
sg14
I11
sg15
I7
sS')'
I1
sS'('
I1
sg16
I4
sg17
I2
sS'.'
I1
sg18
I1
sg19
I3
sg20
I5
sS':'
I3
sg21
I4
sg22
I3
sg23
I7
sg24
I1
sS'`'
I1
sg25
I6
sg26
I1
sg27
I1
sg28
I1
sg29
I1
sg30
I2
sg31
I1
sg32
I11
sg33
I1
sg34
I1
sg35
I1
sS"'"
I1
sg36
I1
sg37
I1
sg38
I1
sg39
I1
ssS'`'
(dp68
g2
I1
sg4
I1
sg5
I1
sg6
I1
sS','
I1
sg7
I1
sg8
I1
sg9
I1
sg10
I1
sg11
I1
sg12
I1
sS'#'
I1
sS'"'
I1
sg13
I1
sS'$'
I1
sg14
I1
sg15
I1
sS')'
I1
sS'('
I1
sg16
I1
sg17
I1
sS'.'
I1
sg18
I1
sg19
I1
sg20
I1
sS':'
I1
sg21
I1
sg22
I1
sg23
I1
sg24
I1
sS'`'
I1
sg25
I1
sg26
I1
sg27
I1
sg28
I1
sg29
I1
sg30
I1
sg31
I1
sg32
I1
sg33
I1
sg34
I1
sg35
I1
sS"'"
I1
sg36
I1
sg37
I1
sg38
I1
sg39
I1
ssg25
(dp69
g2
I2
sg4
I5
sg5
I2
sg6
I6
sS','
I152
sg7
I2
sg8
I1
sg9
I45
sg10
I1
sg11
I4
sg12
I2
sS'#'
I1
sS'"'
I22
sg13
I1
sS'$'
I1
sg14
I191
sg15
I81
sS')'
I6
sS'('
I2
sg16
I5
sg17
I1
sS'.'
I3
sg18
I1
sg19
I9
sg20
I15
sS':'
I12
sg21
I131
sg22
I153
sg23
I13
sg24
I2
sS'`'
I1
sg25
I1
sg26
I1
sg27
I1
sg28
I1
sg29
I3
sg30
I29
sg31
I1
sg32
I6
sg33
I1
sg34
I1
sg35
I13
sS"'"
I1
sg36
I1
sg37
I2
sg38
I1
sg39
I1
ssg26
(dp70
g2
I1
sg4
I1
sg5
I1
sg6
I1
sS','
I1
sg7
I1
sg8
I1
sg9
I1
sg10
I1
sg11
I1
sg12
I1
sS'#'
I1
sS'"'
I1
sg13
I1
sS'$'
I1
sg14
I1
sg15
I7
sS')'
I1
sS'('
I1
sg16
I1
sg17
I1
sS'.'
I1
sg18
I1
sg19
I1
sg20
I1
sS':'
I1
sg21
I1
sg22
I1
sg23
I1
sg24
I1
sS'`'
I1
sg25
I1
sg26
I1
sg27
I1
sg28
I1
sg29
I1
sg30
I1
sg31
I1
sg32
I1
sg33
I1
sg34
I1
sg35
I1
sS"'"
I1
sg36
I1
sg37
I1
sg38
I1
sg39
I1
ssg27
(dp71
g2
I1
sg4
I1
sg5
I1
sg6
I1
sS','
I2
sg7
I1
sg8
I1
sg9
I1
sg10
I1
sg11
I1
sg12
I1
sS'#'
I1
sS'"'
I1
sg13
I1
sS'$'
I1
sg14
I1
sg15
I2
sS')'
I1
sS'('
I1
sg16
I2
sg17
I1
sS'.'
I1
sg18
I1
sg19
I1
sg20
I2
sS':'
I1
sg21
I1
sg22
I1
sg23
I2
sg24
I1
sS'`'
I1
sg25
I1
sg26
I1
sg27
I1
sg28
I1
sg29
I1
sg30
I1
sg31
I1
sg32
I2
sg33
I1
sg34
I1
sg35
I1
sS"'"
I1
sg36
I1
sg37
I1
sg38
I1
sg39
I1
ssg28
(dp72
g2
I1
sg4
I1
sg5
I1
sg6
I1
sS','
I1
sg7
I1
sg8
I1
sg9
I1
sg10
I1
sg11
I3
sg12
I6
sS'#'
I1
sS'"'
I1
sg13
I1
sS'$'
I1
sg14
I1
sg15
I1
sS')'
I1
sS'('
I1
sg16
I1
sg17
I4
sS'.'
I1
sg18
I2
sg19
I1
sg20
I2
sS':'
I1
sg21
I1
sg22
I1
sg23
I1
sg24
I1
sS'`'
I1
sg25
I1
sg26
I1
sg27
I1
sg28
I1
sg29
I1
sg30
I2
sg31
I1
sg32
I2
sg33
I1
sg34
I1
sg35
I1
sS"'"
I1
sg36
I1
sg37
I1
sg38
I1
sg39
I1
ssg29
(dp73
g2
I1
sg4
I2
sg5
I1
sg6
I8
sS','
I3
sg7
I6
sg8
I1
sg9
I2
sg10
I2
sg11
I3
sg12
I6
sS'#'
I1
sS'"'
I3
sg13
I1
sS'$'
I1
sg14
I2
sg15
I7
sS')'
I1
sS'('
I1
sg16
I8
sg17
I1
sS'.'
I1
sg18
I3
sg19
I2
sg20
I7
sS':'
I1
sg21
I3
sg22
I3
sg23
I7
sg24
I1
sS'`'
I1
sg25
I4
sg26
I1
sg27
I1
sg28
I1
sg29
I1
sg30
I1
sg31
I1
sg32
I2
sg33
I1
sg34
I2
sg35
I1
sS"'"
I1
sg36
I1
sg37
I1
sg38
I1
sg39
I1
ssg30
(dp74
g2
I5
sg4
I8
sg5
I1
sg6
I8
sS','
I49
sg7
I7
sg8
I1
sg9
I17
sg10
I1
sg11
I29
sg12
I65
sS'#'
I1
sS'"'
I5
sg13
I3
sS'$'
I153
sg14
I43
sg15
I15
sS')'
I3
sS'('
I1
sg16
I38
sg17
I11
sS'.'
I1
sg18
I51
sg19
I1
sg20
I29
sS':'
I50
sg21
I5
sg22
I56
sg23
I12
sg24
I1
sS'`'
I1
sg25
I28
sg26
I1
sg27
I1
sg28
I1
sg29
I1
sg30
I170
sg31
I1
sg32
I188
sg33
I1
sg34
I1
sg35
I2
sS"'"
I1
sg36
I3
sg37
I1
sg38
I1
sg39
I1
ssg31
(dp75
g2
I1
sg4
I1
sg5
I1
sg6
I1
sS','
I8
sg7
I2
sg8
I1
sg9
I1
sg10
I1
sg11
I1
sg12
I1
sS'#'
I1
sS'"'
I4
sg13
I1
sS'$'
I1
sg14
I1
sg15
I4
sS')'
I1
sS'('
I1
sg16
I1
sg17
I1
sS'.'
I1
sg18
I1
sg19
I1
sg20
I1
sS':'
I1
sg21
I1
sg22
I1
sg23
I1
sg24
I1
sS'`'
I1
sg25
I7
sg26
I1
sg27
I1
sg28
I1
sg29
I1
sg30
I1
sg31
I1
sg32
I5
sg33
I1
sg34
I1
sg35
I1
sS"'"
I1
sg36
I1
sg37
I1
sg38
I1
sg39
I1
ssg32
(dp76
g2
I1
sg4
I62
sg5
I1
sg6
I287
sS','
I137
sg7
I32
sg8
I5
sg9
I135
sg10
I3
sg11
I49
sg12
I25
sS'#'
I1
sS'"'
I45
sg13
I7
sS'$'
I1
sg14
I1117
sg15
I153
sS')'
I6
sS'('
I9
sg16
I110
sg17
I1
sS'.'
I1
sg18
I2
sg19
I21
sg20
I150
sS':'
I18
sg21
I557
sg22
I120
sg23
I116
sg24
I1
sS'`'
I1
sg25
I40
sg26
I1
sg27
I1
sg28
I2
sg29
I14
sg30
I91
sg31
I1
sg32
I48
sg33
I1
sg34
I1
sg35
I11
sS"'"
I1
sg36
I7
sg37
I48
sg38
I1
sg39
I1
ssg33
(dp77
g2
I1
sg4
I1
sg5
I1
sg6
I1
sS','
I7
sg7
I1
sg8
I1
sg9
I1
sg10
I1
sg11
I1
sg12
I1
sS'#'
I1
sS'"'
I1
sg13
I1
sS'$'
I1
sg14
I2
sg15
I1
sS')'
I1
sS'('
I1
sg16
I1
sg17
I1
sS'.'
I1
sg18
I1
sg19
I1
sg20
I1
sS':'
I1
sg21
I1
sg22
I1
sg23
I1
sg24
I1
sS'`'
I1
sg25
I3
sg26
I1
sg27
I1
sg28
I1
sg29
I1
sg30
I1
sg31
I1
sg32
I1
sg33
I1
sg34
I1
sg35
I1
sS"'"
I1
sg36
I1
sg37
I1
sg38
I1
sg39
I1
ssg34
(dp78
g2
I1
sg4
I1
sg5
I2
sg6
I4
sS','
I18
sg7
I1
sg8
I30
sg9
I2
sg10
I7
sg11
I1
sg12
I7
sS'#'
I1
sS'"'
I9
sg13
I1
sS'$'
I1
sg14
I81
sg15
I1
sS')'
I2
sS'('
I1
sg16
I2
sg17
I1
sS'.'
I2
sg18
I1
sg19
I84
sg20
I14
sS':'
I2
sg21
I56
sg22
I52
sg23
I1
sg24
I1
sS'`'
I1
sg25
I8
sg26
I1
sg27
I1
sg28
I1
sg29
I1
sg30
I3
sg31
I6
sg32
I1
sg33
I1
sg34
I1
sg35
I6
sS"'"
I1
sg36
I1
sg37
I1
sg38
I1
sg39
I1
ssg35
(dp79
g2
I2
sg4
I2
sg5
I1
sg6
I1
sS','
I5
sg7
I1
sg8
I1
sg9
I4
sg10
I1
sg11
I2
sg12
I53
sS'#'
I1
sS'"'
I2
sg13
I1
sS'$'
I1
sg14
I1
sg15
I8
sS')'
I1
sS'('
I1
sg16
I2
sg17
I6
sS'.'
I1
sg18
I3
sg19
I1
sg20
I1
sS':'
I1
sg21
I1
sg22
I81
sg23
I1
sg24
I1
sS'`'
I1
sg25
I2
sg26
I1
sg27
I1
sg28
I1
sg29
I1
sg30
I4
sg31
I1
sg32
I8
sg33
I1
sg34
I1
sg35
I4
sS"'"
I1
sg36
I2
sg37
I1
sg38
I1
sg39
I1
ssS"'"
(dp80
g2
I1
sg4
I1
sg5
I1
sg6
I1
sS','
I1
sg7
I1
sg8
I1
sg9
I1
sg10
I1
sg11
I1
sg12
I1
sS'#'
I1
sS'"'
I1
sg13
I1
sS'$'
I1
sg14
I1
sg15
I1
sS')'
I1
sS'('
I1
sg16
I1
sg17
I1
sS'.'
I1
sg18
I1
sg19
I1
sg20
I1
sS':'
I1
sg21
I1
sg22
I1
sg23
I1
sg24
I1
sS'`'
I1
sg25
I1
sg26
I1
sg27
I1
sg28
I1
sg29
I1
sg30
I1
sg31
I1
sg32
I1
sg33
I1
sg34
I1
sg35
I1
sS"'"
I1
sg36
I1
sg37
I1
sg38
I1
sg39
I1
ssg36
(dp81
g2
I3
sg4
I1
sg5
I1
sg6
I1
sS','
I2
sg7
I2
sg8
I1
sg9
I1
sg10
I2
sg11
I1
sg12
I16
sS'#'
I1
sS'"'
I1
sg13
I2
sS'$'
I1
sg14
I1
sg15
I6
sS')'
I1
sS'('
I1
sg16
I4
sg17
I8
sS'.'
I1
sg18
I1
sg19
I2
sg20
I2
sS':'
I2
sg21
I1
sg22
I1
sg23
I1
sg24
I1
sS'`'
I1
sg25
I3
sg26
I1
sg27
I1
sg28
I1
sg29
I1
sg30
I1
sg31
I1
sg32
I13
sg33
I1
sg34
I1
sg35
I1
sS"'"
I1
sg36
I1
sg37
I1
sg38
I1
sg39
I1
ssg37
(dp82
g2
I1
sg4
I4
sg5
I1
sg6
I5
sS','
I2
sg7
I6
sg8
I1
sg9
I1
sg10
I1
sg11
I4
sg12
I16
sS'#'
I1
sS'"'
I1
sg13
I1
sS'$'
I1
sg14
I6
sg15
I4
sS')'
I1
sS'('
I1
sg16
I7
sg17
I1
sS'.'
I1
sg18
I3
sg19
I4
sg20
I14
sS':'
I1
sg21
I3
sg22
I1
sg23
I16
sg24
I1
sS'`'
I1
sg25
I14
sg26
I1
sg27
I1
sg28
I1
sg29
I1
sg30
I9
sg31
I1
sg32
I21
sg33
I1
sg34
I1
sg35
I1
sS"'"
I1
sg36
I1
sg37
I1
sg38
I1
sg39
I1
ssg38
(dp83
g2
I1
sg4
I1
sg5
I1
sg6
I1
sS','
I1
sg7
I1
sg8
I1
sg9
I1
sg10
I1
sg11
I1
sg12
I1
sS'#'
I1
sS'"'
I1
sg13
I1
sS'$'
I1
sg14
I1
sg15
I1
sS')'
I1
sS'('
I1
sg16
I1
sg17
I1
sS'.'
I1
sg18
I1
sg19
I1
sg20
I1
sS':'
I1
sg21
I1
sg22
I2
sg23
I1
sg24
I1
sS'`'
I1
sg25
I1
sg26
I1
sg27
I1
sg28
I1
sg29
I1
sg30
I1
sg31
I1
sg32
I1
sg33
I1
sg34
I1
sg35
I1
sS"'"
I1
sg36
I1
sg37
I1
sg38
I1
sg39
I1
ssg39
(dp84
g2
I1
sg4
I1
sg5
I1
sg6
I1
sS','
I2
sg7
I1
sg8
I1
sg9
I1
sg10
I1
sg11
I1
sg12
I1
sS'#'
I1
sS'"'
I1
sg13
I1
sS'$'
I1
sg14
I1
sg15
I1
sS')'
I1
sS'('
I1
sg16
I1
sg17
I1
sS'.'
I1
sg18
I1
sg19
I1
sg20
I1
sS':'
I1
sg21
I1
sg22
I1
sg23
I1
sg24
I1
sS'`'
I1
sg25
I1
sg26
I1
sg27
I1
sg28
I1
sg29
I1
sg30
I1
sg31
I1
sg32
I1
sg33
I1
sg34
I1
sg35
I1
sS"'"
I1
sg36
I1
sg37
I1
sg38
I1
sg39
I1
ss.