(dp1
S'PRP$'
p2
I322
sS'VBG'
p3
I507
sS'FW'
p4
I15
sS'VBN'
p5
I700
sS','
I1676
sS'VBP'
p6
I491
sS'WDT'
p7
I169
sS'JJ'
p8
I2402
sS'WP'
p9
I101
sS'VBZ'
p10
I703
sS'DT'
p11
I2889
sS'#'
I1
sS'"'
I441
sS'RP'
p12
I75
sS'$'
I153
sS'NN'
p13
I4450
sS'start'
p14
I1380
sS')'
I63
sS'('
I67
sS'VBD'
p15
I954
sS'POS'
p16
I301
sS'.'
I1373
sS'TO'
p17
I786
sS'PRP'
p18
I650
sS'RB'
p19
I1124
sS':'
I212
sS'NNS'
p20
I2265
sS'NNP'
p21
I3183
sS'VB'
p22
I1007
sS'WRB'
p23
I74
sS'`'
I1
sS'CC'
p24
I891
sS'LS'
p25
I7
sS'PDT'
p26
I7
sS'RBS'
p27
I15
sS'RBR'
p28
I65
sS'CD'
p29
I1027
sS'EX'
p30
I25
sS'IN'
p31
I3397
sS'WP$'
p32
I10
sS'MD'
p33
I377
sS'NNPS'
p34
I174
sS"'"
I1
sS'JJS'
p35
I54
sS'JJR'
p36
I122
sS'SYM'
p37
I2
sS'UH'
p38
I2
s.