(dp1
S'1,800'
p2
I2
sS'four'
p3
I7
sS'looking'
p4
I2
sS'eligible'
p5
I3
sS'electricity'
p6
I3
sS'hormone'
p7
I2
sS'regional'
p8
I2
sS'sideline-business'
p9
I2
sS'politician'
p10
I2
sS'bringing'
p11
I2
sS'disturb'
p12
I3
sS'specialties'
p13
I3
sS'non-violent'
p14
I14
sS'charter'
p15
I3
sS'specially'
p16
I2
sS'miller'
p17
I2
sS'270'
p18
I2
sS'elegant'
p19
I2
sS'second'
p20
I18
sS'273'
p21
I2
sS'errors'
p22
I2
sS'cooking'
p23
I2
sS'contributed'
p24
I5
sS'fingers'
p25
I5
sS'increasing'
p26
I3
sS'shocks'
p27
I4
sS'specialist'
p28
I2
sS'off-again'
p29
I2
sS'here'
p30
I9
sS'reported'
p31
I14
sS'china'
p32
I14
sS'pittsburgh-based'
p33
I2
sS'eg&g'
p34
I6
sS'substance'
p35
I2
sS'elaborate'
p36
I2
sS'reports'
p37
I9
sS'karim'
p38
I2
sS'neurologist'
p39
I4
sS'military'
p40
I9
sS'criticism'
p41
I2
sS'golden'
p42
I6
sS'replace'
p43
I3
sS'brought'
p44
I10
sS'unix'
p45
I4
sS'unit'
p46
I15
sS'opponents'
p47
I2
sS'marketers'
p48
I4
sS'music'
p49
I7
sS'therefore'
p50
I2
sS'strike'
p51
I2
sS'2680'
p52
I2
sS'until'
p53
I8
sS'relax'
p54
I2
sS'successful'
p55
I5
sS'brings'
p56
I2
sS'5.16'
p57
I2
sS'hurl'
p58
I2
sS'90'
p59
I8
sS'93'
p60
I2
sS'hold'
p61
I7
sS'94'
p62
I2
sS'circumstances'
p63
I4
sS'morally'
p64
I2
sS'pursue'
p65
I4
sS'self-styled'
p66
I2
sS'13*slashhere*16'
p67
I2
sS'concepts'
p68
I2
sS'revenues'
p69
I2
sS'example'
p70
I12
sS'vanities'
p71
I2
sS'unjust'
p72
I2
sS'household'
p73
I2
sS'turkmenia'
p74
I2
sS'organized'
p75
I2
sS'currency'
p76
I3
sS'caution'
p77
I2
sS'want'
p78
I12
sS'automobile-parts'
p79
I2
sS'complaining'
p80
I2
sS'travel'
p81
I2
sS'damage'
p82
I7
sS'leaguers'
p83
I2
sS'machine'
p84
I3
sS'how'
p85
I23
sS'casualty-loss'
p86
I2
sS'beauty'
p87
I2
sS'modest'
p88
I3
sS'gottesman'
p89
I2
sS'types'
p90
I2
sS'effective'
p91
I8
sS'wins'
p92
I2
sS'deutsche'
p93
I2
sS'first-mortgage'
p94
I2
sS'18th'
p95
I2
sS'democratic'
p96
I4
sS'wing'
p97
I2
sS'senators'
p98
I2
sS'welcomed'
p99
I2
sS'misdemeanor'
p100
I2
sS'vary'
p101
I3
sS'fidelity'
p102
I2
sS'ex-dividend'
p103
I2
sS'fit'
p104
I3
sS'72-game'
p105
I2
sS'easier'
p106
I3
sS'lambert'
p107
I2
sS'slate'
p108
I2
sS'educating'
p109
I3
sS'effects'
p110
I2
sS'slats'
p111
I3
sS'represents'
p112
I2
sS'debut'
p113
I2
sS'pleasantries'
p114
I2
sS'financial'
p115
I19
sS'series'
p116
I5
sS'commons'
p117
I2
sS'raw-materials'
p118
I2
sS'substantially'
p119
I2
sS'laboratory'
p120
I3
sS'waive'
p121
I2
sS'mason'
p122
I4
sS'threatened'
p123
I2
sS'7.962'
p124
I2
sS'sensory'
p125
I3
sS'estimate'
p126
I2
sS'enormous'
p127
I2
sS'bates'
p128
I2
sS'nondeductible'
p129
I2
sS'scruff'
p130
I2
sS'lorimar'
p131
I2
sS'r.'
p132
I5
sS'108.8'
p133
I2
sS'mingo'
p134
I6
sS'wash'
p135
I2
sS'179'
p136
I2
sS'seizures'
p137
I2
sS'exchequer'
p138
I2
sS'service'
p139
I9
sS'similarly'
p140
I2
sS'lawsuits'
p141
I5
sS'needed'
p142
I2
sS'master'
p143
I6
sS'listed'
p144
I5
sS'nz$'
p145
I2
sS'legs'
p146
I2
sS'bitter'
p147
I2
sS'rewards'
p148
I2
sS'collapse'
p149
I2
sS'geneva'
p150
I2
sS'predictable'
p151
I2
sS'showed'
p152
I6
sS'tree'
p153
I2
sS'nations'
p154
I5
sS'seminars'
p155
I2
sS'feeling'
p156
I2
sS'acquisition'
p157
I8
sS'goya'
p158
I6
sS'willingness'
p159
I3
sS'boston'
p160
I5
sS'pigs'
p161
I3
sS'antagonistic'
p162
I2
sS'on-again'
p163
I2
sS'dozen'
p164
I2
sS'affairs'
p165
I4
sS'concrete'
p166
I2
sS'responsible'
p167
I4
sS'283-132'
p168
I2
sS'ex-accountant'
p169
I2
sS'concedes'
p170
I3
sS'sidley'
p171
I6
sS'transactions'
p172
I7
sS'object'
p173
I2
sS'wells'
p174
I3
sS'simplify'
p175
I2
sS'affirmation'
p176
I2
sS'blackmailed'
p177
I2
sS'letter'
p178
I5
sS'thriller'
p179
I2
sS'stock-price'
p180
I2
sS'singer'
p181
I3
sS'camp'
p182
I2
sS'purged'
p183
I2
sS'came'
p184
I7
sS'saying'
p185
I6
sS'reactor'
p186
I4
sS'magisterially'
p187
I2
sS'meetings'
p188
I6
sS'echoing'
p189
I2
sS'participate'
p190
I4
sS'hungary'
p191
I3
sS'die-hard'
p192
I2
sS'submit'
p193
I3
sS'menu'
p194
I2
sS'interbank'
p195
I3
sS'bush'
p196
I34
sS'rich'
p197
I2
sS'rice'
p198
I2
sS'plate'
p199
I3
sS'klein'
p200
I2
sS'higher-fat'
p201
I2
sS'pocket'
p202
I2
sS'kinji'
p203
I2
sS'altogether'
p204
I3
sS'tips'
p205
I2
sS'looting'
p206
I2
sS'jaguar'
p207
I7
sS'greene'
p208
I2
sS'three-year'
p209
I4
sS'release'
p210
I2
sS'saul'
p211
I2
sS'programmatic'
p212
I2
sS'leasing'
p213
I2
sS'disaster'
p214
I2
sS'result'
p215
I13
sS'fail'
p216
I3
sS'resigned'
p217
I6
sS'best'
p218
I5
sS'shupe'
p219
I2
sS'lots'
p220
I2
sS'irs'
p221
I16
sS'ira'
p222
I2
sS'pirate'
p223
I2
sS'entrekin'
p224
I2
sS'preserve'
p225
I2
sS'wage'
p226
I16
sS'never'
p227
I6
sS'extend'
p228
I3
sS'nature'
p229
I4
sS'ask'
p230
I4
sS'superficial'
p231
I2
sS'debt'
p232
I7
sS'pity'
p233
I2
sS'accident'
p234
I2
sS'country'
p235
I10
sS'demanded'
p236
I2
sS'planned'
p237
I5
sS'argue'
p238
I6
sS'asked'
p239
I9
sS'irresponsible'
p240
I3
sS'cult'
p241
I3
sS'250'
p242
I3
sS'251'
p243
I2
sS'five-by-eight-inch'
p244
I2
sS'billing'
p245
I2
sS'holdings'
p246
I2
sS'3.89'
p247
I2
sS'.'
I1355
sS'much'
p248
I28
sS'stadium'
p249
I3
sS'privilege'
p250
I6
sS'renk'
p251
I3
sS'life'
p252
I4
sS'sydney'
p253
I2
sS'eastern'
p254
I27
sS'hospitalized'
p255
I2
sS'worker'
p256
I2
sS'dave'
p257
I2
sS'worked'
p258
I4
sS'excorciate'
p259
I2
sS'1466.29'
p260
I2
sS'commerce'
p261
I3
sS'castro'
p262
I3
sS'appeals'
p263
I2
sS'played'
p264
I5
sS'player'
p265
I3
sS'australia'
p266
I4
sS'upscale'
p267
I2
sS'trustee'
p268
I2
sS'hong'
p269
I8
sS'things'
p270
I10
sS'feuding'
p271
I2
sS'harmony'
p272
I2
sS'babies'
p273
I2
sS'european'
p274
I6
sS'fairly'
p275
I4
sS'effortlessly'
p276
I2
sS'middle-aged'
p277
I2
sS'ownership'
p278
I2
sS'pioneers'
p279
I2
sS'tune'
p280
I3
sS'midsized'
p281
I2
sS'academic'
p282
I3
sS'academia'
p283
I2
sS'corporate'
p284
I10
sS'financially'
p285
I2
sS'uncombed'
p286
I2
sS'plight'
p287
I2
sS'succeeding'
p288
I4
sS'previous'
p289
I3
sS'ease'
p290
I5
sS'had'
p291
I49
sS'nuances'
p292
I2
sS'easy'
p293
I3
sS'prison'
p294
I2
sS'manfred'
p295
I2
sS'east'
p296
I5
sS'municipal'
p297
I2
sS'posed'
p298
I2
sS'possible'
p299
I11
sS'possibly'
p300
I3
sS'unique'
p301
I2
sS'desire'
p302
I2
sS'alice'
p303
I2
sS'misdemeanors'
p304
I2
sS'beneficial'
p305
I3
sS'right'
p306
I11
sS'old'
p307
I13
sS'crowd'
p308
I3
sS'people'
p309
I22
sS'topping'
p310
I2
sS'consultants'
p311
I3
sS'insistence'
p312
I2
sS'fiduciary'
p313
I2
sS'enemies'
p314
I2
sS'for'
p315
I307
sS'bottom'
p316
I2
sS'myung'
p317
I2
sS'creative'
p318
I4
sS'contributing'
p319
I3
sS'continue'
p320
I9
sS'eduard'
p321
I3
sS'6,000'
p322
I2
sS'binder'
p323
I2
sS'defensive'
p324
I2
sS'losing'
p325
I2
sS'brokerage'
p326
I3
sS'manufacturing'
p327
I3
sS'shaken'
p328
I2
sS'filipino'
p329
I2
sS'dollars'
p330
I6
sS'citizens'
p331
I2
sS'bicentennial'
p332
I2
sS'annualized'
p333
I2
sS'reps.'
p334
I2
sS'slightly'
p335
I3
sS'lifland'
p336
I2
sS'nixon'
p337
I3
sS'barred'
p338
I2
sS'consulting'
p339
I8
sS'statements'
p340
I3
sS'facility'
p341
I2
sS'maxwell'
p342
I2
sS'son'
p343
I2
sS'administer'
p344
I3
sS'presenters'
p345
I2
sS'rome-based'
p346
I2
sS'magazines'
p347
I4
sS'consumer-products'
p348
I2
sS'sox'
p349
I4
sS'defendants'
p350
I3
sS'fabric'
p351
I3
sS'support'
p352
I8
sS'solicitors'
p353
I2
sS'one-time'
p354
I3
sS'authorized'
p355
I3
sS'resulted'
p356
I4
sS'halls'
p357
I2
sS'launching'
p358
I2
sS'offer'
p359
I11
sS'nonvoting'
p360
I2
sS'back'
p361
I21
sS'talents'
p362
I2
sS'unamended'
p363
I2
sS'robertson'
p364
I2
sS'redistributionism'
p365
I2
sS'nov.'
p366
I11
sS'inside'
p367
I2
sS'devices'
p368
I12
sS'stolzman'
p369
I2
sS'jan.'
p370
I2
sS'refillable'
p371
I3
sS'150'
p372
I9
sS'later'
p373
I8
sS'proved'
p374
I2
sS'157'
p375
I2
sS'156'
p376
I3
sS'41-lawyer'
p377
I2
sS'steady'
p378
I3
sS"''"
p379
I183
sS'proves'
p380
I2
sS'accounting'
p381
I3
sS'dealer'
p382
I2
sS'negotiations'
p383
I4
sS'floor'
p384
I4
sS'cambodia'
p385
I3
sS'flood'
p386
I2
sS'role'
p387
I7
sS'overturning'
p388
I2
sS'developers'
p389
I2
sS'roll'
p390
I2
sS'greenery'
p391
I3
sS"'s"
p392
I313
sS'get-together'
p393
I3
sS'models'
p394
I2
sS'pitcher-coach'
p395
I2
sS"'d"
p396
I4
sS'invested'
p397
I2
sS"'m"
p398
I5
sS'reorganization'
p399
I4
sS'kgb'
p400
I4
sS'time'
p401
I39
sS'push'
p402
I3
sS'overturned'
p403
I2
sS'cincinnati'
p404
I3
sS'chain'
p405
I4
sS'hole'
p406
I2
sS'92'
p407
I3
sS'eliminate'
p408
I3
sS'prepaid'
p409
I3
sS'choice'
p410
I3
sS'drexel'
p411
I2
sS'remora'
p412
I2
sS'stays'
p413
I2
sS'corp.'
p414
I26
sS'short-range'
p415
I2
sS'unificationism'
p416
I2
sS'leave'
p417
I5
sS'settle'
p418
I2
sS'team'
p419
I12
sS'depository'
p420
I2
sS'bonfire'
p421
I2
sS'prevent'
p422
I3
sS'findings'
p423
I2
sS'soft-spoken'
p424
I2
sS'sign'
p425
I5
sS'sino-british'
p426
I2
sS'oleg'
p427
I2
sS'current'
p428
I13
sS'falling'
p429
I2
sS'boost'
p430
I5
sS'drafted'
p431
I2
sS'jury'
p432
I3
sS'exceptions'
p433
I3
sS'address'
p434
I2
sS'alone'
p435
I3
sS'along'
p436
I6
sS'financiers'
p437
I2
sS'brilliant'
p438
I2
sS'studied'
p439
I2
sS'accomplished'
p440
I2
sS'studies'
p441
I6
sS'reclaim'
p442
I2
sS'love'
p443
I2
sS'prefer'
p444
I2
sS'bloody'
p445
I2
sS'fake'
p446
I3
sS'working'
p447
I6
sS'positive'
p448
I2
sS'angry'
p449
I2
sS'opposed'
p450
I3
sS'scope'
p451
I3
sS'``'
p452
I246
sS'subsistence'
p453
I2
sS'apparent'
p454
I2
sS'oregon'
p455
I2
sS'honed'
p456
I2
sS'non-family'
p457
I2
sS'visual'
p458
I2
sS'virtue'
p459
I2
sS'behalf'
p460
I4
sS'valued'
p461
I4
sS'md-80'
p462
I2
sS'originally'
p463
I2
sS'pretend'
p464
I2
sS'believes'
p465
I5
sS'impasse'
p466
I2
sS'zhao'
p467
I2
sS'printing'
p468
I3
sS'values'
p469
I2
sS'stature'
p470
I2
sS'believed'
p471
I2
sS'1*slashhere*4'
p472
I2
sS'1*slashhere*2'
p473
I5
sS'stoll'
p474
I12
sS'allowed'
p475
I5
sS'230'
p476
I2
sS'gimmickry'
p477
I2
sS'savor'
p478
I2
sS's.'
p479
I3
sS'coleman'
p480
I2
sS'five-year'
p481
I3
sS'rigors'
p482
I2
sS'spot'
p483
I2
sS'kalison'
p484
I2
sS'date'
p485
I4
sS'such'
p486
I45
sS'acceptances'
p487
I2
sS'data'
p488
I4
sS'natural'
p489
I4
sS'sectors'
p490
I3
sS'biographical'
p491
I2
sS'sclerosis'
p492
I2
sS'so'
p493
I41
sS'skirmish'
p494
I2
sS'pulled'
p495
I2
sS'12.75'
p496
I2
sS'flips'
p497
I2
sS'years'
p498
I48
sS'hiring'
p499
I3
sS'bucking'
p500
I2
sS'tendency'
p501
I2
sS'middle-management'
p502
I2
sS'limbs'
p503
I2
sS'overhaul'
p504
I2
sS'thumb'
p505
I2
sS'jim'
p506
I2
sS'troubles'
p507
I3
sS'aviv'
p508
I2
sS'suspicion'
p509
I2
sS'troubled'
p510
I4
sS'petition'
p511
I2
sS'militant'
p512
I2
sS'thereby'
p513
I3
sS'm.w.'
p514
I2
sS'nation'
p515
I9
sS'records'
p516
I6
sS'concocts'
p517
I2
sS'compelled'
p518
I3
sS'non-brain'
p519
I2
sS'establishing'
p520
I2
sS'quarter'
p521
I9
sS'repaired'
p522
I2
sS'quartet'
p523
I3
sS'square'
p524
I3
sS'retrieve'
p525
I2
sS'revised'
p526
I2
sS'bovine'
p527
I2
sS'seriously'
p528
I3
sS'protections'
p529
I2
sS'suggesting'
p530
I3
sS'formula'
p531
I2
sS'uptempo'
p532
I2
sS'sheffield'
p533
I2
sS'million'
p534
I101
sS'possibility'
p535
I3
sS'loyalty'
p536
I2
sS'complicated'
p537
I2
sS'plea'
p538
I2
sS'cahoon'
p539
I2
sS'training'
p540
I16
sS'distilled'
p541
I2
sS'wrong'
p542
I2
sS'chevy'
p543
I2
sS'gordon'
p544
I2
sS'neglect'
p545
I2
sS'clause'
p546
I3
sS'one'
p547
I70
sS'specifically'
p548
I3
sS'spanish'
p549
I2
sS'vote'
p550
I6
sS'open'
p551
I10
sS'kuan'
p552
I2
sS'city'
p553
I6
sS'wrath'
p554
I2
sS'bite'
p555
I2
sS'structured'
p556
I2
sS'36-year-old'
p557
I2
sS'indicate'
p558
I2
sS'2'
I8
sS'draft'
p559
I2
sS'suit'
p560
I6
sS'12,275'
p561
I2
sS'forward'
p562
I2
sS'ridiculous'
p563
I2
sS'slashed'
p564
I2
sS'specialists'
p565
I2
sS'inventor'
p566
I2
sS':'
I66
sS'conn.'
p567
I4
sS'depressed'
p568
I2
sS'future'
p569
I8
sS'glossy'
p570
I3
sS'cavalier'
p571
I2
sS'sao'
p572
I2
sS'san'
p573
I4
sS'sam'
p574
I2
sS'royalties'
p575
I2
sS'drogoul'
p576
I2
sS'turned'
p577
I3
sS'argument'
p578
I3
sS'jewels'
p579
I2
sS'sad'
p580
I2
sS'picketing'
p581
I2
sS'say'
p582
I22
sS'financier'
p583
I2
sS'serials'
p584
I2
sS'fashionable'
p585
I3
sS'aside'
p586
I5
sS'zoo'
p587
I2
sS'note'
p588
I5
sS'goodman'
p589
I2
sS'283.9'
p590
I2
sS'take'
p591
I16
sS'wanting'
p592
I2
sS'concern'
p593
I15
sS'high-technology'
p594
I2
sS'ironically'
p595
I2
sS'altered'
p596
I2
sS'opposite'
p597
I2
sS'israeli'
p598
I3
sS'remarks'
p599
I3
sS'knee'
p600
I2
sS'pages'
p601
I3
sS'average'
p602
I19
sS'phil'
p603
I2
sS'trifari'
p604
I4
sS'drive'
p605
I4
sS'managing'
p606
I5
sS'mass.'
p607
I4
sS'liquidity'
p608
I3
sS'laws'
p609
I3
sS'stimulator'
p610
I2
sS'surplus'
p611
I2
sS'sales-tax'
p612
I2
sS'bright'
p613
I2
sS'soviets'
p614
I17
sS'slow'
p615
I3
sS'cloak'
p616
I2
sS'tears'
p617
I2
sS'going'
p618
I15
sS'outrage'
p619
I2
sS'congressional'
p620
I8
sS'dispute'
p621
I11
sS'assistant'
p622
I4
sS'outlet'
p623
I2
sS'prime'
p624
I6
sS'borrow'
p625
I2
sS'worried'
p626
I4
sS'roger'
p627
I3
sS'where'
p628
I11
sS'surgery'
p629
I7
sS'individual-retirement-account'
p630
I2
sS'representatives'
p631
I2
sS'affecting'
p632
I2
sS'enjoys'
p633
I2
sS'jobs'
p634
I7
sS'screen'
p635
I2
sS'concentrate'
p636
I3
sS'jets'
p637
I2
sS'spark'
p638
I2
sS'abramson'
p639
I2
sS'undermine'
p640
I2
sS'many'
p641
I25
sS'paring'
p642
I2
sS'concentrates'
p643
I2
sS'now-defunct'
p644
I2
sS'testimonial'
p645
I2
sS'stretch'
p646
I2
sS'west'
p647
I16
sS'airlines'
p648
I8
sS'combined'
p649
I3
sS'motives'
p650
I3
sS'prototype'
p651
I2
sS'wants'
p652
I4
sS'enable'
p653
I3
sS'formed'
p654
I3
sS'centerpiece'
p655
I2
sS'photos'
p656
I2
sS'former'
p657
I17
sS'consultant'
p658
I7
sS'rancor'
p659
I2
sS'policies'
p660
I4
sS'pennzoil'
p661
I3
sS'newspaper'
p662
I4
sS'situation'
p663
I5
sS'spotlight'
p664
I2
sS'brow'
p665
I2
sS'purse'
p666
I2
sS'engages'
p667
I2
sS'technology'
p668
I3
sS'13.1'
p669
I2
sS'550,000'
p670
I2
sS'otto'
p671
I2
sS'workout'
p672
I2
sS'oceanographic'
p673
I2
sS'singapore'
p674
I10
sS'boosted'
p675
I2
sS'reverts'
p676
I2
sS'wpp'
p677
I3
sS'recapture'
p678
I2
sS'tracking'
p679
I2
sS'costs'
p680
I8
sS'779.8'
p681
I2
sS'trains'
p682
I3
sS'minpeco'
p683
I3
sS'216'
p684
I2
sS'summer'
p685
I6
sS'koreagate'
p686
I2
sS'being'
p687
I23
sS'rest'
p688
I5
sS'safeguards'
p689
I2
sS'recycled'
p690
I4
sS'weekly'
p691
I2
sS'brezinski'
p692
I2
sS'dicks'
p693
I2
sS'tadzhikistan'
p694
I2
sS'aspects'
p695
I4
sS'around'
p696
I6
sS'rejoin'
p697
I3
sS'period'
p698
I10
sS'gestures'
p699
I2
sS'spokespersons'
p700
I2
sS'traffic'
p701
I4
sS'pop'
p702
I4
sS'world'
p703
I24
sS'postal'
p704
I3
sS'dare'
p705
I2
sS'satisfaction'
p706
I2
sS'amputation'
p707
I2
sS'clad'
p708
I2
sS'discarded'
p709
I2
sS'tsunami'
p710
I2
sS'superiority'
p711
I3
sS'offenders'
p712
I2
sS'seating'
p713
I2
sS'superintendent'
p714
I2
sS'bizarre'
p715
I2
sS'368.3'
p716
I2
sS'13.50'
p717
I2
sS'memories'
p718
I2
sS'sided'
p719
I2
sS'scientific'
p720
I3
sS'power'
p721
I13
sS'retains'
p722
I3
sS'leadership'
p723
I4
sS'inflation-adjusted'
p724
I2
sS'industry'
p725
I12
sS'favorite'
p726
I4
sS'meal'
p727
I2
sS'tumor'
p728
I2
sS'act'
p729
I5
sS'johnston'
p730
I2
sS'mean'
p731
I7
sS'image'
p732
I4
sS'parties'
p733
I2
sS'her'
p734
I20
sS'philadelphia'
p735
I3
sS'sealed'
p736
I2
sS'brazilian'
p737
I3
sS'capital-raising'
p738
I2
sS'innovated'
p739
I2
sS'survives'
p740
I2
sS'complete'
p741
I5
sS'saatchi'
p742
I3
sS'tailored'
p743
I2
sS'survived'
p744
I2
sS'elimination'
p745
I3
sS'technologies'
p746
I5
sS'aide'
p747
I2
sS'with'
p748
I185
sS'buying'
p749
I7
sS'pull'
p750
I2
sS'october'
p751
I10
sS'rage'
p752
I2
sS'31.1'
p753
I2
sS'8.019'
p754
I2
sS'dependents'
p755
I2
sS'agree'
p756
I6
sS'kirgizia'
p757
I3
sS'detailed'
p758
I3
sS'gone'
p759
I3
sS'ad'
p760
I12
sS'pinpointed'
p761
I2
sS'certain'
p762
I11
sS'am'
p763
I6
sS'al'
p764
I3
sS'mundo'
p765
I2
sS'an'
p766
I117
sS'as'
p767
I154
sS'ensuing'
p768
I2
sS'at'
p769
I162
sS'aids'
p770
I2
sS'watched'
p771
I2
sS'cream'
p772
I2
sS'yogi'
p773
I2
sS'abolish'
p774
I2
sS'tight'
p775
I2
sS'6.25'
p776
I2
sS'deterrant'
p777
I2
sS'congress'
p778
I8
sS'forgettable'
p779
I2
sS'a.'
p780
I11
sS'planners'
p781
I2
sS'tricky'
p782
I2
sS'eight-time'
p783
I2
sS'waived'
p784
I2
sS'tricks'
p785
I3
sS'mass'
p786
I3
sS'nelson'
p787
I2
sS'dyes'
p788
I2
sS'original'
p789
I5
sS'7.14'
p790
I2
sS'neige'
p791
I2
sS'consider'
p792
I4
sS'caused'
p793
I6
sS'daignault'
p794
I2
sS'ceramic'
p795
I2
sS'tours'
p796
I3
sS'improperly'
p797
I2
sS'tv'
p798
I7
sS'riots'
p799
I2
sS'to'
p800
I786
sS'khmer'
p801
I4
sS'calif.'
p802
I4
sS'returned'
p803
I2
sS'candid'
p804
I2
sS'soften'
p805
I2
sS'condition'
p806
I2
sS'illustrated'
p807
I2
sS'long-simmering'
p808
I2
sS'cable'
p809
I3
sS'sluggish'
p810
I2
sS'laying'
p811
I2
sS'large'
p812
I10
sS'sang'
p813
I2
sS'sand'
p814
I3
sS'harry'
p815
I2
sS'small'
p816
I12
sS'pozen'
p817
I2
sS'mount'
p818
I2
sS'penalties'
p819
I4
sS'paso'
p820
I2
sS'past'
p821
I17
sS'displays'
p822
I2
sS'pass'
p823
I3
sS'situated'
p824
I2
sS'richard'
p825
I8
sS'section'
p826
I6
sS'scientists'
p827
I6
sS'super-user'
p828
I2
sS'contrast'
p829
I2
sS'full'
p830
I8
sS'diapers'
p831
I2
sS'timberlands'
p832
I2
sS'hours'
p833
I3
sS'citicorp'
p834
I3
sS'november'
p835
I5
sS'compliance'
p836
I3
sS'experience'
p837
I5
sS'prior'
p838
I2
sS'social'
p839
I4
sS'action'
p840
I4
sS'via'
p841
I6
sS'followed'
p842
I3
sS'enactment'
p843
I2
sS'mohandas'
p844
I2
sS'pulls'
p845
I2
sS'orwellian'
p846
I2
sS'montgoris'
p847
I2
sS'pitching'
p848
I2
sS'6'
I5
sS'more'
p849
I88
sS'initiated'
p850
I2
sS'company'
p851
I54
sS'tested'
p852
I3
sS'objections'
p853
I2
sS'keeping'
p854
I5
sS'science'
p855
I2
sS'resources'
p856
I5
sS'morgan'
p857
I5
sS'mehl'
p858
I3
sS'pianist*slashhere*bassoonist*slashhere*composer'
p859
I2
sS'suggestions'
p860
I2
sS'accept'
p861
I3
sS'states'
p862
I9
sS'sense'
p863
I2
sS'tapestry'
p864
I2
sS'information'
p865
I7
sS'equities'
p866
I2
sS'hugo'
p867
I2
sS'earnings'
p868
I14
sS'hugs'
p869
I2
sS'plant'
p870
I5
sS'seoul'
p871
I4
sS'1970s'
p872
I4
sS'mapping'
p873
I2
sS'plane'
p874
I4
sS'director'
p875
I16
sS'acquisitions'
p876
I6
sS'refuse'
p877
I2
sS'register'
p878
I2
sS'broadcasting'
p879
I4
sS'fundamental'
p880
I3
sS'functionaries'
p881
I2
sS'greats'
p882
I3
sS'trade'
p883
I11
sS'redefinition'
p884
I2
sS'attitude'
p885
I3
sS'embassy'
p886
I2
sS'scott'
p887
I2
sS'signs'
p888
I3
sS'itt'
p889
I2
sS'its'
p890
I106
sS'rapidly'
p891
I3
sS'sumitomo'
p892
I2
sS'gerald'
p893
I2
sS'novametrix'
p894
I2
sS'ally'
p895
I2
sS'subtitled'
p896
I2
sS'anti-hooligan'
p897
I2
sS'stewed'
p898
I2
sS'purdue'
p899
I2
sS'always'
p900
I3
sS'assemblies'
p901
I2
sS'loosely'
p902
I2
sS'courses'
p903
I2
sS'found'
p904
I4
sS'chipping'
p905
I2
sS'status'
p906
I4
sS'england'
p907
I3
sS'reduce'
p908
I3
sS'slowdown'
p909
I2
sS'measurement'
p910
I2
sS'advertisers'
p911
I3
sS'operation'
p912
I8
sS'really'
p913
I9
sS'anxious'
p914
I2
sS'scoops'
p915
I2
sS'research'
p916
I6
sS'ministerial'
p917
I2
sS'discounting'
p918
I2
sS'stock-margin'
p919
I2
sS'risen'
p920
I2
sS'sparked'
p921
I2
sS'cockpit'
p922
I2
sS'qualify'
p923
I2
sS'proxy'
p924
I2
sS'rises'
p925
I2
sS'driven'
p926
I2
sS'positioning'
p927
I2
sS'major'
p928
I22
sS'kirkendall'
p929
I2
sS'thereafter'
p930
I2
sS'number'
p931
I11
sS'heads'
p932
I3
sS'frankel'
p933
I2
sS'threatening'
p934
I2
sS'erupted'
p935
I2
sS'dfc'
p936
I2
sS'relationship'
p937
I8
sS'seagram'
p938
I8
sS'appreciation'
p939
I3
sS'satirical'
p940
I2
sS'grace'
p941
I2
sS'observatory'
p942
I2
sS'aaa'
p943
I2
sS'yetnikoff'
p944
I5
sS'marriage'
p945
I3
sS'defect'
p946
I2
sS'guarding'
p947
I2
sS'vitally'
p948
I2
sS'sell'
p949
I11
sS'destabilizing'
p950
I2
sS'jeopardize'
p951
I2
sS'also'
p952
I54
sS'internal'
p953
I4
sS'play'
p954
I7
sS'monastery'
p955
I2
sS'staffers'
p956
I2
sS'brooklyn'
p957
I2
sS'plan'
p958
I18
sS'defections'
p959
I3
sS'toronto-based'
p960
I2
sS'arson'
p961
I2
sS'sometimes'
p962
I3
sS'cover'
p963
I4
sS'three-month'
p964
I4
sS'dragged'
p965
I2
sS'golf'
p966
I3
sS'gold'
p967
I4
sS'defended'
p968
I2
sS'session'
p969
I7
sS'occupation'
p970
I2
sS'impact'
p971
I4
sS'keychain'
p972
I2
sS'writer'
p973
I3
sS'189.8'
p974
I2
sS'failed'
p975
I10
sS'equity'
p976
I2
sS'indifference'
p977
I2
sS'giants'
p978
I2
sS'banned'
p979
I2
sS'closely'
p980
I5
sS'reporters'
p981
I4
sS'enemy'
p982
I2
sS'railbikes'
p983
I2
sS'debt-equity'
p984
I4
sS'banking'
p985
I6
sS'weaver'
p986
I4
sS'river'
p987
I2
sS'manger'
p988
I2
sS'set'
p989
I13
sS'activists'
p990
I2
sS'potent'
p991
I2
sS'sex'
p992
I2
sS'see'
p993
I11
sS'sec'
p994
I13
sS'gas-turbine'
p995
I2
sS'sen'
p996
I3
sS'institutes'
p997
I4
sS'project'
p998
I3
sS'spirits'
p999
I2
sS'guinea'
p1000
I3
sS'currently'
p1001
I6
sS'pickup'
p1002
I2
sS'europe'
p1003
I16
sS'targeted'
p1004
I5
sS'brewing'
p1005
I2
sS'renewed'
p1006
I2
sS'dividend'
p1007
I3
sS'legislature'
p1008
I2
sS'prospects'
p1009
I2
sS'rennie'
p1010
I2
sS'last'
p1011
I25
sS'19.95'
p1012
I2
sS'slogans'
p1013
I2
sS'timorous'
p1014
I2
sS'long-term'
p1015
I5
sS'toxicology'
p1016
I2
sS'approve'
p1017
I3
sS'messiah'
p1018
I2
sS'soundings'
p1019
I2
sS'electrician'
p1020
I2
sS'bell'
p1021
I3
sS'loan'
p1022
I8
sS'community'
p1023
I3
sS'rosa'
p1024
I2
sS'agents'
p1025
I3
sS'church'
p1026
I16
sS'publishing'
p1027
I2
sS'monthly'
p1028
I7
sS'acceptance'
p1029
I2
sS'incentive-backed'
p1030
I2
sS'firm'
p1031
I11
sS'sweetheart'
p1032
I2
sS'fire'
p1033
I3
sS'then-21'
p1034
I2
sS'fund'
p1035
I25
sS'awake'
p1036
I2
sS'representative'
p1037
I4
sS'insiders'
p1038
I9
sS'handling'
p1039
I2
sS'straight'
p1040
I3
sS'expanded'
p1041
I2
sS'budget'
p1042
I4
sS'error'
p1043
I2
sS'budged'
p1044
I2
sS'owed'
p1045
I4
sS'dotting'
p1046
I2
sS'motors'
p1047
I5
sS'dabney'
p1048
I2
sS'centennial'
p1049
I2
sS'owes'
p1050
I2
sS'cuisine'
p1051
I2
sS'caygill'
p1052
I2
sS'pacemakers'
p1053
I2
sS'872'
p1054
I2
sS'shorter'
p1055
I2
sS'rules'
p1056
I8
sS'virtually'
p1057
I2
sS'survey'
p1058
I3
sS'cardholders'
p1059
I2
sS'alert'
p1060
I4
sS'mosbacher'
p1061
I2
sS'levels'
p1062
I6
sS'{'
I18
sS'infamous'
p1063
I2
sS'recent'
p1064
I15
sS'then-president'
p1065
I2
sS'surrogate'
p1066
I2
sS'alleging'
p1067
I3
sS'reginald'
p1068
I2
sS'person'
p1069
I3
sS'ltd.'
p1070
I4
sS'hypothesized'
p1071
I2
sS'readers'
p1072
I3
sS'surprises'
p1073
I3
sS'signals'
p1074
I2
sS'rangers'
p1075
I2
sS'parents'
p1076
I4
sS'location'
p1077
I2
sS'homeland'
p1078
I2
sS'waleson'
p1079
I2
sS'disobey'
p1080
I2
sS'surprised'
p1081
I3
sS'electromagnets'
p1082
I2
sS'victims'
p1083
I5
sS'emergency'
p1084
I3
sS'demands'
p1085
I2
sS'1099'
p1086
I2
sS'7.55'
p1087
I2
sS'high-ranking'
p1088
I2
sS'projects'
p1089
I8
sS'formal'
p1090
I6
sS'sorting'
p1091
I2
sS'spine'
p1092
I2
sS'kremlin'
p1093
I2
sS'consensus'
p1094
I2
sS'communications'
p1095
I7
sS'individuals'
p1096
I3
sS'yields'
p1097
I13
sS'nissan'
p1098
I3
sS'spins'
p1099
I2
sS'names'
p1100
I3
sS'senate'
p1101
I8
sS'spring'
p1102
I5
sS'palm'
p1103
I2
sS'hard-line'
p1104
I2
sS'conciliatory'
p1105
I2
sS'religion'
p1106
I4
sS'durables'
p1107
I2
sS'be'
p1108
I134
sS'agreement'
p1109
I16
sS'concealed'
p1110
I2
sS'santa'
p1111
I2
sS'tidal'
p1112
I2
sS'by'
p1113
I167
sS'1,200'
p1114
I2
sS'certificate'
p1115
I3
sS'anything'
p1116
I7
sS'exaggerated'
p1117
I4
sS'weatherbeaten'
p1118
I2
sS'biennial'
p1119
I2
sS'cockburn'
p1120
I4
sS'colorado'
p1121
I4
sS'garbage'
p1122
I2
sS'into'
p1123
I27
sS'primarily'
p1124
I2
sS'repaid'
p1125
I3
sS'traduce'
p1126
I2
sS'spending'
p1127
I2
sS'bargaining'
p1128
I3
sS'minor-leaguer'
p1129
I2
sS'crackdown'
p1130
I3
sS'pixie-like'
p1131
I2
sS'fund-raisers'
p1132
I2
sS'quake-relief'
p1133
I2
sS'considerably'
p1134
I3
sS'elsewhere'
p1135
I3
sS'metromedia'
p1136
I6
sS'deductions'
p1137
I4
sS'atlantic'
p1138
I3
sS'line'
p1139
I10
sS'considerable'
p1140
I2
sS'posted'
p1141
I4
sS'cia'
p1142
I5
sS'redeemed'
p1143
I2
sS'testaments'
p1144
I2
sS'up'
p1145
I70
sS'us'
p1146
I4
sS'maturity'
p1147
I4
sS'mortgage-securities'
p1148
I2
sS'75-cent'
p1149
I2
sS'medical'
p1150
I5
sS'39-year-old'
p1151
I2
sS'genial'
p1152
I2
sS'armstrong'
p1153
I14
sS'defined'
p1154
I4
sS'likewise'
p1155
I2
sS'start-up'
p1156
I3
sS'influence'
p1157
I3
sS'u.s.a'
p1158
I2
sS'intact'
p1159
I2
sS'jcp'
p1160
I2
sS'occasional'
p1161
I2
sS'elements'
p1162
I3
sS'o.'
p1163
I3
sS'lucid'
p1164
I2
sS'robots'
p1165
I2
sS'hazardous-waste-site'
p1166
I2
sS'sider'
p1167
I3
sS'sides'
p1168
I11
sS'swaps'
p1169
I2
sS'ago'
p1170
I14
sS'worsened'
p1171
I2
sS'lane'
p1172
I7
sS'land'
p1173
I3
sS'finery'
p1174
I2
sS'scotch'
p1175
I3
sS'age'
p1176
I5
sS'walked'
p1177
I2
sS'scream'
p1178
I2
sS'norwegians'
p1179
I2
sS'summit'
p1180
I7
sS'walker'
p1181
I2
sS'having'
p1182
I5
sS'code'
p1183
I3
sS'partial'
p1184
I2
sS'scratch'
p1185
I2
sS'results'
p1186
I5
sS'existing'
p1187
I2
sS'enjoyable'
p1188
I2
sS'maccabee'
p1189
I2
sS'seemed'
p1190
I5
sS'concerned'
p1191
I3
sS'young'
p1192
I9
sS'send'
p1193
I2
sS'dislike'
p1194
I2
sS'indicating'
p1195
I2
sS'probe'
p1196
I4
sS'continues'
p1197
I3
sS'abduction'
p1198
I2
sS'lerman'
p1199
I2
sS'continued'
p1200
I5
sS'minerals'
p1201
I2
sS'categories'
p1202
I2
sS'timely'
p1203
I2
sS'sen.'
p1204
I2
sS'real-estate'
p1205
I2
sS'transmission'
p1206
I3
sS'fewer'
p1207
I2
sS'try'
p1208
I3
sS'threat'
p1209
I3
sS'race'
p1210
I2
sS'reich'
p1211
I5
sS'visuals'
p1212
I2
sS'mediterranean'
p1213
I2
sS'noticias'
p1214
I2
sS'recruitment'
p1215
I2
sS'licenses'
p1216
I4
sS'omnicom'
p1217
I2
sS'index'
p1218
I16
sS'shivers'
p1219
I2
sS'expressed'
p1220
I2
sS'consistently'
p1221
I2
sS'indian'
p1222
I2
sS'flowing'
p1223
I2
sS'firms'
p1224
I6
sS'equivalent'
p1225
I2
sS'thin'
p1226
I2
sS'led'
p1227
I7
sS'lee'
p1228
I11
sS'leg'
p1229
I2
sS'respectively'
p1230
I2
sS'puckish'
p1231
I2
sS'let'
p1232
I13
sS'great'
p1233
I12
sS'engage'
p1234
I2
sS'mid-to-late'
p1235
I2
sS'receive'
p1236
I5
sS'involved'
p1237
I7
sS'resulting'
p1238
I2
sS'defeat'
p1239
I2
sS'opinion'
p1240
I4
sS'residents'
p1241
I2
sS'makes'
p1242
I4
sS'maker'
p1243
I12
sS'kennewick'
p1244
I2
sS'330'
p1245
I2
sS'333'
p1246
I2
sS'foreign-exchange'
p1247
I2
sS'confidence'
p1248
I2
sS'zip'
p1249
I3
sS'illegal'
p1250
I2
sS'theme'
p1251
I2
sS'next'
p1252
I22
sS'doubt'
p1253
I2
sS'face-to-face'
p1254
I3
sS'midday'
p1255
I2
sS'givens'
p1256
I4
sS'heiwa'
p1257
I2
sS'infamy'
p1258
I2
sS'bronfman'
p1259
I2
sS'dealings'
p1260
I3
sS'federally'
p1261
I2
sS'payrolls'
p1262
I2
sS'animals'
p1263
I3
sS'63.6'
p1264
I2
sS'this'
p1265
I77
sS'challenge'
p1266
I2
sS'clients'
p1267
I19
sS'unknowns'
p1268
I2
sS'publications'
p1269
I3
sS'1.45'
p1270
I2
sS'fulfill'
p1271
I2
sS'process'
p1272
I3
sS'rode'
p1273
I2
sS'purposes'
p1274
I3
sS'pieces'
p1275
I5
sS'high'
p1276
I12
sS'slip'
p1277
I2
sS'delay'
p1278
I2
sS'animal'
p1279
I3
sS'blocks'
p1280
I2
sS'await'
p1281
I2
sS'tied'
p1282
I6
sS'most-favored'
p1283
I2
sS'notebook'
p1284
I2
sS'ties'
p1285
I4
sS'boeing'
p1286
I2
sS'counter'
p1287
I2
sS'allow'
p1288
I6
sS'intellectuals'
p1289
I2
sS'counted'
p1290
I2
sS'houston'
p1291
I8
sS'brahms'
p1292
I2
sS'producer'
p1293
I2
sS'8.50'
p1294
I3
sS'move'
p1295
I13
sS'produced'
p1296
I6
sS'directs'
p1297
I3
sS'finanziario'
p1298
I2
sS'year-earlier'
p1299
I4
sS'55,500'
p1300
I2
sS'bodegas'
p1301
I2
sS'chosen'
p1302
I2
sS'dispose'
p1303
I2
sS'hobby'
p1304
I3
sS'outlined'
p1305
I2
sS'federico'
p1306
I2
sS'legendary'
p1307
I2
sS'traced'
p1308
I2
sS'accompanied'
p1309
I2
sS'doing'
p1310
I7
sS'society'
p1311
I2
sS'books'
p1312
I4
sS'static'
p1313
I2
sS'astronomer'
p1314
I2
sS'witness'
p1315
I2
sS'fundamentally'
p1316
I2
sS"'"
I36
sS'dismissal'
p1317
I3
sS'superbly'
p1318
I2
sS'motifs'
p1319
I2
sS'tempe'
p1320
I2
sS'unwieldy'
p1321
I2
sS'opinion-makers'
p1322
I2
sS'hyundai'
p1323
I4
sS'quisling'
p1324
I2
sS'regulatory'
p1325
I3
sS'182-day'
p1326
I2
sS'dubbed'
p1327
I4
sS'could'
p1328
I41
sS'david'
p1329
I7
sS'length'
p1330
I2
sS'ratification'
p1331
I2
sS'sidley-ashurst'
p1332
I2
sS'troublemakers'
p1333
I2
sS'stimulate'
p1334
I2
sS'scene'
p1335
I2
sS'owned'
p1336
I5
sS'autographed'
p1337
I2
sS'owner'
p1338
I4
sS'mandatory'
p1339
I4
sS'legislative'
p1340
I2
sS'pryor'
p1341
I2
sS'start'
p1342
I3
sS'system'
p1343
I17
sS'interests'
p1344
I6
sS'enforcement'
p1345
I2
sS'quarry'
p1346
I2
sS'colleagues'
p1347
I4
sS'reacted'
p1348
I2
sS'extraordinarily'
p1349
I2
sS'potpourri'
p1350
I2
sS'16-year-olds'
p1351
I2
sS'appealing'
p1352
I2
sS'decided'
p1353
I3
sS'steep'
p1354
I2
sS'downpayments'
p1355
I2
sS'partnership'
p1356
I4
sS'seaborne'
p1357
I2
sS'reassuring'
p1358
I2
sS'9.78'
p1359
I2
sS'9.75'
p1360
I2
sS'blockbuster'
p1361
I2
sS'clearly'
p1362
I4
sS'documents'
p1363
I9
sS'how-to'
p1364
I2
sS'bassoon'
p1365
I2
sS'studying'
p1366
I2
sS'equaling'
p1367
I2
sS'korean'
p1368
I5
sS'worldwide'
p1369
I2
sS'pete'
p1370
I3
sS'delayed'
p1371
I2
sS'device'
p1372
I3
sS'so-called'
p1373
I4
sS'bred'
p1374
I2
sS'stronger'
p1375
I5
sS'thanksgiving'
p1376
I4
sS'face'
p1377
I5
sS'consorting'
p1378
I2
sS'brew'
p1379
I2
sS'painting'
p1380
I2
sS'fact'
p1381
I4
sS'vacancy'
p1382
I2
sS'bring'
p1383
I4
sS'rouge'
p1384
I4
sS'unconnected'
p1385
I2
sS'rough'
p1386
I2
sS'brauerei'
p1387
I2
sS'thigh'
p1388
I2
sS'95.2'
p1389
I2
sS'should'
p1390
I10
sS'terminal'
p1391
I3
sS'jam'
p1392
I3
sS'tape'
p1393
I2
sS'printers'
p1394
I2
sS'riding'
p1395
I2
sS'hope'
p1396
I7
sS'meant'
p1397
I3
sS'chicago-based'
p1398
I2
sS'means'
p1399
I4
sS'cigar-chomping'
p1400
I2
sS'familiar'
p1401
I3
sS'listener'
p1402
I2
sS'one-quarter-cent'
p1403
I2
sS'summon'
p1404
I2
sS'stuff'
p1405
I3
sS'allegation'
p1406
I2
sS'ohio'
p1407
I2
sS'medium-grade'
p1408
I2
sS'reykjavik'
p1409
I2
sS'edition'
p1410
I2
sS'subcommittee'
p1411
I4
sS'bidders'
p1412
I3
sS'425,000'
p1413
I2
sS'amtran'
p1414
I2
sS'wealth'
p1415
I2
sS'nuclear'
p1416
I12
sS'unravel'
p1417
I2
sS'nominees'
p1418
I3
sS'wiry'
p1419
I2
sS'ends'
p1420
I3
sS'restrictions'
p1421
I2
sS'figured'
p1422
I2
sS'drum'
p1423
I2
sS'invited'
p1424
I2
sS'deficits'
p1425
I2
sS'drug'
p1426
I5
sS'etc'
p1427
I2
sS'figures'
p1428
I4
sS'heart'
p1429
I4
sS'invites'
p1430
I2
sS'adjusted'
p1431
I2
sS'belzberg'
p1432
I2
sS'co'
p1433
I7
sS'conclude'
p1434
I2
sS'ca'
p1435
I7
sS'570'
p1436
I2
sS'cd'
p1437
I10
sS'allocated'
p1438
I2
sS'oakland'
p1439
I3
sS'yastrzemski'
p1440
I2
sS'8.5'
p1441
I2
sS'powered'
p1442
I2
sS'bewkes'
p1443
I2
sS'waste'
p1444
I2
sS'recurring'
p1445
I2
sS'c.'
p1446
I3
sS'rioting'
p1447
I3
sS'c$'
p1448
I2
sS'atlanta'
p1449
I2
sS'harriton'
p1450
I2
sS'5*slashhere*8'
p1451
I3
sS'rigged'
p1452
I2
sS'stuffing'
p1453
I2
sS'norodom'
p1454
I2
sS'lush'
p1455
I2
sS'site'
p1456
I2
sS'vu'
p1457
I2
sS'winnetka'
p1458
I2
sS'amadou-mahtar'
p1459
I2
sS'insight'
p1460
I2
sS'marcoses'
p1461
I2
sS'yuppie'
p1462
I2
sS'paulo'
p1463
I2
sS'ariz.'
p1464
I2
sS'terrorism'
p1465
I2
sS'ball'
p1466
I2
sS'columbia'
p1467
I8
sS'raymond'
p1468
I2
sS'emotionally'
p1469
I2
sS'drink'
p1470
I3
sS'upon'
p1471
I3
sS'infiniti'
p1472
I2
sS'robotic'
p1473
I2
sS'expand'
p1474
I2
sS'audit'
p1475
I2
sS'off'
p1476
I15
sS'hartt'
p1477
I3
sS'7.77'
p1478
I2
sS'352'
p1479
I2
sS'350'
p1480
I2
sS'7.78'
p1481
I2
sS'negligence'
p1482
I2
sS'less'
p1483
I15
sS'paul'
p1484
I3
sS'agnellis'
p1485
I3
sS'stoltzman'
p1486
I11
sS'residential'
p1487
I2
sS'arrest'
p1488
I2
sS'cosmetics'
p1489
I5
sS'clipped'
p1490
I2
sS'exempt'
p1491
I2
sS'enfield'
p1492
I8
sS'tcmp'
p1493
I4
sS'increased'
p1494
I9
sS'counterclaims'
p1495
I2
sS'government'
p1496
I32
sS'checking'
p1497
I2
sS'chancellor'
p1498
I2
sS'low-paid'
p1499
I2
sS'fuji'
p1500
I2
sS'increases'
p1501
I3
sS'five'
p1502
I14
sS'desk'
p1503
I2
sS'belgium'
p1504
I2
sS'crisp'
p1505
I2
sS'nerves'
p1506
I7
sS'replacement'
p1507
I3
sS'amendment'
p1508
I5
sS'indications'
p1509
I2
sS'foreseeable'
p1510
I2
sS'thief'
p1511
I2
sS'ballot'
p1512
I3
sS'transport'
p1513
I2
sS'disbelief'
p1514
I2
sS'leveraged'
p1515
I3
sS'salaries'
p1516
I2
sS'demonstrators'
p1517
I2
sS'does'
p1518
I16
sS'passion'
p1519
I3
sS'shareholdings'
p1520
I2
sS'pressure'
p1521
I5
sS'loans'
p1522
I7
sS'stage'
p1523
I3
sS'gained'
p1524
I2
sS'sister'
p1525
I2
sS'25.5'
p1526
I2
sS'asks'
p1527
I3
sS'25.7'
p1528
I2
sS'arkoma'
p1529
I2
sS'angeles'
p1530
I5
sS'union'
p1531
I13
sS'software'
p1532
I2
sS'alliance'
p1533
I2
sS'letters'
p1534
I7
sS'title-insurance'
p1535
I2
sS'ismaili'
p1536
I2
sS'banca'
p1537
I2
sS'mere'
p1538
I2
sS'negotiable'
p1539
I3
sS'terminated'
p1540
I2
sS'stocks'
p1541
I6
sS'off-speed'
p1542
I2
sS'justifying'
p1543
I2
sS'spots'
p1544
I2
sS'peters'
p1545
I9
sS'bros.'
p1546
I3
sS'9.7'
p1547
I2
sS'pretax'
p1548
I2
sS'function'
p1549
I3
sS'fiscal'
p1550
I4
sS'19,000'
p1551
I2
sS'construction'
p1552
I5
sS'fishing*slashhere*processing'
p1553
I2
sS'entered'
p1554
I3
sS'beeper'
p1555
I2
sS'disbursement'
p1556
I2
sS'evident'
p1557
I2
sS'chained'
p1558
I2
sS'official'
p1559
I9
sS'smooth'
p1560
I3
sS'imbalances'
p1561
I2
sS'excitement'
p1562
I2
sS'placed'
p1563
I2
sS'problem'
p1564
I10
sS'kowtow'
p1565
I2
sS'recognize'
p1566
I3
sS'consumed'
p1567
I2
sS'moonie'
p1568
I2
sS'159.7'
p1569
I2
sS'mediobanca'
p1570
I3
sS'nonetheless'
p1571
I4
sS'mccartin'
p1572
I2
sS'lately'
p1573
I3
sS'compares'
p1574
I2
sS'reckless'
p1575
I2
sS'jumbos'
p1576
I2
sS'francisco'
p1577
I3
sS'monday'
p1578
I15
sS'outlets'
p1579
I3
sS'chance'
p1580
I6
sS'exposure'
p1581
I2
sS'searches'
p1582
I2
sS'mozart'
p1583
I2
sS'rule'
p1584
I8
sS'strings'
p1585
I2
sS'compete'
p1586
I3
sS'pension'
p1587
I6
sS'475'
p1588
I2
sS'tax-exempt'
p1589
I2
sS'linsey'
p1590
I2
sS'magnetic'
p1591
I10
sS'monte'
p1592
I2
sS'self-incrimination'
p1593
I4
sS'controversial'
p1594
I3
sS'mansion'
p1595
I2
sS'oldest'
p1596
I2
sS'relationships'
p1597
I4
sS'pedro'
p1598
I2
sS'edward'
p1599
I3
sS'regal'
p1600
I2
sS'worth'
p1601
I3
sS'alternating'
p1602
I2
sS'mania'
p1603
I2
sS'postpone'
p1604
I3
sS'investigator'
p1605
I2
sS'gaelic'
p1606
I2
sS'announced'
p1607
I16
sS'reinvent'
p1608
I2
sS'chew'
p1609
I2
sS'chez'
p1610
I5
sS'chef'
p1611
I3
sS'panda'
p1612
I2
sS'machines'
p1613
I8
sS'established'
p1614
I2
sS'above'
p1615
I5
sS'churches'
p1616
I2
sS'officially'
p1617
I2
sS'told'
p1618
I9
sS'crunch'
p1619
I2
sS'simultaneously'
p1620
I2
sS'residual'
p1621
I2
sS'conglomerate'
p1622
I3
sS'protection'
p1623
I3
sS'obtained'
p1624
I2
sS'watchers'
p1625
I2
sS'items'
p1626
I3
sS'study'
p1627
I2
sS'subjected'
p1628
I2
sS'spooks'
p1629
I2
sS'highly'
p1630
I7
sS'shun'
p1631
I2
sS'total'
p1632
I12
sS'indians'
p1633
I3
sS'chooses'
p1634
I3
sS'program'
p1635
I11
sS'hahn'
p1636
I3
sS'giovanni'
p1637
I9
sS'aware'
p1638
I2
sS'mather'
p1639
I5
sS'emeritus'
p1640
I3
sS'unraveled'
p1641
I2
sS'blocking'
p1642
I5
sS'1991'
p1643
I6
sS'tnt'
p1644
I3
sS'1993'
p1645
I2
sS'1992'
p1646
I3
sS'word'
p1647
I3
sS'1994'
p1648
I2
sS'1997'
p1649
I2
sS'1996'
p1650
I2
sS'work'
p1651
I17
sS'theories'
p1652
I2
sS'grover'
p1653
I2
sS'half-forgotten'
p1654
I2
sS'era'
p1655
I2
sS'elegantly'
p1656
I2
sS'cited'
p1657
I4
sS'india'
p1658
I3
sS'550'
p1659
I2
sS'uaw'
p1660
I4
sS'impair'
p1661
I2
sS'indicates'
p1662
I3
sS'8.35'
p1663
I2
sS'8.33'
p1664
I2
sS'8.32'
p1665
I2
sS'8.30'
p1666
I2
sS'totaled'
p1667
I3
sS'8.38'
p1668
I2
sS'recovery'
p1669
I2
sS'carriers'
p1670
I3
sS'provide'
p1671
I7
sS'indirectly'
p1672
I2
sS'interview'
p1673
I5
sS'ordinary'
p1674
I4
sS'saint-saens'
p1675
I3
sS'beach'
p1676
I4
sS'gamble'
p1677
I3
sS'bebop'
p1678
I2
sS'after'
p1679
I38
sS'lab'
p1680
I4
sS'lay'
p1681
I2
sS'law'
p1682
I27
sS'austere'
p1683
I2
sS'homeowners'
p1684
I2
sS'scare'
p1685
I2
sS'ambulance'
p1686
I2
sS'order'
p1687
I8
sS'office'
p1688
I13
sS'devote'
p1689
I2
sS'satisfied'
p1690
I2
sS'6.7'
p1691
I2
sS'6.5'
p1692
I3
sS'6.2'
p1693
I2
sS'12.5'
p1694
I2
sS'innovative'
p1695
I2
sS'japan'
p1696
I30
sS'15*slashhere*16'
p1697
I2
sS'mayor'
p1698
I3
sS'somewhere'
p1699
I3
sS'recreational'
p1700
I2
sS'50,000'
p1701
I2
sS'production'
p1702
I3
sS'achenbaum'
p1703
I20
sS'eventually'
p1704
I7
sS'them'
p1705
I35
sS'affected'
p1706
I2
sS'safe'
p1707
I3
sS'break'
p1708
I3
sS'hispanics'
p1709
I2
sS'cichan'
p1710
I2
sS'they'
p1711
I97
sS'bank'
p1712
I33
sS'7.98'
p1713
I2
sS'7.99'
p1714
I2
sS'7.94'
p1715
I2
sS'7.96'
p1716
I3
sS'7.90'
p1717
I5
sS'7.91'
p1718
I2
sS'7.92'
p1719
I2
sS'7.93'
p1720
I2
sS'lifted'
p1721
I2
sS'crimes'
p1722
I3
sS'stronger-than-expected'
p1723
I2
sS'recognizable'
p1724
I2
sS'burnham'
p1725
I2
sS'network'
p1726
I9
sS'cameras'
p1727
I2
sS'diesel'
p1728
I2
sS'vessels'
p1729
I2
sS'forth'
p1730
I2
sS'disputed'
p1731
I3
sS'vetoed'
p1732
I3
sS'veto'
p1733
I3
sS'gardiner'
p1734
I2
sS'standard'
p1735
I4
sS'admits'
p1736
I2
sS'disputes'
p1737
I2
sS'pro-democracy'
p1738
I2
sS'delver'
p1739
I2
sS'delves'
p1740
I2
sS'baseman'
p1741
I2
sS'created'
p1742
I8
sS'oppose'
p1743
I3
sS'delved'
p1744
I2
sS'organize'
p1745
I2
sS'guzzle'
p1746
I2
sS'another'
p1747
I25
sS'comic'
p1748
I3
sS'electronic'
p1749
I3
sS'illustrate'
p1750
I4
sS'rated'
p1751
I2
sS'gooseberry'
p1752
I2
sS'secaucus'
p1753
I2
sS'takeovers'
p1754
I2
sS'approximately'
p1755
I3
sS'airs'
p1756
I2
sS'rates'
p1757
I15
sS'mail-sorting'
p1758
I2
sS'john'
p1759
I8
sS'kiwi'
p1760
I2
sS'190-point'
p1761
I2
sS'diversified'
p1762
I2
sS'albert'
p1763
I2
sS'rejected'
p1764
I2
sS'hazelnut'
p1765
I2
sS'alberg'
p1766
I2
sS'toronto'
p1767
I4
sS'guile'
p1768
I2
sS'negotiator'
p1769
I2
sS'splendidly'
p1770
I2
sS'solely'
p1771
I2
sS'500,000'
p1772
I2
sS'30.4'
p1773
I2
sS'manner'
p1774
I4
sS'praising'
p1775
I2
sS'strength'
p1776
I5
sS'small-lot'
p1777
I2
sS'subjects'
p1778
I5
sS'luxury'
p1779
I5
sS'forces'
p1780
I9
sS'unsecured'
p1781
I3
sS'circles'
p1782
I3
sS'6*slashhere*2'
p1783
I2
sS'400,000'
p1784
I2
sS'bruce'
p1785
I2
sS'iceland'
p1786
I2
sS'indemnification'
p1787
I2
sS'exercised'
p1788
I2
sS'involving'
p1789
I6
sS'germany'
p1790
I10
sS'exercises'
p1791
I2
sS'germans'
p1792
I3
sS'intergroup'
p1793
I2
sS'calculated'
p1794
I3
sS'newcomers'
p1795
I2
sS'perozo'
p1796
I2
sS'investing'
p1797
I4
sS'voting'
p1798
I3
sS'notion'
p1799
I2
sS'reserve'
p1800
I5
sS'd.'
p1801
I11
sS'asia-pacific'
p1802
I3
sS'religions'
p1803
I2
sS'cogeneration-plant'
p1804
I2
sS'painfully'
p1805
I2
sS'yen'
p1806
I7
sS'glasnost'
p1807
I2
sS'pursuing'
p1808
I2
sS'gideon'
p1809
I3
sS'adequate'
p1810
I3
sS'personality'
p1811
I2
sS'do'
p1812
I34
sS'di'
p1813
I2
sS'de'
p1814
I3
sS'preferred'
p1815
I7
sS'wisecracks'
p1816
I2
sS'25,000'
p1817
I2
sS'vividly'
p1818
I3
sS'runs'
p1819
I3
sS'pearson'
p1820
I2
sS'exchanged'
p1821
I2
sS'explanations'
p1822
I2
sS'secretary'
p1823
I4
sS'etudes'
p1824
I2
sS'w.'
p1825
I3
sS'checks'
p1826
I2
sS'cattle'
p1827
I4
sS'discussions'
p1828
I5
sS'techniques'
p1829
I2
sS'draws'
p1830
I2
sS'away'
p1831
I9
sS'unable'
p1832
I5
sS'cooperation'
p1833
I4
sS'drawn'
p1834
I2
sS'co.'
p1835
I21
sS'we'
p1836
I34
sS'terms'
p1837
I9
sS'wo'
p1838
I10
sS'handful'
p1839
I2
sS'packaged'
p1840
I2
sS'42.9'
p1841
I2
sS'disservice'
p1842
I2
sS'convertible'
p1843
I2
sS'packages'
p1844
I3
sS'downgraded'
p1845
I2
sS'received'
p1846
I8
sS'exceeds'
p1847
I2
sS'requests'
p1848
I3
sS'bran'
p1849
I3
sS'publicity-seeking'
p1850
I2
sS'negotiation'
p1851
I2
sS'year-end'
p1852
I2
sS'tough'
p1853
I3
sS'c.d.s'
p1854
I2
sS'zellers'
p1855
I2
sS'tons'
p1856
I4
sS'telecommunications'
p1857
I4
sS'smith'
p1858
I4
sS'knowns'
p1859
I2
sS'petty'
p1860
I3
sS'nomura'
p1861
I11
sS'condemned'
p1862
I2
sS'drafting'
p1863
I2
sS'dozens'
p1864
I2
sS'duties'
p1865
I4
sS'cutouts'
p1866
I2
sS'bnl'
p1867
I7
sS'catering'
p1868
I2
sS'ogilvy'
p1869
I6
sS'0.19'
p1870
I2
sS'applied'
p1871
I7
sS'has'
p1872
I127
sS'6.84'
p1873
I2
sS'publicly'
p1874
I4
sS'air'
p1875
I10
sS'thrash'
p1876
I2
sS'aid'
p1877
I4
sS'property'
p1878
I2
sS'launched'
p1879
I3
sS'38.5'
p1880
I2
sS'skipping'
p1881
I2
sS'tissue'
p1882
I3
sS'world-wide'
p1883
I2
sS'exile'
p1884
I3
sS'confirmed'
p1885
I2
sS'demonstration'
p1886
I5
sS'trashing'
p1887
I2
sS'spy-chasing'
p1888
I2
sS'independent'
p1889
I2
sS'hani'
p1890
I2
sS'rain'
p1891
I2
sS'hand'
p1892
I4
sS'liberties'
p1893
I2
sS'blamed'
p1894
I2
sS'kept'
p1895
I7
sS'1978'
p1896
I3
sS'1977'
p1897
I2
sS'1976'
p1898
I4
sS'1975'
p1899
I3
sS'1974'
p1900
I2
sS'1973'
p1901
I2
sS'epp'
p1902
I2
sS'ragged'
p1903
I2
sS'hispanic'
p1904
I5
sS'client'
p1905
I5
sS'the'
p1906
I1700
sS'musical'
p1907
I3
sS'unified'
p1908
I2
sS'quoted'
p1909
I3
sS'gods'
p1910
I2
sS'thanks'
p1911
I4
sS'victim'
p1912
I2
sS'gun-carrying'
p1913
I2
sS'8.12'
p1914
I2
sS'guise'
p1915
I2
sS'hills'
p1916
I2
sS'flooring'
p1917
I2
sS'similarities'
p1918
I2
sS'passive'
p1919
I2
sS'spread'
p1920
I2
sS'board'
p1921
I14
sS'evidenced'
p1922
I2
sS'mayo'
p1923
I2
sS'bridgers'
p1924
I2
sS'souled'
p1925
I2
sS'unification'
p1926
I6
sS'retreat'
p1927
I2
sS'securities'
p1928
I41
sS'gandhi'
p1929
I3
sS'security'
p1930
I7
sS'towards'
p1931
I2
sS'webb'
p1932
I2
sS'lashed'
p1933
I2
sS'humor'
p1934
I2
sS'house-painting'
p1935
I2
sS'asking'
p1936
I5
sS'denied'
p1937
I4
sS'beating'
p1938
I2
sS'participation'
p1939
I5
sS'marketing'
p1940
I12
sS'illustration'
p1941
I2
sS'post'
p1942
I4
sS'properties'
p1943
I5
sS'theirs'
p1944
I2
sS'newspapers'
p1945
I5
sS'months'
p1946
I33
sS'gentler'
p1947
I2
sS'canonie'
p1948
I3
sS'dilemma'
p1949
I2
sS'wasting'
p1950
I2
sS'attorney'
p1951
I6
sS'balances'
p1952
I2
sS'capped'
p1953
I3
sS'wah'
p1954
I2
sS'wad'
p1955
I2
sS'legislation'
p1956
I4
sS'liquidated'
p1957
I2
sS'fight'
p1958
I3
sS'clinical'
p1959
I2
sS'way'
p1960
I17
sS'was'
p1961
I139
sS'war'
p1962
I6
sS'becoming'
p1963
I5
sS'mysterious'
p1964
I2
sS'true'
p1965
I3
sS'reset'
p1966
I2
sS'2210'
p1967
I2
sS'high-quality'
p1968
I2
sS'maximum'
p1969
I2
sS'monitored'
p1970
I2
sS'crystal'
p1971
I2
sS'coverings'
p1972
I2
sS'emotional'
p1973
I2
sS'private-sector'
p1974
I2
sS'moore'
p1975
I2
sS'bankamerica'
p1976
I3
sS'long-debated'
p1977
I2
sS'abstract'
p1978
I2
sS'evidence'
p1979
I3
sS'promised'
p1980
I2
sS'physical'
p1981
I3
sS'weakened'
p1982
I2
sS'stake'
p1983
I12
sS'naji'
p1984
I2
sS'topped'
p1985
I2
sS'negotiators'
p1986
I3
sS'interested'
p1987
I7
sS'holding'
p1988
I12
sS'65,200'
p1989
I2
sS'joni'
p1990
I2
sS'brothers'
p1991
I2
sS'update'
p1992
I2
sS'improvisation'
p1993
I2
sS'scores'
p1994
I3
sS'}'
I18
sS'affidavit'
p1995
I4
sS'together'
p1996
I3
sS'n.j.'
p1997
I2
sS'campaneris'
p1998
I5
sS'concept'
p1999
I4
sS'diplomacy'
p2000
I2
sS'global'
p2001
I3
sS'known'
p2002
I4
sS'battle'
p2003
I4
sS'superpower'
p2004
I2
sS'certainly'
p2005
I4
sS'flash'
p2006
I2
sS'compensate'
p2007
I3
sS'dissatisfied'
p2008
I2
sS'division'
p2009
I5
sS'charles'
p2010
I4
sS'seemingly'
p2011
I2
sS'trouble'
p2012
I4
sS'presenter'
p2013
I2
sS'guy'
p2014
I3
sS'revolution'
p2015
I2
sS'cost'
p2016
I5
sS'889,000'
p2017
I2
sS'acrimonious'
p2018
I2
sS'appear'
p2019
I6
sS'246.6'
p2020
I2
sS'shares'
p2021
I29
sS'uniform'
p2022
I2
sS'appeal'
p2023
I6
sS'4,300'
p2024
I2
sS'satisfy'
p2025
I2
sS'collateral'
p2026
I2
sS'rubicam'
p2027
I2
sS'appears'
p2028
I2
sS'change'
p2029
I9
sS'sending'
p2030
I2
sS'incoming'
p2031
I2
sS'trial'
p2032
I3
sS'usually'
p2033
I4
sS'mellowed'
p2034
I2
sS'retired'
p2035
I3
sS'9.19'
p2036
I2
sS'lending'
p2037
I4
sS'paragon'
p2038
I2
sS'fbi'
p2039
I2
sS'rarely'
p2040
I3
sS'market'
p2041
I36
sS'angell'
p2042
I2
sS'prove'
p2043
I3
sS'live'
p2044
I5
sS'commissioner'
p2045
I2
sS'club'
p2046
I4
sS'minimum-wage'
p2047
I5
sS'state-funded'
p2048
I2
sS'organizations'
p2049
I5
sS'ibj'
p2050
I2
sS'car'
p2051
I6
sS'paragould'
p2052
I3
sS'can'
p2053
I36
sS'trans'
p2054
I4
sS'stimulating'
p2055
I2
sS'spy'
p2056
I4
sS'expanding'
p2057
I2
sS'1,640'
p2058
I2
sS'supremacy'
p2059
I2
sS'heard'
p2060
I2
sS'occur'
p2061
I2
sS'domenici'
p2062
I2
sS'discussion'
p2063
I3
sS'bonds'
p2064
I12
sS'buttoned-up'
p2065
I2
sS'write'
p2066
I2
sS'47-year-old'
p2067
I2
sS'allowable'
p2068
I2
sS'economy'
p2069
I12
sS'product'
p2070
I2
sS'service-industry'
p2071
I3
sS'whacker'
p2072
I2
sS'produce'
p2073
I3
sS'vases'
p2074
I2
sS'court'
p2075
I19
sS'heroes'
p2076
I2
sS'ponied'
p2077
I2
sS'eurodollars'
p2078
I2
sS'remember'
p2079
I3
sS'futures'
p2080
I2
sS'acrimony'
p2081
I3
sS'typical'
p2082
I2
sS'indeed'
p2083
I3
sS'raised'
p2084
I7
sS'brain'
p2085
I19
sS'ratified'
p2086
I2
sS'still'
p2087
I22
sS'birds'
p2088
I2
sS'8.0087'
p2089
I2
sS'reacting'
p2090
I2
sS'window'
p2091
I3
sS'hackles'
p2092
I2
sS'norway'
p2093
I2
sS'inefficiency'
p2094
I2
sS'100,000'
p2095
I3
sS'introduce'
p2096
I2
sS'1955'
p2097
I2
sS'1954'
p2098
I2
sS'half'
p2099
I11
sS'not'
p2100
I64
sS'now'
p2101
I30
sS'provision'
p2102
I2
sS'discuss'
p2103
I3
sS'nor'
p2104
I5
sS'enacted'
p2105
I2
sS'galloway'
p2106
I2
sS'january'
p2107
I5
sS'drop'
p2108
I3
sS'stockholm'
p2109
I2
sS'22.8'
p2110
I2
sS'concerts'
p2111
I2
sS'el'
p2112
I2
sS'mixed-up'
p2113
I2
sS'taxes'
p2114
I4
sS'year'
p2115
I59
sS'naming'
p2116
I2
sS'teams'
p2117
I3
sS'pills'
p2118
I13
sS'8.75'
p2119
I2
sS'hand-held'
p2120
I2
sS'shown'
p2121
I6
sS'accomplish'
p2122
I2
sS'space'
p2123
I2
sS'lawyers'
p2124
I4
sS'increase'
p2125
I13
sS'celimene'
p2126
I2
sS'rational'
p2127
I2
sS'fargo'
p2128
I2
sS'viable'
p2129
I2
sS'shows'
p2130
I4
sS'rebuilding'
p2131
I2
sS'e.'
p2132
I5
sS'cars'
p2133
I5
sS'carl'
p2134
I6
sS'obligation'
p2135
I3
sS'care'
p2136
I2
sS'chose'
p2137
I2
sS'selections'
p2138
I2
sS'19th-century'
p2139
I2
sS'vehemently'
p2140
I2
sS'british'
p2141
I10
sS'lindsey'
p2142
I2
sS'tangled'
p2143
I2
sS'invitation'
p2144
I2
sS'styles'
p2145
I2
sS'promotion'
p2146
I9
sS'515'
p2147
I2
sS'sprawling'
p2148
I2
sS'concertos'
p2149
I2
sS'initial'
p2150
I2
sS'striking'
p2151
I2
sS'yourself'
p2152
I2
sS'temporarily'
p2153
I2
sS'directly'
p2154
I9
sS'comprises'
p2155
I2
sS'drove'
p2156
I2
sS'tomorrow'
p2157
I3
sS'size'
p2158
I4
sS'officials'
p2159
I18
sS'caught'
p2160
I3
sS'free-lance'
p2161
I2
sS'friend'
p2162
I3
sS'mostly'
p2163
I3
sS'that'
p2164
I302
sS'pittsburgh'
p2165
I3
sS'brains'
p2166
I4
sS'taxation'
p2167
I2
sS'eliminated'
p2168
I2
sS'flowers'
p2169
I2
sS'than'
p2170
I68
sS'titans'
p2171
I2
sS'television'
p2172
I6
sS'travis'
p2173
I2
sS'transferred'
p2174
I2
sS'agnelli-related'
p2175
I2
sS'respectability'
p2176
I2
sS'investors'
p2177
I34
sS'remained'
p2178
I5
sS'premier'
p2179
I2
sS'anger'
p2180
I2
sS'recover'
p2181
I2
sS'form'
p2182
I4
sS'veteran'
p2183
I2
sS'manufacturers'
p2184
I2
sS'equipment'
p2185
I2
sS'mr.'
p2186
I196
sS'penney'
p2187
I4
sS'objective'
p2188
I2
sS'begin'
p2189
I10
sS'price'
p2190
I10
sS'america'
p2191
I15
sS'manville'
p2192
I14
sS'forever'
p2193
I2
sS'dream'
p2194
I2
sS'reform'
p2195
I3
sS'implications'
p2196
I4
sS'hurled'
p2197
I2
sS'professional'
p2198
I5
sS'typically'
p2199
I7
sS'filing'
p2200
I3
sS'brainchild'
p2201
I2
sS'german'
p2202
I5
sS'discovered'
p2203
I4
sS'maine'
p2204
I2
sS'fifth'
p2205
I2
sS'upgrade'
p2206
I2
sS'title'
p2207
I3
sS'industrialize'
p2208
I2
sS'jolt'
p2209
I2
sS'texture'
p2210
I2
sS'filipinos'
p2211
I4
sS'only'
p2212
I38
sS'kluge'
p2213
I2
sS'inventions'
p2214
I2
sS'thompson'
p2215
I2
sS'interstate'
p2216
I2
sS'cannon'
p2217
I2
sS'samuel'
p2218
I2
sS'truly'
p2219
I3
sS'stroll'
p2220
I2
sS'losers'
p2221
I2
sS'reorganizes'
p2222
I2
sS'husband'
p2223
I2
sS'concert'
p2224
I3
sS'color-coding'
p2225
I2
sS'elected'
p2226
I5
sS'actively'
p2227
I2
sS'sport'
p2228
I2
sS'reputed'
p2229
I2
sS'europeans'
p2230
I3
sS'staffed'
p2231
I2
sS'tackling'
p2232
I2
sS'willard'
p2233
I2
sS'serkin'
p2234
I2
sS'3'
I7
sS'between'
p2235
I22
sS'import'
p2236
I2
sS'justified'
p2237
I2
sS'armenian'
p2238
I2
sS'article'
p2239
I5
sS'comes'
p2240
I3
sS'passenger'
p2241
I3
sS'jeans'
p2242
I2
sS'mirroring'
p2243
I2
sS'moreover'
p2244
I2
sS'fruitful'
p2245
I2
sS'eight-team'
p2246
I2
sS'informed'
p2247
I2
sS'disclosed'
p2248
I7
sS'4.875'
p2249
I2
sS'wounds'
p2250
I2
sS'external'
p2251
I2
sS'suspected'
p2252
I3
sS'realities'
p2253
I2
sS'developing'
p2254
I4
sS'these'
p2255
I23
sS'blinkers'
p2256
I2
sS'exercisable'
p2257
I2
sS'misanthrope'
p2258
I2
sS'alcoholic'
p2259
I2
sS'soil'
p2260
I3
sS'metric'
p2261
I2
sS'health-care'
p2262
I3
sS'bias'
p2263
I2
sS'trimming'
p2264
I2
sS'worry'
p2265
I4
sS'quarter-to-quarter'
p2266
I2
sS'develop'
p2267
I4
sS'media'
p2268
I5
sS'followers'
p2269
I2
sS'squatted'
p2270
I2
sS'racketeering'
p2271
I2
sS'tradition'
p2272
I2
sS'complained'
p2273
I3
sS'charges'
p2274
I5
sS'constitutional'
p2275
I3
sS'severe'
p2276
I3
sS'laboratories'
p2277
I2
sS'charged'
p2278
I5
sS'knowledgeable'
p2279
I2
sS'valuable'
p2280
I2
sS'civilized'
p2281
I2
sS'touch'
p2282
I4
sS'melton'
p2283
I2
sS'speed'
p2284
I3
sS'knotty'
p2285
I2
sS'thinking'
p2286
I2
sS'treatment'
p2287
I2
sS'struck'
p2288
I3
sS'real'
p2289
I9
sS'non-clients'
p2290
I2
sS'spectacular'
p2291
I2
sS'overused'
p2292
I2
sS'read'
p2293
I6
sS'swig'
p2294
I2
sS'pse'
p2295
I2
sS'early'
p2296
I15
sS'listening'
p2297
I3
sS'using'
p2298
I5
sS'execution'
p2299
I2
sS'lady'
p2300
I2
sS'ruled'
p2301
I5
sS'proponent'
p2302
I2
sS'utterances'
p2303
I2
sS'benefit'
p2304
I6
sS'output'
p2305
I4
sS'dilution'
p2306
I2
sS'geraldo'
p2307
I2
sS'meringues'
p2308
I2
sS'apologists'
p2309
I2
sS'eddie'
p2310
I3
sS'abetted'
p2311
I2
sS'recorded'
p2312
I2
sS'conservative'
p2313
I2
sS'2170'
p2314
I2
sS'racism'
p2315
I2
sS'business'
p2316
I26
sS'chefs'
p2317
I2
sS'credits'
p2318
I2
sS'sixty'
p2319
I2
sS'exciting'
p2320
I2
sS'throw'
p2321
I2
sS'comparison'
p2322
I2
sS'central'
p2323
I6
sS'ideology'
p2324
I2
sS'testimony'
p2325
I2
sS'heavy'
p2326
I3
sS'8.53'
p2327
I2
sS'8.55'
p2328
I3
sS'earring'
p2329
I2
sS'involvement'
p2330
I2
sS'operator'
p2331
I3
sS'your'
p2332
I10
sS'intervention'
p2333
I5
sS'shags'
p2334
I2
sS'area'
p2335
I7
sS'assumed'
p2336
I2
sS'minn.'
p2337
I2
sS'los'
p2338
I5
sS'low'
p2339
I4
sS'lot'
p2340
I7
sS'somerset'
p2341
I2
sS'jones'
p2342
I3
sS'pitches'
p2343
I2
sS'philosophers'
p2344
I2
sS'two-thirds'
p2345
I2
sS'trying'
p2346
I4
sS'hire'
p2347
I2
sS'fraud'
p2348
I3
sS'proof-of-purchases'
p2349
I2
sS'intermission'
p2350
I2
sS'louisiana'
p2351
I2
sS'popularize'
p2352
I2
sS'9*slashhere*16'
p2353
I3
sS'600'
p2354
I2
sS'moved'
p2355
I6
sS'sales'
p2356
I28
sS'moves'
p2357
I4
sS'innings'
p2358
I2
sS'englishman'
p2359
I2
sS'valid'
p2360
I2
sS'you'
p2361
I22
sS'forcing'
p2362
I2
sS'poor'
p2363
I2
sS'massachusetts'
p2364
I5
sS'coverage'
p2365
I3
sS'alcohol'
p2366
I2
sS'building'
p2367
I6
sS'repay'
p2368
I2
sS'requisition'
p2369
I2
sS'overseas'
p2370
I2
sS'bolton'
p2371
I2
sS'blue-chip'
p2372
I2
sS'outlining'
p2373
I2
sS'48-year-old'
p2374
I2
sS'month'
p2375
I14
sS'heavy-water'
p2376
I2
sS'unrest'
p2377
I2
sS'deadline'
p2378
I2
sS'douglas'
p2379
I14
sS'renege'
p2380
I2
sS'religious'
p2381
I2
sS'carpet'
p2382
I8
sS'dreadful'
p2383
I2
sS'referring'
p2384
I2
sS'sustain'
p2385
I3
sS'confidential'
p2386
I2
sS'very'
p2387
I15
sS'mph'
p2388
I3
sS'109.85'
p2389
I2
sS'decide'
p2390
I3
sS'rehearing'
p2391
I2
sS'--'
p2392
I62
sS'louis'
p2393
I2
sS'circuit'
p2394
I2
sS'editing*slashhere*electronic'
p2395
I2
sS'well-meaning'
p2396
I2
sS'consumers'
p2397
I5
sS'raw-material'
p2398
I2
sS'boardrooms'
p2399
I2
sS'induce'
p2400
I5
sS'fractional'
p2401
I2
sS'certificates'
p2402
I6
sS'learned'
p2403
I2
sS'multinational'
p2404
I2
sS'turmoil'
p2405
I2
sS'responded'
p2406
I2
sS'answers'
p2407
I4
sS'tracks'
p2408
I4
sS'selective'
p2409
I2
sS'11.80'
p2410
I2
sS'excess'
p2411
I2
sS'spielvogel'
p2412
I15
sS'iraq'
p2413
I2
sS'ahead'
p2414
I5
sS'inspired'
p2415
I2
sS'losses'
p2416
I8
sS'johnnie'
p2417
I2
sS'amount'
p2418
I8
sS'advertising'
p2419
I9
sS'cardinals'
p2420
I2
sS'wallingford'
p2421
I2
sS'toughness'
p2422
I2
sS'family'
p2423
I9
sS'put'
p2424
I12
sS'aimed'
p2425
I3
sS'trained'
p2426
I3
sS'334.5'
p2427
I2
sS'conventional'
p2428
I6
sS'khan'
p2429
I7
sS'takes'
p2430
I2
sS'one-day'
p2431
I2
sS'strauss'
p2432
I2
sS'praised'
p2433
I2
sS'taken'
p2434
I10
sS'injury'
p2435
I3
sS'countercultural'
p2436
I2
sS'ejected'
p2437
I2
sS'jr.'
p2438
I2
sS'excuse'
p2439
I4
sS'cadwell'
p2440
I2
sS'broke'
p2441
I2
sS'underwriter'
p2442
I2
sS'factories'
p2443
I2
sS'producing'
p2444
I4
sS'nine'
p2445
I7
sS'budgets'
p2446
I2
sS'brain-wave'
p2447
I2
sS'history'
p2448
I4
sS'746'
p2449
I2
sS'pushed'
p2450
I2
sS'quartets'
p2451
I2
sS'exclude'
p2452
I2
sS'f.'
p2453
I4
sS'english-language'
p2454
I2
sS'stayed'
p2455
I2
sS'surpassed'
p2456
I2
sS'tried'
p2457
I5
sS'tries'
p2458
I2
sS'remediation'
p2459
I2
sS'hooliganism'
p2460
I2
sS'a'
I688
sS'criticize'
p2461
I2
sS'overnight'
p2462
I2
sS'anytime'
p2463
I2
sS'ego'
p2464
I2
sS'banks'
p2465
I27
sS'egg'
p2466
I3
sS'help'
p2467
I18
sS'soon'
p2468
I5
sS'show-piece'
p2469
I2
sS'held'
p2470
I11
sS'committee'
p2471
I9
sS'clarinet'
p2472
I4
sS'atrun'
p2473
I2
sS'taxpayer'
p2474
I3
sS'w.a.'
p2475
I2
sS'teeming'
p2476
I2
sS'actually'
p2477
I10
sS'systems'
p2478
I7
sS'peanuts'
p2479
I3
sS'lire'
p2480
I7
sS'fool'
p2481
I2
sS'evening'
p2482
I4
sS'food'
p2483
I3
sS'reigning'
p2484
I2
sS'permissible'
p2485
I2
sS'anticipates'
p2486
I3
sS'linking'
p2487
I2
sS'panisse'
p2488
I5
sS'well-known'
p2489
I2
sS'stopper'
p2490
I3
sS'fully'
p2491
I2
sS'semiannual'
p2492
I3
sS'capability'
p2493
I2
sS'stopped'
p2494
I3
sS'ifi'
p2495
I7
sS'groundball'
p2496
I2
sS'savored'
p2497
I2
sS'healthvest'
p2498
I13
sS'positioned'
p2499
I2
sS'beyond'
p2500
I5
sS'event'
p2501
I2
sS'creamier'
p2502
I2
sS'steered'
p2503
I2
sS'itel'
p2504
I3
sS'pins'
p2505
I2
sS'robert'
p2506
I4
sS'since'
p2507
I19
sS'testify'
p2508
I3
sS'publish'
p2509
I2
sS'equate'
p2510
I2
sS'safety'
p2511
I4
sS'7'
I5
sS'issue'
p2512
I19
sS'bass'
p2513
I2
sS'unificationist'
p2514
I3
sS'reason'
p2515
I4
sS'base'
p2516
I4
sS'dirk'
p2517
I2
sS'matthews'
p2518
I5
sS'broad-based'
p2519
I2
sS'persuading'
p2520
I2
sS'american'
p2521
I26
sS'businessmen'
p2522
I2
sS'imelda'
p2523
I2
sS'ever-growing'
p2524
I2
sS'reflected'
p2525
I2
sS'morita'
p2526
I2
sS'miss'
p2527
I3
sS'arbitration'
p2528
I2
sS'horse'
p2529
I2
sS'st.'
p2530
I2
sS'station'
p2531
I2
sS'identity'
p2532
I2
sS'hundred'
p2533
I2
sS'shifted'
p2534
I2
sS'selling'
p2535
I10
sS'80-plus'
p2536
I2
sS'financing'
p2537
I4
sS'scheme'
p2538
I3
sS'state-owned'
p2539
I3
sS'greg'
p2540
I2
sS'store'
p2541
I3
sS'toward'
p2542
I5
sS'ousted'
p2543
I3
sS'alongside'
p2544
I2
sS'affirmative'
p2545
I2
sS'randomly'
p2546
I2
sS'substantial'
p2547
I5
sS'perestroika'
p2548
I2
sS'1.175'
p2549
I2
sS'lie'
p2550
I3
sS'u.s'
p2551
I5
sS'evasion'
p2552
I2
sS'patterns'
p2553
I2
sS'officers'
p2554
I2
sS'j&b'
p2555
I2
sS'elianti'
p2556
I2
sS'experienced'
p2557
I2
sS'approves'
p2558
I2
sS'macy'
p2559
I2
sS'freddie'
p2560
I4
sS'hired'
p2561
I2
sS'nondemocratic'
p2562
I2
sS'approved'
p2563
I9
sS'ark.'
p2564
I3
sS'creators'
p2565
I2
sS'mobile'
p2566
I2
sS'performances'
p2567
I2
sS'clear'
p2568
I4
sS'rockefeller'
p2569
I3
sS'clean'
p2570
I2
sS'velocity'
p2571
I2
sS'physics'
p2572
I2
sS'stalked'
p2573
I2
sS'7,400'
p2574
I2
sS'hovered'
p2575
I2
sS'gas-tax'
p2576
I2
sS'heavens'
p2577
I2
sS'church-owned'
p2578
I2
sS'northern'
p2579
I3
sS'justice'
p2580
I3
sS'inaugurated'
p2581
I2
sS'flights'
p2582
I2
sS'surveyed'
p2583
I2
sS'pretty'
p2584
I2
sS'2142.6'
p2585
I2
sS'grocery'
p2586
I2
sS'famous'
p2587
I2
sS'during'
p2588
I12
sS'alexander'
p2589
I3
sS'left-wing'
p2590
I2
sS'transgenic'
p2591
I4
sS'11-member'
p2592
I2
sS'switzerland'
p2593
I2
sS'66.50'
p2594
I2
sS'scanning'
p2595
I2
sS'throwing'
p2596
I3
sS'culture'
p2597
I3
sS'close'
p2598
I11
sS'practice'
p2599
I4
sS'probable'
p2600
I2
sS'pictures'
p2601
I5
sS'won'
p2602
I3
sS'woe'
p2603
I2
sS'probably'
p2604
I7
sS'lowered'
p2605
I2
sS'unconscious'
p2606
I2
sS'missing'
p2607
I2
sS'invisible'
p2608
I2
sS'arrears'
p2609
I2
sS'both'
p2610
I22
sS'secrets'
p2611
I2
sS'wage-floor'
p2612
I2
sS'sensitive'
p2613
I2
sS'headed'
p2614
I2
sS'whatever'
p2615
I3
sS'vessel'
p2616
I2
sS'described'
p2617
I2
sS'damp'
p2618
I2
sS'association-college'
p2619
I2
sS'collected'
p2620
I2
sS'reduced-fat'
p2621
I2
sS'walter'
p2622
I4
sS'dialogue'
p2623
I3
sS'partly'
p2624
I2
sS'regroup'
p2625
I2
sS'else'
p2626
I3
sS'lives'
p2627
I5
sS'compromised'
p2628
I2
sS'bidding'
p2629
I3
sS'pact'
p2630
I4
sS'look'
p2631
I7
sS'governor'
p2632
I2
sS'pace'
p2633
I4
sS'while'
p2634
I16
sS'3.35'
p2635
I2
sS'fleet'
p2636
I2
sS'mitchell'
p2637
I3
sS'guide'
p2638
I2
sS'pack'
p2639
I2
sS'voters'
p2640
I3
sS'ready'
p2641
I2
sS'industrial-product'
p2642
I2
sS'fannie'
p2643
I8
sS'fairer'
p2644
I2
sS'shaw'
p2645
I6
sS'anymore'
p2646
I3
sS'grant'
p2647
I2
sS'well-hit'
p2648
I2
sS'composition'
p2649
I2
sS'conflict'
p2650
I4
sS'pleadings'
p2651
I2
sS'used'
p2652
I9
sS'temporary'
p2653
I4
sS'ratings'
p2654
I2
sS'blair'
p2655
I9
sS'uses'
p2656
I5
sS'user'
p2657
I3
sS'brussels'
p2658
I3
sS'older'
p2659
I3
sS'12-month'
p2660
I2
sS'poland'
p2661
I4
sS'yankees'
p2662
I2
sS'alvin'
p2663
I2
sS'settlements'
p2664
I3
sS'quarters'
p2665
I2
sS'taiwan'
p2666
I3
sS'11-week'
p2667
I2
sS'retirement'
p2668
I4
sS'$'
I149
sS'over-the-counter'
p2669
I3
sS'informal'
p2670
I11
sS'guaranteed'
p2671
I3
sS'nikko'
p2672
I2
sS'stock-market'
p2673
I2
sS'guarantees'
p2674
I2
sS'remaining'
p2675
I6
sS'...'
p2676
I11
sS'march'
p2677
I6
sS'evaluate'
p2678
I4
sS'showing'
p2679
I3
sS'game'
p2680
I6
sS'thousand-person'
p2681
I2
sS'stimulators'
p2682
I7
sS'outright'
p2683
I2
sS'toyota'
p2684
I2
sS'popular'
p2685
I2
sS'subverted'
p2686
I2
sS'parade'
p2687
I2
sS'creation'
p2688
I3
sS'some'
p2689
I59
sS'trends'
p2690
I2
sS'economic'
p2691
I18
sS'fanfare'
p2692
I3
sS'67-year-old'
p2693
I2
sS'delivered'
p2694
I3
sS'exceeding'
p2695
I2
sS'eating'
p2696
I2
sS'stem'
p2697
I2
sS'jazzy'
p2698
I2
sS'step'
p2699
I3
sS'lasts'
p2700
I2
sS'become'
p2701
I13
sS'at&t'
p2702
I2
sS'pitchers'
p2703
I3
sS'abroad'
p2704
I4
sS'troops'
p2705
I2
sS'faith'
p2706
I2
sS'tracing'
p2707
I2
sS'in-depth'
p2708
I2
sS'classics'
p2709
I3
sS'block'
p2710
I7
sS'disclosure'
p2711
I2
sS'within'
p2712
I9
sS'guangdong'
p2713
I2
sS'pentagon'
p2714
I3
sS'statistics'
p2715
I5
sS'propel'
p2716
I2
sS'insider'
p2717
I3
sS'disallowed'
p2718
I2
sS'manufacture'
p2719
I3
sS'himself'
p2720
I4
sS'registered'
p2721
I4
sS'specialty'
p2722
I2
sS'properly'
p2723
I2
sS'alive'
p2724
I2
sS'russian'
p2725
I2
sS'dull'
p2726
I2
sS'ideals'
p2727
I2
sS'circuits'
p2728
I2
sS'cautiously'
p2729
I3
sS'similar'
p2730
I7
sS'ordered'
p2731
I4
sS'adults'
p2732
I3
sS'three-to-five-year'
p2733
I2
sS'cotton'
p2734
I9
sS'liberalize'
p2735
I2
sS'amounts'
p2736
I4
sS'spokesmen'
p2737
I2
sS'politicians'
p2738
I3
sS'electrical'
p2739
I3
sS'department'
p2740
I12
sS'manhattan'
p2741
I3
sS'draw'
p2742
I4
sS'reportedly'
p2743
I2
sS're-election'
p2744
I2
sS'kansas'
p2745
I2
sS'visits'
p2746
I2
sS'william'
p2747
I6
sS'drag'
p2748
I2
sS'structure'
p2749
I2
sS'hanover'
p2750
I2
sS'required'
p2751
I10
sS'turbines'
p2752
I2
sS'berries'
p2753
I2
sS'requires'
p2754
I4
sS'avoid'
p2755
I5
sS'co-author'
p2756
I2
sS'fixed-rate'
p2757
I3
sS'oct.'
p2758
I9
sS'ga'
p2759
I2
sS'kato'
p2760
I3
sS'go'
p2761
I3
sS'compact'
p2762
I2
sS'excludes'
p2763
I2
sS'effort'
p2764
I3
sS'uninformative'
p2765
I2
sS'topic'
p2766
I3
sS'excluded'
p2767
I2
sS'cluttered'
p2768
I2
sS'murderous'
p2769
I2
sS'wave'
p2770
I2
sS'wash.'
p2771
I3
sS'cellular'
p2772
I2
sS'g.'
p2773
I2
sS'positions'
p2774
I4
sS'unusual'
p2775
I3
sS'michael'
p2776
I5
sS'watered'
p2777
I2
sS'8.95'
p2778
I2
sS'guber'
p2779
I9
sS'2.25'
p2780
I2
sS'carter'
p2781
I2
sS'picket'
p2782
I2
sS'graying'
p2783
I2
sS'picked'
p2784
I4
sS'plays'
p2785
I5
sS'bluntly'
p2786
I2
sS'then'
p2787
I20
sS'collins'
p2788
I5
sS';'
I72
sS'nicholas'
p2789
I4
sS'marketer'
p2790
I2
sS'focuses'
p2791
I2
sS'filings'
p2792
I5
sS'stance'
p2793
I2
sS'commercial'
p2794
I13
sS'following'
p2795
I4
sS'affidavits'
p2796
I2
sS'webster'
p2797
I2
sS'convert'
p2798
I2
sS'morsels'
p2799
I2
sS'host'
p2800
I3
sS'products'
p2801
I16
sS'oversees'
p2802
I2
sS'gene'
p2803
I2
sS'deterrents'
p2804
I2
sS'examining'
p2805
I2
sS'felled'
p2806
I2
sS'danger'
p2807
I2
sS'win'
p2808
I3
sS'manage'
p2809
I2
sS'clout'
p2810
I2
sS'cloud'
p2811
I2
sS'metaphor'
p2812
I2
sS'remains'
p2813
I3
sS'hudson'
p2814
I3
sS'camera'
p2815
I2
sS'hiding'
p2816
I2
sS'historically'
p2817
I2
sS'reflects'
p2818
I3
sS'bureaucracy'
p2819
I3
sS'started'
p2820
I7
sS'tennis'
p2821
I3
sS'sihanouk'
p2822
I3
sS'visibility'
p2823
I2
sS'missile'
p2824
I2
sS'mitsubishi'
p2825
I3
sS'appointed'
p2826
I2
sS'announcing'
p2827
I2
sS'sanctions'
p2828
I2
sS'crossed'
p2829
I2
sS'servants'
p2830
I2
sS'meet'
p2831
I6
sS'drops'
p2832
I2
sS'control'
p2833
I12
sS'beijing'
p2834
I2
sS'links'
p2835
I2
sS'rejoining'
p2836
I2
sS'evans-black'
p2837
I2
sS'sought'
p2838
I5
sS'publicity'
p2839
I2
sS'fearsome'
p2840
I2
sS'hesitate'
p2841
I2
sS'meanwhile'
p2842
I5
sS'arrangement'
p2843
I2
sS'ferdinand'
p2844
I2
sS'immoral'
p2845
I2
sS'ronald'
p2846
I2
sS'sardinia'
p2847
I2
sS'spelling'
p2848
I2
sS'agenda'
p2849
I3
sS'healthcare'
p2850
I15
sS'executives'
p2851
I15
sS'136,800'
p2852
I2
sS'contractions'
p2853
I3
sS'including'
p2854
I20
sS'costume'
p2855
I3
sS'mentioned'
p2856
I2
sS'brood'
p2857
I2
sS'temporal'
p2858
I2
sS'melloan'
p2859
I2
sS'auto'
p2860
I7
sS'sweets'
p2861
I2
sS'hands'
p2862
I5
sS'front'
p2863
I4
sS'handy'
p2864
I2
sS'literacy'
p2865
I2
sS'101.225'
p2866
I2
sS'university'
p2867
I11
sS'registrations'
p2868
I3
sS'slide'
p2869
I4
sS'commonwealth'
p2870
I2
sS'chunk'
p2871
I2
sS'700'
p2872
I3
sS'sands'
p2873
I2
sS'measure'
p2874
I3
sS'margins'
p2875
I3
sS'special'
p2876
I9
sS'gallant'
p2877
I2
sS'sandor'
p2878
I2
sS'entertainment'
p2879
I10
sS'may'
p2880
I32
sS'siena'
p2881
I2
sS'cause'
p2882
I5
sS'dissented'
p2883
I2
sS'alleged'
p2884
I3
sS'delegates'
p2885
I2
sS'ill.'
p2886
I2
sS'completely'
p2887
I2
sS'intruder'
p2888
I2
sS'improvisational'
p2889
I2
sS'232.4'
p2890
I2
sS'20,000'
p2891
I2
sS'hostile'
p2892
I5
sS'determining'
p2893
I2
sS'diminished'
p2894
I3
sS'mac'
p2895
I4
sS'times'
p2896
I6
sS'counterpart'
p2897
I2
sS'timed'
p2898
I2
sS'austin'
p2899
I3
sS'prospective'
p2900
I2
sS'succeeds'
p2901
I3
sS'zero-sum'
p2902
I2
sS'powerful'
p2903
I3
sS'unsupported'
p2904
I3
sS'cardiac'
p2905
I2
sS'drinker'
p2906
I3
sS'precisely'
p2907
I2
sS'quality'
p2908
I3
sS'management'
p2909
I13
sS'relations'
p2910
I7
sS'attach'
p2911
I2
sS'attack'
p2912
I4
sS'final'
p2913
I6
sS'exactly'
p2914
I3
sS'picturesquely'
p2915
I2
sS'counterespionage'
p2916
I2
sS'bassist'
p2917
I2
sS'manipulation'
p2918
I2
sS'fuzzy'
p2919
I2
sS'overwhelming'
p2920
I2
sS'outline'
p2921
I2
sS'venezuelan'
p2922
I2
sS'submitted'
p2923
I3
sS'claim'
p2924
I10
sS'providing'
p2925
I2
sS'distinguished'
p2926
I2
sS'borden'
p2927
I4
sS'julian'
p2928
I2
sS'unchanged'
p2929
I4
sS'chambers'
p2930
I2
sS'need'
p2931
I6
sS'border'
p2932
I2
sS'instrumentation'
p2933
I2
sS'pursued'
p2934
I2
sS'able'
p2935
I14
sS'arm'
p2936
I4
sS'instance'
p2937
I3
sS'relatives'
p2938
I2
sS'issuing'
p2939
I2
sS'declined'
p2940
I6
sS'ind.'
p2941
I2
sS'refocusing'
p2942
I2
sS'mileage'
p2943
I2
sS'duels'
p2944
I2
sS'passionately'
p2945
I2
sS'expires'
p2946
I2
sS'learns'
p2947
I2
sS'demise'
p2948
I2
sS'nuisance'
p2949
I2
sS'intrinsic'
p2950
I2
sS'132.00'
p2951
I2
sS'delivery'
p2952
I4
sS'consequences'
p2953
I3
sS'daiwa'
p2954
I2
sS'conventional-arms'
p2955
I3
sS'impression'
p2956
I3
sS'parker'
p2957
I2
sS'sent'
p2958
I6
sS'partners'
p2959
I4
sS'based'
p2960
I12
sS'earned'
p2961
I2
sS'('
I50
sS'winner'
p2962
I2
sS'employer'
p2963
I2
sS'bases'
p2964
I4
sS'employee'
p2965
I2
sS'employed'
p2966
I4
sS'michigan'
p2967
I3
sS'overall'
p2968
I6
sS'mgm'
p2969
I2
sS'sipping'
p2970
I2
sS'120'
p2971
I3
sS'joint'
p2972
I10
sS'122'
p2973
I2
sS'legitimate'
p2974
I2
sS'joins'
p2975
I3
sS'consecutive'
p2976
I3
sS'buyer'
p2977
I3
sS'kong'
p2978
I8
sS'procedures'
p2979
I3
sS'gray'
p2980
I2
sS'processes'
p2981
I2
sS'tobacco'
p2982
I3
sS'course'
p2983
I5
sS'evaders'
p2984
I2
sS'dpc'
p2985
I2
sS'overflowing'
p2986
I2
sS'grab'
p2987
I2
sS'computer'
p2988
I8
sS'usefulness'
p2989
I3
sS'desperate'
p2990
I2
sS'operated'
p2991
I2
sS'written'
p2992
I2
sS'tens'
p2993
I2
sS'neither'
p2994
I4
sS'sabotage'
p2995
I2
sS'comparable'
p2996
I4
sS'attention'
p2997
I4
sS'spares'
p2998
I2
sS'importance'
p2999
I2
sS'interfere'
p3000
I2
sS'efficiency'
p3001
I2
sS'key'
p3002
I4
sS'approval'
p3003
I5
sS'precious'
p3004
I2
sS'hits'
p3005
I3
sS'limits'
p3006
I6
sS'career'
p3007
I2
sS'minds'
p3008
I3
sS'admit'
p3009
I2
sS'jersey'
p3010
I4
sS'tuesday'
p3011
I9
sS'quit'
p3012
I2
sS'addition'
p3013
I5
sS'wills'
p3014
I2
sS'slowly'
p3015
I2
sS'industriale'
p3016
I2
sS'controlled'
p3017
I2
sS'league'
p3018
I8
sS'chivas'
p3019
I8
sS'bipartisan'
p3020
I2
sS'owns'
p3021
I7
sS'resident'
p3022
I2
sS'4.55'
p3023
I2
sS'7.160'
p3024
I2
sS'proceeds'
p3025
I4
sS'parts'
p3026
I4
sS'northwest'
p3027
I5
sS'party'
p3028
I7
sS'inc'
p3029
I9
sS'promoters'
p3030
I2
sS'appearances'
p3031
I2
sS'abounds'
p3032
I2
sS'compared'
p3033
I5
sS'frequently'
p3034
I2
sS'spree'
p3035
I2
sS'impeccable'
p3036
I2
sS'destruction'
p3037
I3
sS'transaction'
p3038
I10
sS'i'
I51
sS'modeled'
p3039
I2
sS'well'
p3040
I14
sS'standing-room-only'
p3041
I2
sS'spy-chaser'
p3042
I2
sS'evenhanded'
p3043
I2
sS'increasingly'
p3044
I4
sS'sources'
p3045
I3
sS'mistakes'
p3046
I2
sS'hess'
p3047
I4
sS'high-grade'
p3048
I3
sS'stock-picking'
p3049
I2
sS'deposits'
p3050
I3
sS'nato'
p3051
I8
sS'mitre'
p3052
I2
sS'sventek'
p3053
I3
sS'warrant'
p3054
I2
sS'canter'
p3055
I3
sS'ample'
p3056
I2
sS'devised'
p3057
I2
sS'crushed'
p3058
I2
sS'breach-of-contract'
p3059
I2
sS'historic'
p3060
I2
sS'267'
p3061
I2
sS'burden'
p3062
I3
sS'immediately'
p3063
I2
sS'prominent'
p3064
I2
sS'loss'
p3065
I3
sS'candu'
p3066
I2
sS'necessary'
p3067
I4
sS'lost'
p3068
I8
sS'teenagers'
p3069
I2
sS'stevenson'
p3070
I3
sS'clarinetist'
p3071
I4
sS'lose'
p3072
I6
sS'eurobond'
p3073
I2
sS'repeat'
p3074
I2
sS'cleveland'
p3075
I2
sS'home'
p3076
I16
sS'peter'
p3077
I6
sS'leery'
p3078
I2
sS'filers'
p3079
I4
sS'intersections'
p3080
I2
sS'?'
I19
sS'reaching'
p3081
I2
sS'journal'
p3082
I8
sS'monetary'
p3083
I2
sS'expansion'
p3084
I2
sS'ridley'
p3085
I2
sS'90,000'
p3086
I2
sS'unhinged'
p3087
I2
sS'freedom'
p3088
I4
sS'cleans'
p3089
I2
sS'recognized'
p3090
I3
sS'23.4'
p3091
I2
sS'equally'
p3092
I2
sS'previously'
p3093
I6
sS'political'
p3094
I11
sS'washington'
p3095
I8
sS'h.'
p3096
I2
sS'utility'
p3097
I3
sS'accused'
p3098
I5
sS'additional'
p3099
I4
sS'museum'
p3100
I2
sS'imperial'
p3101
I2
sS'inner'
p3102
I3
sS'north'
p3103
I7
sS'subjective'
p3104
I2
sS'goals'
p3105
I2
sS'courts'
p3106
I3
sS'highest'
p3107
I3
sS'25-year-old'
p3108
I2
sS's.p'
p3109
I4
sS'he'
p3110
I175
sS'signed'
p3111
I3
sS'converted'
p3112
I2
sS'limit'
p3113
I4
sS'piece'
p3114
I5
sS'display'
p3115
I2
sS'strengthens'
p3116
I2
sS'devise'
p3117
I3
sS'reservations'
p3118
I2
sS'tissues'
p3119
I2
sS'35549.44'
p3120
I2
sS'upsets'
p3121
I2
sS'education'
p3122
I3
sS'diego'
p3123
I2
sS'functions'
p3124
I2
sS'offensive'
p3125
I2
sS'policy-making'
p3126
I2
sS'trunkline'
p3127
I2
sS'disposing'
p3128
I2
sS'stay'
p3129
I4
sS'additionally'
p3130
I2
sS'deter'
p3131
I3
sS'friends'
p3132
I3
sS'persistent'
p3133
I2
sS'portion'
p3134
I3
sS'diagnosis'
p3135
I2
sS'theory-teaching'
p3136
I2
sS'moshe'
p3137
I2
sS'frankfurt'
p3138
I3
sS'retirees'
p3139
I2
sS'uzbekistan'
p3140
I2
sS'obstruction'
p3141
I2
sS'protest'
p3142
I5
sS'asian'
p3143
I4
sS'aides'
p3144
I6
sS'consists'
p3145
I2
sS'undersecretary'
p3146
I2
sS'captain'
p3147
I2
sS'whose'
p3148
I10
sS'buddy'
p3149
I2
sS'marcos'
p3150
I19
sS'swan'
p3151
I2
sS'swap'
p3152
I2
sS'flashpoint'
p3153
I2
sS'georgia'
p3154
I2
sS'reforms'
p3155
I4
sS'affect'
p3156
I5
sS'vast'
p3157
I2
sS'pilgrim'
p3158
I3
sS'moonies'
p3159
I3
sS'companies'
p3160
I15
sS'solution'
p3161
I3
sS'herbert'
p3162
I2
sS'convenience'
p3163
I2
sS'cholesterol'
p3164
I3
sS'heading'
p3165
I2
sS'force'
p3166
I9
sS'japanese'
p3167
I32
sS'likely'
p3168
I11
sS'tangential'
p3169
I2
sS'afl-cio'
p3170
I2
sS'even'
p3171
I31
sS'spouses'
p3172
I3
sS'asia'
p3173
I8
sS'spokesman'
p3174
I8
sS'liberated'
p3175
I2
sS'dr.'
p3176
I9
sS'new'
p3177
I93
sS'net'
p3178
I6
sS'ever'
p3179
I5
sS'deemed'
p3180
I2
sS'men'
p3181
I5
sS'disposable'
p3182
I2
sS'drew'
p3183
I3
sS'met'
p3184
I2
sS'102'
p3185
I2
sS'price-cutting'
p3186
I2
sS'100'
p3187
I8
sS'101'
p3188
I3
sS'contraction'
p3189
I2
sS'dry'
p3190
I2
sS'credit'
p3191
I6
sS'harass'
p3192
I2
sS'suitable'
p3193
I2
sS'avena'
p3194
I2
sS'besides'
p3195
I3
sS'campaign'
p3196
I6
sS'revenue-raising'
p3197
I2
sS'reagan'
p3198
I6
sS'county'
p3199
I2
sS'ninety'
p3200
I2
sS'moral'
p3201
I2
sS'guests'
p3202
I2
sS'criminals'
p3203
I2
sS'army'
p3204
I2
sS'arms'
p3205
I5
sS'call'
p3206
I4
sS'calm'
p3207
I2
sS'survive'
p3208
I3
sS'type'
p3209
I2
sS'tell'
p3210
I3
sS'supporters'
p3211
I2
sS'wary'
p3212
I2
sS'composite'
p3213
I3
sS'wars'
p3214
I2
sS'berlin'
p3215
I2
sS'warm'
p3216
I3
sS'adult'
p3217
I2
sS'aligned'
p3218
I2
sS'2.68'
p3219
I2
sS'rights'
p3220
I24
sS'gasoline'
p3221
I2
sS'movies'
p3222
I6
sS'laid-back'
p3223
I2
sS'akio'
p3224
I2
sS'give'
p3225
I11
sS'laughs'
p3226
I2
sS'lafalce'
p3227
I3
sS'involve'
p3228
I3
sS'10,000'
p3229
I4
sS'foods'
p3230
I2
sS'degenerate'
p3231
I2
sS'szeto'
p3232
I2
sS'advancing'
p3233
I2
sS'sideline'
p3234
I2
sS'amazing'
p3235
I3
sS'answer'
p3236
I3
sS'faulty'
p3237
I2
sS'aggressive'
p3238
I4
sS'undesirable'
p3239
I3
sS'minority'
p3240
I3
sS'vicious'
p3241
I2
sS'president'
p3242
I54
sS'purchase'
p3243
I12
sS'attempt'
p3244
I4
sS'third'
p3245
I10
sS'baa-1'
p3246
I2
sS'maintain'
p3247
I3
sS'fraudulently'
p3248
I2
sS'operate'
p3249
I2
sS'operations'
p3250
I8
sS'before'
p3251
I13
sS'position'
p3252
I7
sS'personal'
p3253
I11
sS'soaking'
p3254
I2
sS','
I1676
sS'better'
p3255
I10
sS'missionary'
p3256
I2
sS'accusatory'
p3257
I2
sS'weeks'
p3258
I9
sS'overcome'
p3259
I2
sS'dec.'
p3260
I5
sS'unemployed'
p3261
I2
sS'academics'
p3262
I2
sS'therapy'
p3263
I3
sS'pollution-control'
p3264
I3
sS'arrested'
p3265
I2
sS'schieffelin'
p3266
I2
sS'fringes'
p3267
I2
sS'went'
p3268
I5
sS'side'
p3269
I7
sS'bond'
p3270
I8
sS'principles'
p3271
I3
sS'marital'
p3272
I6
sS'milan'
p3273
I3
sS'trading'
p3274
I12
sS'stealing'
p3275
I2
sS'clauses'
p3276
I2
sS'contend'
p3277
I3
sS'velvet'
p3278
I2
sS'second-level'
p3279
I2
sS'content'
p3280
I3
sS'surprise'
p3281
I3
sS'venezuela'
p3282
I3
sS'tashi'
p3283
I3
sS'turning'
p3284
I4
sS'u.s.'
p3285
I78
sS'ramos'
p3286
I2
sS'garrett'
p3287
I2
sS'starts'
p3288
I2
sS'signature'
p3289
I2
sS'stewart'
p3290
I3
sS'features'
p3291
I3
sS'economists'
p3292
I3
sS'reassure'
p3293
I2
sS'comforted'
p3294
I2
sS'executions'
p3295
I3
sS'featured'
p3296
I3
sS'plurality'
p3297
I2
sS'feb.'
p3298
I3
sS'38-year-old'
p3299
I2
sS'overstating'
p3300
I2
sS'woodwind'
p3301
I2
sS'burgess'
p3302
I2
sS'hollywood'
p3303
I2
sS'digs'
p3304
I2
sS'georgia-pacific'
p3305
I2
sS'somewhat'
p3306
I2
sS'begins'
p3307
I2
sS'distance'
p3308
I3
sS'anxiety'
p3309
I2
sS'matter'
p3310
I4
sS'street'
p3311
I8
sS'divisiveness'
p3312
I2
sS'enables'
p3313
I2
sS'bidder'
p3314
I4
sS'sees'
p3315
I2
sS'chickens'
p3316
I2
sS'mind'
p3317
I2
sS'mine'
p3318
I2
sS'seen'
p3319
I2
sS'seem'
p3320
I4
sS'seek'
p3321
I6
sS'tells'
p3322
I2
sS'jealously'
p3323
I2
sS'50.46'
p3324
I2
sS'transnational'
p3325
I2
sS'gabele'
p3326
I2
sS'regular'
p3327
I2
sS'holliger'
p3328
I2
sS'maria'
p3329
I2
sS'zealand'
p3330
I11
sS'don'
p3331
I2
sS'alarm'
p3332
I2
sS'points'
p3333
I7
sS'principle'
p3334
I3
sS'consumer'
p3335
I5
sS'dow'
p3336
I3
sS'retire'
p3337
I3
sS'liberty'
p3338
I5
sS'stepping'
p3339
I2
sS'trade-off'
p3340
I2
sS'explain'
p3341
I2
sS'debts'
p3342
I4
sS'integrate'
p3343
I2
sS'jailed'
p3344
I2
sS'exports'
p3345
I2
sS'stop'
p3346
I2
sS'coast'
p3347
I3
sS'christopher'
p3348
I2
sS'765'
p3349
I2
sS'u.n.'
p3350
I4
sS'tymnet'
p3351
I2
sS'earl'
p3352
I2
sS'earn'
p3353
I2
sS'bar'
p3354
I2
sS'17'
p3355
I5
sS'fields'
p3356
I2
sS'bay'
p3357
I4
sS'ban'
p3358
I2
sS'ethical'
p3359
I2
sS'fascinating'
p3360
I2
sS'testing'
p3361
I2
sS'allure'
p3362
I2
sS'subject'
p3363
I6
sS'brazil'
p3364
I3
sS'said'
p3365
I183
sS'fastballs'
p3366
I2
sS'continent'
p3367
I2
sS'2120.5'
p3368
I2
sS'tolerance'
p3369
I2
sS'anti-western'
p3370
I2
sS'gems'
p3371
I2
sS'juxtapose'
p3372
I2
sS'vows'
p3373
I2
sS'vernon'
p3374
I2
sS'picking'
p3375
I2
sS'suggested'
p3376
I3
sS'disorderly'
p3377
I2
sS'resistant'
p3378
I2
sS'uncertainty'
p3379
I2
sS'against'
p3380
I36
sS'nekoosa'
p3381
I2
sS'appeared'
p3382
I2
sS'tiant'
p3383
I3
sS'ballparks'
p3384
I2
sS'initiative'
p3385
I2
sS'39.125'
p3386
I2
sS'puts'
p3387
I3
sS'basis'
p3388
I4
sS'three'
p3389
I19
sS'particulars'
p3390
I2
sS'commission'
p3391
I9
sS'interest'
p3392
I22
sS'basic'
p3393
I3
sS'basin'
p3394
I2
sS'lovely'
p3395
I3
sS'threw'
p3396
I3
sS'deeper'
p3397
I2
sS'mci'
p3398
I2
sS'dismiss'
p3399
I2
sS'fireballs'
p3400
I2
sS'personally'
p3401
I3
sS'aviation'
p3402
I2
sS'tank'
p3403
I2
sS'oboist'
p3404
I2
sS'economies'
p3405
I4
sS'ventures'
p3406
I3
sS'near'
p3407
I5
sS'suppose'
p3408
I2
sS'balance'
p3409
I3
sS'employees'
p3410
I8
sS'seven'
p3411
I4
sS'changed'
p3412
I3
sS'metropolitan'
p3413
I3
sS'is'
p3414
I230
sS'it'
p3415
I184
sS'ii'
p3416
I2
sS'in'
p3417
I550
sS'80,000'
p3418
I2
sS'if'
p3419
I46
sS'bottles'
p3420
I3
sS'make'
p3421
I31
sS'stickier'
p3422
I2
sS'sidelines'
p3423
I3
sS'meets'
p3424
I3
sS'human-rights'
p3425
I2
sS'delight'
p3426
I3
sS'kim'
p3427
I3
sS'opportunity'
p3428
I4
sS'kid'
p3429
I2
sS'butter'
p3430
I3
sS'waggishly'
p3431
I2
sS'practiced'
p3432
I2
sS'programs'
p3433
I9
sS'settled'
p3434
I3
sS'stimuli'
p3435
I2
sS'materials'
p3436
I2
sS'claims'
p3437
I7
sS'800'
p3438
I4
sS'investments'
p3439
I9
sS'left'
p3440
I7
sS'gov.'
p3441
I2
sS'protocol'
p3442
I2
sS'just'
p3443
I22
sS'sentence'
p3444
I2
sS'sporting'
p3445
I2
sS'human'
p3446
I4
sS'yet'
p3447
I8
sS'yew'
p3448
I2
sS'candidate'
p3449
I2
sS'save'
p3450
I2
sS'jahn'
p3451
I3
sS'braumeisters'
p3452
I2
sS'supervisors'
p3453
I2
sS'background'
p3454
I2
sS'destroy'
p3455
I2
sS'dignity'
p3456
I2
sS'profit-seeking'
p3457
I2
sS'unnecessary'
p3458
I3
sS'dean'
p3459
I2
sS'deal'
p3460
I6
sS'somehow'
p3461
I3
sS'short-term'
p3462
I6
sS'shapes'
p3463
I2
sS'unfit'
p3464
I2
sS'theatre'
p3465
I2
sS'78.64'
p3466
I2
sS'outspoken'
p3467
I2
sS'motor-control'
p3468
I3
sS'bold'
p3469
I2
sS'bank-backed'
p3470
I2
sS'burn'
p3471
I2
sS'confrontation'
p3472
I3
sS'magazine'
p3473
I4
sS'afternoon'
p3474
I4
sS'automatically'
p3475
I4
sS'nerve'
p3476
I4
sS'motivate'
p3477
I2
sS'managers'
p3478
I5
sS'formerly'
p3479
I4
sS'amounted'
p3480
I2
sS'down'
p3481
I25
sS'thinned'
p3482
I2
sS'amsterdam'
p3483
I2
sS'flying'
p3484
I3
sS'editor'
p3485
I4
sS'zayadi'
p3486
I3
sS'at-bat'
p3487
I2
sS'bert'
p3488
I2
sS'chiappa'
p3489
I2
sS'offering'
p3490
I6
sS'immorality'
p3491
I2
sS'batman'
p3492
I3
sS'ford'
p3493
I2
sS'failure'
p3494
I4
sS'martex'
p3495
I2
sS'225'
p3496
I2
sS'analyst'
p3497
I4
sS'stages'
p3498
I3
sS'long-distance'
p3499
I2
sS'covers'
p3500
I2
sS'sale'
p3501
I13
sS'marking'
p3502
I2
sS'million-dollar'
p3503
I2
sS'generally'
p3504
I5
sS'exporter'
p3505
I2
sS'dies'
p3506
I3
sS'felt'
p3507
I4
sS'utilities'
p3508
I2
sS'fell'
p3509
I6
sS'resurfaced'
p3510
I2
sS'authorities'
p3511
I3
sS'weekend'
p3512
I2
sS'died'
p3513
I7
sS'billion'
p3514
I37
sS'assume'
p3515
I5
sS'annuity'
p3516
I3
sS'daily'
p3517
I5
sS'parcels'
p3518
I2
sS'profits'
p3519
I5
sS'overdue'
p3520
I3
sS'managed'
p3521
I3
sS'walking'
p3522
I2
sS'invent'
p3523
I2
sS'manager'
p3524
I8
sS'mile'
p3525
I3
sS'leche'
p3526
I4
sS'mill'
p3527
I2
sS'milk'
p3528
I10
sS'anticipation'
p3529
I2
sS'757-200s'
p3530
I3
sS'disorders'
p3531
I2
sS'technique'
p3532
I3
sS'father'
p3533
I3
sS'editors'
p3534
I2
sS'finally'
p3535
I4
sS'unpleasant'
p3536
I2
sS'marks'
p3537
I4
sS'misstatements'
p3538
I2
sS'advises'
p3539
I2
sS'keck'
p3540
I2
sS'string'
p3541
I2
sS'1990'
p3542
I6
sS'lynch'
p3543
I2
sS'uneventful'
p3544
I2
sS'66-year-old'
p3545
I2
sS'governments'
p3546
I7
sS'did'
p3547
I23
sS'permits'
p3548
I2
sS'proposals'
p3549
I6
sS'magnet'
p3550
I4
sS'item'
p3551
I2
sS'59-dealer'
p3552
I2
sS'attracting'
p3553
I3
sS'unexpected'
p3554
I2
sS'dealing'
p3555
I2
sS'telerate'
p3556
I3
sS'stamford'
p3557
I2
sS'run'
p3558
I5
sS'targets'
p3559
I2
sS'21.44'
p3560
I2
sS'majors'
p3561
I5
sS'adds'
p3562
I3
sS'page-one'
p3563
I2
sS'norris'
p3564
I4
sS'10-point'
p3565
I2
sS'international'
p3566
I19
sS'growls'
p3567
I2
sS'proclaiming'
p3568
I2
sS'transportation'
p3569
I3
sS'wain'
p3570
I2
sS'wail'
p3571
I2
sS'involuntarily'
p3572
I2
sS'french'
p3573
I3
sS'corporation'
p3574
I8
sS'polyrhythms'
p3575
I2
sS'dewar'
p3576
I2
sS'earthquake'
p3577
I3
sS'box'
p3578
I2
sS'cuckoo'
p3579
I4
sS'canadian'
p3580
I11
sS'institute'
p3581
I3
sS'salvage'
p3582
I2
sS'suggestion'
p3583
I2
sS'priceless'
p3584
I2
sS'taipei'
p3585
I2
sS'adjustable'
p3586
I3
sS'useful'
p3587
I4
sS'merely'
p3588
I3
sS'elixir'
p3589
I2
sS'licensing'
p3590
I2
sS'spring-early'
p3591
I2
sS'panhandle'
p3592
I3
sS'sympathetic'
p3593
I2
sS'estate'
p3594
I11
sS'france'
p3595
I3
sS'creamy'
p3596
I2
sS'black'
p3597
I8
sS'sharing'
p3598
I2
sS'fine-tuned'
p3599
I2
sS'acceptable'
p3600
I2
sS'realty'
p3601
I2
sS'non-``'
p3602
I2
sS'fly'
p3603
I2
sS'tokyo'
p3604
I10
sS'soul'
p3605
I2
sS'wallet'
p3606
I2
sS'growing'
p3607
I7
sS'making'
p3608
I10
sS'carolina'
p3609
I3
sS'lords'
p3610
I2
sS'uruguay'
p3611
I2
sS'lobbying'
p3612
I2
sS'agent'
p3613
I2
sS'pointedly'
p3614
I2
sS'non-invasive'
p3615
I3
sS'council'
p3616
I3
sS'spanning'
p3617
I2
sS'range'
p3618
I5
sS'galbani'
p3619
I2
sS'chemical'
p3620
I2
sS'pure'
p3621
I2
sS'tile'
p3622
I2
sS'sworn'
p3623
I3
sS'inputs'
p3624
I2
sS'145'
p3625
I2
sS'140'
p3626
I2
sS'critics'
p3627
I5
sS'149'
p3628
I2
sS'membership'
p3629
I5
sS'mae'
p3630
I8
sS'designed'
p3631
I4
sS'epileptics'
p3632
I2
sS'aisles'
p3633
I2
sS'grow'
p3634
I4
sS'pressuring'
p3635
I2
sS'man'
p3636
I6
sS'hannover'
p3637
I2
sS'neck'
p3638
I2
sS'johnson'
p3639
I4
sS'maybe'
p3640
I5
sS'borrowing'
p3641
I2
sS'tale'
p3642
I3
sS'switch'
p3643
I2
sS'deposit'
p3644
I5
sS'african'
p3645
I4
sS'talk'
p3646
I5
sS'nearly'
p3647
I8
sS'shoes'
p3648
I2
sS'canberra'
p3649
I2
sS'seeing'
p3650
I3
sS'wishing'
p3651
I2
sS'argues'
p3652
I2
sS'cuts'
p3653
I2
sS'argued'
p3654
I6
sS'group'
p3655
I30
sS'monitor'
p3656
I4
sS'interesting'
p3657
I2
sS'undermined'
p3658
I2
sS'policy'
p3659
I7
sS'mail'
p3660
I5
sS'mcenaney'
p3661
I3
sS'main'
p3662
I3
sS'texas'
p3663
I15
sS'finance'
p3664
I8
sS'views'
p3665
I3
sS'impulses'
p3666
I3
sS'undisclosed'
p3667
I2
sS'sooner'
p3668
I2
sS'killed'
p3669
I2
sS'attorneys'
p3670
I3
sS'careless'
p3671
I2
sS'rock'
p3672
I2
sS'scolded'
p3673
I2
sS'zurich'
p3674
I2
sS'whirlwinds'
p3675
I2
sS'relive'
p3676
I2
sS'canada'
p3677
I11
sS'living'
p3678
I2
sS'nominal'
p3679
I2
sS'correct'
p3680
I2
sS'earlier'
p3681
I16
sS'mercantile'
p3682
I2
sS'hefty'
p3683
I2
sS'wildbad'
p3684
I2
sS'california'
p3685
I7
sS'keith'
p3686
I2
sS'220,000'
p3687
I2
sS'advance'
p3688
I3
sS'carnival'
p3689
I2
sS'suisse'
p3690
I2
sS'thing'
p3691
I4
sS'think'
p3692
I10
sS'frequent'
p3693
I5
sS'first'
p3694
I30
sS'exotic'
p3695
I2
sS'americans'
p3696
I7
sS'fast'
p3697
I3
sS'suspended'
p3698
I2
sS'carry'
p3699
I6
sS'corporations'
p3700
I9
sS'sounds'
p3701
I2
sS'rome'
p3702
I2
sS'little'
p3703
I9
sS'slept'
p3704
I2
sS'anyone'
p3705
I4
sS'speaking'
p3706
I2
sS'eyes'
p3707
I2
sS'allegedly'
p3708
I3
sS'moscow'
p3709
I7
sS'pompano'
p3710
I2
sS'sequels'
p3711
I2
sS'ricca'
p3712
I2
sS'once-cozy'
p3713
I2
sS'bio-analytical'
p3714
I2
sS'11'
p3715
I7
sS'10'
p3716
I25
sS'13'
p3717
I5
sS'12'
p3718
I6
sS'15'
p3719
I15
sS'14'
p3720
I4
sS'sailing'
p3721
I2
sS'16'
p3722
I2
sS'19'
p3723
I7
sS'18'
p3724
I5
sS'protected'
p3725
I2
sS'venture'
p3726
I8
sS'were'
p3727
I63
sS'gathering'
p3728
I2
sS'briefs'
p3729
I2
sS'voices'
p3730
I3
sS'conspiracy'
p3731
I2
sS'pastry'
p3732
I4
sS'stigma'
p3733
I2
sS'warsaw'
p3734
I5
sS'potential'
p3735
I9
sS'performance'
p3736
I7
sS'1,250'
p3737
I2
sS'channel'
p3738
I2
sS'200'
p3739
I2
sS'norman'
p3740
I2
sS'trace'
p3741
I2
sS'normal'
p3742
I2
sS'208'
p3743
I2
sS'paid'
p3744
I8
sS'sheets'
p3745
I2
sS'pair'
p3746
I2
sS'tracy'
p3747
I2
sS'proxies'
p3748
I2
sS'12,500'
p3749
I2
sS'especially'
p3750
I2
sS'172.5'
p3751
I2
sS'obligatto'
p3752
I2
sS'georgeson'
p3753
I2
sS'rating'
p3754
I6
sS'show'
p3755
I9
sS'contemporary'
p3756
I4
sS'rep.'
p3757
I6
sS'cambodian'
p3758
I3
sS'forecast'
p3759
I2
sS'dice'
p3760
I2
sS'enough'
p3761
I4
sS'lorenzo'
p3762
I2
sS'treasury'
p3763
I18
sS'awareness'
p3764
I2
sS'ranking'
p3765
I2
sS'savoring'
p3766
I2
sS'get'
p3767
I17
sS'contracts'
p3768
I4
sS'employers'
p3769
I3
sS'hailed'
p3770
I2
sS'procreation'
p3771
I2
sS'conjunction'
p3772
I2
sS'secondary'
p3773
I3
sS'yield'
p3774
I11
sS'morning'
p3775
I3
sS'stupid'
p3776
I2
sS'audited'
p3777
I2
sS'declared'
p3778
I2
sS'seat'
p3779
I2
sS'j.'
p3780
I8
sS'unaltered'
p3781
I2
sS'wonder'
p3782
I3
sS'kuehn'
p3783
I4
sS'label'
p3784
I3
sS'behind'
p3785
I4
sS'metromedia-itt'
p3786
I2
sS'geometric'
p3787
I2
sS'reading'
p3788
I2
sS'across'
p3789
I4
sS'infrastructure'
p3790
I2
sS'august'
p3791
I8
sS'parent'
p3792
I3
sS'signaled'
p3793
I2
sS'oberstar'
p3794
I2
sS'dates'
p3795
I2
sS'trades'
p3796
I3
sS'according'
p3797
I12
sS'sketchy'
p3798
I2
sS'marietta'
p3799
I3
sS'patrons'
p3800
I2
sS'holders'
p3801
I4
sS'traded'
p3802
I3
sS'among'
p3803
I15
sS'maintained'
p3804
I2
sS'specializing'
p3805
I2
sS'mare'
p3806
I2
sS'arts'
p3807
I2
sS'capable'
p3808
I2
sS'mark'
p3809
I2
sS'cecelia'
p3810
I2
sS'shopping'
p3811
I2
sS'offered'
p3812
I15
sS'cattrall'
p3813
I2
sS'dramatic'
p3814
I2
sS'wake'
p3815
I3
sS'declaration'
p3816
I2
sS'prof.'
p3817
I2
sS'odyssey'
p3818
I2
sS'those'
p3819
I27
sS'sound'
p3820
I2
sS'predicament'
p3821
I2
sS'stacked'
p3822
I2
sS'6.056'
p3823
I2
sS"n't"
p3824
I110
sS'warning'
p3825
I2
sS'margin'
p3826
I3
sS'inadvertence'
p3827
I2
sS'conferences'
p3828
I5
sS'interest-bearing'
p3829
I2
sS'sincere'
p3830
I2
sS'pressing'
p3831
I2
sS'tourist'
p3832
I3
sS'different'
p3833
I8
sS'harsh'
p3834
I2
sS'pay'
p3835
I27
sS'edwin'
p3836
I2
sS'same'
p3837
I6
sS'thinning'
p3838
I2
sS'speech'
p3839
I2
sS'arguments'
p3840
I4
sS'1900s'
p3841
I2
sS'buy-outs'
p3842
I2
sS'amenable'
p3843
I2
sS'running'
p3844
I4
sS'totally'
p3845
I5
sS'drain'
p3846
I3
sS'largely'
p3847
I6
sS'markus'
p3848
I3
sS'wellington'
p3849
I6
sS'mortgages'
p3850
I13
sS'accountable'
p3851
I2
sS'bottle'
p3852
I2
sS'pa.'
p3853
I3
sS'bromley'
p3854
I3
sS'monet'
p3855
I2
sS'asset-backed'
p3856
I2
sS'flier'
p3857
I2
sS'money'
p3858
I25
sS'adjustments'
p3859
I3
sS'leeway'
p3860
I2
sS'multiples'
p3861
I2
sS'statesmen'
p3862
I2
sS'dipped'
p3863
I2
sS'trespasses'
p3864
I2
sS'4'
I6
sS'preflight'
p3865
I2
sS'pill'
p3866
I12
sS'safeguarded'
p3867
I2
sS'grip'
p3868
I2
sS'jake'
p3869
I2
sS'credentials'
p3870
I2
sS'railroad'
p3871
I2
sS'disappointed'
p3872
I4
sS'christina'
p3873
I2
sS'acquainted'
p3874
I2
sS'serves'
p3875
I2
sS"'ve"
p3876
I5
sS'chamber'
p3877
I4
sS'audience'
p3878
I8
sS'either'
p3879
I6
sS'retailers'
p3880
I3
sS'served'
p3881
I3
sS'voluntarily'
p3882
I2
sS'tator'
p3883
I3
sS'pittsburg'
p3884
I2
sS'imprisonment'
p3885
I2
sS'specified'
p3886
I2
sS'images'
p3887
I3
sS'gross'
p3888
I2
sS'staffs'
p3889
I2
sS'measuring'
p3890
I2
sS'considering'
p3891
I6
sS'underwriters'
p3892
I2
sS'notable'
p3893
I2
sS'broker'
p3894
I2
sS'conducting'
p3895
I4
sS'80%-owned'
p3896
I2
sS'40,800'
p3897
I2
sS'airline'
p3898
I8
sS'mounting'
p3899
I2
sS'mixed'
p3900
I3
sS'metaphors'
p3901
I2
sS'coupon'
p3902
I2
sS'spreading'
p3903
I2
sS'references'
p3904
I2
sS'gomez'
p3905
I4
sS'spring-training'
p3906
I2
sS'tycoon'
p3907
I2
sS'arranged'
p3908
I2
sS'co-chief'
p3909
I3
sS'grudging'
p3910
I2
sS'1.76'
p3911
I2
sS'manuel'
p3912
I2
sS'deep'
p3913
I5
sS'fellow'
p3914
I2
sS'examine'
p3915
I3
sS'file'
p3916
I7
sS'fill'
p3917
I2
sS'again'
p3918
I6
sS'retiring'
p3919
I2
sS'drivers'
p3920
I2
sS'narcotics'
p3921
I2
sS'field'
p3922
I9
sS'outfield'
p3923
I2
sS'4,000'
p3924
I2
sS'students'
p3925
I3
sS'important'
p3926
I4
sS'brands'
p3927
I7
sS'prudent'
p3928
I2
sS'assets'
p3929
I9
sS'represent'
p3930
I2
sS'suny'
p3931
I3
sS'founder'
p3932
I3
sS'suns'
p3933
I4
sS'dollar'
p3934
I9
sS'founded'
p3935
I3
sS'cooperative'
p3936
I2
sS'talks'
p3937
I16
sS'reluctant'
p3938
I2
sS'modernization'
p3939
I2
sS'preserved'
p3940
I2
sS'mandela'
p3941
I2
sS'premium'
p3942
I4
sS'fall'
p3943
I4
sS'difference'
p3944
I2
sS'imperialists'
p3945
I2
sS'celebrity'
p3946
I2
sS'wsj'
p3947
I3
sS'worded'
p3948
I2
sS'donovan'
p3949
I3
sS'economically'
p3950
I3
sS'20th'
p3951
I2
sS'neighborhood'
p3952
I2
sS'portable'
p3953
I2
sS'solicitations'
p3954
I2
sS'anti-abortionists'
p3955
I2
sS'ritter'
p3956
I2
sS'7*slashhere*8'
p3957
I6
sS'perception'
p3958
I2
sS'perspective'
p3959
I2
sS'lawyer'
p3960
I5
sS'further'
p3961
I5
sS'ziyang'
p3962
I2
sS'stood'
p3963
I2
sS'opted'
p3964
I2
sS'public'
p3965
I13
sS'movement'
p3966
I9
sS'ranged'
p3967
I3
sS'component'
p3968
I2
sS'ranges'
p3969
I2
sS'operating'
p3970
I8
sS'campaigns'
p3971
I2
sS'900'
p3972
I4
sS'prosecutors'
p3973
I4
sS'airport'
p3974
I3
sS'published'
p3975
I3
sS'milks'
p3976
I2
sS'whimsical'
p3977
I2
sS'tiananmen'
p3978
I3
sS'cowardly'
p3979
I2
sS'africa'
p3980
I2
sS'establish'
p3981
I2
sS'legislator'
p3982
I2
sS'readily'
p3983
I2
sS'shareholders'
p3984
I12
sS'twa'
p3985
I2
sS'eye'
p3986
I2
sS'uniformity'
p3987
I2
sS'two'
p3988
I66
sS'libel'
p3989
I3
sS'achieving'
p3990
I2
sS'pawing'
p3991
I2
sS'chortled'
p3992
I2
sS'leonard'
p3993
I2
sS'controlling'
p3994
I2
sS'none'
p3995
I5
sS'hour'
p3996
I9
sS'recall'
p3997
I2
sS'phrasing'
p3998
I2
sS'dei'
p3999
I2
sS'remain'
p4000
I6
sS'del'
p4001
I3
sS'subterfuge'
p4002
I2
sS'abandon'
p4003
I2
sS'strategies'
p4004
I3
sS'eichof'
p4005
I2
sS'marble'
p4006
I2
sS'purchases'
p4007
I8
sS'share'
p4008
I30
sS'minimum'
p4009
I7
sS'purchased'
p4010
I3
sS'sharp'
p4011
I3
sS'narrowly'
p4012
I2
sS'needs'
p4013
I4
sS'subminimum'
p4014
I4
sS'plans'
p4015
I9
sS'comfort'
p4016
I3
sS'morning-session'
p4017
I2
sS'advice'
p4018
I3
sS'par'
p4019
I2
sS'deprogrammings'
p4020
I2
sS'coming'
p4021
I5
sS'deukmejian'
p4022
I2
sS'crippling'
p4023
I2
sS'playing'
p4024
I5
sS'rifles'
p4025
I2
sS'rounded'
p4026
I2
sS'ashurst'
p4027
I5
sS'azerbaijan'
p4028
I2
sS'u.s.-soviet'
p4029
I2
sS'industrial'
p4030
I9
sS'through'
p4031
I16
sS'deterring'
p4032
I2
sS'24'
p4033
I4
sS'25'
p4034
I7
sS'26'
p4035
I3
sS'27'
p4036
I2
sS'20'
p4037
I8
sS'21'
p4038
I2
sS'22'
p4039
I2
sS'shortstop'
p4040
I2
sS'28'
p4041
I3
sS'29'
p4042
I3
sS'late'
p4043
I12
sS'detected'
p4044
I2
sS'penn'
p4045
I2
sS'hurting'
p4046
I2
sS'good'
p4047
I15
sS'seeking'
p4048
I7
sS'males'
p4049
I2
sS'socially'
p4050
I2
sS'formulating'
p4051
I3
sS'embezzled'
p4052
I2
sS'association'
p4053
I11
sS'mystery'
p4054
I2
sS'easily'
p4055
I3
sS'65.7'
p4056
I2
sS'habits'
p4057
I3
sS'repeating'
p4058
I3
sS'14-judge'
p4059
I2
sS'harm'
p4060
I3
sS'everyone'
p4061
I3
sS'house'
p4062
I27
sS'energy'
p4063
I5
sS'hard'
p4064
I6
sS'idea'
p4065
I6
sS'oil'
p4066
I4
sS'connect'
p4067
I2
sS'insurance'
p4068
I6
sS'initiatives'
p4069
I2
sS'uninvited'
p4070
I2
sS'creditor'
p4071
I3
sS's.a.'
p4072
I3
sS'projected'
p4073
I2
sS'participants'
p4074
I5
sS'longtime'
p4075
I3
sS'1.78'
p4076
I2
sS'disobedience'
p4077
I15
sS'crouched'
p4078
I2
sS'lawrence'
p4079
I3
sS'paschi'
p4080
I2
sS'backer'
p4081
I7
sS'mikhail'
p4082
I4
sS'extraordinary'
p4083
I4
sS'members'
p4084
I10
sS'backed'
p4085
I6
sS'beginning'
p4086
I6
sS'benefits'
p4087
I3
sS'computers'
p4088
I11
sS'diversion'
p4089
I2
sS'conducted'
p4090
I2
sS'pilots'
p4091
I21
sS'dons'
p4092
I2
sS'mistakenly'
p4093
I3
sS'done'
p4094
I7
sS'embraced'
p4095
I2
sS'wages'
p4096
I2
sS'heights'
p4097
I2
sS'least'
p4098
I7
sS'obligatory'
p4099
I2
sS'regulation'
p4100
I2
sS'statement'
p4101
I5
sS'compromise'
p4102
I13
sS'shahal'
p4103
I2
sS'lease'
p4104
I3
sS'muscles'
p4105
I3
sS'favorably'
p4106
I2
sS'wildly'
p4107
I2
sS'sensation'
p4108
I2
sS'sizable'
p4109
I2
sS'part'
p4110
I18
sS'doctors'
p4111
I3
sS'believe'
p4112
I7
sS'stirs'
p4113
I2
sS'869'
p4114
I2
sS'mclaughlin'
p4115
I4
sS'b'
I2
sS'gotten'
p4116
I2
sS'businesslike'
p4117
I3
sS'youth'
p4118
I3
sS'wako'
p4119
I2
sS'chanted'
p4120
I3
sS'lilting'
p4121
I2
sS'aug.'
p4122
I2
sS'orders'
p4123
I2
sS'collateralized'
p4124
I3
sS'built'
p4125
I5
sS'depending'
p4126
I2
sS'gorbachev'
p4127
I15
sS'majority'
p4128
I5
sS'appellate'
p4129
I2
sS'build'
p4130
I10
sS'province'
p4131
I2
sS'eggs'
p4132
I3
sS'most'
p4133
I32
sS'significant'
p4134
I7
sS'services'
p4135
I10
sS'extremely'
p4136
I3
sS'kiddies'
p4137
I3
sS'charitable'
p4138
I3
sS'joining'
p4139
I3
sS'gdp'
p4140
I3
sS'thomas'
p4141
I2
sS'directorate'
p4142
I3
sS'particularly'
p4143
I3
sS'disturbances'
p4144
I2
sS'obligations'
p4145
I2
sS'commissions'
p4146
I6
sS'businesses'
p4147
I10
sS'carefully'
p4148
I2
sS'find'
p4149
I3
sS'giant'
p4150
I2
sS'merger'
p4151
I4
sS'unhappy'
p4152
I2
sS'generators'
p4153
I2
sS'override'
p4154
I3
sS'8'
I25
sS'distributes'
p4155
I2
sS'merged'
p4156
I2
sS'permission'
p4157
I3
sS'express'
p4158
I9
sS'theft'
p4159
I3
sS'merchandise'
p4160
I3
sS'resolve'
p4161
I5
sS'alisarda'
p4162
I2
sS'testifying'
p4163
I2
sS'six-month'
p4164
I7
sS'redefined'
p4165
I2
sS'common'
p4166
I7
sS'restaurants'
p4167
I3
sS'natural-resources'
p4168
I2
sS'opposing'
p4169
I3
sS'marston'
p4170
I3
sS'individual'
p4171
I5
sS'tender'
p4172
I2
sS'feared'
p4173
I2
sS'repairs'
p4174
I2
sS'1,214'
p4175
I2
sS'143,800'
p4176
I2
sS'please'
p4177
I2
sS'fans'
p4178
I6
sS'burned'
p4179
I2
sS'dividends'
p4180
I4
sS'environmentalists'
p4181
I2
sS'labella'
p4182
I2
sS'aircraft'
p4183
I7
sS'scuttle'
p4184
I2
sS'defunct'
p4185
I3
sS'restaurant'
p4186
I3
sS'powers'
p4187
I2
sS'annual'
p4188
I8
sS'foreign'
p4189
I24
sS'upgraded'
p4190
I2
sS'7.875'
p4191
I2
sS'point'
p4192
I5
sS'simple'
p4193
I2
sS'prosecuting'
p4194
I2
sS'ga.'
p4195
I2
sS'tennessee'
p4196
I2
sS'simply'
p4197
I4
sS'throughout'
p4198
I3
sS'expensive'
p4199
I2
sS'headaches'
p4200
I2
sS'raise'
p4201
I11
sS'create'
p4202
I4
sS'rivals'
p4203
I2
sS'ireland'
p4204
I2
sS'meeting'
p4205
I28
sS'assorted'
p4206
I2
sS'gas'
p4207
I6
sS'gap'
p4208
I2
sS'repertoire'
p4209
I3
sS'non-russian'
p4210
I2
sS'understand'
p4211
I4
sS'prices'
p4212
I13
sS'replaces'
p4213
I2
sS'classifications'
p4214
I2
sS'solid'
p4215
I2
sS'bill'
p4216
I23
sS'elections'
p4217
I5
sS'denominations'
p4218
I2
sS'fun'
p4219
I3
sS'advising'
p4220
I2
sS'adjusts'
p4221
I2
sS'century'
p4222
I4
sS'cents'
p4223
I18
sS'violently'
p4224
I2
sS'audience-friendly'
p4225
I2
sS'itself'
p4226
I4
sS'okla.'
p4227
I2
sS'all-important'
p4228
I2
sS'italy'
p4229
I7
sS'sociologist'
p4230
I2
sS'benign'
p4231
I2
sS'discourse'
p4232
I2
sS'development'
p4233
I5
sS'forced'
p4234
I2
sS'yesterday'
p4235
I17
sS'moment'
p4236
I4
sS'purpose'
p4237
I4
sS'spent'
p4238
I5
sS'swiss'
p4239
I2
sS'organization'
p4240
I4
sS'spend'
p4241
I2
sS'preference'
p4242
I2
sS'one-year'
p4243
I5
sS'junk-bond'
p4244
I2
sS'distracting'
p4245
I2
sS'openly'
p4246
I2
sS'unesco'
p4247
I9
sS'alternative'
p4248
I4
sS'predominantly'
p4249
I2
sS'timber'
p4250
I2
sS'letting'
p4251
I3
sS'fullscale'
p4252
I2
sS'cut'
p4253
I12
sS'cup'
p4254
I3
sS'source'
p4255
I4
sS'snap'
p4256
I2
sS'administrative'
p4257
I3
sS'big'
p4258
I9
sS'bid'
p4259
I5
sS'jerked'
p4260
I2
sS'matters'
p4261
I4
sS'foreigners'
p4262
I4
sS'bit'
p4263
I2
sS'knock'
p4264
I2
sS'follows'
p4265
I4
sS'alltel'
p4266
I4
sS'glove'
p4267
I2
sS'jolted'
p4268
I2
sS'54.5'
p4269
I2
sS'often'
p4270
I5
sS'obliged'
p4271
I2
sS'30s'
p4272
I2
sS'grass-roots'
p4273
I2
sS'bach'
p4274
I3
sS'2,750'
p4275
I2
sS'delegation'
p4276
I2
sS'pricing'
p4277
I3
sS'vietnamese-backed'
p4278
I2
sS'scale'
p4279
I2
sS'jewelry'
p4280
I9
sS'culprit'
p4281
I2
sS'contacts'
p4282
I2
sS'decision'
p4283
I10
sS'91-day'
p4284
I2
sS'per'
p4285
I2
sS'bogus'
p4286
I2
sS'313.2'
p4287
I2
sS'full-scale'
p4288
I2
sS'patient'
p4289
I4
sS'300'
p4290
I3
sS'continuing'
p4291
I3
sS'use'
p4292
I19
sS'restrictive'
p4293
I2
sS'goods'
p4294
I2
sS'mrs.'
p4295
I13
sS'pollution'
p4296
I2
sS'8.04'
p4297
I3
sS'nsa'
p4298
I2
sS'retailer'
p4299
I2
sS'steven'
p4300
I2
sS'bankruptcy'
p4301
I10
sS'ontario'
p4302
I3
sS'conduits'
p4303
I2
sS'1.50'
p4304
I2
sS's.c.'
p4305
I2
sS'murphy'
p4306
I2
sS'hoped'
p4307
I2
sS'boys'
p4308
I2
sS'two-part'
p4309
I2
sS'hopes'
p4310
I6
sS'subsidiary'
p4311
I5
sS'active'
p4312
I4
sS'directed'
p4313
I2
sS'rejection'
p4314
I2
sS'generating'
p4315
I2
sS"'re"
p4316
I14
sS'planes'
p4317
I3
sS'jumbo'
p4318
I3
sS'curt'
p4319
I2
sS'constant'
p4320
I3
sS'stripped'
p4321
I3
sS'lackeys'
p4322
I2
sS'deprive'
p4323
I2
sS'single'
p4324
I3
sS'dragging'
p4325
I2
sS'%'
I173
sS'spanish-language'
p4326
I2
sS'prepared'
p4327
I2
sS'prepares'
p4328
I2
sS'vehicles'
p4329
I2
sS'bankers'
p4330
I3
sS'appalling'
p4331
I2
sS'2001'
p4332
I2
sS'2005'
p4333
I2
sS'magnetically'
p4334
I2
sS'debenture'
p4335
I2
sS'minors'
p4336
I2
sS'j.c.'
p4337
I4
sS'intricate'
p4338
I2
sS'15,000'
p4339
I4
sS'boom-or-bust'
p4340
I2
sS'intensive'
p4341
I4
sS'chaps'
p4342
I2
sS'quarterly'
p4343
I6
sS'labels'
p4344
I4
sS'dessert'
p4345
I2
sS'nixed'
p4346
I2
sS'putting'
p4347
I2
sS'demonstrations'
p4348
I7
sS'carla'
p4349
I2
sS'nests'
p4350
I2
sS'edison'
p4351
I2
sS'pittance'
p4352
I2
sS'chicago'
p4353
I6
sS'giving'
p4354
I3
sS'practices'
p4355
I3
sS'access'
p4356
I5
sS'industrialized'
p4357
I2
sS'irreparable'
p4358
I2
sS'exercise'
p4359
I2
sS'body'
p4360
I2
sS'exchange'
p4361
I17
sS'jointly'
p4362
I2
sS'objects'
p4363
I2
sS'healing'
p4364
I2
sS'others'
p4365
I12
sS'luis'
p4366
I2
sS'safer'
p4367
I2
sS'extreme'
p4368
I2
sS'39'
p4369
I2
sS'32'
p4370
I4
sS'31'
p4371
I5
sS'30'
p4372
I21
sS'37'
p4373
I4
sS'alaska'
p4374
I2
sS'35'
p4375
I3
sS'honor'
p4376
I2
sS'named'
p4377
I12
sS'limp'
p4378
I2
sS'private'
p4379
I4
sS'decrease'
p4380
I2
sS'privately'
p4381
I3
sS'composer'
p4382
I3
sS'limb'
p4383
I2
sS'scandal'
p4384
I2
sS'year-ago'
p4385
I2
sS'themselves'
p4386
I8
sS'defendant'
p4387
I2
sS'trail'
p4388
I2
sS'9.85'
p4389
I2
sS'tattered'
p4390
I2
sS'arranging'
p4391
I2
sS'iii'
p4392
I3
sS'non-communist'
p4393
I2
sS'account'
p4394
I8
sS'16.05'
p4395
I2
sS'erwin'
p4396
I2
sS'obvious'
p4397
I3
sS'closing'
p4398
I3
sS'rehabilitation'
p4399
I3
sS'reserved'
p4400
I2
sS'proportions'
p4401
I2
sS'reserves'
p4402
I2
sS'exclaims'
p4403
I2
sS'employs'
p4404
I3
sS'maturities'
p4405
I4
sS'dinners'
p4406
I2
sS'holds'
p4407
I2
sS'regions'
p4408
I2
sS'responsibilities'
p4409
I3
sS'winners'
p4410
I2
sS'forest'
p4411
I2
sS'stock'
p4412
I40
sS'204.3'
p4413
I2
sS'204.8'
p4414
I2
sS'waters'
p4415
I2
sS'collection'
p4416
I2
sS'bothered'
p4417
I2
sS'nullify'
p4418
I2
sS'leisure'
p4419
I2
sS'yielded'
p4420
I2
sS'fray'
p4421
I2
sS'rev.'
p4422
I2
sS'bind'
p4423
I3
sS'lines'
p4424
I4
sS'chief'
p4425
I23
sS'road'
p4426
I3
sS'testament-style'
p4427
I2
sS'aiken'
p4428
I2
sS'institutional'
p4429
I7
sS'ever-changing'
p4430
I2
sS'agricultural'
p4431
I2
sS'industries'
p4432
I9
sS'negotiated'
p4433
I5
sS'la'
p4434
I4
sS'labor'
p4435
I8
sS'willing'
p4436
I6
sS'criminal'
p4437
I3
sS'greater'
p4438
I5
sS'cutting'
p4439
I4
sS'sonata'
p4440
I2
sS'insisting'
p4441
I3
sS'dax'
p4442
I2
sS'day'
p4443
I12
sS'capital-gains'
p4444
I2
sS'february'
p4445
I2
sS'l.'
p4446
I2
sS'warned'
p4447
I4
sS'identified'
p4448
I2
sS'morris'
p4449
I2
sS'warner'
p4450
I24
sS'activate'
p4451
I2
sS'thwart'
p4452
I2
sS'salesman'
p4453
I2
sS'announcer'
p4454
I2
sS'aga'
p4455
I7
sS'istituto'
p4456
I2
sS'electronics'
p4457
I2
sS'red'
p4458
I6
sS'harold'
p4459
I2
sS'582'
p4460
I2
sS'frank'
p4461
I6
sS'fourteen'
p4462
I2
sS'clarify'
p4463
I2
sS'afterward'
p4464
I2
sS'allies'
p4465
I6
sS'recipes'
p4466
I5
sS'barriers'
p4467
I2
sS'retain'
p4468
I5
sS'retail'
p4469
I2
sS'south'
p4470
I14
sS'plastics'
p4471
I3
sS'2,000'
p4472
I2
sS'strategic'
p4473
I5
sS'embarrassed'
p4474
I2
sS'puppet'
p4475
I2
sS'rusticated'
p4476
I2
sS'reached'
p4477
I7
sS'pershare'
p4478
I2
sS'single-a-3'
p4479
I6
sS'single-a-2'
p4480
I5
sS'recapitalization'
p4481
I2
sS'bosco'
p4482
I2
sS'smolder'
p4483
I2
sS'completed'
p4484
I5
sS'acquire'
p4485
I3
sS'7.45'
p4486
I2
sS'environmental'
p4487
I3
sS'completes'
p4488
I2
sS'glamorous'
p4489
I2
sS'shevardnadze'
p4490
I4
sS'bullhorns'
p4491
I2
sS'asean'
p4492
I2
sS'compensation'
p4493
I4
sS'circumspect'
p4494
I2
sS'visited'
p4495
I3
sS'pardoned'
p4496
I2
sS'imaginative'
p4497
I2
sS'comfortable'
p4498
I2
sS'tide'
p4499
I2
sS'38.2'
p4500
I2
sS'unlikely'
p4501
I5
sS'have'
p4502
I130
sS'apparently'
p4503
I4
sS'tomash'
p4504
I4
sS'dallas'
p4505
I2
sS'parks'
p4506
I2
sS'mix'
p4507
I2
sS'concerns'
p4508
I5
sS'326'
p4509
I2
sS'provoked'
p4510
I3
sS'1.34'
p4511
I2
sS'1.35'
p4512
I2
sS'1.37'
p4513
I2
sS'unless'
p4514
I6
sS'preliminary'
p4515
I6
sS'sfe'
p4516
I4
sS'reveling'
p4517
I2
sS'payment'
p4518
I4
sS'police'
p4519
I4
sS'gurus'
p4520
I2
sS'quotations'
p4521
I2
sS'enthusiastic'
p4522
I2
sS'request'
p4523
I3
sS'1,000'
p4524
I2
sS'1,001'
p4525
I2
sS'normally'
p4526
I2
sS'gnu-emacs'
p4527
I3
sS'selection'
p4528
I2
sS'galvanizing'
p4529
I2
sS'supported'
p4530
I3
sS'portfolio'
p4531
I2
sS'30,180'
p4532
I2
sS'thicket'
p4533
I2
sS'staff'
p4534
I4
sS'communism'
p4535
I2
sS'controls'
p4536
I4
sS'communist'
p4537
I4
sS'regularly'
p4538
I3
sS'timing'
p4539
I3
sS'areas'
p4540
I5
sS'unauthorized'
p4541
I2
sS'approach'
p4542
I5
sS'calling'
p4543
I5
sS'ballplayers'
p4544
I2
sS'fixed'
p4545
I2
sS'national'
p4546
I20
sS'centerfielder'
p4547
I2
sS'j.e.'
p4548
I2
sS'enhanced'
p4549
I3
sS'greece'
p4550
I2
sS'audits'
p4551
I6
sS'36.6'
p4552
I2
sS'exploited'
p4553
I2
sS'attempting'
p4554
I3
sS'clearing'
p4555
I2
sS'brunt'
p4556
I2
sS'discounts'
p4557
I2
sS'routine'
p4558
I2
sS'antics'
p4559
I2
sS'ifint'
p4560
I4
sS'armenia'
p4561
I2
sS'health-conscious'
p4562
I2
sS'buster'
p4563
I2
sS'taking'
p4564
I3
sS'attributed'
p4565
I4
sS'pulp'
p4566
I2
sS'assure'
p4567
I2
sS'liquidating'
p4568
I3
sS'attributes'
p4569
I2
sS'comment'
p4570
I8
sS'fostering'
p4571
I2
sS'clues'
p4572
I2
sS'disarmament'
p4573
I2
sS'manhood'
p4574
I2
sS'copies'
p4575
I2
sS'tyler'
p4576
I2
sS'indicators'
p4577
I4
sS'proposal'
p4578
I7
sS'pravda'
p4579
I4
sS'finished'
p4580
I2
sS'clusters'
p4581
I2
sS'general'
p4582
I20
sS'locales'
p4583
I2
sS'divisions'
p4584
I2
sS'crowds'
p4585
I2
sS'appearance'
p4586
I5
sS'value'
p4587
I9
sS'augusta'
p4588
I2
sS'instigated'
p4589
I2
sS'fault'
p4590
I2
sS'almost'
p4591
I7
sS"m'bow"
p4592
I4
sS'helped'
p4593
I5
sS'landfills'
p4594
I2
sS'claimed'
p4595
I3
sS'partner'
p4596
I7
sS'inspector'
p4597
I2
sS')'
I46
sS'administration'
p4598
I7
sS'mahatma'
p4599
I2
sS'fifth-largest'
p4600
I2
sS'frivolous'
p4601
I2
sS'injured'
p4602
I2
sS'kidnapping'
p4603
I2
sS'cubic'
p4604
I2
sS'reporting'
p4605
I4
sS'257.8'
p4606
I2
sS'recourse'
p4607
I2
sS'center'
p4608
I6
sS'ious'
p4609
I2
sS'thought'
p4610
I4
sS'sets'
p4611
I2
sS'comparisons'
p4612
I2
sS'muscle'
p4613
I3
sS'soviet'
p4614
I30
sS'latest'
p4615
I4
sS'stores'
p4616
I5
sS'executive'
p4617
I21
sS'domestic'
p4618
I10
sS'clinic'
p4619
I3
sS'interim'
p4620
I2
sS'seats'
p4621
I2
sS'tone'
p4622
I2
sS'ads'
p4623
I6
sS'288'
p4624
I2
sS'add'
p4625
I2
sS'ought'
p4626
I4
sS'resolved'
p4627
I2
sS'tests'
p4628
I7
sS'judiciary'
p4629
I3
sS'hees'
p4630
I7
sS'displaced'
p4631
I2
sS'like'
p4632
I20
sS'success'
p4633
I5
sS'admitted'
p4634
I3
sS'works'
p4635
I3
sS'kucharski'
p4636
I2
sS'italian'
p4637
I2
sS'accessible'
p4638
I2
sS'nfl'
p4639
I2
sS'classical'
p4640
I3
sS'authority'
p4641
I2
sS'hair'
p4642
I3
sS'novelist'
p4643
I2
sS'righthander'
p4644
I2
sS'blackstone'
p4645
I3
sS'hurricane'
p4646
I2
sS'assuming'
p4647
I2
sS'neurosurgeon'
p4648
I3
sS'expire'
p4649
I2
sS'although'
p4650
I10
sS'hospitable'
p4651
I2
sS'panel'
p4652
I4
sS'about'
p4653
I49
sS'actual'
p4654
I3
sS'discard'
p4655
I2
sS'introduced'
p4656
I4
sS'baseless'
p4657
I2
sS'seniors'
p4658
I2
sS'ways'
p4659
I5
sS'depart'
p4660
I2
sS'billions'
p4661
I2
sS'boringly'
p4662
I2
sS'female'
p4663
I3
sS'luxembourg-based'
p4664
I2
sS'quickly'
p4665
I5
sS'1986'
p4666
I5
sS'1987'
p4667
I8
sS'1984'
p4668
I3
sS'1985'
p4669
I5
sS'1982'
p4670
I2
sS'1983'
p4671
I2
sS'general-practice'
p4672
I2
sS'1988'
p4673
I9
sS'awarded'
p4674
I2
sS'stimulative'
p4675
I2
sS'biggest'
p4676
I5
sS'buy'
p4677
I10
sS'bus'
p4678
I2
sS'brand'
p4679
I5
sS'sequel'
p4680
I3
sS'but'
p4681
I131
sS'8.25'
p4682
I2
sS'repeated'
p4683
I2
sS'8.27'
p4684
I2
sS'wealthier'
p4685
I2
sS'money-fund'
p4686
I3
sS'strident'
p4687
I2
sS'wise'
p4688
I2
sS'dangerous'
p4689
I2
sS'non-japanese'
p4690
I2
sS'flip'
p4691
I2
sS'seib'
p4692
I2
sS'lecheria'
p4693
I3
sS'minutes'
p4694
I4
sS'tastes'
p4695
I3
sS'wage-discrimination'
p4696
I2
sS'supreme'
p4697
I3
sS'recounts'
p4698
I2
sS'crusade'
p4699
I2
sS'periods'
p4700
I2
sS'83'
p4701
I2
sS'nazionale'
p4702
I2
sS'campus'
p4703
I2
sS'49'
p4704
I3
sS'46'
p4705
I2
sS'47'
p4706
I2
sS'44'
p4707
I4
sS'45'
p4708
I4
sS'42'
p4709
I2
sS'detail'
p4710
I3
sS'40'
p4711
I5
sS'surreal'
p4712
I2
sS'oat'
p4713
I3
sS'stirred'
p4714
I2
sS'baker'
p4715
I2
sS'biotechnology'
p4716
I2
sS'cookbook'
p4717
I2
sS'limited'
p4718
I9
sS'facilities'
p4719
I6
sS'nwa'
p4720
I2
sS'1.12'
p4721
I2
sS'violate'
p4722
I3
sS'paris'
p4723
I3
sS'1.18'
p4724
I2
sS'7.62'
p4725
I2
sS'under'
p4726
I27
sS'pride'
p4727
I3
sS'merchant'
p4728
I2
sS'lure'
p4729
I2
sS'u.s.-japan'
p4730
I2
sS'legislators'
p4731
I3
sS'risk'
p4732
I5
sS'rise'
p4733
I5
sS'position-squaring'
p4734
I2
sS'every'
p4735
I3
sS'softened'
p4736
I2
sS'harms'
p4737
I2
sS'encounter'
p4738
I2
sS'get-togethers'
p4739
I2
sS'pooled'
p4740
I2
sS'antisony'
p4741
I2
sS'enjoy'
p4742
I4
sS'u.s.-philippine'
p4743
I2
sS'leaders'
p4744
I16
sS'estimates'
p4745
I6
sS'direct'
p4746
I4
sS'fabulous'
p4747
I2
sS'borrowings'
p4748
I2
sS'estimated'
p4749
I11
sS'shining'
p4750
I2
sS'anti-apartheid'
p4751
I2
sS'hide'
p4752
I2
sS'selected'
p4753
I2
sS'profitability'
p4754
I2
sS'poison'
p4755
I22
sS'conduct'
p4756
I2
sS'seeks'
p4757
I4
sS'hundreds'
p4758
I4
sS'studio'
p4759
I7
sS'connoisseur'
p4760
I2
sS'auction'
p4761
I8
sS'30-share'
p4762
I2
sS'analysts'
p4763
I8
sS'chateau'
p4764
I2
sS'changes'
p4765
I12
sS'issuers'
p4766
I3
sS'feelings'
p4767
I2
sS'visible'
p4768
I3
sS'2692.65'
p4769
I2
sS'philip'
p4770
I2
sS'swings'
p4771
I3
sS'would'
p4772
I96
sS'hospital'
p4773
I3
sS'm.'
p4774
I2
sS'wordplay'
p4775
I2
sS'asset'
p4776
I2
sS'assessment'
p4777
I2
sS'single-handedly'
p4778
I2
sS'naive'
p4779
I2
sS'muse'
p4780
I2
sS'phone'
p4781
I3
sS'excellent'
p4782
I2
sS'must'
p4783
I11
sS'me'
p4784
I11
sS'join'
p4785
I3
sS'crescott'
p4786
I2
sS'deficiencies'
p4787
I2
sS'install'
p4788
I3
sS'my'
p4789
I10
sS'loosen'
p4790
I2
sS'receivables'
p4791
I5
sS'florida'
p4792
I4
sS'preserving'
p4793
I2
sS'jetliner'
p4794
I2
sS'keep'
p4795
I9
sS'attract'
p4796
I3
sS'guarantee'
p4797
I2
sS'end'
p4798
I15
sS'bunt'
p4799
I2
sS'accusations'
p4800
I2
sS'widespread'
p4801
I2
sS'badly'
p4802
I3
sS'claptrap'
p4803
I2
sS'kavanagh'
p4804
I2
sS'amid'
p4805
I2
sS'acknowledged'
p4806
I3
sS'enter'
p4807
I3
sS'civil-service'
p4808
I2
sS'over'
p4809
I43
sS'expects'
p4810
I6
sS'london'
p4811
I11
sS'expectations'
p4812
I2
sS'writing'
p4813
I2
sS'16.3'
p4814
I2
sS'400'
p4815
I3
sS'diseases'
p4816
I2
sS'payouts'
p4817
I2
sS'`'
I7
sS'roost'
p4818
I2
sS'mosher'
p4819
I2
sS'26.125'
p4820
I2
sS'tourism'
p4821
I2
sS'30-year'
p4822
I2
sS'alex'
p4823
I2
sS'detroit'
p4824
I3
sS'filling'
p4825
I2
sS'dollar-denominated'
p4826
I2
sS'affiliate'
p4827
I2
sS'each'
p4828
I22
sS'lasting'
p4829
I2
sS'signing'
p4830
I3
sS'autry'
p4831
I2
sS'magnets'
p4832
I2
sS'combining'
p4833
I2
sS'saturday'
p4834
I2
sS't.'
p4835
I2
sS'looseleaf'
p4836
I2
sS'collaborated'
p4837
I2
sS'laid'
p4838
I2
sS'got'
p4839
I4
sS'newly'
p4840
I3
sS'gop'
p4841
I2
sS'independence'
p4842
I2
sS'sept.'
p4843
I5
sS'merchandising'
p4844
I2
sS'free'
p4845
I10
sS'fred'
p4846
I2
sS'masterpiece'
p4847
I2
sS'streamline'
p4848
I3
sS'time-limited'
p4849
I5
sS'boosting'
p4850
I2
sS'wanted'
p4851
I5
sS'inexpensive'
p4852
I2
sS'days'
p4853
I30
sS'pence'
p4854
I4
sS'already'
p4855
I8
sS'researcher'
p4856
I5
sS'primary'
p4857
I3
sS'hearing'
p4858
I6
sS'adopted'
p4859
I7
sS'their'
p4860
I79
sS'0.02'
p4861
I2
sS'top'
p4862
I9
sS'0.05'
p4863
I2
sS'too'
p4864
I13
sS'tom'
p4865
I2
sS'percentage'
p4866
I7
sS'tool'
p4867
I4
sS'serve'
p4868
I2
sS'took'
p4869
I9
sS'negotiating'
p4870
I3
sS'western'
p4871
I7
sS'longer-term'
p4872
I2
sS'roles'
p4873
I2
sS'bloated'
p4874
I2
sS'tourists'
p4875
I2
sS'18.8'
p4876
I2
sS'precocious'
p4877
I2
sS'bridge'
p4878
I2
sS'fashion'
p4879
I4
sS'ran'
p4880
I2
sS'talking'
p4881
I2
sS'1971'
p4882
I2
sS'rap'
p4883
I2
sS'seminar'
p4884
I2
sS'relatively'
p4885
I3
sS'1969'
p4886
I3
sS'thoroughly'
p4887
I2
sS'1967'
p4888
I2
sS'-'
I5
sS'thorough'
p4889
I3
sS'investment'
p4890
I20
sS'though'
p4891
I9
sS'8.03'
p4892
I2
sS'8.01'
p4893
I2
sS'plenty'
p4894
I2
sS'8.05'
p4895
I3
sS'8.09'
p4896
I2
sS'treats'
p4897
I2
sS'flow'
p4898
I5
sS'treaty'
p4899
I9
sS'entertaining'
p4900
I2
sS'agnew'
p4901
I2
sS'sanctuary'
p4902
I2
sS'reductions'
p4903
I3
sS'random'
p4904
I2
sS'sage'
p4905
I2
sS'colors'
p4906
I2
sS'radio'
p4907
I3
sS'bail'
p4908
I2
sS'sunsets'
p4909
I2
sS'safest'
p4910
I2
sS'delays'
p4911
I2
sS'minnesota'
p4912
I2
sS'542'
p4913
I2
sS'announce'
p4914
I3
sS'oct'
p4915
I2
sS'5*slashhere*16'
p4916
I2
sS'criticized'
p4917
I2
sS'despite'
p4918
I10
sS'report'
p4919
I6
sS'interrogated'
p4920
I2
sS'19-year-olds'
p4921
I2
sS'countries'
p4922
I7
sS'shots'
p4923
I2
sS'mergers'
p4924
I2
sS'car-crash'
p4925
I2
sS'habit'
p4926
I2
sS'liquor'
p4927
I2
sS'1960s'
p4928
I2
sS'keenan'
p4929
I8
sS'corrupt'
p4930
I2
sS'capacity'
p4931
I2
sS'machinists'
p4932
I2
sS'brushbacks'
p4933
I2
sS'finger'
p4934
I2
sS'362'
p4935
I2
sS'7.80'
p4936
I2
sS'adding'
p4937
I2
sS'weak'
p4938
I2
sS'however'
p4939
I8
sS'boss'
p4940
I2
sS'southeast'
p4941
I2
sS'censorship'
p4942
I2
sS'news'
p4943
I7
sS'predates'
p4944
I2
sS'improve'
p4945
I7
sS'faced'
p4946
I2
sS'protect'
p4947
I6
sS'credit-card'
p4948
I5
sS'participating'
p4949
I2
sS'players'
p4950
I9
sS'merging'
p4951
I2
sS'games'
p4952
I2
sS'creditors'
p4953
I7
sS'faces'
p4954
I3
sS'expense'
p4955
I2
sS'telepictures'
p4956
I2
sS'karen'
p4957
I2
sS'towels'
p4958
I2
sS'trust'
p4959
I17
sS'1.1'
p4960
I3
sS'conference'
p4961
I3
sS'jobless'
p4962
I4
sS'rebounded'
p4963
I2
sS'been'
p4964
I62
sS'currier'
p4965
I2
sS'beer'
p4966
I5
sS'expected'
p4967
I22
sS'republicans'
p4968
I2
sS'search'
p4969
I2
sS'enterprises'
p4970
I2
sS'lorded'
p4971
I2
sS'catch'
p4972
I2
sS'feminine-care'
p4973
I2
sS'kentucky'
p4974
I2
sS'gumbel'
p4975
I2
sS'teachers'
p4976
I2
sS'precede'
p4977
I2
sS'accessories'
p4978
I2
sS'expenses'
p4979
I2
sS'brewed'
p4980
I2
sS'experts'
p4981
I5
sS'complex'
p4982
I3
sS'isikoff'
p4983
I2
sS'several'
p4984
I16
sS'peaks'
p4985
I2
sS'workings'
p4986
I2
sS'insisted'
p4987
I2
sS'shortly'
p4988
I2
sS'neurologists'
p4989
I2
sS'charlie'
p4990
I2
sS'savings'
p4991
I3
sS'greatest'
p4992
I3
sS'mother'
p4993
I2
sS'hearts'
p4994
I2
sS'alabama'
p4995
I3
sS'outnumbered'
p4996
I2
sS'arousing'
p4997
I2
sS'authorize'
p4998
I2
sS'departed'
p4999
I2
sS'proposed'
p5000
I14
sS'unemployment'
p5001
I7
sS'proposes'
p5002
I2
sS'vivaldi-at-brunch'
p5003
I2
sS'resigning'
p5004
I2
sS'orange-and-blue'
p5005
I2
sS'greenwich'
p5006
I2
sS'exempting'
p5007
I2
sS'interprets'
p5008
I2
sS'sherbet'
p5009
I2
sS'gave'
p5010
I7
sS'casting'
p5011
I2
sS'bands'
p5012
I2
sS'judge'
p5013
I19
sS'59'
p5014
I2
sS'advanced'
p5015
I2
sS'apart'
p5016
I3
sS'appearing'
p5017
I2
sS'gift'
p5018
I2
sS'55'
p5019
I3
sS'54'
p5020
I3
sS'hunt'
p5021
I14
sS'51'
p5022
I2
sS'50'
p5023
I12
sS'53'
p5024
I3
sS'unsuspecting'
p5025
I2
sS'renamed'
p5026
I2
sS'offices'
p5027
I2
sS'officer'
p5028
I19
sS'successfully'
p5029
I3
sS'donald'
p5030
I2
sS'election'
p5031
I3
sS'indirect'
p5032
I2
sS'specific'
p5033
I7
sS'clash'
p5034
I3
sS'reinvest'
p5035
I3
sS'ice'
p5036
I2
sS'everything'
p5037
I7
sS'newsprint'
p5038
I7
sS'banxquote'
p5039
I6
sS'flaps'
p5040
I3
sS'core'
p5041
I4
sS'corn'
p5042
I2
sS'discount'
p5043
I7
sS'corp'
p5044
I3
sS'chapter'
p5045
I3
sS'burbank'
p5046
I2
sS'misleading'
p5047
I2
sS'ensure'
p5048
I2
sS'steadily'
p5049
I2
sS'efforts'
p5050
I11
sS'twitch'
p5051
I2
sS'presence'
p5052
I6
sS'civil'
p5053
I18
sS'tribune'
p5054
I2
sS'transform'
p5055
I2
sS'class'
p5056
I7
sS'fought'
p5057
I4
sS'purposely'
p5058
I2
sS'head'
p5059
I6
sS'amateur'
p5060
I3
sS'fragrance'
p5061
I2
sS'dataproducts'
p5062
I3
sS'attempted'
p5063
I2
sS'differences'
p5064
I2
sS'removes'
p5065
I2
sS'libor'
p5066
I2
sS'payable'
p5067
I4
sS'heat'
p5068
I2
sS'hear'
p5069
I2
sS'insider-trading'
p5070
I3
sS'counsel'
p5071
I4
sS'versions'
p5072
I4
sS'compositional'
p5073
I2
sS'bids'
p5074
I9
sS'kitschy'
p5075
I2
sS'trim'
p5076
I2
sS'obfuscation'
p5077
I2
sS'peruvian'
p5078
I2
sS'suspicions'
p5079
I2
sS'0.60'
p5080
I2
sS'check'
p5081
I2
sS'propagandists'
p5082
I2
sS'faithful'
p5083
I2
sS'no'
p5084
I35
sS'when'
p5085
I39
sS'setting'
p5086
I4
sS'papers'
p5087
I2
sS'picture'
p5088
I2
sS'loan-loss'
p5089
I2
sS'rising'
p5090
I3
sS'longer'
p5091
I5
sS'uncovered'
p5092
I2
sS'vietnam'
p5093
I4
sS'oeufs'
p5094
I2
sS'serious'
p5095
I2
sS'intimacy'
p5096
I2
sS'remarkable'
p5097
I3
sS'alternatives'
p5098
I2
sS'focus'
p5099
I2
sS'leads'
p5100
I2
sS'roy'
p5101
I2
sS'savings-type'
p5102
I3
sS'row'
p5103
I2
sS'environment'
p5104
I4
sS'charge'
p5105
I7
sS'promoting'
p5106
I2
sS'discovering'
p5107
I2
sS"l'heureux"
p5108
I2
sS'federation'
p5109
I2
sS'sloppy'
p5110
I2
sS'tanks'
p5111
I8
sS'cook'
p5112
I2
sS'8.61'
p5113
I2
sS'8.62'
p5114
I2
sS'8.63'
p5115
I2
sS'clouds'
p5116
I2
sS'impressive'
p5117
I2
sS'level'
p5118
I7
sS'philippines'
p5119
I6
sS'camaraderie'
p5120
I2
sS'posts'
p5121
I3
sS'hawaii'
p5122
I2
sS'standards'
p5123
I8
sS'yale'
p5124
I3
sS'quick'
p5125
I5
sS'money-market'
p5126
I2
sS'8.337'
p5127
I2
sS'heinz'
p5128
I2
sS'says'
p5129
I55
sS'tougher'
p5130
I4
sS'trend'
p5131
I3
sS'injunction'
p5132
I2
sS'journalistic'
p5133
I2
sS'takeoff'
p5134
I3
sS'substitute'
p5135
I4
sS'stennett'
p5136
I2
sS'constitution'
p5137
I3
sS'minikes'
p5138
I2
sS'goes'
p5139
I3
sS'water'
p5140
I2
sS'pioneered'
p5141
I3
sS'baseball'
p5142
I8
sS'groups'
p5143
I6
sS'crippled'
p5144
I2
sS'healthy'
p5145
I2
sS'lancaster'
p5146
I2
sS'emerge'
p5147
I2
sS'paralyzed'
p5148
I3
sS'prompt'
p5149
I2
sS'crisis'
p5150
I2
sS'handled'
p5151
I2
sS'third-quarter'
p5152
I5
sS'sports'
p5153
I3
sS'handles'
p5154
I2
sS'memory'
p5155
I5
sS'australian'
p5156
I2
sS'today'
p5157
I12
sS'unwarranted'
p5158
I2
sS'dismay'
p5159
I2
sS'cases'
p5160
I7
sS'tribunal'
p5161
I2
sS'local'
p5162
I3
sS'butterfat'
p5163
I4
sS'modified'
p5164
I2
sS'flagship'
p5165
I2
sS'ms.'
p5166
I13
sS'judy'
p5167
I2
sS'laughter'
p5168
I2
sS'performer'
p5169
I2
sS'figure'
p5170
I5
sS'stroke'
p5171
I3
sS'dropped'
p5172
I6
sS'parliamentary'
p5173
I2
sS'requirements'
p5174
I3
sS'secured'
p5175
I2
sS'1'
I14
sS'ornette'
p5176
I2
sS'fourth'
p5177
I3
sS'subsidiaries'
p5178
I2
sS'levy'
p5179
I5
sS'ky.'
p5180
I2
sS'huge'
p5181
I4
sS'birthday'
p5182
I2
sS'receptivity'
p5183
I2
sS'branches'
p5184
I4
sS'rollie'
p5185
I2
sS'liquid'
p5186
I2
sS'refund'
p5187
I2
sS'exclusive'
p5188
I2
sS'acts'
p5189
I2
sS'furnished'
p5190
I2
sS'undervalued'
p5191
I2
sS'mainly'
p5192
I2
sS'swank'
p5193
I3
sS'offers'
p5194
I4
sS'prebon'
p5195
I2
sS'delighted'
p5196
I2
sS'78,600'
p5197
I2
sS'31.25'
p5198
I2
sS'name'
p5199
I5
sS'possibilities'
p5200
I2
sS'asbestos-related'
p5201
I2
sS'begun'
p5202
I2
sS'distributor'
p5203
I2
sS'obsession'
p5204
I2
sS'intended'
p5205
I4
sS'hacker'
p5206
I8
sS'ultimately'
p5207
I6
sS'factors'
p5208
I4
sS'profit'
p5209
I4
sS'factory'
p5210
I3
sS'attracted'
p5211
I4
sS'she'
p5212
I10
sS'attended'
p5213
I2
sS'rolls-royce'
p5214
I2
sS'motion'
p5215
I2
sS'turn'
p5216
I5
sS'best-known'
p5217
I2
sS'place'
p5218
I2
sS'retreating'
p5219
I2
sS'turf'
p5220
I2
sS'laboratorium'
p5221
I2
sS'merrill'
p5222
I2
sS'revenue'
p5223
I10
sS'soaring'
p5224
I2
sS'george'
p5225
I6
sS'millions'
p5226
I2
sS'given'
p5227
I4
sS'necessarily'
p5228
I2
sS'district'
p5229
I5
sS'trillion'
p5230
I5
sS'stimulation'
p5231
I3
sS'returns'
p5232
I5
sS'conservation'
p5233
I2
sS'white'
p5234
I13
sS'anesthetized'
p5235
I2
sS'exploring'
p5236
I2
sS'season'
p5237
I7
sS'hun'
p5238
I3
sS'alan'
p5239
I3
sS'released'
p5240
I3
sS'copy'
p5241
I3
sS'holder'
p5242
I2
sS'wide'
p5243
I2
sS'unfortunately'
p5244
I4
sS'require'
p5245
I5
sS'diplomatic'
p5246
I3
sS'spokeswoman'
p5247
I2
sS'legacy'
p5248
I2
sS'mcbride'
p5249
I2
sS'cards'
p5250
I4
sS'theocracy'
p5251
I2
sS'and'
p5252
I633
sS'armored'
p5253
I3
sS'pro'
p5254
I2
sS'worcester'
p5255
I2
sS'rent'
p5256
I6
sS'sells'
p5257
I4
sS'any'
p5258
I25
sS'prosperity'
p5259
I2
sS'conversion'
p5260
I2
sS'ideas'
p5261
I3
sS'sciences'
p5262
I2
sS'ideal'
p5263
I3
sS'then-current'
p5264
I2
sS'urge'
p5265
I2
sS'sure'
p5266
I3
sS'multiple'
p5267
I2
sS'schimberg'
p5268
I2
sS'probes'
p5269
I2
sS'considered'
p5270
I7
sS'broberg'
p5271
I4
sS'adopt'
p5272
I2
sS'pores'
p5273
I2
sS'senior'
p5274
I16
sS'drastically'
p5275
I2
sS'ginseng'
p5276
I2
sS'allegations'
p5277
I2
sS'trespass'
p5278
I2
sS'hustles'
p5279
I2
sS'favor'
p5280
I3
sS'watergate-beleaguered'
p5281
I2
sS'state'
p5282
I23
sS'crime'
p5283
I3
sS'brissette'
p5284
I3
sS'messiaen'
p5285
I2
sS'cautioned'
p5286
I2
sS'dreaded'
p5287
I2
sS'viewpoint'
p5288
I2
sS'jazz'
p5289
I5
sS'begging'
p5290
I2
sS'expectation'
p5291
I2
sS'responding'
p5292
I2
sS'lighter'
p5293
I2
sS'closure'
p5294
I2
sS'reveal'
p5295
I2
sS'regarding'
p5296
I2
sS'paper'
p5297
I10
sS'predicted'
p5298
I2
sS'discussing'
p5299
I5
sS'ignored'
p5300
I2
sS'encourages'
p5301
I3
sS'violated'
p5302
I2
sS'baseball-loving'
p5303
I2
sS'college'
p5304
I4
sS'slashing'
p5305
I2
sS'stanley'
p5306
I3
sS'violates'
p5307
I2
sS'encouraged'
p5308
I2
sS'fails'
p5309
I2
sS'mortgage'
p5310
I26
sS'farmers'
p5311
I2
sS'federal'
p5312
I24
sS'review'
p5313
I3
sS'commitments'
p5314
I5
sS'weapons'
p5315
I9
sS'outside'
p5316
I2
sS'moslems'
p5317
I2
sS'8.44'
p5318
I2
sS'8.45'
p5319
I2
sS'8.40'
p5320
I2
sS'8.49'
p5321
I2
sS'diners'
p5322
I2
sS'unusually'
p5323
I2
sS'cities'
p5324
I2
sS'come'
p5325
I12
sS'reaction'
p5326
I2
sS'bite-sized'
p5327
I2
sS'acquiring'
p5328
I3
sS'missions'
p5329
I2
sS'mob'
p5330
I2
sS'region'
p5331
I2
sS'23'
p5332
I5
sS'berra'
p5333
I2
sS'contract'
p5334
I10
sS'senator'
p5335
I2
sS'ntsb'
p5336
I2
sS'cabal'
p5337
I2
sS'billion-yen'
p5338
I2
sS'color'
p5339
I3
sS'colony'
p5340
I2
sS'promises'
p5341
I3
sS'insist'
p5342
I3
sS'okobank'
p5343
I2
sS'61'
p5344
I3
sS'62'
p5345
I2
sS'white-haired'
p5346
I2
sS'65'
p5347
I2
sS'66'
p5348
I3
sS'one-stop'
p5349
I2
sS'68'
p5350
I3
sS'100-share'
p5351
I2
sS'two-year'
p5352
I2
sS'turkey'
p5353
I2
sS'squaring'
p5354
I2
sS'howard'
p5355
I2
sS'3.53'
p5356
I2
sS'declining'
p5357
I4
sS'peaceful'
p5358
I2
sS'hardly'
p5359
I4
sS'500'
p5360
I7
sS'engine'
p5361
I2
sS'direction'
p5362
I4
sS'blessing'
p5363
I4
sS'andrew'
p5364
I2
sS'minister'
p5365
I7
sS'pilot'
p5366
I2
sS'case'
p5367
I19
sS'myself'
p5368
I2
sS'j.p.'
p5369
I3
sS'cash'
p5370
I11
sS'premature'
p5371
I2
sS'prime-1'
p5372
I2
sS'prime-2'
p5373
I2
sS'mound'
p5374
I2
sS'coupled'
p5375
I2
sS'telephone'
p5376
I5
sS'discrepancy'
p5377
I2
sS'someone'
p5378
I4
sS'converts'
p5379
I2
sS'kimberly-clark'
p5380
I4
sS'mcgregor'
p5381
I2
sS'79.18'
p5382
I2
sS'author'
p5383
I2
sS'granted'
p5384
I3
sS'revitalized'
p5385
I3
sS'trip'
p5386
I2
sS'manila'
p5387
I2
sS'buys'
p5388
I2
sS'events'
p5389
I4
sS'week'
p5390
I17
sS'sherblom'
p5391
I2
sS'refusal'
p5392
I3
sS'producers'
p5393
I7
sS'delicate'
p5394
I3
sS'changing'
p5395
I2
sS'perennial'
p5396
I2
sS'minimize'
p5397
I2
sS'without'
p5398
I14
sS'relief'
p5399
I3
sS'components'
p5400
I2
sS'reward'
p5401
I2
sS'researchers'
p5402
I8
sS'justify'
p5403
I3
sS'actions'
p5404
I2
sS'lavish'
p5405
I2
sS'violent'
p5406
I3
sS'mazzera'
p5407
I2
sS'polish'
p5408
I2
sS'blow'
p5409
I2
sS'announcement'
p5410
I4
sS'assemblages'
p5411
I2
sS'rose'
p5412
I15
sS'seems'
p5413
I6
sS'except'
p5414
I2
sS'bloc'
p5415
I3
sS'rost'
p5416
I2
sS'disrupt'
p5417
I2
sS'ross'
p5418
I8
sS'scheduled'
p5419
I6
sS'virginia'
p5420
I4
sS'loaned'
p5421
I2
sS'1472.76'
p5422
I2
sS'inflation'
p5423
I2
sS'accepted'
p5424
I5
sS'unwilling'
p5425
I2
sS'furniture'
p5426
I2
sS'walt'
p5427
I2
sS'standstill'
p5428
I3
sS'kennedy'
p5429
I3
sS'reduces'
p5430
I2
sS'reduced'
p5431
I5
sS'1989'
p5432
I12
sS'shunned'
p5433
I2
sS'deduct'
p5434
I2
sS'burdens'
p5435
I2
sS'nikkei'
p5436
I3
sS'competition'
p5437
I2
sS'multimillion-dollar'
p5438
I2
sS'arms-reduction'
p5439
I2
sS'top-secret'
p5440
I2
sS'provided'
p5441
I3
sS'mood'
p5442
I3
sS'legal'
p5443
I6
sS'moon'
p5444
I18
sS'provides'
p5445
I3
sS'provider'
p5446
I3
sS'porter'
p5447
I2
sS'norberto'
p5448
I2
sS'beaches'
p5449
I2
sS'on'
p5450
I195
sS'of'
p5451
I800
sS'discussed'
p5452
I3
sS'mutually'
p5453
I2
sS'stand'
p5454
I4
sS'tariffs'
p5455
I2
sS'or'
p5456
I96
sS'cambridge'
p5457
I2
sS'instruments'
p5458
I6
sS'spinal'
p5459
I5
sS'accounts'
p5460
I5
sS'determine'
p5461
I4
sS'burton'
p5462
I2
sS'there'
p5463
I30
sS'disposed'
p5464
I2
sS'christianity'
p5465
I2
sS'strict'
p5466
I3
sS'strong'
p5467
I6
sS'fastball'
p5468
I3
sS'11*slashhere*16'
p5469
I3
sS'fundamentals'
p5470
I2
sS'promote'
p5471
I4
sS'street-corner'
p5472
I3
sS'life-insurance'
p5473
I2
sS'triple-a'
p5474
I2
sS'taste'
p5475
I2
sS'totaling'
p5476
I5
sS'cbs'
p5477
I5
sS'britain'
p5478
I7
sS'ingeniously'
p5479
I2
sS'99.1875'
p5480
I2
sS'politics'
p5481
I2
sS'belzbergs'
p5482
I2
sS'scotches'
p5483
I2
sS'hit'
p5484
I3
sS'4.2'
p5485
I4
sS'4.9'
p5486
I2
sS'rubber'
p5487
I2
sS'5'
I4
sS'trash'
p5488
I2
sS'strokes'
p5489
I3
sS'separate'
p5490
I8
sS'includes'
p5491
I2
sS'included'
p5492
I2
sS'funding'
p5493
I3
sS'spouse'
p5494
I2
sS'slowball'
p5495
I2
sS'arsenals'
p5496
I3
sS'calls'
p5497
I4
sS'refinanced'
p5498
I2
sS'invest'
p5499
I3
sS'odds'
p5500
I3
sS'directors'
p5501
I5
sS'all'
p5502
I36
sS'chinese'
p5503
I12
sS'720,000'
p5504
I2
sS'dish'
p5505
I2
sS'settlement'
p5506
I15
sS'decisions'
p5507
I3
sS'jerome'
p5508
I2
sS'apartment'
p5509
I2
sS'high-security'
p5510
I2
sS'agro-industry'
p5511
I2
sS'opportunities'
p5512
I2
sS'lavoro'
p5513
I2
sS'dairy'
p5514
I2
sS'lawmakers'
p5515
I3
sS'activities'
p5516
I7
sS'woman'
p5517
I3
sS'worse'
p5518
I3
sS'song'
p5519
I3
sS'far'
p5520
I11
sS'fat'
p5521
I3
sS'worst'
p5522
I2
sS'sony'
p5523
I17
sS'morley'
p5524
I2
sS'stimulus'
p5525
I2
sS'quipped'
p5526
I2
sS'employing'
p5527
I2
sS'tel'
p5528
I2
sS'90.5'
p5529
I2
sS'dalton'
p5530
I2
sS'rate'
p5531
I19
sS'haag'
p5532
I3
sS'what'
p5533
I23
sS'sun'
p5534
I3
sS'brief'
p5535
I2
sS'version'
p5536
I3
sS'disbursed'
p5537
I2
sS'guns'
p5538
I2
sS'toes'
p5539
I2
sS'christian'
p5540
I2
sS'teodorani'
p5541
I2
sS'supposedly'
p5542
I2
sS'retraining'
p5543
I2
sS'andrews'
p5544
I2
sS'berkeley'
p5545
I8
sS'tragedy'
p5546
I2
sS'naval'
p5547
I4
sS'd.c'
p5548
I2
sS'gleeful'
p5549
I2
sS'ana'
p5550
I2
sS'options'
p5551
I8
sS'1721.4'
p5552
I2
sS'arms-control'
p5553
I4
sS'fla.'
p5554
I2
sS'florence'
p5555
I4
sS'clifford'
p5556
I3
sS'markets'
p5557
I18
sS'minor'
p5558
I5
sS'horses'
p5559
I2
sS'flat'
p5560
I4
sS'israel'
p5561
I5
sS'knows'
p5562
I2
sS'big-time'
p5563
I2
sS'mellow'
p5564
I3
sS'finland'
p5565
I3
sS'brown'
p5566
I3
sS'protects'
p5567
I2
sS'pond'
p5568
I2
sS'chores'
p5569
I3
sS'5.4'
p5570
I2
sS'goal'
p5571
I2
sS'5.6'
p5572
I2
sS'rather'
p5573
I10
sS'5.9'
p5574
I2
sS'breaking'
p5575
I9
sS'occasionally'
p5576
I2
sS'stemming'
p5577
I2
sS'speeding'
p5578
I2
sS'explains'
p5579
I2
sS'prepayment'
p5580
I4
sS'lighting'
p5581
I5
sS'unsurprising'
p5582
I2
sS'concentrating'
p5583
I2
sS'dissolving'
p5584
I2
sS'short'
p5585
I6
sS'stadiums'
p5586
I3
sS'shore'
p5587
I2
sS'vintage'
p5588
I2
sS'turnover'
p5589
I3
sS'september'
p5590
I10
sS'developed'
p5591
I5
sS'mission'
p5592
I3
sS'airing'
p5593
I3
sS'inquiries'
p5594
I2
sS'developer'
p5595
I2
sS'style'
p5596
I3
sS'agnelli'
p5597
I16
sS'environmentalist'
p5598
I2
sS'harmless'
p5599
I2
sS'strange'
p5600
I2
sS'disagrees'
p5601
I2
sS'stephen'
p5602
I2
sS'soccer'
p5603
I2
sS'might'
p5604
I23
sS'alter'
p5605
I2
sS'return'
p5606
I9
sS'hunter'
p5607
I2
sS'bancorp'
p5608
I3
sS'bigger'
p5609
I3
sS'marcus'
p5610
I2
sS'adjacent'
p5611
I2
sS'transportable'
p5612
I2
sS'characterized'
p5613
I2
sS'weighs'
p5614
I2
sS'weight'
p5615
I2
sS'generation'
p5616
I2
sS'brother'
p5617
I2
sS'expect'
p5618
I10
sS'telltale'
p5619
I2
sS'imploring'
p5620
I2
sS'health'
p5621
I5
sS'congenial'
p5622
I2
sS'compounding'
p5623
I2
sS'fiber'
p5624
I2
sS'wisconsin'
p5625
I3
sS'friday'
p5626
I4
sS'effect'
p5627
I5
sS'four-month'
p5628
I2
sS'generate'
p5629
I2
sS'lag'
p5630
I2
sS'fiat'
p5631
I6
sS'introduction'
p5632
I2
sS'deja'
p5633
I2
sS'throws'
p5634
I2
sS'feel'
p5635
I8
sS'babelists'
p5636
I2
sS'fancy'
p5637
I3
sS'traveled'
p5638
I2
sS'feet'
p5639
I4
sS'resnick'
p5640
I2
sS'fees'
p5641
I4
sS'slower'
p5642
I3
sS'passes'
p5643
I3
sS'story'
p5644
I2
sS'leading'
p5645
I6
sS'interviews'
p5646
I2
sS'180'
p5647
I3
sS'passed'
p5648
I3
sS'finances'
p5649
I2
sS'recovered'
p5650
I2
sS'headache'
p5651
I2
sS'pipelines'
p5652
I2
sS'hotel'
p5653
I2
sS'60'
p5654
I7
sS'treasurer'
p5655
I2
sS'convinced'
p5656
I2
sS'five-course'
p5657
I2
sS'reliever'
p5658
I2
sS'kind'
p5659
I3
sS'nagging'
p5660
I2
sS'double'
p5661
I2
sS'risks'
p5662
I2
sS'midmorning'
p5663
I2
sS'risky'
p5664
I2
sS'outstanding'
p5665
I6
sS'strengthen'
p5666
I5
sS'imports'
p5667
I2
sS'berthold'
p5668
I4
sS'shrewd'
p5669
I2
sS'depleted'
p5670
I2
sS'oriole'
p5671
I2
sS'nights'
p5672
I2
sS'cropped'
p5673
I2
sS'conforming'
p5674
I2
sS'chairman'
p5675
I21
sS'finding'
p5676
I3
sS'sherry'
p5677
I2
sS'fresca'
p5678
I4
sS'added'
p5679
I13
sS'electric'
p5680
I3
sS'42,455'
p5681
I2
sS'intervened'
p5682
I2
sS'measures'
p5683
I3
sS'reach'
p5684
I3
sS'75'
p5685
I2
sS'shareholder'
p5686
I6
sS'72'
p5687
I3
sS'70'
p5688
I4
sS'nothing'
p5689
I4
sS'seasons'
p5690
I2
sS'prestige'
p5691
I2
sS'soared'
p5692
I2
sS'stands'
p5693
I3
sS'patterned'
p5694
I2
sS'gas-tax-increasing'
p5695
I2
sS'dealers'
p5696
I3
sS'45-year-old'
p5697
I3
sS'institutions'
p5698
I10
sS'lying'
p5699
I2
sS'painewebber'
p5700
I2
sS'stones'
p5701
I2
sS'restarters'
p5702
I2
sS'cds'
p5703
I6
sS'deserts'
p5704
I2
sS'penalty'
p5705
I5
sS'counterpoint'
p5706
I3
sS'his'
p5707
I93
sS'founding'
p5708
I3
sS'gains'
p5709
I6
sS'mortgage-backed'
p5710
I3
sS'5,000'
p5711
I2
sS'industrywide'
p5712
I2
sS'him'
p5713
I16
sS'grievances'
p5714
I3
sS'statism'
p5715
I2
sS'investigate'
p5716
I2
sS'statist'
p5717
I2
sS'activity'
p5718
I4
sS'wrote'
p5719
I5
sS'principal'
p5720
I3
sS'evangelist-industrialist'
p5721
I2
sS'defense'
p5722
I2
sS'are'
p5723
I149
sS'cleverly'
p5724
I2
sS'2.2'
p5725
I2
sS'2.7'
p5726
I2
sS'2.6'
p5727
I3
sS'2.5'
p5728
I2
sS'2.4'
p5729
I3
sS'spirited'
p5730
I2
sS'invest*slashhere*net'
p5731
I2
sS'various'
p5732
I7
sS'downturn'
p5733
I2
sS'corruption'
p5734
I2
sS'solo'
p5735
I2
sS'korea'
p5736
I10
sS'recently'
p5737
I16
sS'creating'
p5738
I2
sS'initially'
p5739
I2
sS'sold'
p5740
I12
sS'sole'
p5741
I3
sS'outfit'
p5742
I2
sS'succeed'
p5743
I3
sS'opposition'
p5744
I2
sS'franchise'
p5745
I4
sS'license'
p5746
I2
sS'oversee'
p5747
I2
sS'rubendall'
p5748
I4
sS'became'
p5749
I7
sS'redemptions'
p5750
I2
sS'context'
p5751
I2
sS'nahas'
p5752
I4
sS'flies'
p5753
I2
sS'regulates'
p5754
I2
sS'duplicity'
p5755
I2
sS'reasons'
p5756
I5
sS'sweet'
p5757
I2
sS'slots'
p5758
I2
sS'bolster'
p5759
I3
sS'decline'
p5760
I3
sS'duo'
p5761
I3
sS'352-mile'
p5762
I2
sS'hashidate'
p5763
I2
sS'due'
p5764
I6
sS'strategy'
p5765
I4
sS'whom'
p5766
I2
sS'reduction'
p5767
I2
sS'3*slashhere*4'
p5768
I5
sS'orioles'
p5769
I2
sS'3*slashhere*8'
p5770
I2
sS'chandler'
p5771
I2
sS'woke'
p5772
I2
sS'flight'
p5773
I2
sS'precision'
p5774
I2
sS'vaguely'
p5775
I2
sS'brokers'
p5776
I3
sS'demand'
p5777
I4
sS'plants'
p5778
I3
sS'stolen'
p5779
I3
sS'anticult'
p5780
I2
sS'unprecedented'
p5781
I2
sS'tweaking'
p5782
I2
sS'p.'
p5783
I3
sS'miles'
p5784
I2
sS'19.7'
p5785
I3
sS'uninspired'
p5786
I2
sS'disappointing'
p5787
I2
sS'obstacle'
p5788
I2
sS'headway'
p5789
I2
sS'lengthy'
p5790
I2
sS'fate'
p5791
I2
sS'widely'
p5792
I4
sS'peoples'
p5793
I3
sS'9'
I8
sS'advise'
p5794
I3
sS'doubleday'
p5795
I2
sS'higher'
p5796
I13
sS'biochemist'
p5797
I2
sS'painless'
p5798
I2
sS'negotiate'
p5799
I3
sS'flown'
p5800
I2
sS'moving'
p5801
I5
sS'anti-japanese'
p5802
I2
sS'lower'
p5803
I12
sS'cheek'
p5804
I2
sS'bounces'
p5805
I2
sS'analysis'
p5806
I2
sS'cheer'
p5807
I2
sS'edge'
p5808
I3
sS'machinery'
p5809
I4
sS'grievance'
p5810
I3
sS'competitive'
p5811
I2
sS'questions'
p5812
I5
sS'turbulence'
p5813
I2
sS'regardless'
p5814
I2
sS'prince'
p5815
I3
sS'profitable'
p5816
I4
sS'old-time'
p5817
I2
sS'advisers'
p5818
I2
sS'workers'
p5819
I8
sS'exclusively'
p5820
I2
sS'contractor'
p5821
I2
sS"tong'il"
p5822
I2
sS'tamer'
p5823
I2
sS'customers'
p5824
I9
sS'discriminatory'
p5825
I2
sS'moody'
p5826
I6
sS'separately'
p5827
I4
sS'collect'
p5828
I2
sS'yorker'
p5829
I3
sS'hallmark'
p5830
I2
sS'3.6'
p5831
I3
sS'understood'
p5832
I2
sS'3.5'
p5833
I2
sS'3.2'
p5834
I2
sS'3.8'
p5835
I2
sS'3.9'
p5836
I2
sS'incendiary'
p5837
I2
sS'seller'
p5838
I2
sS'bankruptcy-law'
p5839
I3
sS'innovation'
p5840
I2
sS'anne'
p5841
I2
sS'payments'
p5842
I13
sS'under-reported'
p5843
I2
sS'martin'
p5844
I4
sS'refused'
p5845
I5
sS'4.67'
p5846
I2
sS'hindemith'
p5847
I2
sS'dormant'
p5848
I2
sS'guber-peters'
p5849
I6
sS'pipeline'
p5850
I4
sS'pro-'
p5851
I2
sS'hatred'
p5852
I2
sS'resiliency'
p5853
I2
sS'procter'
p5854
I2
sS'intraday'
p5855
I2
sS'introverted'
p5856
I2
sS'question'
p5857
I5
sS'long'
p5858
I12
sS'back-pay'
p5859
I2
sS'vienna'
p5860
I3
sS'files'
p5861
I4
sS'plunge'
p5862
I2
sS'criteria'
p5863
I2
sS'goods-producing'
p5864
I2
sS'filed'
p5865
I15
sS'raising'
p5866
I4
sS'declarations'
p5867
I2
sS'called'
p5868
I9
sS'associated'
p5869
I3
sS'quantification'
p5870
I2
sS'associates'
p5871
I5
sS'rally'
p5872
I2
sS'dessert-menu'
p5873
I2
sS'119'
p5874
I2
sS'peace'
p5875
I5
sS'backs'
p5876
I2
sS'income'
p5877
I4
sS'mcdonnell'
p5878
I4
sS'muddled'
p5879
I2
sS'six-cent'
p5880
I2
sS'problems'
p5881
I8
sS'helping'
p5882
I2
sS'generated'
p5883
I3
sS'chugoku'
p5884
I2
sS'allowing'
p5885
I2
sS'pottery'
p5886
I2
sS'vice'
p5887
I20
sS'departments'
p5888
I2
sS'intentional'
p5889
I2
sS'once'
p5890
I13
sS'issued'
p5891
I6
sS'resistance'
p5892
I2
sS'steve'
p5893
I3
sS'windy'
p5894
I3
sS'issues'
p5895
I17
sS'disposal'
p5896
I2
sS'stable'
p5897
I3
sS'breach'
p5898
I2
sS'include'
p5899
I7
sS'1988-return'
p5900
I2
sS'drinking'
p5901
I2
sS'posture'
p5902
I2
sS'notes'
p5903
I5
sS'deals'
p5904
I2
sS'three-judge'
p5905
I2
sS'noted'
p5906
I2
sS'concluded'
p5907
I2
sS'someday'
p5908
I2
sS'smaller'
p5909
I3
sS'gripping'
p5910
I2
sS'wrestling'
p5911
I2
sS'malice'
p5912
I2
sS'beanballs'
p5913
I2
sS'abominable'
p5914
I2
sS'growers'
p5915
I3
sS'makers'
p5916
I9
sS'concessions'
p5917
I2
sS'networks'
p5918
I2
sS'waiting'
p5919
I2
sS'gubernatorial'
p5920
I2
sS'capital'
p5921
I10
sS'realignments'
p5922
I2
sS'n.m'
p5923
I2
sS'n.j'
p5924
I2
sS'degree'
p5925
I2
sS'pushing'
p5926
I2
sS'n.y'
p5927
I2
sS'horse-breeding'
p5928
I2
sS'incriminating'
p5929
I2
sS'fulton'
p5930
I2
sS'deputy'
p5931
I2
sS'apt'
p5932
I2
sS'motor'
p5933
I8
sS'apply'
p5934
I6
sS'fed'
p5935
I4
sS'from'
p5936
I153
sS'hippie'
p5937
I2
sS'consumption'
p5938
I2
sS'&'
I28
sS'few'
p5939
I16
sS'weeping'
p5940
I2
sS'december'
p5941
I8
sS'timetable'
p5942
I2
sS'parliament'
p5943
I2
sS'journalists'
p5944
I3
sS'posturing'
p5945
I2
sS'shostakovich'
p5946
I2
sS'women'
p5947
I2
sS'1980s'
p5948
I2
sS'us$'
p5949
I3
sS'critic'
p5950
I3
sS'condominium'
p5951
I2
sS'performed'
p5952
I2
sS'payroll-tax'
p5953
I2
sS'tap'
p5954
I2
sS'120-day'
p5955
I3
sS'0.1'
p5956
I2
sS'0.3'
p5957
I2
sS'0.2'
p5958
I2
sS'tax'
p5959
I18
sS'0.4'
p5960
I2
sS'something'
p5961
I5
sS'summers'
p5962
I2
sS'united'
p5963
I6
sS'sit'
p5964
I3
sS'six'
p5965
I12
sS'traders'
p5966
I5
sS'brian'
p5967
I2
sS'3642.90'
p5968
I2
sS'instead'
p5969
I7
sS'tension'
p5970
I2
sS'restructured'
p5971
I2
sS'abuse'
p5972
I2
sS'ethnic'
p5973
I2
sS'improviser'
p5974
I2
sS'light'
p5975
I12
sS'chapman'
p5976
I2
sS'improvised'
p5977
I2
sS'tropics'
p5978
I4
sS'quake'
p5979
I2
sS'obeisance'
p5980
I2
sS'superior'
p5981
I2
sS'complicate'
p5982
I2
sS'ships'
p5983
I2
sS'anti-nuclear'
p5984
I2
sS'permanent'
p5985
I2
sS'restrain'
p5986
I2
sS'covered'
p5987
I2
sS'holiday'
p5988
I4
sS'defining'
p5989
I2
sS'8.3875'
p5990
I2
sS'crash'
p5991
I8
sS'contention'
p5992
I2
sS'orthodox'
p5993
I2
sS'material'
p5994
I3
sS'republican'
p5995
I3
sS'investor'
p5996
I5
sS'fled'
p5997
I3
sS'articles'
p5998
I2
sS'cellists'
p5999
I2
sS'bickford'
p6000
I2
sS'bills'
p6001
I6
sS'studios'
p6002
I2
sS'registration'
p6003
I3
sS'3.45'
p6004
I2
sS'related'
p6005
I2
sS'89'
p6006
I2
sS'our'
p6007
I12
sS'80'
p6008
I3
sS'out'
p6009
I31
sS'category'
p6010
I2
sS'honorably'
p6011
I2
sS'unencumbered'
p6012
I2
sS'dictionary'
p6013
I2
sS'southern'
p6014
I3
sS'provident'
p6015
I2
sS'york'
p6016
I21
sS'broker-dealer'
p6017
I2
sS'segregated'
p6018
I2
sS'navies'
p6019
I2
sS'ltd'
p6020
I4
sS'lagged'
p6021
I2
sS'plainly'
p6022
I2
sS'baby-faced'
p6023
I2
sS'galvanized'
p6024
I2
sS'tacker'
p6025
I4
sS'proposing'
p6026
I2
sS'probation'
p6027
I2
sS'kingman'
p6028
I2
sS'publication'
p6029
I2
sS'priority'
p6030
I2
sS'wood-paneled'
p6031
I2
sS'tidbit'
p6032
I2
sS'shelf'
p6033
I3
sS'doomed'
p6034
I2
sS'debate'
p6035
I10
sS'slides'
p6036
I2
sS'reflecting'
p6037
I2
sS'july'
p6038
I9
sS'chisholm'
p6039
I2
sS'institution'
p6040
I2
sS'cash-flush'
p6041
I2
sS'patients'
p6042
I3
sS'encore'
p6043
I2
sS'1.4'
p6044
I2
sS'1.6'
p6045
I2
sS'sea'
p6046
I5
sS'1.2'
p6047
I2
sS'1.8'
p6048
I2
sS'1.9'
p6049
I2
sS'westward'
p6050
I2
sS'sincerity'
p6051
I2
sS'faux'
p6052
I2
sS'linked'
p6053
I2
sS'pallor'
p6054
I2
sS'agency'
p6055
I29
sS'which'
p6056
I85
sS'martha'
p6057
I2
sS'first-quarter'
p6058
I2
sS'combat'
p6059
I3
sS'collaboration'
p6060
I2
sS'who'
p6061
I79
sS'accountants'
p6062
I4
sS'why'
p6063
I4
sS'administrators'
p6064
I2
sS'410,000'
p6065
I2
sS'looked'
p6066
I4
sS'movie'
p6067
I2
sS'gain'
p6068
I4
sS'bulging'
p6069
I2
sS'chances'
p6070
I2
sS'agreed'
p6071
I13
sS'planning'
p6072
I2
sS'democrats'
p6073
I6
sS'fear'
p6074
I2
sS'feat'
p6075
I2
sS'pleased'
p6076
I3
sS'litigation'
p6077
I3
sS'piano'
p6078
I2
sS'thousands'
p6079
I3
sS'q.'
p6080
I2
sS'sued'
p6081
I2
sS'watching'
p6082
I2
sS'midnight'
p6083
I2
sS'massacre'
p6084
I2
sS'ones'
p6085
I4
sS'penetrate'
p6086
I2
sS'mulford'
p6087
I9
sS'ended'
p6088
I7
sS'available'
p6089
I3
sS'acquired'
p6090
I5
sS'unfairly'
p6091
I2
sS'acquirer'
p6092
I2
sS'acquires'
p6093
I2
sS'mid-november'
p6094
I2
sS'genius'
p6095
I2
sS'closed'
p6096
I12
sS'pure-voiced'
p6097
I2
sS'frustrated'
p6098
I2
sS'bought'
p6099
I4
sS'weighing'
p6100
I2
sS'ability'
p6101
I3
sS'opening'
p6102
I7
sS'beverages'
p6103
I2
sS'agencies'
p6104
I8
sS'embarrassment'
p6105
I2
sS'job'
p6106
I6
sS'takeover'
p6107
I5
sS'joe'
p6108
I2
sS'probing'
p6109
I2
sS'jon'
p6110
I2
sS'april'
p6111
I4
sS'urging'
p6112
I4
sS'unclear'
p6113
I2
sS'wall'
p6114
I7
sS'grinevsky'
p6115
I2
sS'narrower'
p6116
I2
sS'ploys'
p6117
I2
sS'packaging'
p6118
I2
sS'table'
p6119
I2
sS'flashes'
p6120
I3
sS'fishery'
p6121
I2
sS'trademark'
p6122
I2
sS'730'
p6123
I2
sS'arbitrator'
p6124
I8
sS'agreements'
p6125
I4
sS'remedies'
p6126
I2
sS'thrusting'
p6127
I2
sS'full-time'
p6128
I3
sS'scrutiny'
p6129
I2
sS'improved'
p6130
I2
sS'present'
p6131
I3
sS'wily'
p6132
I2
sS'overuse'
p6133
I2
sS'vanilla'
p6134
I2
sS'choices'
p6135
I2
sS'will'
p6136
I118
sS'non-proliferation'
p6137
I2
sS'thus'
p6138
I2
sS'audiences'
p6139
I4
sS'dual'
p6140
I2
sS'lightweight'
p6141
I2
sS'co-edited'
p6142
I2
sS'perhaps'
p6143
I5
sS'conrail'
p6144
I2
sS'privileges'
p6145
I3
sS'member'
p6146
I5
sS'largest'
p6147
I11
sS'units'
p6148
I5
sS'gets'
p6149
I2
sS'burnouts'
p6150
I2
sS'difficult'
p6151
I8
sS'premiere'
p6152
I2
sS'disagree'
p6153
I2
sS'correspondent'
p6154
I2
sS'whole'
p6155
I7
sS'fighting'
p6156
I2
sS'english'
p6157
I3
sS'decliners'
p6158
I2
sS'inc.'
p6159
I36
sS'routinely'
p6160
I3
sS'heavily'
p6161
I3
sS'gyrations'
p6162
I2
sS'fishing'
p6163
I2
sS'7*slashhere*16'
p6164
I5
sS'sublime'
p6165
I2
sS'supply'
p6166
I2
sS'sky'
p6167
I2
sS'clyde'
p6168
I2
sS'other'
p6169
I62
sS'adoption'
p6170
I3
sS'attractive'
p6171
I3
sS'pampers'
p6172
I2
sS'provisions'
p6173
I3
sS'protesters'
p6174
I5
sS'republics'
p6175
I2
sS'know'
p6176
I6
sS'catchers'
p6177
I2
sS'press'
p6178
I8
sS'miami'
p6179
I2
sS'perpetual'
p6180
I2
sS'loses'
p6181
I2
sS'taxpayers'
p6182
I11
sS'hosts'
p6183
I2
sS'construe'
p6184
I2
sS'james'
p6185
I5
sS'stain-resistant'
p6186
I2
sS'parity'
p6187
I6
sS'5,600'
p6188
I2
sS'because'
p6189
I32
sS'scottish'
p6190
I2
sS'searching'
p6191
I2
sS'115'
p6192
I2
sS'growth'
p6193
I9
sS'export'
p6194
I2
sS'empire'
p6195
I2
sS'employment'
p6196
I2
sS'wellesley'
p6197
I2
sS'lead'
p6198
I6
sS'severance'
p6199
I2
sS'lean'
p6200
I2
sS'york-based'
p6201
I2
sS'leader'
p6202
I15
sS'thoroughfare'
p6203
I2
sS'27.6'
p6204
I2
sS'27.4'
p6205
I2
sS'rare'
p6206
I4
sS'carried'
p6207
I2
sS'getting'
p6208
I7
sS'urged'
p6209
I3
sS'carries'
p6210
I3
sS'carrier'
p6211
I6
sS'sweat'
p6212
I2
sS'urges'
p6213
I2
sS'own'
p6214
I15
sS'polished'
p6215
I2
sS'owe'
p6216
I4
sS'warrants'
p6217
I2
sS'promise'
p6218
I2
sS'lawful'
p6219
I5
sS'yankee'
p6220
I2
sS'texaco'
p6221
I2
sS'transfer'
p6222
I3
sS'continental'
p6223
I2
sS'intention'
p6224
I2
sS'ed'
p6225
I2
sS'breeding'
p6226
I2
sS'triggered'
p6227
I4
sS'multistate'
p6228
I2
sS'funds'
p6229
I14
sS'volume'
p6230
I5
sS'automated'
p6231
I2
sS'squeeze'
p6232
I2
sS'made'
p6233
I22
sS'tactics'
p6234
I2
sS'whether'
p6235
I8
sS'record'
p6236
I11
sS'below'
p6237
I3
sS'ruling'
p6238
I10
sS'200,000'
p6239
I2
sS'8.395'
p6240
I2
sS'911,606'
p6241
I2
sS'mutual'
p6242
I2
sS"'ll"
p6243
I4
sS'percent'
p6244
I2
sS'illinois'
p6245
I2
sS'book'
p6246
I3
sS'branch'
p6247
I7
sS'album'
p6248
I2
sS'kinds'
p6249
I4
sS'june'
p6250
I7
sS'frustrate'
p6251
I2
sS'shere'
p6252
I7
sS'income-tax'
p6253
I3
sS'priced'
p6254
I6
sS'4.25'
p6255
I5
sS'4.27'
p6256
I2
sS'intentionally'
p6257
I2
sS'ideological'
p6258
I2
sS'smoke-filled'
p6259
I2
s.