(dp1
S'PRP$'
p2
(dp3
g2
F0.0025400050800101601
sS'VBG'
p4
F0.032495296733367533
sS'FW'
p5
F0.050761421319796954
sS'VBN'
p6
F0.0098558580756437104
sS','
F0.0040968914835868286
sS'VBP'
p7
F0.012898470609913395
sS'WDT'
p8
F0.005243838489774515
sS'JJ'
p9
F0.00073348736568012616
sS'WP'
p10
F0.0084245998315080027
sS'VBZ'
p11
F0.011296598468683318
sS'DT'
p12
F0.0020972525990951853
sS'#'
F0.17543859649122806
sS'"'
F0.011748580379870767
sS'RP'
p13
F0.059737156511350059
sS'$'
F0.0053276505061267982
sS'NN'
p14
F0.0005803044664100432
sS'start'
p15
F0.010115698299298223
sS')'
F0.013568521031207597
sS'('
F0.025740025740025738
sS'VBD'
p16
F0.03319647069101074
sS'POS'
p17
F0.0028514399771884802
sS'.'
F0.00063463857333248715
sS'TO'
p18
F0.018811552506362732
sS'PRP'
p19
F0.0012891581797086502
sS'RB'
p20
F0.0054402735680422788
sS':'
F0.0082406262875978579
sS'NNS'
p21
F0.0003986128273607845
sS'NNP'
p22
F0.00027718491005349668
sS'VB'
p23
F0.053740140417786249
sS'WRB'
p24
F0.041797283176593522
sS'`'
F0.17543859649122806
sS'CC'
p25
F0.024662128834961033
sS'LS'
p26
F0.085470085470085472
sS'PDT'
p27
F0.068027210884353748
sS'RBS'
p28
F0.046082949308755762
sS'RBR'
p29
F0.013210039630118889
sS'CD'
p30
F0.00081987373944412555
sS'EX'
p31
F0.028818443804034581
sS'IN'
p32
F0.041295816554236031
sS'WP$'
p33
F0.063694267515923567
sS'MD'
p34
F0.0022794620469569183
sS'NNPS'
p35
F0.0051626226122870418
sS"'"
F0.17543859649122806
sS'JJS'
p36
F0.014771048744460856
sS'JJR'
p37
F0.0074239049740163331
sS'SYM'
p38
F0.14925373134328357
sS'UH'
p39
F0.14925373134328357
ssg4
(dp40
g2
F0.0127000254000508
sg4
F0.0085513938772019838
sg5
F0.050761421319796954
sg6
F0.024639645189109275
sS','
F0.044553694884006761
sg7
F0.086604016952275653
sg8
F0.005243838489774515
sg9
F0.0047676678769208204
sg10
F0.0084245998315080027
sg11
F0.055227814735785113
sg12
F0.0083890103963807413
sS'#'
F0.17543859649122806
sS'"'
F0.017622870569806149
sg13
F0.011947431302270011
sS'$'
F0.0053276505061267982
sg14
F0.010252045573244096
sg15
F0.012644622874122779
sS')'
F0.027137042062415195
sS'('
F0.012870012870012869
sg16
F0.013977461343583471
sg17
F0.011405759908753921
sS'.'
F0.00063463857333248715
sg18
F0.0044262476485559367
sg19
F0.0025783163594173004
sg20
F0.025647003963627884
sS':'
F0.0082406262875978579
sg21
F0.017538964403874518
sg22
F0.0024946641904814702
sg23
F0.012134870416919475
sg24
F0.010449320794148381
sS'`'
F0.17543859649122806
sg25
F0.015783762454375062
sg26
F0.085470085470085472
sg27
F0.068027210884353748
sg28
F0.046082949308755762
sg29
F0.013210039630118889
sg30
F0.0016397474788882511
sg31
F0.028818443804034581
sg32
F0.031805473619411599
sg33
F0.063694267515923567
sg34
F0.0022794620469569183
sg35
F0.0051626226122870418
sS"'"
F0.17543859649122806
sg36
F0.014771048744460856
sg37
F0.0074239049740163331
sg38
F0.14925373134328357
sg39
F0.14925373134328357
ssg5
(dp41
g2
F0.0025400050800101601
sg4
F0.0017102787754403965
sg5
F0.20304568527918782
sg6
F0.0012319822594554638
sS','
F0.0010242228708967072
sg7
F0.0018426386585590564
sg8
F0.005243838489774515
sg9
F0.00036674368284006308
sg10
F0.0084245998315080027
sg11
F0.0012551776076314798
sg12
F0.00029960751415645506
sS'#'
F0.17543859649122806
sS'"'
F0.0039161934599569216
sg13
F0.011947431302270011
sS'$'
F0.0053276505061267982
sg14
F0.00019343482213668106
sg15
F0.0012644622874122778
sS')'
F0.013568521031207597
sS'('
F0.012870012870012869
sg16
F0.00087359133397396692
sg17
F0.0028514399771884802
sS'.'
F0.00063463857333248715
sg18
F0.0011065619121389842
sg19
F0.0012891581797086502
sg20
F0.00077718193829175402
sS':'
F0.0041203131437989289
sg21
F0.0003986128273607845
sg22
F0.0019402943703744769
sg23
F0.00086677645835139111
sg24
F0.010449320794148381
sS'`'
F0.17543859649122806
sg25
F0.00098648515339844135
sg26
F0.085470085470085472
sg27
F0.068027210884353748
sg28
F0.046082949308755762
sg29
F0.013210039630118889
sg30
F0.0016397474788882511
sg31
F0.028818443804034581
sg32
F0.00051299150999050964
sg33
F0.063694267515923567
sg34
F0.0022794620469569183
sg35
F0.0051626226122870418
sS"'"
F0.17543859649122806
sg36
F0.014771048744460856
sg37
F0.0074239049740163331
sg38
F0.14925373134328357
sg39
F0.14925373134328357
ssg6
(dp42
g2
F0.0025400050800101601
sg4
F0.034205575508807935
sg5
F0.050761421319796954
sg6
F0.028335591967475666
sS','
F0.014851231628002252
sg7
F0.17136539524599226
sg8
F0.005243838489774515
sg9
F0.0011002310485201893
sg10
F0.0084245998315080027
sg11
F0.15689720095393497
sg12
F0.0065913653114420111
sS'#'
F0.17543859649122806
sS'"'
F0.011748580379870767
sg13
F0.011947431302270011
sS'$'
F0.0053276505061267982
sg14
F0.014701046482387761
sg15
F0.0075867737244736675
sS')'
F0.013568521031207597
sS'('
F0.025740025740025738
sg16
F0.1004630034070062
sg17
F0.0057028799543769604
sS'.'
F0.00063463857333248715
sg18
F0.0022131238242779684
sg19
F0.0012891581797086502
sg20
F0.072277920261133125
sS':'
F0.020601565718994644
sg21
F0.023119543986925502
sg22
F0.00055436982010699336
sg23
F0.084077316460084942
sg24
F0.020898641588296761
sS'`'
F0.17543859649122806
sg25
F0.011837821840781295
sg26
F0.085470085470085472
sg27
F0.068027210884353748
sg28
F0.046082949308755762
sg29
F0.026420079260237778
sg30
F0.0049192424366647537
sg31
F0.028818443804034581
sg32
F0.0051299150999050969
sg33
F0.063694267515923567
sg34
F0.0045589240939138366
sg35
F0.010325245224574084
sS"'"
F0.17543859649122806
sg36
F0.014771048744460856
sg37
F0.014847809948032666
sg38
F0.14925373134328357
sg39
F0.14925373134328357
ssS','
(dp43
g2
F0.0025400050800101601
sg4
F0.0085513938772019838
sg5
F0.050761421319796954
sg6
F0.030799556486386593
sS','
F0.00051211143544835358
sg7
F0.031324857195503958
sg8
F0.01048767697954903
sg9
F0.031539956724245428
sg10
F0.033698399326032011
sg11
F0.016317308899209237
sg12
F0.0017976450849387304
sS'#'
F0.17543859649122806
sS'"'
F0.0019580967299784608
sg13
F0.047789725209080043
sS'$'
F0.0053276505061267982
sg14
F0.11760837185910208
sg15
F0.00063223114370613892
sS')'
F0.27137042062415195
sS'('
F0.012870012870012869
sg16
F0.026207740019219009
sg17
F0.0028514399771884802
sS'.'
F0.00063463857333248715
sg18
F0.0033196857364169523
sg19
F0.018048214515921101
sg20
F0.10103365197792803
sS':'
F0.0041203131437989289
sg21
F0.13273807151114123
sg22
F0.13360312664578541
sg23
F0.016468752708676433
sg24
F0.010449320794148381
sS'`'
F0.17543859649122806
sg25
F0.0069053960737890888
sg26
F0.59829059829059827
sg27
F0.068027210884353748
sg28
F0.046082949308755762
sg29
F0.039630118890356669
sg30
F0.090186111338853819
sg31
F0.028818443804034581
sg32
F0.0017954702849667839
sg33
F0.063694267515923567
sg34
F0.0022794620469569183
sg35
F0.11357769747031493
sS"'"
F0.17543859649122806
sg36
F0.059084194977843424
sg37
F0.08166295471417967
sg38
F0.14925373134328357
sg39
F0.29850746268656714
ssg7
(dp44
g2
F0.0025400050800101601
sg4
F0.0034205575508807931
sg5
F0.050761421319796954
sg6
F0.0024639645189109276
sS','
F0.011266451579863779
sg7
F0.0018426386585590564
sg8
F0.1363398007341374
sg9
F0.0011002310485201893
sg10
F0.17691659646166807
sg11
F0.0012551776076314798
sg12
F0.0035952901698774607
sS'#'
F0.17543859649122806
sS'"'
F0.009790483649892304
sg13
F0.011947431302270011
sS'$'
F0.0053276505061267982
sg14
F0.0044490009091436638
sg15
F0.0012644622874122778
sS')'
F0.013568521031207597
sS'('
F0.012870012870012869
sg16
F0.0017471826679479338
sg17
F0.0028514399771884802
sS'.'
F0.00063463857333248715
sg18
F0.0011065619121389842
sg19
F0.17403635426066777
sg20
F0.029532913655086656
sS':'
F0.012360939431396786
sg21
F0.076533662853270623
sg22
F0.0052665132910164371
sg23
F0.0026003293750541732
sg24
F0.020898641588296761
sS'`'
F0.17543859649122806
sg25
F0.01479727730097662
sg26
F0.085470085470085472
sg27
F0.068027210884353748
sg28
F0.046082949308755762
sg29
F0.013210039630118889
sg30
F0.0073788636549971306
sg31
F0.11527377521613832
sg32
F0.00076948726498576457
sg33
F0.063694267515923567
sg34
F0.0022794620469569183
sg35
F0.077439339184305636
sS"'"
F0.17543859649122806
sg36
F0.044313146233382568
sg37
F0.0074239049740163331
sg38
F0.14925373134328357
sg39
F0.14925373134328357
ssg8
(dp45
g2
F0.0025400050800101601
sg4
F0.0017102787754403965
sg5
F0.050761421319796954
sg6
F0.0012319822594554638
sS','
F0.037384134787729811
sg7
F0.0018426386585590564
sg8
F0.005243838489774515
sg9
F0.00036674368284006308
sg10
F0.0084245998315080027
sg11
F0.0012551776076314798
sg12
F0.00029960751415645506
sS'#'
F0.17543859649122806
sS'"'
F0.0078323869199138432
sg13
F0.011947431302270011
sS'$'
F0.0053276505061267982
sg14
F0.011992958972474226
sg15
F0.0018966934311184169
sS')'
F0.013568521031207597
sS'('
F0.012870012870012869
sg16
F0.00087359133397396692
sg17
F0.0028514399771884802
sS'.'
F0.00063463857333248715
sg18
F0.0022131238242779684
sg19
F0.0025783163594173004
sg20
F0.00077718193829175402
sS':'
F0.012360939431396786
sg21
F0.010363933511380397
sg22
F0.0011087396402139867
sg23
F0.00086677645835139111
sg24
F0.010449320794148381
sS'`'
F0.17543859649122806
sg25
F0.0029594554601953238
sg26
F0.085470085470085472
sg27
F0.068027210884353748
sg28
F0.046082949308755762
sg29
F0.013210039630118889
sg30
F0.00081987373944412555
sg31
F0.028818443804034581
sg32
F0.0035909405699335677
sg33
F0.063694267515923567
sg34
F0.0022794620469569183
sg35
F0.0051626226122870418
sS"'"
F0.17543859649122806
sg36
F0.014771048744460856
sg37
F0.0074239049740163331
sg38
F0.14925373134328357
sg39
F0.14925373134328357
ssg9
(dp46
g2
F0.2159004318008636
sg4
F0.059859757140413881
sg5
F0.050761421319796954
sg6
F0.056671183934951332
sS','
F0.057868592205663955
sg7
F0.10687304219642527
sg8
F0.01048767697954903
sg9
F0.08801848388161515
sg10
F0.016849199663016005
sg11
F0.097903853395255425
sg12
F0.22740210324474938
sS'#'
F0.17543859649122806
sS'"'
F0.10377912668885843
sg13
F0.083632019115890077
sS'$'
F0.0053276505061267982
sg14
F0.0085111321740139658
sg15
F0.039830562053486757
sS')'
F0.013568521031207597
sS'('
F0.090090090090090086
sg16
F0.052415480038438017
sg17
F0.19389791844881665
sS'.'
F0.00063463857333248715
sg18
F0.048688724134115298
sg19
F0.0064457908985432509
sg20
F0.10958265329913733
sS':'
F0.037082818294190363
sg21
F0.015147287439709811
sg22
F0.0083155473016049003
sg23
F0.097945739793707201
sg24
F0.15673981191222569
sS'`'
F0.17543859649122806
sg25
F0.13514846601558647
sg26
F0.085470085470085472
sg27
F0.068027210884353748
sg28
F0.64516129032258063
sg29
F0.42272126816380445
sg30
F0.0385340657538739
sg31
F0.028818443804034581
sg32
F0.099776848693154133
sg33
F0.12738853503184713
sg34
F0.0022794620469569183
sg35
F0.0051626226122870418
sS"'"
F0.17543859649122806
sg36
F0.103397341211226
sg37
F0.08166295471417967
sg38
F0.14925373134328357
sg39
F0.14925373134328357
ssg10
(dp47
g2
F0.0025400050800101601
sg4
F0.0017102787754403965
sg5
F0.050761421319796954
sg6
F0.0012319822594554638
sS','
F0.019460234547037436
sg7
F0.0036852773171181128
sg8
F0.005243838489774515
sg9
F0.00036674368284006308
sg10
F0.0084245998315080027
sg11
F0.0062758880381573985
sg12
F0.0020972525990951853
sS'#'
F0.17543859649122806
sS'"'
F0.017622870569806149
sg13
F0.011947431302270011
sS'$'
F0.0053276505061267982
sg14
F0.0034818267984602588
sg15
F0.0018966934311184169
sS')'
F0.013568521031207597
sS'('
F0.012870012870012869
sg16
F0.0017471826679479338
sg17
F0.0028514399771884802
sS'.'
F0.0012692771466649743
sg18
F0.0022131238242779684
sg19
F0.0012891581797086502
sg20
F0.0031087277531670161
sS':'
F0.0082406262875978579
sg21
F0.0083708693745764753
sg22
F0.00055436982010699336
sg23
F0.0026003293750541732
sg24
F0.010449320794148381
sS'`'
F0.17543859649122806
sg25
F0.00098648515339844135
sg26
F0.085470085470085472
sg27
F0.068027210884353748
sg28
F0.046082949308755762
sg29
F0.013210039630118889
sg30
F0.00081987373944412555
sg31
F0.028818443804034581
sg32
F0.0017954702849667839
sg33
F0.063694267515923567
sg34
F0.0022794620469569183
sg35
F0.015487867836861126
sS"'"
F0.17543859649122806
sg36
F0.014771048744460856
sg37
F0.0074239049740163331
sg38
F0.14925373134328357
sg39
F0.14925373134328357
ssg11
(dp48
g2
F0.0025400050800101601
sg4
F0.0034205575508807931
sg5
F0.050761421319796954
sg6
F0.0024639645189109276
sS','
F0.03431146617503969
sg7
F0.0018426386585590564
sg8
F0.28841111693759836
sg9
F0.0022004620970403786
sg10
F0.21061499578770007
sg11
F0.0012551776076314798
sg12
F0.0059921502831291008
sS'#'
F0.17543859649122806
sS'"'
F0.074407675739181514
sg13
F0.011947431302270011
sS'$'
F0.0053276505061267982
sg14
F0.037913225138789489
sg15
F0.0031611557185306947
sS')'
F0.013568521031207597
sS'('
F0.012870012870012869
sg16
F0.00087359133397396692
sg17
F0.0057028799543769604
sS'.'
F0.00063463857333248715
sg18
F0.0011065619121389842
sg19
F0.17790382879979372
sg20
F0.035750369161420686
sS':'
F0.012360939431396786
sg21
F0.0059791924104117674
sg22
F0.036588408127061565
sg23
F0.0026003293750541732
sg24
F0.031347962382445138
sS'`'
F0.17543859649122806
sg25
F0.023675643681562591
sg26
F0.085470085470085472
sg27
F0.068027210884353748
sg28
F0.092165898617511524
sg29
F0.026420079260237778
sg30
F0.0040993686972206275
sg31
F0.40345821325648412
sg32
F0.0015389745299715291
sg33
F0.063694267515923567
sg34
F0.0022794620469569183
sg35
F0.02581311306143521
sS"'"
F0.17543859649122806
sg36
F0.014771048744460856
sg37
F0.0074239049740163331
sg38
F0.14925373134328357
sg39
F0.14925373134328357
ssg12
(dp49
g2
F0.0025400050800101601
sg4
F0.19497178040020521
sg5
F0.050761421319796954
sg6
F0.071454971048416902
sS','
F0.13007630460388181
sg7
F0.1142435968306615
sg8
F0.04719454640797064
sg9
F0.0040341805112406939
sg10
F0.050547598989048016
sg11
F0.18953181875235345
sg12
F0.0026964676274080957
sS'#'
F0.17543859649122806
sS'"'
F0.10769532014881536
sg13
F0.34647550776583036
sS'$'
F0.0053276505061267982
sg14
F0.0042555660870069829
sg15
F0.2307643674527407
sS')'
F0.04070556309362279
sS'('
F0.090090090090090086
sg16
F0.18520136280248098
sg17
F0.0028514399771884802
sS'.'
F0.0012692771466649743
sg18
F0.11508243886245435
sg19
F0.0090241072579605505
sg20
F0.049739644050672258
sS':'
F0.11536876802637001
sg21
F0.015147287439709811
sg22
F0.0024946641904814702
sg23
F0.214960561671145
sg24
F0.17763845350052246
sS'`'
F0.17543859649122806
sg25
F0.11739173325441452
sg26
F0.085470085470085472
sg27
F0.68027210884353739
sg28
F0.046082949308755762
sg29
F0.11889035667107001
sg30
F0.017217348528326636
sg31
F0.028818443804034581
sg32
F0.33831790083874114
sg33
F0.063694267515923567
sg34
F0.0045589240939138366
sg35
F0.0051626226122870418
sS"'"
F0.17543859649122806
sg36
F0.014771048744460856
sg37
F0.0074239049740163331
sg38
F0.14925373134328357
sg39
F0.14925373134328357
ssS'#'
(dp50
g2
F0.0025400050800101601
sg4
F0.0017102787754403965
sg5
F0.050761421319796954
sg6
F0.0012319822594554638
sS','
F0.00051211143544835358
sg7
F0.0018426386585590564
sg8
F0.005243838489774515
sg9
F0.00036674368284006308
sg10
F0.0084245998315080027
sg11
F0.0012551776076314798
sg12
F0.00029960751415645506
sS'#'
F0.17543859649122806
sS'"'
F0.0019580967299784608
sg13
F0.011947431302270011
sS'$'
F0.0053276505061267982
sg14
F0.00019343482213668106
sg15
F0.00063223114370613892
sS')'
F0.013568521031207597
sS'('
F0.012870012870012869
sg16
F0.00087359133397396692
sg17
F0.0028514399771884802
sS'.'
F0.00063463857333248715
sg18
F0.0011065619121389842
sg19
F0.0012891581797086502
sg20
F0.00077718193829175402
sS':'
F0.0041203131437989289
sg21
F0.0003986128273607845
sg22
F0.00027718491005349668
sg23
F0.00086677645835139111
sg24
F0.010449320794148381
sS'`'
F0.17543859649122806
sg25
F0.00098648515339844135
sg26
F0.085470085470085472
sg27
F0.068027210884353748
sg28
F0.046082949308755762
sg29
F0.013210039630118889
sg30
F0.00081987373944412555
sg31
F0.028818443804034581
sg32
F0.00025649575499525482
sg33
F0.063694267515923567
sg34
F0.0022794620469569183
sg35
F0.0051626226122870418
sS"'"
F0.17543859649122806
sg36
F0.014771048744460856
sg37
F0.0074239049740163331
sg38
F0.14925373134328357
sg39
F0.14925373134328357
ssS'"'
(dp51
g2
F0.0127000254000508
sg4
F0.0068411151017615862
sg5
F0.050761421319796954
sg6
F0.0086238758161882468
sS','
F0.060941260818354069
sg7
F0.0055279159756771688
sg8
F0.005243838489774515
sg9
F0.0091685920710015776
sg10
F0.0084245998315080027
sg11
F0.011296598468683318
sg12
F0.0056925427689726461
sS'#'
F0.17543859649122806
sS'"'
F0.011748580379870767
sg13
F0.011947431302270011
sS'$'
F0.0053276505061267982
sg14
F0.0094783062846973722
sg15
F0.088512360118859448
sS')'
F0.013568521031207597
sS'('
F0.038610038610038609
sg16
F0.0078623220057657019
sg17
F0.019960079840319361
sS'.'
F0.0050771085866598972
sg18
F0.0055328095606949207
sg19
F0.010313265437669202
sg20
F0.0046630916297505246
sS':'
F0.078285949732179644
sg21
F0.0083708693745764753
sg22
F0.0019402943703744769
sg23
F0.0069342116668111289
sg24
F0.010449320794148381
sS'`'
F0.17543859649122806
sg25
F0.0069053960737890888
sg26
F0.085470085470085472
sg27
F0.068027210884353748
sg28
F0.046082949308755762
sg29
F0.026420079260237778
sg30
F0.0024596212183323769
sg31
F0.028818443804034581
sg32
F0.0069253853848718809
sg33
F0.063694267515923567
sg34
F0.0091178481878276731
sg35
F0.015487867836861126
sS"'"
F0.17543859649122806
sg36
F0.014771048744460856
sg37
F0.0074239049740163331
sg38
F0.14925373134328357
sg39
F0.14925373134328357
ssg13
(dp52
g2
F0.0025400050800101601
sg4
F0.022233624080725156
sg5
F0.050761421319796954
sg6
F0.0098558580756437104
sS','
F0.00051211143544835358
sg7
F0.0073705546342362257
sg8
F0.005243838489774515
sg9
F0.00036674368284006308
sg10
F0.0084245998315080027
sg11
F0.0062758880381573985
sg12
F0.00029960751415645506
sS'#'
F0.17543859649122806
sS'"'
F0.0019580967299784608
sg13
F0.011947431302270011
sS'$'
F0.0053276505061267982
sg14
F0.0017409133992301294
sg15
F0.00063223114370613892
sS')'
F0.013568521031207597
sS'('
F0.012870012870012869
sg16
F0.010483096007687603
sg17
F0.0028514399771884802
sS'.'
F0.00063463857333248715
sg18
F0.0011065619121389842
sg19
F0.0064457908985432509
sg20
F0.001554363876583508
sS':'
F0.0041203131437989289
sg21
F0.0011958384820823535
sg22
F0.00027718491005349668
sg23
F0.02340296437548756
sg24
F0.010449320794148381
sS'`'
F0.17543859649122806
sg25
F0.00098648515339844135
sg26
F0.085470085470085472
sg27
F0.068027210884353748
sg28
F0.046082949308755762
sg29
F0.013210039630118889
sg30
F0.00081987373944412555
sg31
F0.028818443804034581
sg32
F0.00025649575499525482
sg33
F0.063694267515923567
sg34
F0.0022794620469569183
sg35
F0.0051626226122870418
sS"'"
F0.17543859649122806
sg36
F0.014771048744460856
sg37
F0.0074239049740163331
sg38
F0.14925373134328357
sg39
F0.14925373134328357
ssS'$'
(dp53
g2
F0.0076200152400304807
sg4
F0.013682230203523172
sg5
F0.050761421319796954
sg6
F0.0098558580756437104
sS','
F0.0030726686126901215
sg7
F0.0018426386585590564
sg8
F0.005243838489774515
sg9
F0.0025672057798804418
sg10
F0.0084245998315080027
sg11
F0.007531065645788879
sg12
F0.004793720226503281
sS'#'
F0.17543859649122806
sS'"'
F0.0019580967299784608
sg13
F0.035842293906810034
sS'$'
F0.0053276505061267982
sg14
F0.00038686964427336212
sg15
F0.00063223114370613892
sS')'
F0.013568521031207597
sS'('
F0.14157014157014156
sg16
F0.0069887306717917354
sg17
F0.0085543199315654406
sS'.'
F0.00063463857333248715
sg18
F0.024344362067057649
sg19
F0.0012891581797086502
sg20
F0.0054402735680422788
sS':'
F0.045323444581788219
sg21
F0.0003986128273607845
sg22
F0.0013859245502674835
sg23
F0.0043338822917569561
sg24
F0.010449320794148381
sS'`'
F0.17543859649122806
sg25
F0.0059189109203906477
sg26
F0.085470085470085472
sg27
F0.068027210884353748
sg28
F0.046082949308755762
sg29
F0.013210039630118889
sg30
F0.0016397474788882511
sg31
F0.028818443804034581
sg32
F0.0159027368097058
sg33
F0.063694267515923567
sg34
F0.0022794620469569183
sg35
F0.0051626226122870418
sS"'"
F0.17543859649122806
sg36
F0.029542097488921712
sg37
F0.0074239049740163331
sg38
F0.14925373134328357
sg39
F0.14925373134328357
ssg14
(dp54
g2
F0.4267208534417069
sg4
F0.14537369591243371
sg5
F0.050761421319796954
sg6
F0.03203153874584206
sS','
F0.045577917754903469
sg7
F0.023954302561267734
sg8
F0.01048767697954903
sg9
F0.42102174790039243
sg10
F0.0084245998315080027
sg11
F0.04518639387473327
sg12
F0.45180813134793424
sS'#'
F0.17543859649122806
sS'"'
F0.086156256119052282
sg13
F0.071684587813620068
sS'$'
F0.0053276505061267982
sg14
F0.12089676383542566
sg15
F0.030979326041600808
sS')'
F0.054274084124830389
sS'('
F0.038610038610038609
sg16
F0.032322879357036774
sg17
F0.43341887653264899
sS'.'
F0.00063463857333248715
sg18
F0.032090295452030543
sg19
F0.0038674745391259506
sg20
F0.0085490013212092941
sS':'
F0.032962505150391432
sg21
F0.017140351576513734
sg22
F0.047952989439254932
sg23
F0.058074022709543205
sg24
F0.062695924764890276
sS'`'
F0.17543859649122806
sg25
F0.10555391141363323
sg26
F0.085470085470085472
sg27
F0.068027210884353748
sg28
F0.046082949308755762
sg29
F0.013210039630118889
sg30
F0.23038452078379928
sg31
F0.028818443804034581
sg32
F0.10336778926308771
sg33
F0.44585987261146498
sg34
F0.0022794620469569183
sg35
F0.051626226122870419
sS"'"
F0.17543859649122806
sg36
F0.33973412112259971
sg37
F0.23014105419450634
sg38
F0.14925373134328357
sg39
F0.14925373134328357
ssS')'
(dp55
g2
F0.0050800101600203202
sg4
F0.0017102787754403965
sg5
F0.050761421319796954
sg6
F0.0012319822594554638
sS','
F0.00051211143544835358
sg7
F0.0018426386585590564
sg8
F0.005243838489774515
sg9
F0.00073348736568012616
sg10
F0.0084245998315080027
sg11
F0.0025103552152629595
sg12
F0.00029960751415645506
sS'#'
F0.17543859649122806
sS'"'
F0.0019580967299784608
sg13
F0.011947431302270011
sS'$'
F0.0053276505061267982
sg14
F0.0023212178656401728
sg15
F0.0037933868622368337
sS')'
F0.013568521031207597
sS'('
F0.012870012870012869
sg16
F0.00087359133397396692
sg17
F0.0057028799543769604
sS'.'
F0.00063463857333248715
sg18
F0.0011065619121389842
sg19
F0.0012891581797086502
sg20
F0.00077718193829175402
sS':'
F0.0041203131437989289
sg21
F0.003188902618886276
sg22
F0.007483992571444411
sg23
F0.0017335529167027822
sg24
F0.010449320794148381
sS'`'
F0.17543859649122806
sg25
F0.00098648515339844135
sg26
F0.085470085470085472
sg27
F0.068027210884353748
sg28
F0.046082949308755762
sg29
F0.013210039630118889
sg30
F0.012298106091661884
sg31
F0.028818443804034581
sg32
F0.00025649575499525482
sg33
F0.063694267515923567
sg34
F0.0022794620469569183
sg35
F0.0051626226122870418
sS"'"
F0.17543859649122806
sg36
F0.014771048744460856
sg37
F0.0074239049740163331
sg38
F0.14925373134328357
sg39
F0.14925373134328357
ssS'('
(dp56
g2
F0.0025400050800101601
sg4
F0.0034205575508807931
sg5
F0.050761421319796954
sg6
F0.0012319822594554638
sS','
F0.0010242228708967072
sg7
F0.0018426386585590564
sg8
F0.005243838489774515
sg9
F0.00073348736568012616
sg10
F0.0084245998315080027
sg11
F0.0012551776076314798
sg12
F0.0014980375707822752
sS'#'
F0.17543859649122806
sS'"'
F0.0078323869199138432
sg13
F0.011947431302270011
sS'$'
F0.0053276505061267982
sg14
F0.0025146526877768537
sg15
F0.0075867737244736675
sS')'
F0.013568521031207597
sS'('
F0.012870012870012869
sg16
F0.00087359133397396692
sg17
F0.0028514399771884802
sS'.'
F0.00063463857333248715
sg18
F0.0022131238242779684
sg19
F0.0025783163594173004
sg20
F0.001554363876583508
sS':'
F0.0041203131437989289
sg21
F0.0047833539283294139
sg22
F0.0052665132910164371
sg23
F0.0026003293750541732
sg24
F0.010449320794148381
sS'`'
F0.17543859649122806
sg25
F0.0019729703067968827
sg26
F0.085470085470085472
sg27
F0.068027210884353748
sg28
F0.046082949308755762
sg29
F0.013210039630118889
sg30
F0.00081987373944412555
sg31
F0.028818443804034581
sg32
F0.0010259830199810193
sg33
F0.063694267515923567
sg34
F0.0022794620469569183
sg35
F0.010325245224574084
sS"'"
F0.17543859649122806
sg36
F0.014771048744460856
sg37
F0.0074239049740163331
sg38
F0.14925373134328357
sg39
F0.14925373134328357
ssg16
(dp57
g2
F0.0025400050800101601
sg4
F0.0051308363263211903
sg5
F0.050761421319796954
sg6
F0.0012319822594554638
sS','
F0.050186920673938651
sg7
F0.0036852773171181128
sg8
F0.19402202412165706
sg9
F0.0011002310485201893
sg10
F0.29486099410278011
sg11
F0.0012551776076314798
sg12
F0.0017976450849387304
sS'#'
F0.17543859649122806
sS'"'
F0.043078128059526141
sg13
F0.011947431302270011
sS'$'
F0.0053276505061267982
sg14
F0.043329400158616554
sg15
F0.0012644622874122778
sS')'
F0.04070556309362279
sS'('
F0.012870012870012869
sg16
F0.00087359133397396692
sg17
F0.014257199885942401
sS'.'
F0.00063463857333248715
sg18
F0.0011065619121389842
sg19
F0.26427742684027328
sg20
F0.062951737001632077
sS':'
F0.012360939431396786
sg21
F0.047434926455933356
sg22
F0.063198159492197245
sg23
F0.0017335529167027822
sg24
F0.010449320794148381
sS'`'
F0.17543859649122806
sg25
F0.045378317056328298
sg26
F0.085470085470085472
sg27
F0.068027210884353748
sg28
F0.046082949308755762
sg29
F0.013210039630118889
sg30
F0.0065589899155530044
sg31
F0.20172910662824206
sg32
F0.00025649575499525482
sg33
F0.063694267515923567
sg34
F0.0022794620469569183
sg35
F0.10325245224574084
sS"'"
F0.17543859649122806
sg36
F0.029542097488921712
sg37
F0.014847809948032666
sg38
F0.14925373134328357
sg39
F0.14925373134328357
ssg17
(dp58
g2
F0.0025400050800101601
sg4
F0.0017102787754403965
sg5
F0.050761421319796954
sg6
F0.0012319822594554638
sS','
F0.00051211143544835358
sg7
F0.0036852773171181128
sg8
F0.005243838489774515
sg9
F0.0011002310485201893
sg10
F0.0084245998315080027
sg11
F0.0012551776076314798
sg12
F0.00029960751415645506
sS'#'
F0.17543859649122806
sS'"'
F0.0019580967299784608
sg13
F0.011947431302270011
sS'$'
F0.0053276505061267982
sg14
F0.021664700079308277
sg15
F0.00063223114370613892
sS')'
F0.013568521031207597
sS'('
F0.012870012870012869
sg16
F0.00087359133397396692
sg17
F0.0028514399771884802
sS'.'
F0.00063463857333248715
sg18
F0.0011065619121389842
sg19
F0.0051566327188346008
sg20
F0.001554363876583508
sS':'
F0.0041203131437989289
sg21
F0.011161159166101966
sg22
F0.053773872550378361
sg23
F0.00086677645835139111
sg24
F0.010449320794148381
sS'`'
F0.17543859649122806
sg25
F0.00098648515339844135
sg26
F0.085470085470085472
sg27
F0.068027210884353748
sg28
F0.046082949308755762
sg29
F0.013210039630118889
sg30
F0.00081987373944412555
sg31
F0.028818443804034581
sg32
F0.00025649575499525482
sg33
F0.063694267515923567
sg34
F0.0022794620469569183
sg35
F0.041300980898296334
sS"'"
F0.17543859649122806
sg36
F0.014771048744460856
sg37
F0.0074239049740163331
sg38
F0.14925373134328357
sg39
F0.14925373134328357
ssS'.'
(dp59
g2
F0.0025400050800101601
sg4
F0.0085513938772019838
sg5
F0.15228426395939088
sg6
F0.050511272637674014
sS','
F0.00051211143544835358
sg7
F0.022111663902708675
sg8
F0.005243838489774515
sg9
F0.023838339384604102
sg10
F0.0084245998315080027
sg11
F0.026358729760261074
sg12
F0.0020972525990951853
sS'#'
F0.17543859649122806
sS'"'
F0.0019580967299784608
sg13
F0.095579450418160086
sS'$'
F0.0053276505061267982
sg14
F0.10774319593013135
sg15
F0.00063223114370613892
sS')'
F0.094979647218453186
sS'('
F0.012870012870012869
sg16
F0.055036254040359917
sg17
F0.0028514399771884802
sS'.'
F0.00063463857333248715
sg18
F0.0022131238242779684
sg19
F0.034807270852133552
sg20
F0.05362555374213103
sS':'
F0.045323444581788219
sg21
F0.13632558695738831
sg22
F0.064861268952518231
sg23
F0.019935858542081995
sg24
F0.010449320794148381
sS'`'
F0.17543859649122806
sg25
F0.00098648515339844135
sg26
F0.085470085470085472
sg27
F0.068027210884353748
sg28
F0.046082949308755762
sg29
F0.026420079260237778
sg30
F0.05575141428220054
sg31
F0.028818443804034581
sg32
F0.00076948726498576457
sg33
F0.063694267515923567
sg34
F0.0022794620469569183
sg35
F0.077439339184305636
sS"'"
F0.17543859649122806
sg36
F0.029542097488921712
sg37
F0.05196733481811433
sg38
F0.14925373134328357
sg39
F0.14925373134328357
ssg18
(dp60
g2
F0.0025400050800101601
sg4
F0.085513938772019835
sg5
F0.050761421319796954
sg6
F0.096094616237526173
sS','
F0.009730117273518718
sg7
F0.042380689146858296
sg8
F0.005243838489774515
sg9
F0.032640187772765616
sg10
F0.0084245998315080027
sg11
F0.033889795406049951
sg12
F0.00029960751415645506
sS'#'
F0.17543859649122806
sS'"'
F0.0078323869199138432
sg13
F0.047789725209080043
sS'$'
F0.0053276505061267982
sg14
F0.040041008182292975
sg15
F0.0037933868622368337
sS')'
F0.027137042062415195
sS'('
F0.012870012870012869
sg16
F0.048047523368568185
sg17
F0.0028514399771884802
sS'.'
F0.0012692771466649743
sg18
F0.0011065619121389842
sg19
F0.027072321773881653
sg20
F0.036527551099712438
sS':'
F0.0041203131437989289
sg21
F0.050225216247458848
sg22
F0.010810211492086372
sg23
F0.045072375834272337
sg24
F0.083594566353187044
sS'`'
F0.17543859649122806
sg25
F0.0078918812271875308
sg26
F0.085470085470085472
sg27
F0.068027210884353748
sg28
F0.046082949308755762
sg29
F0.026420079260237778
sg30
F0.02787570714110027
sg31
F0.028818443804034581
sg32
F0.0017954702849667839
sg33
F0.063694267515923567
sg34
F0.011397310234784592
sg35
F0.036138358286009295
sS"'"
F0.17543859649122806
sg36
F0.014771048744460856
sg37
F0.014847809948032666
sg38
F0.14925373134328357
sg39
F0.14925373134328357
ssg19
(dp61
g2
F0.0025400050800101601
sg4
F0.030785017957927138
sg5
F0.050761421319796954
sg6
F0.0061599112972773188
sS','
F0.06247759512469913
sg7
F0.03685277317118113
sg8
F0.04195070791819612
sg9
F0.0014669747313602523
sg10
F0.067396798652064022
sg11
F0.027613907367892557
sg12
F0.00059921502831291012
sS'#'
F0.17543859649122806
sS'"'
F0.13315057763853536
sg13
F0.011947431302270011
sS'$'
F0.0053276505061267982
sg14
F0.0038686964427336211
sg15
F0.065752038945438449
sS')'
F0.027137042062415195
sS'('
F0.012870012870012869
sg16
F0.074255263387787193
sg17
F0.0028514399771884802
sS'.'
F0.0019039157199974613
sg18
F0.012172181033528824
sg19
F0.0025783163594173004
sg20
F0.011657729074376311
sS':'
F0.049443757725587144
sg21
F0.0059791924104117674
sg22
F0.00027718491005349668
sg23
F0.045072375834272337
sg24
F0.24033437826541273
sS'`'
F0.17543859649122806
sg25
F0.050310742823320508
sg26
F0.085470085470085472
sg27
F0.068027210884353748
sg28
F0.046082949308755762
sg29
F0.013210039630118889
sg30
F0.0016397474788882511
sg31
F0.028818443804034581
sg32
F0.030779490599430581
sg33
F0.063694267515923567
sg34
F0.0045589240939138366
sg35
F0.0051626226122870418
sS"'"
F0.17543859649122806
sg36
F0.014771048744460856
sg37
F0.0074239049740163331
sg38
F0.14925373134328357
sg39
F0.14925373134328357
ssg20
(dp62
g2
F0.0076200152400304807
sg4
F0.054728920814092689
sg5
F0.050761421319796954
sg6
F0.057903166194406795
sS','
F0.050699032109387004
sg7
F0.17873594988022848
sg8
F0.062926061877294187
sg9
F0.0040341805112406939
sg10
F0.050547598989048016
sg11
F0.11673151750972761
sg12
F0.010486262995475927
sS'#'
F0.17543859649122806
sS'"'
F0.043078128059526141
sg13
F0.035842293906810034
sS'$'
F0.0053276505061267982
sg14
F0.016055090237344527
sg15
F0.061326420939495481
sS')'
F0.04070556309362279
sS'('
F0.038610038610038609
sg16
F0.10919891674674587
sg17
F0.0028514399771884802
sS'.'
F0.0012692771466649743
sg18
F0.015491866769945777
sg19
F0.058012118086889261
sg20
F0.071500738322841373
sS':'
F0.053564070869386075
sg21
F0.034280703153027468
sg22
F0.010533026582032874
sg23
F0.052873363959434858
sg24
F0.031347962382445138
sS'`'
F0.17543859649122806
sg25
F0.059189109203906479
sg26
F0.085470085470085472
sg27
F0.068027210884353748
sg28
F0.092165898617511524
sg29
F0.11889035667107001
sg30
F0.0024596212183323769
sg31
F0.086455331412103736
sg32
F0.011285813219791213
sg33
F0.063694267515923567
sg34
F0.14132664691132893
sg35
F0.02581311306143521
sS"'"
F0.17543859649122806
sg36
F0.029542097488921712
sg37
F0.014847809948032666
sg38
F0.14925373134328357
sg39
F0.14925373134328357
ssS':'
(dp63
g2
F0.0025400050800101601
sg4
F0.0017102787754403965
sg5
F0.050761421319796954
sg6
F0.0036959467783663912
sS','
F0.00051211143544835358
sg7
F0.0092131932927952825
sg8
F0.005243838489774515
sg9
F0.0047676678769208204
sg10
F0.0084245998315080027
sg11
F0.0037655328228944395
sg12
F0.00029960751415645506
sS'#'
F0.17543859649122806
sS'"'
F0.011748580379870767
sg13
F0.011947431302270011
sS'$'
F0.0053276505061267982
sg14
F0.014894481304524441
sg15
F0.00063223114370613892
sS')'
F0.14925373134328357
sS'('
F0.012870012870012869
sg16
F0.0052415480038438015
sg17
F0.0028514399771884802
sS'.'
F0.00063463857333248715
sg18
F0.0011065619121389842
sg19
F0.0077349490782519011
sg20
F0.0038859096914587703
sS':'
F0.0041203131437989289
sg21
F0.028700123569976484
sg22
F0.0077611774814979077
sg23
F0.0052006587501083465
sg24
F0.010449320794148381
sS'`'
F0.17543859649122806
sg25
F0.00098648515339844135
sg26
F0.085470085470085472
sg27
F0.068027210884353748
sg28
F0.046082949308755762
sg29
F0.013210039630118889
sg30
F0.0049192424366647537
sg31
F0.028818443804034581
sg32
F0.00051299150999050964
sg33
F0.063694267515923567
sg34
F0.0022794620469569183
sg35
F0.010325245224574084
sS"'"
F0.17543859649122806
sg36
F0.014771048744460856
sg37
F0.022271714922049001
sg38
F0.14925373134328357
sg39
F0.14925373134328357
ssg21
(dp64
g2
F0.25654051308102616
sg4
F0.095775611424662219
sg5
F0.10152284263959391
sg6
F0.035727485524208451
sS','
F0.025605571772417679
sg7
F0.038695411829740185
sg8
F0.015731515469323547
sg9
F0.23911688121172114
sg10
F0.016849199663016005
sg11
F0.021338019329735156
sg12
F0.087485394133684877
sS'#'
F0.17543859649122806
sS'"'
F0.037203837869590757
sg13
F0.083632019115890077
sS'$'
F0.0053276505061267982
sg14
F0.06886279668065845
sg15
F0.041095024340899032
sS')'
F0.013568521031207597
sS'('
F0.025740025740025738
sg16
F0.023586966017297109
sg17
F0.12831479897348161
sS'.'
F0.0019039157199974613
sg18
F0.019918114418501713
sg19
F0.0012891581797086502
sg20
F0.0046630916297505246
sS':'
F0.032962505150391432
sg21
F0.0099653206840196133
sg22
F0.026055381545028691
sg23
F0.056340469792840422
sg24
F0.094043887147335414
sS'`'
F0.17543859649122806
sg25
F0.065108020124297131
sg26
F0.085470085470085472
sg27
F0.068027210884353748
sg28
F0.046082949308755762
sg29
F0.013210039630118889
sg30
F0.1861113388538165
sg31
F0.028818443804034581
sg32
F0.060020006668889632
sg33
F0.25477707006369427
sg34
F0.0045589240939138366
sg35
F0.02581311306143521
sS"'"
F0.17543859649122806
sg36
F0.19202363367799113
sg37
F0.10393466963622866
sg38
F0.14925373134328357
sg39
F0.14925373134328357
ssg22
(dp65
g2
F0.040640081280162561
sg4
F0.051308363263211899
sg5
F0.35532994923857869
sg6
F0.033263521005297524
sS','
F0.11522507297587956
sg7
F0.011055831951354338
sg8
F0.026219192448872577
sg9
F0.039975061429566881
sg10
F0.016849199663016005
sg11
F0.055227814735785113
sg12
F0.11385085537945293
sS'#'
F0.17543859649122806
sS'"'
F0.068533385549246137
sg13
F0.035842293906810034
sS'$'
F0.0053276505061267982
sg14
F0.01102578486179082
sg15
F0.18650818739331099
sS')'
F0.08141112618724558
sS'('
F0.39897039897039893
sg16
F0.050668297370490084
sg17
F0.091246079270031366
sS'.'
F0.00063463857333248715
sg18
F0.054221533694810219
sg19
F0.0012891581797086502
sg20
F0.0077718193829175407
sS':'
F0.10300782859497322
sg21
F0.0051819667556901984
sg22
F0.35729134905895726
sg23
F0.028603623125595907
sg24
F0.094043887147335414
sS'`'
F0.17543859649122806
sg25
F0.15685113939035217
sg26
F0.085470085470085472
sg27
F0.068027210884353748
sg28
F0.046082949308755762
sg29
F0.013210039630118889
sg30
F0.020496843486103141
sg31
F0.028818443804034581
sg32
F0.15441044450714342
sg33
F0.063694267515923567
sg34
F0.0045589240939138366
sg35
F0.24264326277749099
sS"'"
F0.17543859649122806
sg36
F0.014771048744460856
sg37
F0.014847809948032666
sg38
F0.29850746268656714
sg39
F0.14925373134328357
ssg23
(dp66
g2
F0.0025400050800101601
sg4
F0.0051308363263211903
sg5
F0.050761421319796954
sg6
F0.0012319822594554638
sS','
F0.0066574486608285965
sg7
F0.0055279159756771688
sg8
F0.005243838489774515
sg9
F0.00036674368284006308
sg10
F0.0084245998315080027
sg11
F0.0025103552152629595
sg12
F0.00059921502831291012
sS'#'
F0.17543859649122806
sS'"'
F0.017622870569806149
sg13
F0.011947431302270011
sS'$'
F0.0053276505061267982
sg14
F0.0015474785770934485
sg15
F0.0063223114370613894
sS')'
F0.013568521031207597
sS'('
F0.038610038610038609
sg16
F0.004367956669869835
sg17
F0.0028514399771884802
sS'.'
F0.00063463857333248715
sg18
F0.57651875622441073
sg19
F0.020626530875338403
sg20
F0.10569674360767856
sS':'
F0.012360939431396786
sg21
F0.0027902897915254915
sg22
F0.0022174792804279734
sg23
F0.010401317500216693
sg24
F0.010449320794148381
sS'`'
F0.17543859649122806
sg25
F0.039459406135937652
sg26
F0.085470085470085472
sg27
F0.068027210884353748
sg28
F0.046082949308755762
sg29
F0.013210039630118889
sg30
F0.00081987373944412555
sg31
F0.028818443804034581
sg32
F0.0015389745299715291
sg33
F0.063694267515923567
sg34
F0.82060633690449059
sg35
F0.0051626226122870418
sS"'"
F0.17543859649122806
sg36
F0.029542097488921712
sg37
F0.0074239049740163331
sg38
F0.14925373134328357
sg39
F0.14925373134328357
ssg24
(dp67
g2
F0.0025400050800101601
sg4
F0.0017102787754403965
sg5
F0.050761421319796954
sg6
F0.0049279290378218552
sS','
F0.0035847800481384751
sg7
F0.0073705546342362257
sg8
F0.005243838489774515
sg9
F0.0014669747313602523
sg10
F0.0084245998315080027
sg11
F0.0025103552152629595
sg12
F0.00059921502831291012
sS'#'
F0.17543859649122806
sS'"'
F0.009790483649892304
sg13
F0.023894862604540022
sS'$'
F0.0053276505061267982
sg14
F0.0032883919763235779
sg15
F0.0056900802933552508
sS')'
F0.013568521031207597
sS'('
F0.012870012870012869
sg16
F0.0034943653358958677
sg17
F0.0057028799543769604
sS'.'
F0.00063463857333248715
sg18
F0.0011065619121389842
sg19
F0.0038674745391259506
sg20
F0.0038859096914587703
sS':'
F0.012360939431396786
sg21
F0.001594451309443138
sg22
F0.00083155473016049009
sg23
F0.0069342116668111289
sg24
F0.010449320794148381
sS'`'
F0.17543859649122806
sg25
F0.0088783663805859711
sg26
F0.085470085470085472
sg27
F0.068027210884353748
sg28
F0.046082949308755762
sg29
F0.013210039630118889
sg30
F0.0016397474788882511
sg31
F0.028818443804034581
sg32
F0.0030779490599430583
sg33
F0.063694267515923567
sg34
F0.0022794620469569183
sg35
F0.0051626226122870418
sS"'"
F0.17543859649122806
sg36
F0.014771048744460856
sg37
F0.0074239049740163331
sg38
F0.14925373134328357
sg39
F0.14925373134328357
ssS'`'
(dp68
g2
F0.0025400050800101601
sg4
F0.0017102787754403965
sg5
F0.050761421319796954
sg6
F0.0012319822594554638
sS','
F0.00051211143544835358
sg7
F0.0018426386585590564
sg8
F0.005243838489774515
sg9
F0.00036674368284006308
sg10
F0.0084245998315080027
sg11
F0.0012551776076314798
sg12
F0.00029960751415645506
sS'#'
F0.17543859649122806
sS'"'
F0.0019580967299784608
sg13
F0.011947431302270011
sS'$'
F0.0053276505061267982
sg14
F0.00019343482213668106
sg15
F0.00063223114370613892
sS')'
F0.013568521031207597
sS'('
F0.012870012870012869
sg16
F0.00087359133397396692
sg17
F0.0028514399771884802
sS'.'
F0.00063463857333248715
sg18
F0.0011065619121389842
sg19
F0.0012891581797086502
sg20
F0.00077718193829175402
sS':'
F0.0041203131437989289
sg21
F0.0003986128273607845
sg22
F0.00027718491005349668
sg23
F0.00086677645835139111
sg24
F0.010449320794148381
sS'`'
F0.17543859649122806
sg25
F0.00098648515339844135
sg26
F0.085470085470085472
sg27
F0.068027210884353748
sg28
F0.046082949308755762
sg29
F0.013210039630118889
sg30
F0.00081987373944412555
sg31
F0.028818443804034581
sg32
F0.00025649575499525482
sg33
F0.063694267515923567
sg34
F0.0022794620469569183
sg35
F0.0051626226122870418
sS"'"
F0.17543859649122806
sg36
F0.014771048744460856
sg37
F0.0074239049740163331
sg38
F0.14925373134328357
sg39
F0.14925373134328357
ssg25
(dp69
g2
F0.0050800101600203202
sg4
F0.010261672652642381
sg5
F0.10152284263959391
sg6
F0.0086238758161882468
sS','
F0.085522609719875048
sg7
F0.0036852773171181128
sg8
F0.005243838489774515
sg9
F0.020904389921883596
sg10
F0.0084245998315080027
sg11
F0.005020710430525919
sg12
F0.00059921502831291012
sS'#'
F0.17543859649122806
sS'"'
F0.0450362247895046
sg13
F0.011947431302270011
sS'$'
F0.0053276505061267982
sg14
F0.04158848675938643
sg15
F0.056900802933552506
sS')'
F0.094979647218453186
sS'('
F0.025740025740025738
sg16
F0.004367956669869835
sg17
F0.019960079840319361
sS'.'
F0.0019039157199974613
sg18
F0.0022131238242779684
sg19
F0.011602423617377851
sg20
F0.01321209295095982
sS':'
F0.061804697156983932
sg21
F0.057001634312592184
sg22
F0.049893283809629409
sg23
F0.013001646875270867
sg24
F0.020898641588296761
sS'`'
F0.17543859649122806
sg25
F0.00098648515339844135
sg26
F0.085470085470085472
sg27
F0.068027210884353748
sg28
F0.046082949308755762
sg29
F0.039630118890356669
sg30
F0.023776338443879642
sg31
F0.028818443804034581
sg32
F0.0015389745299715291
sg33
F0.063694267515923567
sg34
F0.0022794620469569183
sg35
F0.07227671657201859
sS"'"
F0.17543859649122806
sg36
F0.014771048744460856
sg37
F0.014847809948032666
sg38
F0.14925373134328357
sg39
F0.14925373134328357
ssg26
(dp70
g2
F0.0025400050800101601
sg4
F0.0017102787754403965
sg5
F0.050761421319796954
sg6
F0.0012319822594554638
sS','
F0.00051211143544835358
sg7
F0.0018426386585590564
sg8
F0.005243838489774515
sg9
F0.00036674368284006308
sg10
F0.0084245998315080027
sg11
F0.0012551776076314798
sg12
F0.00029960751415645506
sS'#'
F0.17543859649122806
sS'"'
F0.0019580967299784608
sg13
F0.011947431302270011
sS'$'
F0.0053276505061267982
sg14
F0.00019343482213668106
sg15
F0.0044256180059429728
sS')'
F0.013568521031207597
sS'('
F0.012870012870012869
sg16
F0.00087359133397396692
sg17
F0.0028514399771884802
sS'.'
F0.00063463857333248715
sg18
F0.0011065619121389842
sg19
F0.0012891581797086502
sg20
F0.00077718193829175402
sS':'
F0.0041203131437989289
sg21
F0.0003986128273607845
sg22
F0.00027718491005349668
sg23
F0.00086677645835139111
sg24
F0.010449320794148381
sS'`'
F0.17543859649122806
sg25
F0.00098648515339844135
sg26
F0.085470085470085472
sg27
F0.068027210884353748
sg28
F0.046082949308755762
sg29
F0.013210039630118889
sg30
F0.00081987373944412555
sg31
F0.028818443804034581
sg32
F0.00025649575499525482
sg33
F0.063694267515923567
sg34
F0.0022794620469569183
sg35
F0.0051626226122870418
sS"'"
F0.17543859649122806
sg36
F0.014771048744460856
sg37
F0.0074239049740163331
sg38
F0.14925373134328357
sg39
F0.14925373134328357
ssg27
(dp71
g2
F0.0025400050800101601
sg4
F0.0034205575508807931
sg5
F0.050761421319796954
sg6
F0.0012319822594554638
sS','
F0.0010242228708967072
sg7
F0.0018426386585590564
sg8
F0.005243838489774515
sg9
F0.00036674368284006308
sg10
F0.0084245998315080027
sg11
F0.0025103552152629595
sg12
F0.00029960751415645506
sS'#'
F0.17543859649122806
sS'"'
F0.0019580967299784608
sg13
F0.011947431302270011
sS'$'
F0.0053276505061267982
sg14
F0.00019343482213668106
sg15
F0.0012644622874122778
sS')'
F0.013568521031207597
sS'('
F0.012870012870012869
sg16
F0.0017471826679479338
sg17
F0.0028514399771884802
sS'.'
F0.00063463857333248715
sg18
F0.0011065619121389842
sg19
F0.0012891581797086502
sg20
F0.001554363876583508
sS':'
F0.0041203131437989289
sg21
F0.0003986128273607845
sg22
F0.00027718491005349668
sg23
F0.0017335529167027822
sg24
F0.010449320794148381
sS'`'
F0.17543859649122806
sg25
F0.00098648515339844135
sg26
F0.085470085470085472
sg27
F0.068027210884353748
sg28
F0.046082949308755762
sg29
F0.013210039630118889
sg30
F0.00081987373944412555
sg31
F0.028818443804034581
sg32
F0.00076948726498576457
sg33
F0.063694267515923567
sg34
F0.0022794620469569183
sg35
F0.0051626226122870418
sS"'"
F0.17543859649122806
sg36
F0.014771048744460856
sg37
F0.0074239049740163331
sg38
F0.14925373134328357
sg39
F0.14925373134328357
ssg28
(dp72
g2
F0.0025400050800101601
sg4
F0.0017102787754403965
sg5
F0.050761421319796954
sg6
F0.0012319822594554638
sS','
F0.00051211143544835358
sg7
F0.0018426386585590564
sg8
F0.005243838489774515
sg9
F0.00036674368284006308
sg10
F0.0084245998315080027
sg11
F0.0037655328228944395
sg12
F0.0020972525990951853
sS'#'
F0.17543859649122806
sS'"'
F0.0019580967299784608
sg13
F0.011947431302270011
sS'$'
F0.0053276505061267982
sg14
F0.00019343482213668106
sg15
F0.00063223114370613892
sS')'
F0.013568521031207597
sS'('
F0.012870012870012869
sg16
F0.0017471826679479338
sg17
F0.011405759908753921
sS'.'
F0.00063463857333248715
sg18
F0.0022131238242779684
sg19
F0.0012891581797086502
sg20
F0.001554363876583508
sS':'
F0.0041203131437989289
sg21
F0.0003986128273607845
sg22
F0.00027718491005349668
sg23
F0.00086677645835139111
sg24
F0.010449320794148381
sS'`'
F0.17543859649122806
sg25
F0.00098648515339844135
sg26
F0.085470085470085472
sg27
F0.068027210884353748
sg28
F0.046082949308755762
sg29
F0.013210039630118889
sg30
F0.0016397474788882511
sg31
F0.028818443804034581
sg32
F0.00051299150999050964
sg33
F0.063694267515923567
sg34
F0.0022794620469569183
sg35
F0.0051626226122870418
sS"'"
F0.17543859649122806
sg36
F0.014771048744460856
sg37
F0.0074239049740163331
sg38
F0.14925373134328357
sg39
F0.14925373134328357
ssg29
(dp73
g2
F0.0025400050800101601
sg4
F0.0051308363263211903
sg5
F0.050761421319796954
sg6
F0.0098558580756437104
sS','
F0.0015363343063450607
sg7
F0.011055831951354338
sg8
F0.005243838489774515
sg9
F0.00073348736568012616
sg10
F0.016849199663016005
sg11
F0.005020710430525919
sg12
F0.0020972525990951853
sS'#'
F0.17543859649122806
sS'"'
F0.0058742901899353833
sg13
F0.011947431302270011
sS'$'
F0.0053276505061267982
sg14
F0.0005803044664100432
sg15
F0.0050578491496491114
sS')'
F0.013568521031207597
sS'('
F0.012870012870012869
sg16
F0.0069887306717917354
sg17
F0.0028514399771884802
sS'.'
F0.00063463857333248715
sg18
F0.0033196857364169523
sg19
F0.0025783163594173004
sg20
F0.0054402735680422788
sS':'
F0.0041203131437989289
sg21
F0.0011958384820823535
sg22
F0.00083155473016049009
sg23
F0.0060674352084597377
sg24
F0.010449320794148381
sS'`'
F0.17543859649122806
sg25
F0.0039459406135937654
sg26
F0.085470085470085472
sg27
F0.068027210884353748
sg28
F0.046082949308755762
sg29
F0.013210039630118889
sg30
F0.00081987373944412555
sg31
F0.028818443804034581
sg32
F0.00076948726498576457
sg33
F0.063694267515923567
sg34
F0.0045589240939138366
sg35
F0.0051626226122870418
sS"'"
F0.17543859649122806
sg36
F0.014771048744460856
sg37
F0.0074239049740163331
sg38
F0.14925373134328357
sg39
F0.14925373134328357
ssg30
(dp74
g2
F0.015240030480060961
sg4
F0.013682230203523172
sg5
F0.050761421319796954
sg6
F0.011087840335099174
sS','
F0.029190351820556154
sg7
F0.012898470609913395
sg8
F0.005243838489774515
sg9
F0.0080683610224813879
sg10
F0.0084245998315080027
sg11
F0.041420861051838835
sg12
F0.02247056356173413
sS'#'
F0.17543859649122806
sS'"'
F0.011748580379870767
sg13
F0.035842293906810034
sS'$'
F0.97496004262120406
sg14
F0.0096717411068340531
sg15
F0.013276854017828918
sS')'
F0.04070556309362279
sS'('
F0.012870012870012869
sg16
F0.035817244692932647
sg17
F0.034217279726261762
sS'.'
F0.00063463857333248715
sg18
F0.061967467079783109
sg19
F0.0012891581797086502
sg20
F0.024092640087044377
sS':'
F0.20601565718994644
sg21
F0.0019930641368039225
sg22
F0.020788868254012254
sg23
F0.014735199791973649
sg24
F0.010449320794148381
sS'`'
F0.17543859649122806
sg25
F0.030581039755351681
sg26
F0.085470085470085472
sg27
F0.068027210884353748
sg28
F0.046082949308755762
sg29
F0.013210039630118889
sg30
F0.16889399032548988
sg31
F0.028818443804034581
sg32
F0.058737527893913358
sg33
F0.063694267515923567
sg34
F0.0022794620469569183
sg35
F0.010325245224574084
sS"'"
F0.17543859649122806
sg36
F0.044313146233382568
sg37
F0.0074239049740163331
sg38
F0.14925373134328357
sg39
F0.14925373134328357
ssg31
(dp75
g2
F0.0025400050800101601
sg4
F0.0017102787754403965
sg5
F0.050761421319796954
sg6
F0.0012319822594554638
sS','
F0.0056332257899318894
sg7
F0.0036852773171181128
sg8
F0.005243838489774515
sg9
F0.00036674368284006308
sg10
F0.0084245998315080027
sg11
F0.0012551776076314798
sg12
F0.00029960751415645506
sS'#'
F0.17543859649122806
sS'"'
F0.011748580379870767
sg13
F0.011947431302270011
sS'$'
F0.0053276505061267982
sg14
F0.00019343482213668106
sg15
F0.0025289245748245557
sS')'
F0.013568521031207597
sS'('
F0.012870012870012869
sg16
F0.00087359133397396692
sg17
F0.0028514399771884802
sS'.'
F0.00063463857333248715
sg18
F0.0011065619121389842
sg19
F0.0012891581797086502
sg20
F0.00077718193829175402
sS':'
F0.0041203131437989289
sg21
F0.0003986128273607845
sg22
F0.00027718491005349668
sg23
F0.00086677645835139111
sg24
F0.010449320794148381
sS'`'
F0.17543859649122806
sg25
F0.0069053960737890888
sg26
F0.085470085470085472
sg27
F0.068027210884353748
sg28
F0.046082949308755762
sg29
F0.013210039630118889
sg30
F0.00081987373944412555
sg31
F0.028818443804034581
sg32
F0.0012824787749762742
sg33
F0.063694267515923567
sg34
F0.0022794620469569183
sg35
F0.0051626226122870418
sS"'"
F0.17543859649122806
sg36
F0.014771048744460856
sg37
F0.0074239049740163331
sg38
F0.14925373134328357
sg39
F0.14925373134328357
ssg32
(dp76
g2
F0.0025400050800101601
sg4
F0.11971951428082776
sg5
F0.050761421319796954
sg6
F0.40901811013921396
sS','
F0.080913606800839866
sg7
F0.07002026902524415
sg8
F0.026219192448872577
sg9
F0.059412476620090221
sg10
F0.033698399326032011
sg11
F0.067779590812099902
sg12
F0.0086886179105371969
sS'#'
F0.17543859649122806
sS'"'
F0.10573722341883689
sg13
F0.083632019115890077
sS'$'
F0.0053276505061267982
sg14
F0.24895061608990851
sg15
F0.10747929443004361
sS')'
F0.08141112618724558
sS'('
F0.11583011583011582
sg16
F0.11181969074866777
sg17
F0.0028514399771884802
sS'.'
F0.00063463857333248715
sg18
F0.0033196857364169523
sg19
F0.036096429031842202
sg20
F0.1336752933861817
sS':'
F0.078285949732179644
sg21
F0.24913301710049032
sg22
F0.036588408127061565
sg23
F0.11528126896073503
sg24
F0.010449320794148381
sS'`'
F0.17543859649122806
sg25
F0.04340534674953142
sg26
F0.085470085470085472
sg27
F0.068027210884353748
sg28
F0.092165898617511524
sg29
F0.19815059445178335
sg30
F0.08936623759940969
sg31
F0.028818443804034581
sg32
F0.013850770769743762
sg33
F0.063694267515923567
sg34
F0.0022794620469569183
sg35
F0.056788848735157466
sS"'"
F0.17543859649122806
sg36
F0.14771048744460857
sg37
F0.400890868596882
sg38
F0.14925373134328357
sg39
F0.14925373134328357
ssg33
(dp77
g2
F0.0025400050800101601
sg4
F0.0017102787754403965
sg5
F0.050761421319796954
sg6
F0.0012319822594554638
sS','
F0.0035847800481384751
sg7
F0.0018426386585590564
sg8
F0.005243838489774515
sg9
F0.00036674368284006308
sg10
F0.0084245998315080027
sg11
F0.0012551776076314798
sg12
F0.00029960751415645506
sS'#'
F0.17543859649122806
sS'"'
F0.0019580967299784608
sg13
F0.011947431302270011
sS'$'
F0.0053276505061267982
sg14
F0.00038686964427336212
sg15
F0.00063223114370613892
sS')'
F0.013568521031207597
sS'('
F0.012870012870012869
sg16
F0.00087359133397396692
sg17
F0.0028514399771884802
sS'.'
F0.00063463857333248715
sg18
F0.0011065619121389842
sg19
F0.0012891581797086502
sg20
F0.00077718193829175402
sS':'
F0.0041203131437989289
sg21
F0.0003986128273607845
sg22
F0.00027718491005349668
sg23
F0.0017335529167027822
sg24
F0.010449320794148381
sS'`'
F0.17543859649122806
sg25
F0.0029594554601953238
sg26
F0.085470085470085472
sg27
F0.068027210884353748
sg28
F0.046082949308755762
sg29
F0.013210039630118889
sg30
F0.00081987373944412555
sg31
F0.028818443804034581
sg32
F0.00025649575499525482
sg33
F0.063694267515923567
sg34
F0.0022794620469569183
sg35
F0.0051626226122870418
sS"'"
F0.17543859649122806
sg36
F0.014771048744460856
sg37
F0.0074239049740163331
sg38
F0.14925373134328357
sg39
F0.14925373134328357
ssg34
(dp78
g2
F0.0025400050800101601
sg4
F0.0017102787754403965
sg5
F0.10152284263959391
sg6
F0.0049279290378218552
sS','
F0.011266451579863779
sg7
F0.0018426386585590564
sg8
F0.16780283167278448
sg9
F0.00073348736568012616
sg10
F0.067396798652064022
sg11
F0.0025103552152629595
sg12
F0.0020972525990951853
sS'#'
F0.17543859649122806
sS'"'
F0.017622870569806149
sg13
F0.011947431302270011
sS'$'
F0.0053276505061267982
sg14
F0.018956612569394744
sg15
F0.00063223114370613892
sS')'
F0.027137042062415195
sS'('
F0.012870012870012869
sg16
F0.0017471826679479338
sg17
F0.0028514399771884802
sS'.'
F0.0012692771466649743
sg18
F0.0011065619121389842
sg19
F0.13020497615057366
sg20
F0.011657729074376311
sS':'
F0.0082406262875978579
sg21
F0.025112608123729424
sg22
F0.016076724783102809
sg23
F0.00086677645835139111
sg24
F0.010449320794148381
sS'`'
F0.17543859649122806
sg25
F0.0088783663805859711
sg26
F0.085470085470085472
sg27
F0.068027210884353748
sg28
F0.046082949308755762
sg29
F0.013210039630118889
sg30
F0.0024596212183323769
sg31
F0.17291066282420747
sg32
F0.00025649575499525482
sg33
F0.063694267515923567
sg34
F0.0022794620469569183
sg35
F0.030975735673722252
sS"'"
F0.17543859649122806
sg36
F0.014771048744460856
sg37
F0.0074239049740163331
sg38
F0.14925373134328357
sg39
F0.14925373134328357
ssg35
(dp79
g2
F0.0050800101600203202
sg4
F0.0034205575508807931
sg5
F0.050761421319796954
sg6
F0.0012319822594554638
sS','
F0.0030726686126901215
sg7
F0.0018426386585590564
sg8
F0.005243838489774515
sg9
F0.0014669747313602523
sg10
F0.0084245998315080027
sg11
F0.0025103552152629595
sg12
F0.015879198250292118
sS'#'
F0.17543859649122806
sS'"'
F0.0039161934599569216
sg13
F0.011947431302270011
sS'$'
F0.0053276505061267982
sg14
F0.00019343482213668106
sg15
F0.0056900802933552508
sS')'
F0.013568521031207597
sS'('
F0.012870012870012869
sg16
F0.0017471826679479338
sg17
F0.019960079840319361
sS'.'
F0.00063463857333248715
sg18
F0.0033196857364169523
sg19
F0.0012891581797086502
sg20
F0.00077718193829175402
sS':'
F0.0041203131437989289
sg21
F0.0003986128273607845
sg22
F0.025501011724921696
sg23
F0.00086677645835139111
sg24
F0.010449320794148381
sS'`'
F0.17543859649122806
sg25
F0.0029594554601953238
sg26
F0.085470085470085472
sg27
F0.068027210884353748
sg28
F0.046082949308755762
sg29
F0.013210039630118889
sg30
F0.0032794949577765022
sg31
F0.028818443804034581
sg32
F0.0020519660399620386
sg33
F0.063694267515923567
sg34
F0.0022794620469569183
sg35
F0.020650490449148167
sS"'"
F0.17543859649122806
sg36
F0.029542097488921712
sg37
F0.0074239049740163331
sg38
F0.14925373134328357
sg39
F0.14925373134328357
ssS"'"
(dp80
g2
F0.0025400050800101601
sg4
F0.0017102787754403965
sg5
F0.050761421319796954
sg6
F0.0012319822594554638
sS','
F0.00051211143544835358
sg7
F0.0018426386585590564
sg8
F0.005243838489774515
sg9
F0.00036674368284006308
sg10
F0.0084245998315080027
sg11
F0.0012551776076314798
sg12
F0.00029960751415645506
sS'#'
F0.17543859649122806
sS'"'
F0.0019580967299784608
sg13
F0.011947431302270011
sS'$'
F0.0053276505061267982
sg14
F0.00019343482213668106
sg15
F0.00063223114370613892
sS')'
F0.013568521031207597
sS'('
F0.012870012870012869
sg16
F0.00087359133397396692
sg17
F0.0028514399771884802
sS'.'
F0.00063463857333248715
sg18
F0.0011065619121389842
sg19
F0.0012891581797086502
sg20
F0.00077718193829175402
sS':'
F0.0041203131437989289
sg21
F0.0003986128273607845
sg22
F0.00027718491005349668
sg23
F0.00086677645835139111
sg24
F0.010449320794148381
sS'`'
F0.17543859649122806
sg25
F0.00098648515339844135
sg26
F0.085470085470085472
sg27
F0.068027210884353748
sg28
F0.046082949308755762
sg29
F0.013210039630118889
sg30
F0.00081987373944412555
sg31
F0.028818443804034581
sg32
F0.00025649575499525482
sg33
F0.063694267515923567
sg34
F0.0022794620469569183
sg35
F0.0051626226122870418
sS"'"
F0.17543859649122806
sg36
F0.014771048744460856
sg37
F0.0074239049740163331
sg38
F0.14925373134328357
sg39
F0.14925373134328357
ssg36
(dp81
g2
F0.0076200152400304807
sg4
F0.0017102787754403965
sg5
F0.050761421319796954
sg6
F0.0012319822594554638
sS','
F0.0010242228708967072
sg7
F0.0036852773171181128
sg8
F0.005243838489774515
sg9
F0.00036674368284006308
sg10
F0.016849199663016005
sg11
F0.0012551776076314798
sg12
F0.0065913653114420111
sS'#'
F0.17543859649122806
sS'"'
F0.0019580967299784608
sg13
F0.023894862604540022
sS'$'
F0.0053276505061267982
sg14
F0.00019343482213668106
sg15
F0.0044256180059429728
sS')'
F0.013568521031207597
sS'('
F0.012870012870012869
sg16
F0.0034943653358958677
sg17
F0.022811519817507842
sS'.'
F0.00063463857333248715
sg18
F0.0011065619121389842
sg19
F0.0025783163594173004
sg20
F0.001554363876583508
sS':'
F0.0082406262875978579
sg21
F0.0003986128273607845
sg22
F0.00027718491005349668
sg23
F0.00086677645835139111
sg24
F0.010449320794148381
sS'`'
F0.17543859649122806
sg25
F0.0029594554601953238
sg26
F0.085470085470085472
sg27
F0.068027210884353748
sg28
F0.046082949308755762
sg29
F0.013210039630118889
sg30
F0.00081987373944412555
sg31
F0.028818443804034581
sg32
F0.0038474363249288226
sg33
F0.063694267515923567
sg34
F0.0022794620469569183
sg35
F0.0051626226122870418
sS"'"
F0.17543859649122806
sg36
F0.014771048744460856
sg37
F0.0074239049740163331
sg38
F0.14925373134328357
sg39
F0.14925373134328357
ssg37
(dp82
g2
F0.0025400050800101601
sg4
F0.0085513938772019838
sg5
F0.050761421319796954
sg6
F0.0061599112972773188
sS','
F0.0010242228708967072
sg7
F0.011055831951354338
sg8
F0.005243838489774515
sg9
F0.00036674368284006308
sg10
F0.0084245998315080027
sg11
F0.005020710430525919
sg12
F0.004793720226503281
sS'#'
F0.17543859649122806
sS'"'
F0.0019580967299784608
sg13
F0.011947431302270011
sS'$'
F0.0053276505061267982
sg14
F0.0013540437549567673
sg15
F0.0025289245748245557
sS')'
F0.013568521031207597
sS'('
F0.012870012870012869
sg16
F0.0061151393378177689
sg17
F0.0028514399771884802
sS'.'
F0.00063463857333248715
sg18
F0.0033196857364169523
sg19
F0.0051566327188346008
sg20
F0.011657729074376311
sS':'
F0.0041203131437989289
sg21
F0.0011958384820823535
sg22
F0.00027718491005349668
sg23
F0.013868423333622258
sg24
F0.010449320794148381
sS'`'
F0.17543859649122806
sg25
F0.01479727730097662
sg26
F0.085470085470085472
sg27
F0.068027210884353748
sg28
F0.046082949308755762
sg29
F0.013210039630118889
sg30
F0.0073788636549971306
sg31
F0.028818443804034581
sg32
F0.0064123938748813711
sg33
F0.063694267515923567
sg34
F0.0022794620469569183
sg35
F0.0051626226122870418
sS"'"
F0.17543859649122806
sg36
F0.014771048744460856
sg37
F0.0074239049740163331
sg38
F0.14925373134328357
sg39
F0.14925373134328357
ssg38
(dp83
g2
F0.0025400050800101601
sg4
F0.0017102787754403965
sg5
F0.050761421319796954
sg6
F0.0012319822594554638
sS','
F0.00051211143544835358
sg7
F0.0018426386585590564
sg8
F0.005243838489774515
sg9
F0.00036674368284006308
sg10
F0.0084245998315080027
sg11
F0.0012551776076314798
sg12
F0.00029960751415645506
sS'#'
F0.17543859649122806
sS'"'
F0.0019580967299784608
sg13
F0.011947431302270011
sS'$'
F0.0053276505061267982
sg14
F0.00019343482213668106
sg15
F0.00063223114370613892
sS')'
F0.013568521031207597
sS'('
F0.012870012870012869
sg16
F0.00087359133397396692
sg17
F0.0028514399771884802
sS'.'
F0.00063463857333248715
sg18
F0.0011065619121389842
sg19
F0.0012891581797086502
sg20
F0.00077718193829175402
sS':'
F0.0041203131437989289
sg21
F0.0003986128273607845
sg22
F0.00055436982010699336
sg23
F0.00086677645835139111
sg24
F0.010449320794148381
sS'`'
F0.17543859649122806
sg25
F0.00098648515339844135
sg26
F0.085470085470085472
sg27
F0.068027210884353748
sg28
F0.046082949308755762
sg29
F0.013210039630118889
sg30
F0.00081987373944412555
sg31
F0.028818443804034581
sg32
F0.00025649575499525482
sg33
F0.063694267515923567
sg34
F0.0022794620469569183
sg35
F0.0051626226122870418
sS"'"
F0.17543859649122806
sg36
F0.014771048744460856
sg37
F0.0074239049740163331
sg38
F0.14925373134328357
sg39
F0.14925373134328357
ssg39
(dp84
g2
F0.0025400050800101601
sg4
F0.0017102787754403965
sg5
F0.050761421319796954
sg6
F0.0012319822594554638
sS','
F0.0010242228708967072
sg7
F0.0018426386585590564
sg8
F0.005243838489774515
sg9
F0.00036674368284006308
sg10
F0.0084245998315080027
sg11
F0.0012551776076314798
sg12
F0.00029960751415645506
sS'#'
F0.17543859649122806
sS'"'
F0.0019580967299784608
sg13
F0.011947431302270011
sS'$'
F0.0053276505061267982
sg14
F0.00019343482213668106
sg15
F0.00063223114370613892
sS')'
F0.013568521031207597
sS'('
F0.012870012870012869
sg16
F0.00087359133397396692
sg17
F0.0028514399771884802
sS'.'
F0.00063463857333248715
sg18
F0.0011065619121389842
sg19
F0.0012891581797086502
sg20
F0.00077718193829175402
sS':'
F0.0041203131437989289
sg21
F0.0003986128273607845
sg22
F0.00027718491005349668
sg23
F0.00086677645835139111
sg24
F0.010449320794148381
sS'`'
F0.17543859649122806
sg25
F0.00098648515339844135
sg26
F0.085470085470085472
sg27
F0.068027210884353748
sg28
F0.046082949308755762
sg29
F0.013210039630118889
sg30
F0.00081987373944412555
sg31
F0.028818443804034581
sg32
F0.00025649575499525482
sg33
F0.063694267515923567
sg34
F0.0022794620469569183
sg35
F0.0051626226122870418
sS"'"
F0.17543859649122806
sg36
F0.014771048744460856
sg37
F0.0074239049740163331
sg38
F0.14925373134328357
sg39
F0.14925373134328357
ss.