(dp1
S'1,800'
p2
I2
sS'four'
p3
I9
sS'looking'
p4
I2
sS'eligible'
p5
I3
sS'electricity'
p6
I3
sS'hormone'
p7
I2
sS'regional'
p8
I2
sS'sideline-business'
p9
I2
sS'politician'
p10
I2
sS'bringing'
p11
I2
sS'disturb'
p12
I3
sS'specialties'
p13
I3
sS'non-violent'
p14
I14
sS'charter'
p15
I3
sS'specially'
p16
I2
sS'miller'
p17
I2
sS'270'
p18
I2
sS'elegant'
p19
I3
sS'second'
p20
I21
sS'messiaen'
p21
I2
sS'single-b'
p22
I2
sS'errors'
p23
I2
sS'cooking'
p24
I2
sS'contributed'
p25
I5
sS'fingers'
p26
I5
sS'increasing'
p27
I3
sS'shocks'
p28
I4
sS'specialist'
p29
I2
sS'off-again'
p30
I2
sS'here'
p31
I11
sS'reported'
p32
I16
sS'china'
p33
I14
sS'non-``'
p34
I2
sS'eg&g'
p35
I6
sS'substance'
p36
I2
sS'elaborate'
p37
I2
sS'reports'
p38
I10
sS'karim'
p39
I2
sS'neurologist'
p40
I4
sS'military'
p41
I9
sS'criticism'
p42
I2
sS'golden'
p43
I6
sS'replace'
p44
I3
sS'brought'
p45
I10
sS'unix'
p46
I4
sS'stern'
p47
I2
sS'2008-2009'
p48
I2
sS'unit'
p49
I16
sS'opponents'
p50
I2
sS'marketers'
p51
I4
sS'music'
p52
I7
sS'bedrock'
p53
I2
sS'strike'
p54
I3
sS'heralded'
p55
I2
sS'2680'
p56
I2
sS'until'
p57
I14
sS'populations'
p58
I2
sS'successful'
p59
I5
sS'brings'
p60
I2
sS'99'
p61
I2
sS'98'
p62
I2
sS'5.16'
p63
I2
sS'hurl'
p64
I2
sS'90'
p65
I8
sS'93'
p66
I2
sS'hold'
p67
I8
sS'94'
p68
I2
sS'circumstances'
p69
I4
sS'morally'
p70
I2
sS'pursue'
p71
I4
sS'self-styled'
p72
I2
sS'rulings'
p73
I2
sS'13*slashhere*16'
p74
I2
sS'concepts'
p75
I2
sS'revenues'
p76
I2
sS'example'
p77
I12
sS'vanities'
p78
I2
sS'unjust'
p79
I2
sS'household'
p80
I2
sS'turkmenia'
p81
I2
sS'organized'
p82
I2
sS'currency'
p83
I3
sS'caution'
p84
I2
sS'want'
p85
I13
sS'automobile-parts'
p86
I2
sS'complaining'
p87
I2
sS'travel'
p88
I2
sS'damage'
p89
I7
sS'leaguers'
p90
I2
sS'machine'
p91
I3
sS'how'
p92
I27
sS'casualty-loss'
p93
I2
sS'beauty'
p94
I2
sS'wrong'
p95
I3
sS'gottesman'
p96
I2
sS'types'
p97
I2
sS'effective'
p98
I8
sS'wins'
p99
I2
sS'youths'
p100
I2
sS'deutsche'
p101
I2
sS'presiding'
p102
I2
sS'first-mortgage'
p103
I2
sS'18th'
p104
I2
sS'democratic'
p105
I4
sS'wing'
p106
I2
sS'9.192'
p107
I2
sS'senators'
p108
I2
sS'welcomed'
p109
I2
sS'misdemeanor'
p110
I2
sS'vary'
p111
I3
sS'fidelity'
p112
I2
sS'ex-dividend'
p113
I2
sS'fit'
p114
I3
sS'72-game'
p115
I2
sS'fix'
p116
I2
sS'hidden'
p117
I2
sS'easier'
p118
I3
sS'lambert'
p119
I2
sS'slate'
p120
I2
sS'educating'
p121
I3
sS'effects'
p122
I2
sS'yourself'
p123
I2
sS'slats'
p124
I3
sS'represents'
p125
I3
sS'debut'
p126
I2
sS'pleasantries'
p127
I2
sS'financial'
p128
I19
sS'series'
p129
I13
sS'commons'
p130
I2
sS'raw-materials'
p131
I2
sS'substantially'
p132
I2
sS'laboratory'
p133
I3
sS'bnl'
p134
I7
sS'waive'
p135
I2
sS'mason'
p136
I4
sS'threatened'
p137
I2
sS'7.962'
p138
I2
sS'sensory'
p139
I3
sS'estimate'
p140
I2
sS'enormous'
p141
I2
sS'bates'
p142
I2
sS'nondeductible'
p143
I2
sS'scruff'
p144
I2
sS'lorimar'
p145
I2
sS'r.'
p146
I5
sS'108.8'
p147
I2
sS'mingo'
p148
I6
sS'wash'
p149
I2
sS'179'
p150
I2
sS'seizures'
p151
I2
sS'exchequer'
p152
I2
sS'service'
p153
I12
sS'similarly'
p154
I2
sS'lawsuits'
p155
I5
sS'needed'
p156
I2
sS'master'
p157
I7
sS'listed'
p158
I5
sS'nz$'
p159
I2
sS'legs'
p160
I2
sS'bitter'
p161
I2
sS'ranging'
p162
I2
sS'rewards'
p163
I2
sS'collapse'
p164
I2
sS'geneva'
p165
I2
sS'predictable'
p166
I2
sS'showed'
p167
I6
sS'tree'
p168
I2
sS'nations'
p169
I5
sS'project'
p170
I4
sS'273'
p171
I2
sS'feeling'
p172
I2
sS'acquisition'
p173
I8
sS'goya'
p174
I6
sS'willingness'
p175
I3
sS'boston'
p176
I6
sS'wealth'
p177
I2
sS'antagonistic'
p178
I2
sS'on-again'
p179
I2
sS'dozen'
p180
I2
sS'affairs'
p181
I4
sS'person'
p182
I3
sS'responsible'
p183
I4
sS'floating-rate'
p184
I3
sS'283-132'
p185
I2
sS'ex-accountant'
p186
I2
sS'concedes'
p187
I3
sS'sidley'
p188
I6
sS'transactions'
p189
I8
sS'object'
p190
I2
sS'wells'
p191
I3
sS'simplify'
p192
I2
sS'affirmation'
p193
I2
sS'blackmailed'
p194
I2
sS'letter'
p195
I8
sS'thriller'
p196
I2
sS'dummy'
p197
I2
sS'singer'
p198
I3
sS'camp'
p199
I2
sS'purged'
p200
I2
sS'came'
p201
I10
sS'saying'
p202
I7
sS'reactor'
p203
I4
sS'magisterially'
p204
I2
sS'meetings'
p205
I6
sS'echoing'
p206
I2
sS'participate'
p207
I4
sS'hungary'
p208
I3
sS'hounded'
p209
I2
sS'die-hard'
p210
I2
sS'menu'
p211
I2
sS'interbank'
p212
I4
sS'bush'
p213
I34
sS'rich'
p214
I2
sS'rice'
p215
I2
sS'plate'
p216
I3
sS'klein'
p217
I2
sS'higher-fat'
p218
I2
sS'pocket'
p219
I2
sS'kinji'
p220
I2
sS'altogether'
p221
I3
sS'tips'
p222
I2
sS'looting'
p223
I2
sS'jaguar'
p224
I7
sS'greene'
p225
I2
sS'three-year'
p226
I4
sS'release'
p227
I2
sS'saul'
p228
I2
sS'respond'
p229
I2
sS'programmatic'
p230
I2
sS'leasing'
p231
I2
sS'disaster'
p232
I2
sS'unexpectedly'
p233
I2
sS'result'
p234
I16
sS'fail'
p235
I3
sS'resigned'
p236
I7
sS'best'
p237
I7
sS'shupe'
p238
I2
sS'lots'
p239
I2
sS'irs'
p240
I16
sS'ira'
p241
I2
sS'pirate'
p242
I2
sS'entrekin'
p243
I2
sS'preserve'
p244
I2
sS'wage'
p245
I16
sS'40.9'
p246
I2
sS'extend'
p247
I5
sS'nature'
p248
I4
sS'superficial'
p249
I2
sS'agnelli-related'
p250
I2
sS'debt'
p251
I11
sS'pity'
p252
I2
sS'accident'
p253
I2
sS'country'
p254
I14
sS'demanded'
p255
I2
sS'planned'
p256
I6
sS'argue'
p257
I6
sS'asked'
p258
I12
sS'irresponsible'
p259
I4
sS'pittsburgh-based'
p260
I2
sS'250'
p261
I3
sS'251'
p262
I3
sS'five-by-eight-inch'
p263
I2
sS'billing'
p264
I2
sS'holdings'
p265
I2
sS'3.89'
p266
I2
sS'.'
I1551
sS'much'
p267
I33
sS'stadium'
p268
I3
sS'privilege'
p269
I6
sS'renk'
p270
I3
sS'life'
p271
I6
sS'sydney'
p272
I2
sS'eastern'
p273
I27
sS'hospitalized'
p274
I2
sS'worker'
p275
I2
sS'irving'
p276
I2
sS'dave'
p277
I2
sS'worked'
p278
I4
sS'excorciate'
p279
I2
sS'1466.29'
p280
I2
sS'commerce'
p281
I3
sS'castro'
p282
I3
sS'appeals'
p283
I2
sS'bognato'
p284
I3
sS'played'
p285
I5
sS'player'
p286
I3
sS'australia'
p287
I5
sS'upscale'
p288
I2
sS'trustee'
p289
I2
sS'hong'
p290
I8
sS'things'
p291
I10
sS'feuding'
p292
I3
sS'harmony'
p293
I2
sS'babies'
p294
I2
sS'european'
p295
I6
sS'fairly'
p296
I4
sS'effortlessly'
p297
I2
sS'pontiac'
p298
I2
sS'middle-aged'
p299
I2
sS'marched'
p300
I2
sS'ownership'
p301
I3
sS'pioneers'
p302
I2
sS'tune'
p303
I3
sS'midsized'
p304
I2
sS'matters'
p305
I5
sS'academic'
p306
I3
sS'academia'
p307
I2
sS'corporate'
p308
I10
sS'financially'
p309
I2
sS'uncombed'
p310
I2
sS'plight'
p311
I2
sS'succeeding'
p312
I4
sS'previous'
p313
I4
sS'ease'
p314
I5
sS'had'
p315
I65
sS'nuances'
p316
I2
sS'innocent'
p317
I2
sS'prison'
p318
I2
sS'manfred'
p319
I2
sS'east'
p320
I5
sS'municipal'
p321
I2
sS'posed'
p322
I2
sS'possible'
p323
I12
sS'possibly'
p324
I3
sS'unique'
p325
I2
sS'desire'
p326
I2
sS'alice'
p327
I2
sS'misdemeanors'
p328
I2
sS'attorney'
p329
I12
sS'right'
p330
I12
sS'old'
p331
I15
sS'crowd'
p332
I3
sS'people'
p333
I24
sS'topping'
p334
I2
sS'consultants'
p335
I3
sS'insistence'
p336
I2
sS'fiduciary'
p337
I2
sS'enemies'
p338
I2
sS'for'
p339
I341
sS'bottom'
p340
I2
sS'myung'
p341
I2
sS'creative'
p342
I4
sS'contributing'
p343
I3
sS'continue'
p344
I9
sS'summoned'
p345
I2
sS'eduard'
p346
I3
sS'6,000'
p347
I2
sS'binder'
p348
I2
sS'defensive'
p349
I2
sS'losing'
p350
I2
sS'brokerage'
p351
I3
sS'manufacturing'
p352
I3
sS'shaken'
p353
I2
sS'filipino'
p354
I2
sS'dollars'
p355
I6
sS'citizens'
p356
I2
sS'bicentennial'
p357
I2
sS'annualized'
p358
I2
sS'reps.'
p359
I2
sS'slightly'
p360
I3
sS'lifland'
p361
I2
sS'nixon'
p362
I3
sS'barred'
p363
I2
sS'raised'
p364
I8
sS'statements'
p365
I3
sS'facility'
p366
I2
sS'maxwell'
p367
I2
sS'son'
p368
I3
sS'administer'
p369
I3
sS'presenters'
p370
I2
sS'rome-based'
p371
I2
sS'magazines'
p372
I4
sS'consumer-products'
p373
I2
sS'sox'
p374
I4
sS'defendants'
p375
I3
sS'schimberg'
p376
I2
sS'fabric'
p377
I3
sS'support'
p378
I9
sS'solicitors'
p379
I2
sS'one-time'
p380
I3
sS'joseph'
p381
I2
sS'authorized'
p382
I3
sS'resulted'
p383
I4
sS'halls'
p384
I2
sS'launching'
p385
I2
sS'therefore'
p386
I2
sS'offer'
p387
I11
sS'nonvoting'
p388
I2
sS'back'
p389
I24
sS'talents'
p390
I2
sS'unamended'
p391
I2
sS'robertson'
p392
I2
sS'redistributionism'
p393
I2
sS'nov.'
p394
I18
sS'inside'
p395
I2
sS'devices'
p396
I12
sS'stolzman'
p397
I2
sS'jan.'
p398
I3
sS'refillable'
p399
I3
sS'151'
p400
I2
sS'150'
p401
I9
sS'later'
p402
I11
sS'proved'
p403
I2
sS'157'
p404
I2
sS'156'
p405
I3
sS'steady'
p406
I3
sS"''"
p407
I209
sS'proves'
p408
I2
sS'accounting'
p409
I3
sS'dealer'
p410
I3
sS'negotiations'
p411
I4
sS'floor'
p412
I4
sS'relax'
p413
I2
sS'cambodia'
p414
I3
sS'flood'
p415
I2
sS'role'
p416
I7
sS'ambitious'
p417
I2
sS'developers'
p418
I2
sS'roll'
p419
I2
sS'greenery'
p420
I3
sS"'s"
p421
I358
sS'palms'
p422
I2
sS'get-together'
p423
I3
sS'models'
p424
I2
sS'pitcher-coach'
p425
I2
sS"'d"
p426
I4
sS'intent'
p427
I2
sS"'m"
p428
I5
sS'reorganization'
p429
I4
sS'kgb'
p430
I4
sS'time'
p431
I44
sS'push'
p432
I3
sS'overturned'
p433
I2
sS'cincinnati'
p434
I3
sS'chain'
p435
I4
sS'chair'
p436
I2
sS'hole'
p437
I2
sS'92'
p438
I3
sS'oversight'
p439
I2
sS'bogus'
p440
I2
sS'prepaid'
p441
I3
sS'choice'
p442
I3
sS'drexel'
p443
I2
sS'remora'
p444
I2
sS'stays'
p445
I2
sS'corp.'
p446
I32
sS'short-range'
p447
I2
sS'unificationism'
p448
I2
sS'leave'
p449
I5
sS'settle'
p450
I2
sS'team'
p451
I12
sS'depository'
p452
I2
sS'bonfire'
p453
I2
sS'prevent'
p454
I3
sS'findings'
p455
I2
sS'soft-spoken'
p456
I2
sS'sign'
p457
I5
sS'sino-british'
p458
I2
sS'oleg'
p459
I2
sS'current'
p460
I13
sS'falling'
p461
I2
sS'boost'
p462
I6
sS'drafted'
p463
I2
sS'jury'
p464
I10
sS'exceptions'
p465
I3
sS'address'
p466
I2
sS'alone'
p467
I3
sS'along'
p468
I6
sS'financiers'
p469
I2
sS'brilliant'
p470
I2
sS'studied'
p471
I2
sS'accomplished'
p472
I2
sS'studies'
p473
I6
sS'reclaim'
p474
I2
sS'love'
p475
I2
sS'prefer'
p476
I2
sS'bloody'
p477
I2
sS'fake'
p478
I3
sS'working'
p479
I10
sS'positive'
p480
I2
sS'angry'
p481
I2
sS'tightly'
p482
I2
sS'opposed'
p483
I3
sS'scope'
p484
I3
sS'``'
p485
I285
sS'subsistence'
p486
I2
sS'apparent'
p487
I2
sS'oregon'
p488
I2
sS'honed'
p489
I2
sS'non-family'
p490
I2
sS'sierra'
p491
I2
sS'visual'
p492
I2
sS'virtue'
p493
I2
sS'behalf'
p494
I4
sS'involve'
p495
I3
sS'valued'
p496
I4
sS'md-80'
p497
I2
sS'originally'
p498
I5
sS'pretend'
p499
I2
sS'believes'
p500
I5
sS'impasse'
p501
I2
sS'zhao'
p502
I2
sS'printing'
p503
I3
sS'values'
p504
I2
sS'stature'
p505
I2
sS'believed'
p506
I2
sS'1*slashhere*4'
p507
I4
sS'1*slashhere*2'
p508
I8
sS'awesome'
p509
I2
sS'conciliatory'
p510
I2
sS'allowed'
p511
I5
sS'230'
p512
I2
sS'gimmickry'
p513
I2
sS'savor'
p514
I2
sS's.'
p515
I3
sS'coleman'
p516
I2
sS'five-year'
p517
I3
sS'rigors'
p518
I2
sS'spot'
p519
I2
sS'kalison'
p520
I2
sS'date'
p521
I4
sS'such'
p522
I48
sS'acceptances'
p523
I2
sS'data'
p524
I4
sS'natural'
p525
I4
sS'sectors'
p526
I3
sS'biographical'
p527
I2
sS'sclerosis'
p528
I2
sS'so'
p529
I42
sS'skirmish'
p530
I2
sS'pulled'
p531
I2
sS'12.75'
p532
I2
sS'seven-bedroom'
p533
I2
sS'flips'
p534
I2
sS'years'
p535
I64
sS'course'
p536
I5
sS'bucking'
p537
I2
sS'tendency'
p538
I2
sS'middle-management'
p539
I2
sS'limbs'
p540
I2
sS'overhaul'
p541
I2
sS'thumb'
p542
I2
sS'jim'
p543
I2
sS'troubles'
p544
I3
sS'aviv'
p545
I2
sS'suspicion'
p546
I2
sS'troubled'
p547
I4
sS'decades'
p548
I2
sS'petition'
p549
I2
sS'militant'
p550
I2
sS'thereby'
p551
I3
sS'm.w.'
p552
I2
sS'nation'
p553
I9
sS'records'
p554
I10
sS'concocts'
p555
I2
sS'compelled'
p556
I3
sS'non-brain'
p557
I2
sS'subordinated'
p558
I4
sS'establishing'
p559
I2
sS'quarter'
p560
I11
sS'repaired'
p561
I2
sS'quartet'
p562
I3
sS'square'
p563
I3
sS'retrieve'
p564
I2
sS'revised'
p565
I2
sS'bovine'
p566
I2
sS'seriously'
p567
I3
sS'investigation'
p568
I2
sS'suggesting'
p569
I3
sS'formula'
p570
I2
sS'uptempo'
p571
I2
sS'sheffield'
p572
I2
sS'million'
p573
I124
sS'possibility'
p574
I4
sS'loyalty'
p575
I2
sS'ontario'
p576
I3
sS'complicated'
p577
I2
sS'plea'
p578
I2
sS'cahoon'
p579
I2
sS'training'
p580
I16
sS'distilled'
p581
I2
sS'modest'
p582
I3
sS'chevy'
p583
I3
sS'undesirable'
p584
I3
sS'neglect'
p585
I2
sS'spoken'
p586
I2
sS'clause'
p587
I3
sS'one'
p588
I81
sS'submit'
p589
I3
sS'spanish'
p590
I2
sS'vote'
p591
I6
sS'potted'
p592
I2
sS'open'
p593
I10
sS'kuan'
p594
I2
sS'city'
p595
I6
sS'wrath'
p596
I2
sS'bite'
p597
I2
sS'structured'
p598
I3
sS'36-year-old'
p599
I2
sS'indicate'
p600
I2
sS'2'
I10
sS'draft'
p601
I2
sS'cite'
p602
I2
sS'suit'
p603
I6
sS'12,275'
p604
I2
sS's.c.'
p605
I2
sS'ridiculous'
p606
I2
sS'slashed'
p607
I2
sS'specialists'
p608
I2
sS'surged'
p609
I2
sS'inventor'
p610
I2
sS'quake-relief'
p611
I2
sS'conn.'
p612
I4
sS'depressed'
p613
I3
sS'favors'
p614
I2
sS'future'
p615
I9
sS'anti-western'
p616
I2
sS'cavalier'
p617
I2
sS'dutifully'
p618
I2
sS'sao'
p619
I2
sS'san'
p620
I4
sS'sam'
p621
I2
sS'royalties'
p622
I2
sS'drogoul'
p623
I2
sS'turned'
p624
I3
sS'argument'
p625
I3
sS'notebook'
p626
I2
sS'sad'
p627
I2
sS'picketing'
p628
I2
sS'say'
p629
I29
sS'financier'
p630
I2
sS'borough'
p631
I2
sS'sat'
p632
I2
sS'serials'
p633
I2
sS'fashionable'
p634
I3
sS'aside'
p635
I7
sS'zoo'
p636
I2
sS'note'
p637
I6
sS'goodman'
p638
I2
sS'283.9'
p639
I2
sS'take'
p640
I19
sS'destroy'
p641
I2
sS'concern'
p642
I16
sS'high-technology'
p643
I2
sS'ironically'
p644
I2
sS'altered'
p645
I2
sS'opposite'
p646
I2
sS'staffed'
p647
I2
sS'printed'
p648
I2
sS'remarks'
p649
I3
sS'knee'
p650
I2
sS'pages'
p651
I3
sS'lawn'
p652
I2
sS'average'
p653
I23
sS'phil'
p654
I2
sS'trifari'
p655
I4
sS'drive'
p656
I4
sS'sodas'
p657
I2
sS'federal'
p658
I29
sS'mass.'
p659
I5
sS'liquidity'
p660
I3
sS'laws'
p661
I3
sS'walking'
p662
I2
sS'surplus'
p663
I2
sS'sales-tax'
p664
I2
sS'bright'
p665
I2
sS'aggressive'
p666
I5
sS'slow'
p667
I4
sS'cloak'
p668
I2
sS'tears'
p669
I2
sS'going'
p670
I16
sS'outrage'
p671
I2
sS'robe'
p672
I2
sS'azoff'
p673
I5
sS'congressional'
p674
I11
sS'carolina'
p675
I3
sS'assistant'
p676
I5
sS'outlet'
p677
I2
sS'prime'
p678
I6
sS'borrow'
p679
I2
sS'worried'
p680
I4
sS'roger'
p681
I3
sS'where'
p682
I14
sS'surgery'
p683
I7
sS'individual-retirement-account'
p684
I2
sS'untapped'
p685
I2
sS'representatives'
p686
I2
sS'affecting'
p687
I2
sS'enjoys'
p688
I2
sS'jobs'
p689
I7
sS'screen'
p690
I2
sS'concentrate'
p691
I3
sS'jets'
p692
I2
sS'spark'
p693
I2
sS'abramson'
p694
I2
sS'undermine'
p695
I2
sS'many'
p696
I28
sS'paring'
p697
I2
sS'concentrates'
p698
I2
sS'now-defunct'
p699
I2
sS'guts'
p700
I2
sS'testimonial'
p701
I2
sS'pre-trial'
p702
I2
sS'stretch'
p703
I2
sS'west'
p704
I16
sS'locally'
p705
I2
sS'airlines'
p706
I8
sS'combined'
p707
I3
sS'motives'
p708
I3
sS'prototype'
p709
I2
sS'wants'
p710
I4
sS'enable'
p711
I3
sS'formed'
p712
I3
sS'centerpiece'
p713
I2
sS'photos'
p714
I2
sS'former'
p715
I22
sS'consultant'
p716
I7
sS'rancor'
p717
I2
sS'policies'
p718
I4
sS'pennzoil'
p719
I3
sS'newspaper'
p720
I5
sS'situation'
p721
I5
sS'spotlight'
p722
I2
sS'brow'
p723
I2
sS'purse'
p724
I2
sS'bros'
p725
I2
sS'engages'
p726
I2
sS'technology'
p727
I3
sS'13.1'
p728
I2
sS'550,000'
p729
I2
sS'otto'
p730
I2
sS'workout'
p731
I2
sS'oceanographic'
p732
I2
sS'singapore'
p733
I16
sS'boosted'
p734
I3
sS'reverts'
p735
I2
sS'wpp'
p736
I3
sS'domineering'
p737
I2
sS'recapture'
p738
I2
sS'tracking'
p739
I2
sS'bailiff'
p740
I2
sS'costs'
p741
I10
sS'779.8'
p742
I2
sS'trains'
p743
I3
sS'minpeco'
p744
I3
sS'216'
p745
I2
sS'summer'
p746
I6
sS'koreagate'
p747
I2
sS'being'
p748
I26
sS'rest'
p749
I5
sS'safeguards'
p750
I2
sS'recycled'
p751
I4
sS'weekly'
p752
I2
sS'brezinski'
p753
I2
sS'dicks'
p754
I2
sS'tadzhikistan'
p755
I2
sS'aspects'
p756
I4
sS'around'
p757
I6
sS'rejoin'
p758
I3
sS'gestures'
p759
I2
sS'spokespersons'
p760
I2
sS'traffic'
p761
I4
sS'insist'
p762
I3
sS'world'
p763
I24
sS'postal'
p764
I3
sS'dare'
p765
I2
sS'satisfaction'
p766
I2
sS'amputation'
p767
I2
sS'clad'
p768
I2
sS'discarded'
p769
I2
sS'tsunami'
p770
I2
sS'superiority'
p771
I3
sS'offenders'
p772
I2
sS'seating'
p773
I2
sS'superintendent'
p774
I2
sS'100-share'
p775
I2
sS'368.3'
p776
I2
sS'13.50'
p777
I2
sS'memories'
p778
I2
sS'lucid'
p779
I2
sS'unsuccessfully'
p780
I2
sS'scientific'
p781
I4
sS'power'
p782
I16
sS'retains'
p783
I3
sS'leadership'
p784
I4
sS'inflation-adjusted'
p785
I2
sS'ducking'
p786
I2
sS'industry'
p787
I13
sS'favorite'
p788
I4
sS'meal'
p789
I2
sS'tumor'
p790
I2
sS'act'
p791
I5
sS'johnston'
p792
I2
sS'mean'
p793
I7
sS'image'
p794
I4
sS'parties'
p795
I2
sS'her'
p796
I21
sS'philadelphia'
p797
I3
sS'sealed'
p798
I3
sS'brazilian'
p799
I3
sS'capital-raising'
p800
I2
sS'innovated'
p801
I2
sS'survives'
p802
I2
sS'complete'
p803
I6
sS'saatchi'
p804
I3
sS'tailored'
p805
I2
sS'survived'
p806
I2
sS'elimination'
p807
I3
sS'technologies'
p808
I5
sS'aide'
p809
I2
sS'with'
p810
I208
sS'buying'
p811
I7
sS'abused'
p812
I2
sS'pull'
p813
I2
sS'october'
p814
I12
sS'rage'
p815
I2
sS'31.1'
p816
I2
sS'8.019'
p817
I2
sS'dependents'
p818
I2
sS'agree'
p819
I6
sS'kirgizia'
p820
I3
sS'detailed'
p821
I3
sS'gone'
p822
I3
sS'ad'
p823
I12
sS'pinpointed'
p824
I2
sS'certain'
p825
I14
sS'am'
p826
I8
sS'al'
p827
I3
sS'mundo'
p828
I2
sS'an'
p829
I136
sS'as'
p830
I184
sS'ensuing'
p831
I2
sS'at'
p832
I180
sS'clauses'
p833
I2
sS'watched'
p834
I2
sS'cream'
p835
I2
sS'yogi'
p836
I2
sS'abolish'
p837
I2
sS'tight'
p838
I2
sS'summit'
p839
I7
sS'deterrant'
p840
I2
sS'congress'
p841
I9
sS'forgettable'
p842
I2
sS'a.'
p843
I11
sS'planners'
p844
I2
sS'tricky'
p845
I2
sS'eight-time'
p846
I2
sS'waived'
p847
I2
sS'tricks'
p848
I3
sS'mass'
p849
I3
sS'nelson'
p850
I2
sS'dyes'
p851
I2
sS'wastewater'
p852
I4
sS'7.14'
p853
I2
sS'neige'
p854
I2
sS'consider'
p855
I5
sS'caused'
p856
I7
sS'daignault'
p857
I2
sS'ceramic'
p858
I2
sS'tours'
p859
I3
sS'improperly'
p860
I2
sS'garment'
p861
I2
sS'riots'
p862
I2
sS'to'
p863
I899
sS'case'
p864
I25
sS'khmer'
p865
I4
sS'calif.'
p866
I7
sS'returned'
p867
I2
sS'candid'
p868
I2
sS'labor'
p869
I8
sS'existing'
p870
I2
sS'condition'
p871
I2
sS'`'
I7
sS'long-simmering'
p872
I2
sS'cable'
p873
I3
sS'venezuela'
p874
I3
sS'laying'
p875
I2
sS'large'
p876
I10
sS'sang'
p877
I2
sS'sand'
p878
I3
sS'harry'
p879
I2
sS'small'
p880
I15
sS'pozen'
p881
I2
sS'j.p.'
p882
I3
sS'penalties'
p883
I4
sS'paso'
p884
I2
sS'past'
p885
I18
sS'displays'
p886
I2
sS'pass'
p887
I3
sS'situated'
p888
I2
sS'richard'
p889
I10
sS'section'
p890
I6
sS'neave'
p891
I4
sS'scientists'
p892
I6
sS'super-user'
p893
I2
sS'contrast'
p894
I2
sS'full'
p895
I8
sS'diapers'
p896
I2
sS'timberlands'
p897
I2
sS'hours'
p898
I4
sS'smartest'
p899
I2
sS'november'
p900
I5
sS'cambodian'
p901
I3
sS'compliance'
p902
I3
sS'experience'
p903
I5
sS'prior'
p904
I3
sS'social'
p905
I4
sS'action'
p906
I5
sS'via'
p907
I8
sS'followed'
p908
I3
sS'enactment'
p909
I2
sS'mohandas'
p910
I2
sS'pulls'
p911
I2
sS'coercion'
p912
I2
sS'montgoris'
p913
I2
sS'pitching'
p914
I2
sS'6'
I7
sS'more'
p915
I95
sS'befitting'
p916
I2
sS'initiated'
p917
I2
sS'company'
p918
I62
sS'tested'
p919
I3
sS'objections'
p920
I2
sS'cult'
p921
I3
sS'keeping'
p922
I5
sS'science'
p923
I2
sS'sent'
p924
I6
sS'morgan'
p925
I8
sS'mehl'
p926
I3
sS'pianist*slashhere*bassoonist*slashhere*composer'
p927
I2
sS'stated'
p928
I2
sS'suggestions'
p929
I2
sS'accept'
p930
I3
sS'states'
p931
I10
sS'fiercely'
p932
I2
sS'sense'
p933
I2
sS'tapestry'
p934
I2
sS'information'
p935
I7
sS'equities'
p936
I2
sS'hugo'
p937
I2
sS'earnings'
p938
I14
sS'hugs'
p939
I2
sS'plant'
p940
I5
sS'seoul'
p941
I4
sS'1970s'
p942
I4
sS'mapping'
p943
I2
sS'plane'
p944
I4
sS'ethics'
p945
I2
sS'acquisitions'
p946
I6
sS'refuse'
p947
I2
sS'register'
p948
I2
sS'broadcasting'
p949
I4
sS'fundamental'
p950
I3
sS'functionaries'
p951
I2
sS'greats'
p952
I3
sS'adorned'
p953
I2
sS'fraser'
p954
I4
sS'trade'
p955
I11
sS'redefinition'
p956
I2
sS'attitude'
p957
I3
sS'embassy'
p958
I2
sS'scott'
p959
I2
sS'signs'
p960
I3
sS'itt'
p961
I2
sS'its'
p962
I111
sS'rapidly'
p963
I3
sS'sumitomo'
p964
I2
sS'gerald'
p965
I2
sS'novametrix'
p966
I2
sS'inquiry'
p967
I4
sS'ally'
p968
I2
sS'tentatively'
p969
I2
sS'subtitled'
p970
I2
sS'anti-hooligan'
p971
I2
sS'stewed'
p972
I2
sS'purdue'
p973
I2
sS'always'
p974
I3
sS'assemblies'
p975
I2
sS'loosely'
p976
I2
sS'courses'
p977
I2
sS'found'
p978
I4
sS'chipping'
p979
I2
sS'investigators'
p980
I3
sS'status'
p981
I4
sS'england'
p982
I3
sS'reduce'
p983
I4
sS'slowdown'
p984
I2
sS'measurement'
p985
I2
sS'advertisers'
p986
I3
sS'operation'
p987
I8
sS'really'
p988
I9
sS'anxious'
p989
I2
sS'scoops'
p990
I2
sS'research'
p991
I6
sS'ministerial'
p992
I2
sS'discounting'
p993
I2
sS'non-callable'
p994
I2
sS'stock-margin'
p995
I2
sS'risen'
p996
I2
sS'sparked'
p997
I2
sS'cockpit'
p998
I2
sS'qualify'
p999
I2
sS'proxy'
p1000
I2
sS'rises'
p1001
I2
sS'director'
p1002
I17
sS'positioning'
p1003
I2
sS'major'
p1004
I22
sS'kirkendall'
p1005
I2
sS'thereafter'
p1006
I2
sS'number'
p1007
I12
sS'heads'
p1008
I3
sS'frankel'
p1009
I2
sS'threatening'
p1010
I2
sS'erupted'
p1011
I2
sS'dfc'
p1012
I2
sS'relationship'
p1013
I9
sS'seagram'
p1014
I8
sS'interviewed'
p1015
I2
sS'appreciation'
p1016
I3
sS'satirical'
p1017
I2
sS'focusing'
p1018
I2
sS'grace'
p1019
I2
sS'observatory'
p1020
I2
sS'aaa'
p1021
I2
sS'yetnikoff'
p1022
I5
sS'pennsylvania'
p1023
I9
sS'determined'
p1024
I2
sS'marriage'
p1025
I3
sS'defect'
p1026
I2
sS'guarding'
p1027
I2
sS'vitally'
p1028
I2
sS'sell'
p1029
I14
sS'destabilizing'
p1030
I2
sS'extorted'
p1031
I2
sS'jeopardize'
p1032
I2
sS'also'
p1033
I58
sS'internal'
p1034
I4
sS'play'
p1035
I7
sS'monastery'
p1036
I2
sS'edison'
p1037
I2
sS'anti-takeover'
p1038
I2
sS'brooklyn'
p1039
I2
sS'plan'
p1040
I20
sS'defections'
p1041
I3
sS'toronto-based'
p1042
I2
sS'arson'
p1043
I2
sS'sometimes'
p1044
I4
sS'cover'
p1045
I4
sS'three-month'
p1046
I5
sS'dragged'
p1047
I2
sS'golf'
p1048
I3
sS'gold'
p1049
I5
sS'defended'
p1050
I2
sS'session'
p1051
I7
sS'occupation'
p1052
I2
sS'impact'
p1053
I4
sS'indicator'
p1054
I2
sS'keychain'
p1055
I2
sS'writer'
p1056
I3
sS'189.8'
p1057
I2
sS'failed'
p1058
I10
sS'equity'
p1059
I2
sS'indifference'
p1060
I2
sS'giants'
p1061
I2
sS'banned'
p1062
I2
sS'closely'
p1063
I6
sS'reporters'
p1064
I4
sS'enemy'
p1065
I2
sS'railbikes'
p1066
I2
sS'debt-equity'
p1067
I4
sS'banking'
p1068
I6
sS'weaver'
p1069
I4
sS'river'
p1070
I2
sS'manger'
p1071
I2
sS'set'
p1072
I14
sS'activists'
p1073
I2
sS'potent'
p1074
I2
sS'sex'
p1075
I2
sS'see'
p1076
I11
sS'sec'
p1077
I13
sS'gas-turbine'
p1078
I2
sS'sen'
p1079
I3
sS'institutes'
p1080
I4
sS'seminars'
p1081
I2
sS'spirits'
p1082
I2
sS'guinea'
p1083
I3
sS'currently'
p1084
I6
sS'pickup'
p1085
I2
sS'europe'
p1086
I19
sS'targeted'
p1087
I5
sS'brewing'
p1088
I2
sS'incident'
p1089
I2
sS'dividend'
p1090
I6
sS'legislature'
p1091
I2
sS'prospects'
p1092
I2
sS'rennie'
p1093
I2
sS'last'
p1094
I28
sS'19.95'
p1095
I2
sS'slogans'
p1096
I2
sS'timorous'
p1097
I2
sS'long-term'
p1098
I5
sS'toxicology'
p1099
I2
sS'whole'
p1100
I8
sS'messiah'
p1101
I2
sS'soundings'
p1102
I2
sS'electrician'
p1103
I2
sS'bell'
p1104
I3
sS'loan'
p1105
I15
sS'community'
p1106
I6
sS'rosa'
p1107
I2
sS'agents'
p1108
I3
sS'church'
p1109
I16
sS'publishing'
p1110
I2
sS'monthly'
p1111
I7
sS'acceptance'
p1112
I2
sS'incentive-backed'
p1113
I2
sS'firm'
p1114
I11
sS'sweetheart'
p1115
I2
sS'fire'
p1116
I4
sS'then-21'
p1117
I2
sS'fund'
p1118
I25
sS'awake'
p1119
I2
sS'representative'
p1120
I4
sS'insiders'
p1121
I9
sS'handling'
p1122
I2
sS'judicial'
p1123
I6
sS'straight'
p1124
I3
sS'expanded'
p1125
I2
sS'budget'
p1126
I9
sS'error'
p1127
I2
sS'budged'
p1128
I2
sS'owed'
p1129
I4
sS'dotting'
p1130
I2
sS'motors'
p1131
I5
sS'dabney'
p1132
I2
sS'centennial'
p1133
I2
sS'owes'
p1134
I2
sS'coca-cola'
p1135
I5
sS'cuisine'
p1136
I2
sS'caygill'
p1137
I2
sS'pacemakers'
p1138
I2
sS'872'
p1139
I2
sS'shorter'
p1140
I2
sS'rules'
p1141
I8
sS'virtually'
p1142
I3
sS'survey'
p1143
I3
sS'cardholders'
p1144
I2
sS'alert'
p1145
I4
sS'mosbacher'
p1146
I2
sS'levels'
p1147
I6
sS'{'
I19
sS'infamous'
p1148
I2
sS'recent'
p1149
I15
sS'then-president'
p1150
I2
sS'surrogate'
p1151
I2
sS'alleging'
p1152
I4
sS'reginald'
p1153
I2
sS'concrete'
p1154
I2
sS'ltd.'
p1155
I5
sS'hypothesized'
p1156
I2
sS'50.1'
p1157
I2
sS'readers'
p1158
I3
sS'surprises'
p1159
I3
sS'signals'
p1160
I2
sS'rangers'
p1161
I2
sS'parents'
p1162
I4
sS'location'
p1163
I2
sS'homeland'
p1164
I2
sS'waleson'
p1165
I2
sS'disobey'
p1166
I2
sS'surprised'
p1167
I3
sS'electromagnets'
p1168
I2
sS'victims'
p1169
I5
sS'emergency'
p1170
I3
sS'demands'
p1171
I3
sS'1099'
p1172
I2
sS'7.55'
p1173
I2
sS'high-ranking'
p1174
I2
sS'baskets'
p1175
I2
sS'projects'
p1176
I8
sS'formal'
p1177
I6
sS'sorting'
p1178
I2
sS'imposed'
p1179
I2
sS'spine'
p1180
I2
sS'kremlin'
p1181
I2
sS'consensus'
p1182
I2
sS'communications'
p1183
I8
sS'individuals'
p1184
I3
sS'yields'
p1185
I13
sS'nissan'
p1186
I3
sS'spins'
p1187
I2
sS'names'
p1188
I3
sS'senate'
p1189
I8
sS'spring'
p1190
I5
sS'palm'
p1191
I2
sS'hard-line'
p1192
I2
sS'shall'
p1193
I2
sS'religion'
p1194
I4
sS'lerman'
p1195
I2
sS'fortney'
p1196
I2
sS'durables'
p1197
I2
sS'be'
p1198
I172
sS'agreement'
p1199
I17
sS'concealed'
p1200
I2
sS'santa'
p1201
I2
sS'tidal'
p1202
I2
sS'by'
p1203
I205
sS'1,200'
p1204
I2
sS'certificate'
p1205
I3
sS'anything'
p1206
I10
sS'exaggerated'
p1207
I4
sS'weatherbeaten'
p1208
I2
sS'biennial'
p1209
I2
sS'cockburn'
p1210
I4
sS'repair'
p1211
I2
sS'colorado'
p1212
I4
sS'garbage'
p1213
I2
sS'into'
p1214
I31
sS'montpelier'
p1215
I2
sS'150-member'
p1216
I3
sS'primarily'
p1217
I2
sS'repaid'
p1218
I3
sS'traduce'
p1219
I2
sS'spending'
p1220
I3
sS'bargaining'
p1221
I3
sS'minor-leaguer'
p1222
I2
sS'crackdown'
p1223
I3
sS'pixie-like'
p1224
I2
sS'fund-raisers'
p1225
I2
sS'conrail'
p1226
I2
sS'considerably'
p1227
I3
sS'elsewhere'
p1228
I3
sS'stock-price'
p1229
I2
sS'metromedia'
p1230
I6
sS'deductions'
p1231
I4
sS'atlantic'
p1232
I3
sS'competition'
p1233
I2
sS'line'
p1234
I10
sS'considerable'
p1235
I2
sS'posted'
p1236
I4
sS'cia'
p1237
I5
sS'redeemed'
p1238
I2
sS'testaments'
p1239
I2
sS'up'
p1240
I79
sS'us'
p1241
I6
sS'maturity'
p1242
I6
sS'customers'
p1243
I9
sS'mortgage-securities'
p1244
I2
sS'75-cent'
p1245
I2
sS'consumed'
p1246
I2
sS'39-year-old'
p1247
I2
sS'genial'
p1248
I2
sS'armstrong'
p1249
I14
sS'defined'
p1250
I4
sS'likewise'
p1251
I2
sS'start-up'
p1252
I3
sS'influence'
p1253
I3
sS'u.s.a'
p1254
I2
sS'arms-reduction'
p1255
I2
sS'jcp'
p1256
I3
sS'occasional'
p1257
I2
sS'elements'
p1258
I3
sS'o.'
p1259
I3
sS'sided'
p1260
I2
sS'robots'
p1261
I2
sS'hazardous-waste-site'
p1262
I2
sS'sider'
p1263
I3
sS'sides'
p1264
I11
sS'swaps'
p1265
I2
sS'ago'
p1266
I19
sS'worsened'
p1267
I2
sS'lane'
p1268
I7
sS'land'
p1269
I4
sS'finery'
p1270
I2
sS'scotch'
p1271
I3
sS'age'
p1272
I5
sS'walked'
p1273
I3
sS'scream'
p1274
I2
sS'norwegians'
p1275
I2
sS'6.25'
p1276
I2
sS'walker'
p1277
I2
sS'having'
p1278
I6
sS'code'
p1279
I3
sS'partial'
p1280
I2
sS'scratch'
p1281
I2
sS'results'
p1282
I6
sS'soften'
p1283
I2
sS'enjoyable'
p1284
I2
sS'amiss'
p1285
I2
sS'maccabee'
p1286
I2
sS'seemed'
p1287
I5
sS'concerned'
p1288
I4
sS'young'
p1289
I9
sS'send'
p1290
I2
sS'dislike'
p1291
I2
sS'resources'
p1292
I5
sS'probe'
p1293
I4
sS'continues'
p1294
I3
sS'abduction'
p1295
I2
sS'practicing'
p1296
I2
sS'continued'
p1297
I5
sS'minerals'
p1298
I2
sS'categories'
p1299
I2
sS'timely'
p1300
I2
sS'sen.'
p1301
I2
sS'real-estate'
p1302
I2
sS'transmission'
p1303
I3
sS'fewer'
p1304
I2
sS'try'
p1305
I3
sS'threat'
p1306
I3
sS'race'
p1307
I2
sS'reich'
p1308
I5
sS'visuals'
p1309
I2
sS'mediterranean'
p1310
I2
sS'noticias'
p1311
I2
sS'recruitment'
p1312
I2
sS'licenses'
p1313
I5
sS'omnicom'
p1314
I2
sS'index'
p1315
I16
sS'shivers'
p1316
I2
sS'expressed'
p1317
I2
sS'consistently'
p1318
I2
sS'indian'
p1319
I2
sS'flowing'
p1320
I3
sS'firms'
p1321
I6
sS'equivalent'
p1322
I2
sS'thin'
p1323
I2
sS'led'
p1324
I9
sS'lee'
p1325
I11
sS'leg'
p1326
I2
sS'respectively'
p1327
I2
sS'puckish'
p1328
I2
sS'let'
p1329
I13
sS'great'
p1330
I12
sS'engage'
p1331
I2
sS'mid-to-late'
p1332
I2
sS'receive'
p1333
I5
sS'involved'
p1334
I7
sS'resulting'
p1335
I3
sS'defeat'
p1336
I2
sS'opinion'
p1337
I4
sS'residents'
p1338
I3
sS'makes'
p1339
I4
sS'maker'
p1340
I13
sS'kennewick'
p1341
I2
sS'330'
p1342
I2
sS'333'
p1343
I2
sS'foreign-exchange'
p1344
I2
sS'standing'
p1345
I2
sS'confidence'
p1346
I2
sS'zip'
p1347
I3
sS'illegal'
p1348
I3
sS'theme'
p1349
I2
sS'next'
p1350
I25
sS'doubt'
p1351
I2
sS'face-to-face'
p1352
I3
sS'midday'
p1353
I2
sS'givens'
p1354
I4
sS'heiwa'
p1355
I2
sS'infamy'
p1356
I2
sS'bronfman'
p1357
I2
sS'dealings'
p1358
I5
sS'federally'
p1359
I2
sS'payrolls'
p1360
I2
sS'animals'
p1361
I3
sS'63.6'
p1362
I2
sS'this'
p1363
I84
sS'challenge'
p1364
I2
sS'clients'
p1365
I20
sS'unknowns'
p1366
I2
sS'publications'
p1367
I3
sS'1.45'
p1368
I2
sS'fulfill'
p1369
I2
sS'coffin'
p1370
I2
sS'process'
p1371
I6
sS'rode'
p1372
I2
sS'purposes'
p1373
I3
sS'pieces'
p1374
I5
sS'high'
p1375
I14
sS'slip'
p1376
I2
sS'trumpet'
p1377
I2
sS'ideology'
p1378
I2
sS'delay'
p1379
I2
sS'animal'
p1380
I3
sS'abrasive'
p1381
I2
sS'blocks'
p1382
I2
sS'await'
p1383
I2
sS'tied'
p1384
I6
sS'most-favored'
p1385
I2
sS'pigs'
p1386
I3
sS'ties'
p1387
I4
sS'boeing'
p1388
I2
sS'counter'
p1389
I3
sS'allow'
p1390
I8
sS'intellectuals'
p1391
I2
sS'christopher'
p1392
I2
sS'counted'
p1393
I2
sS'houston'
p1394
I9
sS'brahms'
p1395
I2
sS'producer'
p1396
I2
sS'produces'
p1397
I2
sS'move'
p1398
I14
sS'produced'
p1399
I8
sS'directs'
p1400
I3
sS'finanziario'
p1401
I2
sS'year-earlier'
p1402
I4
sS'55,500'
p1403
I2
sS'bodegas'
p1404
I2
sS'chosen'
p1405
I2
sS'dispose'
p1406
I2
sS'meantime'
p1407
I2
sS'2019'
p1408
I2
sS'hobby'
p1409
I3
sS'outlined'
p1410
I2
sS'federico'
p1411
I2
sS'legendary'
p1412
I2
sS'traced'
p1413
I2
sS'merge'
p1414
I3
sS'accounts'
p1415
I6
sS'doing'
p1416
I8
sS'society'
p1417
I3
sS'books'
p1418
I4
sS'static'
p1419
I2
sS'astronomer'
p1420
I2
sS'witness'
p1421
I2
sS'fundamentally'
p1422
I2
sS"'"
I39
sS'dismissal'
p1423
I3
sS'superbly'
p1424
I2
sS'motifs'
p1425
I2
sS'shut'
p1426
I2
sS'tempe'
p1427
I2
sS'unwieldy'
p1428
I2
sS'opinion-makers'
p1429
I2
sS'hyundai'
p1430
I4
sS'quisling'
p1431
I2
sS'regulatory'
p1432
I3
sS'182-day'
p1433
I2
sS'dubbed'
p1434
I4
sS'could'
p1435
I48
sS'david'
p1436
I8
sS'length'
p1437
I2
sS'ratification'
p1438
I2
sS'sidley-ashurst'
p1439
I2
sS'troublemakers'
p1440
I2
sS'stimulate'
p1441
I2
sS'jurists'
p1442
I2
sS'scene'
p1443
I2
sS'owned'
p1444
I6
sS'autographed'
p1445
I2
sS'owner'
p1446
I4
sS'mandatory'
p1447
I5
sS'legislative'
p1448
I2
sS'pryor'
p1449
I2
sS'start'
p1450
I3
sS'ordering'
p1451
I2
sS'system'
p1452
I17
sS'behaved'
p1453
I2
sS'interests'
p1454
I9
sS'enforcement'
p1455
I2
sS'quarry'
p1456
I2
sS'steel'
p1457
I2
sS'colleagues'
p1458
I4
sS'split'
p1459
I7
sS'reacted'
p1460
I2
sS'extraordinarily'
p1461
I2
sS'potpourri'
p1462
I2
sS'16-year-olds'
p1463
I2
sS'appealing'
p1464
I3
sS'decided'
p1465
I3
sS'exclusive'
p1466
I2
sS'steep'
p1467
I2
sS'downpayments'
p1468
I2
sS'partnership'
p1469
I4
sS'seaborne'
p1470
I2
sS'reassuring'
p1471
I2
sS'9.78'
p1472
I2
sS'9.75'
p1473
I2
sS'blockbuster'
p1474
I2
sS'clearly'
p1475
I5
sS'documents'
p1476
I10
sS'how-to'
p1477
I2
sS'bassoon'
p1478
I2
sS'studying'
p1479
I2
sS'jurisdictions'
p1480
I2
sS'equaling'
p1481
I2
sS'korean'
p1482
I7
sS'worldwide'
p1483
I2
sS'pete'
p1484
I3
sS'delayed'
p1485
I2
sS'device'
p1486
I3
sS'so-called'
p1487
I4
sS'bred'
p1488
I2
sS'stronger'
p1489
I5
sS'thanksgiving'
p1490
I4
sS'face'
p1491
I6
sS'consorting'
p1492
I2
sS'brew'
p1493
I2
sS'painting'
p1494
I2
sS'fact'
p1495
I4
sS'vacancy'
p1496
I2
sS'bring'
p1497
I5
sS'rouge'
p1498
I4
sS'unconnected'
p1499
I2
sS'rough'
p1500
I2
sS'brauerei'
p1501
I2
sS'decade'
p1502
I3
sS'principal'
p1503
I4
sS'95.2'
p1504
I2
sS'should'
p1505
I12
sS'buttons'
p1506
I2
sS'jam'
p1507
I3
sS'tape'
p1508
I2
sS'printers'
p1509
I2
sS'riding'
p1510
I2
sS'secretaries'
p1511
I3
sS'hope'
p1512
I7
sS'meant'
p1513
I3
sS'chicago-based'
p1514
I2
sS'means'
p1515
I5
sS'cigar-chomping'
p1516
I2
sS'familiar'
p1517
I3
sS'listener'
p1518
I2
sS'wilmington'
p1519
I2
sS'one-quarter-cent'
p1520
I2
sS'summon'
p1521
I2
sS'stuff'
p1522
I3
sS'allegation'
p1523
I3
sS'ohio'
p1524
I2
sS'medium-grade'
p1525
I2
sS'temporarily'
p1526
I2
sS'edition'
p1527
I2
sS'subcommittee'
p1528
I4
sS'bidders'
p1529
I3
sS'425,000'
p1530
I2
sS'packed'
p1531
I2
sS'amtran'
p1532
I2
sS'80-plus'
p1533
I2
sS'nuclear'
p1534
I12
sS'unravel'
p1535
I2
sS'nominees'
p1536
I3
sS'wiry'
p1537
I2
sS'ends'
p1538
I3
sS'notion'
p1539
I2
sS'restrictions'
p1540
I2
sS'figured'
p1541
I2
sS'drum'
p1542
I2
sS'invited'
p1543
I2
sS'deficits'
p1544
I2
sS'drug'
p1545
I5
sS'etc'
p1546
I2
sS'figures'
p1547
I4
sS'32.5'
p1548
I2
sS'invites'
p1549
I2
sS'adjusted'
p1550
I5
sS'belzberg'
p1551
I2
sS'co'
p1552
I11
sS'conclude'
p1553
I2
sS'ca'
p1554
I8
sS'570'
p1555
I2
sS'cd'
p1556
I10
sS'whispering'
p1557
I2
sS'allocated'
p1558
I2
sS'oakland'
p1559
I3
sS'yastrzemski'
p1560
I2
sS'8.5'
p1561
I2
sS'powered'
p1562
I2
sS'bewkes'
p1563
I2
sS'waste'
p1564
I2
sS'louisiana'
p1565
I2
sS'c.'
p1566
I3
sS'rioting'
p1567
I3
sS'c$'
p1568
I2
sS'atlanta'
p1569
I2
sS'harriton'
p1570
I2
sS'5*slashhere*8'
p1571
I3
sS'rigged'
p1572
I2
sS'stuffing'
p1573
I2
sS'norodom'
p1574
I2
sS'lush'
p1575
I2
sS'site'
p1576
I2
sS'vu'
p1577
I2
sS'winnetka'
p1578
I2
sS'amadou-mahtar'
p1579
I2
sS'insight'
p1580
I2
sS'marcoses'
p1581
I2
sS'yuppie'
p1582
I2
sS'paulo'
p1583
I2
sS'ariz.'
p1584
I2
sS'panisse'
p1585
I5
sS'ball'
p1586
I2
sS'columbia'
p1587
I8
sS'raymond'
p1588
I2
sS'emotionally'
p1589
I2
sS'drink'
p1590
I3
sS'upon'
p1591
I3
sS'infiniti'
p1592
I2
sS'robotic'
p1593
I2
sS'expand'
p1594
I2
sS'audit'
p1595
I2
sS'off'
p1596
I18
sS'hartt'
p1597
I3
sS'7.77'
p1598
I2
sS'352'
p1599
I2
sS'350'
p1600
I5
sS'7.78'
p1601
I2
sS'negligence'
p1602
I2
sS'less'
p1603
I16
sS'protections'
p1604
I2
sS'paul'
p1605
I4
sS'agnellis'
p1606
I3
sS'stoltzman'
p1607
I11
sS'residential'
p1608
I2
sS'arrest'
p1609
I2
sS'cosmetics'
p1610
I5
sS'clipped'
p1611
I2
sS'exempt'
p1612
I2
sS'enfield'
p1613
I8
sS'tcmp'
p1614
I4
sS'increased'
p1615
I9
sS'counterclaims'
p1616
I2
sS'government'
p1617
I35
sS'checking'
p1618
I2
sS'chancellor'
p1619
I2
sS'low-paid'
p1620
I2
sS'fuji'
p1621
I2
sS'increases'
p1622
I4
sS'five'
p1623
I18
sS'desk'
p1624
I2
sS'belgium'
p1625
I2
sS'crisp'
p1626
I2
sS'nerves'
p1627
I7
sS'replacement'
p1628
I3
sS'amendment'
p1629
I5
sS'indications'
p1630
I2
sS'foreseeable'
p1631
I2
sS'thief'
p1632
I2
sS'ballot'
p1633
I3
sS'transport'
p1634
I2
sS'disbelief'
p1635
I2
sS'leveraged'
p1636
I3
sS'salaries'
p1637
I2
sS'demonstrators'
p1638
I2
sS'does'
p1639
I18
sS'passion'
p1640
I3
sS'shareholdings'
p1641
I2
sS'pressure'
p1642
I5
sS'accompanied'
p1643
I2
sS'loans'
p1644
I13
sS'stage'
p1645
I3
sS'gained'
p1646
I2
sS'sister'
p1647
I2
sS'25.5'
p1648
I2
sS'puts'
p1649
I3
sS'25.7'
p1650
I2
sS'debentures'
p1651
I2
sS'arkoma'
p1652
I2
sS'angeles'
p1653
I5
sS'union'
p1654
I13
sS'concession'
p1655
I2
sS'software'
p1656
I2
sS'contractions'
p1657
I3
sS'letters'
p1658
I7
sS'title-insurance'
p1659
I2
sS'ismaili'
p1660
I2
sS'banca'
p1661
I2
sS'thwart'
p1662
I2
sS'mere'
p1663
I2
sS'negotiable'
p1664
I3
sS'terminated'
p1665
I2
sS'stocks'
p1666
I6
sS'off-speed'
p1667
I2
sS'justifying'
p1668
I2
sS'spots'
p1669
I2
sS'peters'
p1670
I9
sS'bros.'
p1671
I3
sS'9.7'
p1672
I2
sS'pretax'
p1673
I2
sS'function'
p1674
I3
sS'fiscal'
p1675
I4
sS'19,000'
p1676
I2
sS'construction'
p1677
I5
sS'fishing*slashhere*processing'
p1678
I2
sS'entered'
p1679
I3
sS'beeper'
p1680
I2
sS'disbursement'
p1681
I2
sS'evident'
p1682
I2
sS'chained'
p1683
I2
sS'wife'
p1684
I4
sS'smooth'
p1685
I3
sS'imbalances'
p1686
I2
sS'excitement'
p1687
I2
sS'placed'
p1688
I2
sS'problem'
p1689
I10
sS'bearing'
p1690
I2
sS'kowtow'
p1691
I2
sS'recognize'
p1692
I3
sS'moonie'
p1693
I2
sS'159.7'
p1694
I2
sS'compared'
p1695
I5
sS'nonetheless'
p1696
I4
sS'mccartin'
p1697
I2
sS'lately'
p1698
I3
sS'compares'
p1699
I2
sS'details'
p1700
I2
sS'reckless'
p1701
I2
sS'jumbos'
p1702
I2
sS'francisco'
p1703
I3
sS'monday'
p1704
I15
sS'oppression'
p1705
I3
sS'outlets'
p1706
I3
sS'chance'
p1707
I6
sS'exposure'
p1708
I2
sS'searches'
p1709
I2
sS'mozart'
p1710
I2
sS'rule'
p1711
I8
sS'strings'
p1712
I2
sS'compete'
p1713
I3
sS'pension'
p1714
I7
sS'475'
p1715
I2
sS'rural'
p1716
I5
sS'tax-exempt'
p1717
I2
sS'linsey'
p1718
I2
sS'magnetic'
p1719
I10
sS'outlining'
p1720
I2
sS'self-incrimination'
p1721
I4
sS'controversial'
p1722
I3
sS'mansion'
p1723
I2
sS'oldest'
p1724
I2
sS'integrity'
p1725
I2
sS'relationships'
p1726
I4
sS'pedro'
p1727
I2
sS'edward'
p1728
I4
sS'voted'
p1729
I2
sS'regal'
p1730
I2
sS'worth'
p1731
I3
sS'alternating'
p1732
I2
sS'distort'
p1733
I2
sS'mania'
p1734
I2
sS'postpone'
p1735
I3
sS'investigator'
p1736
I2
sS'gaelic'
p1737
I2
sS'red'
p1738
I7
sS'reinvent'
p1739
I2
sS'alarm'
p1740
I2
sS'chew'
p1741
I2
sS'chez'
p1742
I5
sS'chef'
p1743
I3
sS'panda'
p1744
I2
sS'machines'
p1745
I8
sS'established'
p1746
I2
sS'above'
p1747
I6
sS'churches'
p1748
I2
sS'officially'
p1749
I2
sS'consisting'
p1750
I3
sS'told'
p1751
I13
sS'crunch'
p1752
I2
sS'simultaneously'
p1753
I2
sS'residual'
p1754
I2
sS'conglomerate'
p1755
I3
sS'protection'
p1756
I3
sS'obtained'
p1757
I2
sS'watchers'
p1758
I2
sS'daughter'
p1759
I2
sS'items'
p1760
I3
sS'employees'
p1761
I9
sS'high-security'
p1762
I2
sS'spooks'
p1763
I2
sS'highly'
p1764
I7
sS'shun'
p1765
I2
sS'total'
p1766
I12
sS'indians'
p1767
I3
sS'chooses'
p1768
I3
sS'program'
p1769
I11
sS'hahn'
p1770
I3
sS'giovanni'
p1771
I9
sS'aware'
p1772
I2
sS'mather'
p1773
I5
sS'emeritus'
p1774
I3
sS'unraveled'
p1775
I2
sS'blocking'
p1776
I5
sS'1991'
p1777
I7
sS'tnt'
p1778
I3
sS'1993'
p1779
I4
sS'1992'
p1780
I3
sS'word'
p1781
I3
sS'1994'
p1782
I3
sS'divorced'
p1783
I2
sS'1996'
p1784
I2
sS'work'
p1785
I19
sS'theories'
p1786
I2
sS'grover'
p1787
I2
sS'half-forgotten'
p1788
I2
sS'era'
p1789
I2
sS'elegantly'
p1790
I2
sS'cited'
p1791
I4
sS'india'
p1792
I3
sS'550'
p1793
I2
sS'uaw'
p1794
I4
sS'impair'
p1795
I2
sS'indicates'
p1796
I3
sS'8.35'
p1797
I2
sS'8.33'
p1798
I2
sS'8.32'
p1799
I2
sS'8.30'
p1800
I2
sS'totaled'
p1801
I3
sS'8.38'
p1802
I2
sS'recovery'
p1803
I2
sS'carriers'
p1804
I3
sS'provide'
p1805
I9
sS'indirectly'
p1806
I2
sS'interview'
p1807
I5
sS'ordinary'
p1808
I4
sS'saint-saens'
p1809
I3
sS'beach'
p1810
I4
sS'gamble'
p1811
I3
sS'bebop'
p1812
I2
sS'after'
p1813
I48
sS'lab'
p1814
I4
sS'induce'
p1815
I5
sS'law'
p1816
I35
sS'austere'
p1817
I2
sS'homeowners'
p1818
I2
sS'scare'
p1819
I2
sS'green'
p1820
I10
sS'ambulance'
p1821
I2
sS'order'
p1822
I9
sS'office'
p1823
I18
sS'devote'
p1824
I2
sS'satisfied'
p1825
I2
sS'6.7'
p1826
I2
sS'6.5'
p1827
I3
sS'plastics'
p1828
I3
sS'6.2'
p1829
I2
sS'12.5'
p1830
I2
sS'innovative'
p1831
I2
sS'misconduct'
p1832
I2
sS'15*slashhere*16'
p1833
I2
sS'mayor'
p1834
I3
sS'somewhere'
p1835
I3
sS'recreational'
p1836
I2
sS'50,000'
p1837
I2
sS'production'
p1838
I4
sS'achenbaum'
p1839
I20
sS'eventually'
p1840
I9
sS'them'
p1841
I37
sS'affected'
p1842
I2
sS'amenable'
p1843
I2
sS'break'
p1844
I3
sS'hispanics'
p1845
I2
sS'cichan'
p1846
I2
sS'they'
p1847
I105
sS'bank'
p1848
I42
sS'7.98'
p1849
I2
sS'7.99'
p1850
I2
sS'7.94'
p1851
I2
sS'7.96'
p1852
I3
sS'7.90'
p1853
I5
sS'7.91'
p1854
I2
sS'7.92'
p1855
I2
sS'7.93'
p1856
I2
sS'lifted'
p1857
I2
sS'crimes'
p1858
I3
sS'stronger-than-expected'
p1859
I2
sS'recognizable'
p1860
I2
sS'burnham'
p1861
I2
sS'network'
p1862
I9
sS'cameras'
p1863
I2
sS'diesel'
p1864
I3
sS'vessels'
p1865
I2
sS'imperialists'
p1866
I2
sS'disputed'
p1867
I3
sS'vetoed'
p1868
I3
sS'veto'
p1869
I3
sS'gardiner'
p1870
I2
sS'standard'
p1871
I5
sS'admits'
p1872
I2
sS'appointments'
p1873
I2
sS'disputes'
p1874
I2
sS'pro-democracy'
p1875
I2
sS'delver'
p1876
I2
sS'delves'
p1877
I2
sS'baseman'
p1878
I2
sS'created'
p1879
I8
sS'240,000'
p1880
I2
sS'oppose'
p1881
I3
sS'delved'
p1882
I2
sS'organize'
p1883
I2
sS'guzzle'
p1884
I2
sS'another'
p1885
I26
sS'comic'
p1886
I3
sS'electronic'
p1887
I3
sS'illustrate'
p1888
I4
sS'rated'
p1889
I10
sS'gooseberry'
p1890
I2
sS'secaucus'
p1891
I2
sS'takeovers'
p1892
I2
sS'approximately'
p1893
I4
sS'airs'
p1894
I2
sS'rates'
p1895
I16
sS'mail-sorting'
p1896
I2
sS'john'
p1897
I10
sS'kiwi'
p1898
I2
sS'190-point'
p1899
I2
sS'diversified'
p1900
I2
sS'albert'
p1901
I2
sS'rejected'
p1902
I2
sS'hazelnut'
p1903
I2
sS'alberg'
p1904
I2
sS'toronto'
p1905
I4
sS'target'
p1906
I2
sS'negotiator'
p1907
I2
sS'seated'
p1908
I2
sS'splendidly'
p1909
I2
sS'powers'
p1910
I2
sS'pervasive'
p1911
I2
sS'500,000'
p1912
I2
sS'30.4'
p1913
I2
sS'manner'
p1914
I4
sS'praising'
p1915
I2
sS'strength'
p1916
I5
sS'small-lot'
p1917
I2
sS'subjects'
p1918
I5
sS'luxury'
p1919
I5
sS'forces'
p1920
I9
sS'unsecured'
p1921
I4
sS'circles'
p1922
I3
sS'nobody'
p1923
I4
sS'6*slashhere*2'
p1924
I2
sS'400,000'
p1925
I2
sS'bruce'
p1926
I2
sS'iceland'
p1927
I2
sS'indemnification'
p1928
I2
sS'exercised'
p1929
I2
sS'involving'
p1930
I7
sS'germany'
p1931
I10
sS'exercises'
p1932
I2
sS'germans'
p1933
I3
sS'intergroup'
p1934
I2
sS'calculated'
p1935
I3
sS'newcomers'
p1936
I2
sS'perozo'
p1937
I2
sS'investing'
p1938
I4
sS'voting'
p1939
I3
sS'responded'
p1940
I3
sS'reserve'
p1941
I5
sS'd.'
p1942
I12
sS'asia-pacific'
p1943
I3
sS'religions'
p1944
I2
sS'cogeneration-plant'
p1945
I2
sS'painfully'
p1946
I2
sS'yen'
p1947
I7
sS'glasnost'
p1948
I2
sS'pursuing'
p1949
I2
sS'gideon'
p1950
I3
sS'adequate'
p1951
I3
sS'personality'
p1952
I2
sS'do'
p1953
I37
sS'di'
p1954
I2
sS'de'
p1955
I3
sS'preferred'
p1956
I7
sS'wisecracks'
p1957
I2
sS'25,000'
p1958
I2
sS'vividly'
p1959
I3
sS'runs'
p1960
I3
sS'pearson'
p1961
I2
sS'covering'
p1962
I2
sS'exchanged'
p1963
I2
sS'explanations'
p1964
I2
sS'secretary'
p1965
I6
sS'etudes'
p1966
I2
sS'9.35'
p1967
I2
sS'w.'
p1968
I3
sS'checks'
p1969
I2
sS'cattle'
p1970
I4
sS'discussions'
p1971
I5
sS'techniques'
p1972
I2
sS'draws'
p1973
I2
sS'away'
p1974
I9
sS'unable'
p1975
I5
sS'cooperation'
p1976
I4
sS'drawn'
p1977
I2
sS'co.'
p1978
I26
sS'disavowed'
p1979
I2
sS'we'
p1980
I34
sS'terms'
p1981
I12
sS'wo'
p1982
I10
sS'handful'
p1983
I2
sS'packaged'
p1984
I2
sS'42.9'
p1985
I2
sS'disservice'
p1986
I2
sS'convertible'
p1987
I2
sS'packages'
p1988
I3
sS'downgraded'
p1989
I2
sS'scribbling'
p1990
I2
sS'received'
p1991
I10
sS'exceeds'
p1992
I2
sS'requests'
p1993
I3
sS'bran'
p1994
I3
sS'publicity-seeking'
p1995
I2
sS'negotiation'
p1996
I2
sS'year-end'
p1997
I2
sS'tough'
p1998
I3
sS'c.d.s'
p1999
I2
sS'zellers'
p2000
I2
sS'tons'
p2001
I4
sS'telecommunications'
p2002
I4
sS'smith'
p2003
I4
sS'knowns'
p2004
I2
sS'petty'
p2005
I3
sS'nomura'
p2006
I12
sS'condemned'
p2007
I2
sS'sachs'
p2008
I2
sS'drafting'
p2009
I2
sS'dozens'
p2010
I2
sS'duties'
p2011
I4
sS'cutouts'
p2012
I2
sS'easy'
p2013
I3
sS'single-b-plus'
p2014
I2
sS'catering'
p2015
I2
sS'ogilvy'
p2016
I6
sS'0.19'
p2017
I2
sS'applied'
p2018
I7
sS'has'
p2019
I139
sS'6.84'
p2020
I2
sS'publicly'
p2021
I5
sS'air'
p2022
I10
sS'thrash'
p2023
I2
sS'aid'
p2024
I4
sS'property'
p2025
I2
sS'launched'
p2026
I4
sS'38.5'
p2027
I2
sS'crowning'
p2028
I2
sS'skipping'
p2029
I2
sS'tissue'
p2030
I3
sS'world-wide'
p2031
I2
sS'exile'
p2032
I3
sS'confirmed'
p2033
I2
sS'descent'
p2034
I2
sS'demonstration'
p2035
I5
sS'trashing'
p2036
I2
sS'indictment'
p2037
I3
sS'spy-chasing'
p2038
I2
sS'independent'
p2039
I2
sS'hani'
p2040
I2
sS'blames'
p2041
I2
sS'rain'
p2042
I2
sS'hand'
p2043
I6
sS'liberties'
p2044
I2
sS'producers'
p2045
I7
sS'blamed'
p2046
I2
sS'kept'
p2047
I7
sS'1978'
p2048
I3
sS'1977'
p2049
I2
sS'1976'
p2050
I4
sS'1975'
p2051
I4
sS'1974'
p2052
I2
sS'1973'
p2053
I2
sS'taint'
p2054
I2
sS'1971'
p2055
I3
sS'ragged'
p2056
I2
sS'hispanic'
p2057
I5
sS'client'
p2058
I5
sS'the'
p2059
I1975
sS'musical'
p2060
I3
sS'unified'
p2061
I2
sS'quoted'
p2062
I3
sS'gods'
p2063
I2
sS'farther'
p2064
I2
sS'victim'
p2065
I2
sS'gun-carrying'
p2066
I2
sS'8.12'
p2067
I2
sS'guise'
p2068
I2
sS'comparisons'
p2069
I2
sS'hills'
p2070
I2
sS'flooring'
p2071
I2
sS'similarities'
p2072
I2
sS'passive'
p2073
I2
sS'spread'
p2074
I3
sS'board'
p2075
I18
sS'evidenced'
p2076
I2
sS'mayo'
p2077
I2
sS'bridgers'
p2078
I2
sS'souled'
p2079
I2
sS'unification'
p2080
I6
sS'retreat'
p2081
I2
sS'securities'
p2082
I44
sS'gandhi'
p2083
I3
sS'security'
p2084
I7
sS'webb'
p2085
I2
sS'lashed'
p2086
I2
sS'denies'
p2087
I2
sS'humor'
p2088
I2
sS'house-painting'
p2089
I2
sS'asking'
p2090
I5
sS'denied'
p2091
I4
sS'beating'
p2092
I2
sS'participation'
p2093
I5
sS'marketing'
p2094
I13
sS'illustration'
p2095
I2
sS'graduated'
p2096
I2
sS'post'
p2097
I4
sS'properties'
p2098
I5
sS'theirs'
p2099
I2
sS'newspapers'
p2100
I5
sS'months'
p2101
I37
sS'gentler'
p2102
I2
sS'canonie'
p2103
I3
sS'banker'
p2104
I2
sS'dilemma'
p2105
I2
sS'wasting'
p2106
I2
sS'float'
p2107
I2
sS'beneficial'
p2108
I3
sS'balances'
p2109
I2
sS'capped'
p2110
I3
sS'wah'
p2111
I2
sS'wad'
p2112
I2
sS'legislation'
p2113
I4
sS'liquidated'
p2114
I2
sS'fight'
p2115
I3
sS'conservation'
p2116
I2
sS'wrongdoing'
p2117
I2
sS'was'
p2118
I165
sS'war'
p2119
I6
sS'becoming'
p2120
I5
sS'mysterious'
p2121
I2
sS'true'
p2122
I5
sS'reset'
p2123
I5
sS'responding'
p2124
I2
sS'high-quality'
p2125
I2
sS'maximum'
p2126
I3
sS'monitored'
p2127
I2
sS'crystal'
p2128
I2
sS'coverings'
p2129
I2
sS'emotional'
p2130
I2
sS'promises'
p2131
I3
sS'moore'
p2132
I2
sS'countercultural'
p2133
I2
sS'long-debated'
p2134
I2
sS'abstract'
p2135
I2
sS'evidence'
p2136
I3
sS'promised'
p2137
I2
sS'allegheny'
p2138
I2
sS'physical'
p2139
I3
sS'weakened'
p2140
I2
sS'stake'
p2141
I13
sS'naji'
p2142
I2
sS'topped'
p2143
I2
sS'negotiators'
p2144
I3
sS'interested'
p2145
I8
sS'holding'
p2146
I12
sS'65,200'
p2147
I2
sS'joni'
p2148
I2
sS'brothers'
p2149
I3
sS'update'
p2150
I2
sS'improvisation'
p2151
I2
sS'scores'
p2152
I3
sS'mullins'
p2153
I2
sS'}'
I19
sS'affidavit'
p2154
I4
sS'together'
p2155
I3
sS'n.j.'
p2156
I2
sS'campaneris'
p2157
I5
sS'concept'
p2158
I4
sS'diplomacy'
p2159
I2
sS'dance'
p2160
I2
sS'indicating'
p2161
I4
sS'known'
p2162
I4
sS'battle'
p2163
I4
sS'superpower'
p2164
I2
sS'certainly'
p2165
I6
sS'pretense'
p2166
I2
sS'flash'
p2167
I2
sS'compensate'
p2168
I3
sS'dissatisfied'
p2169
I2
sS'brown'
p2170
I3
sS'charles'
p2171
I4
sS'seemingly'
p2172
I2
sS'12.9375'
p2173
I2
sS'10-year'
p2174
I3
sS'trouble'
p2175
I5
sS'presented'
p2176
I2
sS'presenter'
p2177
I2
sS'guy'
p2178
I4
sS'revolution'
p2179
I2
sS'cost'
p2180
I8
sS'30,180'
p2181
I2
sS'acrimonious'
p2182
I2
sS'appear'
p2183
I8
sS'246.6'
p2184
I2
sS'shares'
p2185
I32
sS'uniform'
p2186
I2
sS'appeal'
p2187
I6
sS'4,300'
p2188
I2
sS'satisfy'
p2189
I2
sS'collateral'
p2190
I3
sS'rubicam'
p2191
I2
sS'appears'
p2192
I2
sS'change'
p2193
I9
sS'sending'
p2194
I2
sS'incoming'
p2195
I2
sS'trial'
p2196
I7
sS'usually'
p2197
I5
sS'plotted'
p2198
I2
sS'retired'
p2199
I3
sS'extra'
p2200
I2
sS'lending'
p2201
I4
sS'paragon'
p2202
I2
sS'fbi'
p2203
I2
sS'rarely'
p2204
I3
sS'market'
p2205
I39
sS'terminal'
p2206
I3
sS'angell'
p2207
I2
sS'prove'
p2208
I3
sS'live'
p2209
I6
sS'commissioner'
p2210
I2
sS'club'
p2211
I4
sS'minimum-wage'
p2212
I5
sS'state-funded'
p2213
I2
sS'organizations'
p2214
I5
sS'ibj'
p2215
I2
sS'car'
p2216
I12
sS'paragould'
p2217
I3
sS'can'
p2218
I43
sS'trans'
p2219
I4
sS'stimulating'
p2220
I2
sS'heart'
p2221
I5
sS'expanding'
p2222
I2
sS'1,640'
p2223
I2
sS'supremacy'
p2224
I2
sS'heard'
p2225
I2
sS'occur'
p2226
I2
sS'domenici'
p2227
I2
sS'discussion'
p2228
I3
sS'bonds'
p2229
I23
sS'buttoned-up'
p2230
I2
sS'write'
p2231
I3
sS'47-year-old'
p2232
I2
sS'allowable'
p2233
I2
sS'economy'
p2234
I12
sS'product'
p2235
I2
sS'service-industry'
p2236
I3
sS'whacker'
p2237
I2
sS'produce'
p2238
I3
sS'vases'
p2239
I2
sS'court'
p2240
I25
sS'heroes'
p2241
I2
sS'ponied'
p2242
I2
sS'eurodollars'
p2243
I2
sS'remember'
p2244
I3
sS'futures'
p2245
I2
sS'rather'
p2246
I11
sS'typical'
p2247
I2
sS'no.'
p2248
I2
sS'serving'
p2249
I2
sS'indeed'
p2250
I3
sS'consulting'
p2251
I8
sS'ended'
p2252
I8
sS'ratified'
p2253
I2
sS'still'
p2254
I22
sS'birds'
p2255
I2
sS'8.0087'
p2256
I2
sS'reacting'
p2257
I2
sS'window'
p2258
I3
sS'hackles'
p2259
I2
sS'norway'
p2260
I2
sS'inefficiency'
p2261
I2
sS'100,000'
p2262
I4
sS'sweetened'
p2263
I2
sS'introduce'
p2264
I2
sS'1955'
p2265
I2
sS'1954'
p2266
I2
sS'half'
p2267
I13
sS'not'
p2268
I71
sS'now'
p2269
I35
sS'provision'
p2270
I2
sS'discuss'
p2271
I4
sS'nor'
p2272
I5
sS'enacted'
p2273
I2
sS'galloway'
p2274
I2
sS'january'
p2275
I5
sS'drop'
p2276
I4
sS'stockholm'
p2277
I2
sS'22.8'
p2278
I2
sS'concerts'
p2279
I2
sS'el'
p2280
I2
sS'mixed-up'
p2281
I2
sS'kane'
p2282
I2
sS'challenges'
p2283
I2
sS'taxes'
p2284
I4
sS'year'
p2285
I70
sS'naming'
p2286
I2
sS'calling'
p2287
I6
sS'pills'
p2288
I13
sS'8.75'
p2289
I2
sS'album'
p2290
I2
sS'shown'
p2291
I6
sS'accomplish'
p2292
I2
sS'space'
p2293
I2
sS'immigrant'
p2294
I2
sS'increase'
p2295
I15
sS'celimene'
p2296
I2
sS'rational'
p2297
I2
sS'fargo'
p2298
I2
sS'viable'
p2299
I2
sS'shows'
p2300
I4
sS'rebuilding'
p2301
I2
sS'e.'
p2302
I6
sS'cars'
p2303
I5
sS'position'
p2304
I8
sS'carl'
p2305
I6
sS'obligation'
p2306
I3
sS'card'
p2307
I2
sS'care'
p2308
I2
sS'selections'
p2309
I2
sS'19th-century'
p2310
I2
sS'vehemently'
p2311
I3
sS'british'
p2312
I10
sS'lindsey'
p2313
I2
sS'tangled'
p2314
I2
sS'invitation'
p2315
I2
sS'styles'
p2316
I2
sS'promotion'
p2317
I9
sS'global'
p2318
I3
sS'515'
p2319
I2
sS'sprawling'
p2320
I2
sS'concertos'
p2321
I2
sS'flying'
p2322
I3
sS'striking'
p2323
I2
sS'blink'
p2324
I2
sS'reykjavik'
p2325
I2
sS'directly'
p2326
I9
sS'comprises'
p2327
I2
sS'drove'
p2328
I2
sS'tomorrow'
p2329
I3
sS'size'
p2330
I5
sS'officials'
p2331
I19
sS'caught'
p2332
I3
sS'free-lance'
p2333
I2
sS'friend'
p2334
I3
sS'mostly'
p2335
I3
sS'that'
p2336
I335
sS'pittsburgh'
p2337
I4
sS'brains'
p2338
I4
sS'taxation'
p2339
I2
sS'repossess'
p2340
I2
sS'eliminated'
p2341
I2
sS'flowers'
p2342
I2
sS'than'
p2343
I76
sS'titans'
p2344
I2
sS'television'
p2345
I6
sS'travis'
p2346
I2
sS'transferred'
p2347
I2
sS'overcollateralized'
p2348
I2
sS'respectability'
p2349
I2
sS'investors'
p2350
I37
sS'remained'
p2351
I5
sS'premier'
p2352
I2
sS'anger'
p2353
I2
sS'recover'
p2354
I2
sS'publicity'
p2355
I2
sS'form'
p2356
I5
sS'veteran'
p2357
I2
sS'manufacturers'
p2358
I2
sS'equipment'
p2359
I3
sS'mr.'
p2360
I212
sS'batman'
p2361
I3
sS'objective'
p2362
I2
sS'begin'
p2363
I10
sS'price'
p2364
I13
sS'america'
p2365
I15
sS'manville'
p2366
I14
sS'forever'
p2367
I2
sS'egg'
p2368
I3
sS'reform'
p2369
I3
sS'implications'
p2370
I4
sS'hurled'
p2371
I2
sS'professional'
p2372
I5
sS'typically'
p2373
I8
sS'filing'
p2374
I4
sS'brainchild'
p2375
I2
sS'german'
p2376
I5
sS'discovered'
p2377
I4
sS'maine'
p2378
I2
sS'fifth'
p2379
I2
sS'upgrade'
p2380
I2
sS'peduzzi'
p2381
I2
sS'title'
p2382
I3
sS'industrialize'
p2383
I2
sS'jolt'
p2384
I2
sS'texture'
p2385
I2
sS'filipinos'
p2386
I4
sS'only'
p2387
I43
sS'kluge'
p2388
I2
sS'inventions'
p2389
I2
sS'thompson'
p2390
I2
sS'interstate'
p2391
I2
sS'cannon'
p2392
I2
sS'samuel'
p2393
I2
sS'truly'
p2394
I3
sS'loath'
p2395
I2
sS'kiki'
p2396
I2
sS'stroll'
p2397
I2
sS'leather'
p2398
I2
sS'losers'
p2399
I2
sS'reorganizes'
p2400
I2
sS'husband'
p2401
I2
sS'salomon'
p2402
I2
sS'concert'
p2403
I3
sS'color-coding'
p2404
I2
sS'elected'
p2405
I6
sS'actively'
p2406
I2
sS'sport'
p2407
I2
sS'reputed'
p2408
I2
sS'europeans'
p2409
I3
sS'israeli'
p2410
I3
sS'atrun'
p2411
I2
sS'tackling'
p2412
I2
sS'willard'
p2413
I2
sS'serkin'
p2414
I2
sS'3'
I10
sS'between'
p2415
I23
sS'import'
p2416
I2
sS'justified'
p2417
I2
sS'armenian'
p2418
I2
sS'article'
p2419
I6
sS'comes'
p2420
I3
sS'nearby'
p2421
I2
sS'passenger'
p2422
I3
sS'jeans'
p2423
I2
sS'mirroring'
p2424
I2
sS'moreover'
p2425
I2
sS'fruitful'
p2426
I2
sS'eight-team'
p2427
I2
sS'informed'
p2428
I2
sS'disclosed'
p2429
I7
sS'impugn'
p2430
I2
sS'4.875'
p2431
I2
sS'wounds'
p2432
I2
sS'external'
p2433
I2
sS'suspected'
p2434
I3
sS'realities'
p2435
I2
sS'developing'
p2436
I6
sS'these'
p2437
I24
sS'blinkers'
p2438
I2
sS'exercisable'
p2439
I3
sS'misanthrope'
p2440
I2
sS'alcoholic'
p2441
I2
sS'soil'
p2442
I3
sS'metric'
p2443
I2
sS'health-care'
p2444
I3
sS'bias'
p2445
I2
sS'trimming'
p2446
I2
sS'worry'
p2447
I4
sS'quarter-to-quarter'
p2448
I2
sS'develop'
p2449
I4
sS'media'
p2450
I5
sS'followers'
p2451
I2
sS'angered'
p2452
I2
sS'squatted'
p2453
I2
sS'investigates'
p2454
I2
sS'thornburgh'
p2455
I2
sS'racketeering'
p2456
I2
sS'tradition'
p2457
I2
sS'complained'
p2458
I4
sS'charges'
p2459
I8
sS'constitutional'
p2460
I3
sS'severe'
p2461
I3
sS'laboratories'
p2462
I2
sS'charged'
p2463
I6
sS'knowledgeable'
p2464
I2
sS'valuable'
p2465
I2
sS'sweeping'
p2466
I2
sS'civilized'
p2467
I2
sS'touch'
p2468
I4
sS'melton'
p2469
I2
sS'speed'
p2470
I3
sS'renewed'
p2471
I2
sS'thinking'
p2472
I2
sS'lender'
p2473
I2
sS'treatment'
p2474
I6
sS'struck'
p2475
I3
sS'real'
p2476
I11
sS'non-clients'
p2477
I2
sS'overturning'
p2478
I2
sS'spectacular'
p2479
I2
sS'overused'
p2480
I2
sS'read'
p2481
I6
sS'swig'
p2482
I2
sS'pse'
p2483
I2
sS'early'
p2484
I17
sS'listening'
p2485
I3
sS'using'
p2486
I6
sS'execution'
p2487
I2
sS'lady'
p2488
I2
sS'ruled'
p2489
I5
sS'proponent'
p2490
I2
sS'utterances'
p2491
I2
sS'annually'
p2492
I2
sS'benefit'
p2493
I6
sS'fully'
p2494
I2
sS'output'
p2495
I4
sS'dilution'
p2496
I2
sS'geraldo'
p2497
I2
sS'meringues'
p2498
I2
sS'apologists'
p2499
I2
sS'eddie'
p2500
I3
sS'27,500'
p2501
I2
sS'abetted'
p2502
I2
sS'sunbird'
p2503
I3
sS'conservative'
p2504
I2
sS'2170'
p2505
I2
sS'dealership'
p2506
I5
sS'deficit'
p2507
I2
sS'racism'
p2508
I2
sS'business'
p2509
I29
sS'chefs'
p2510
I2
sS'credits'
p2511
I2
sS'sixty'
p2512
I2
sS'exciting'
p2513
I2
sS'throw'
p2514
I2
sS'comparison'
p2515
I2
sS'central'
p2516
I6
sS'chop'
p2517
I2
sS'testimony'
p2518
I6
sS'invested'
p2519
I2
sS'heavy'
p2520
I3
sS'8.53'
p2521
I2
sS'8.55'
p2522
I3
sS'earring'
p2523
I2
sS'involvement'
p2524
I2
sS'operator'
p2525
I3
sS'your'
p2526
I12
sS'intervention'
p2527
I5
sS'shags'
p2528
I2
sS'area'
p2529
I8
sS'assumed'
p2530
I2
sS'minn.'
p2531
I2
sS'stark'
p2532
I2
sS'los'
p2533
I5
sS'low'
p2534
I4
sS'lot'
p2535
I7
sS'somerset'
p2536
I2
sS'billion'
p2537
I40
sS'pitches'
p2538
I2
sS'philosophers'
p2539
I2
sS'two-thirds'
p2540
I2
sS'trying'
p2541
I4
sS'hire'
p2542
I2
sS'fraud'
p2543
I3
sS'proof-of-purchases'
p2544
I2
sS'intermission'
p2545
I2
sS'recurring'
p2546
I2
sS'popularize'
p2547
I2
sS'9*slashhere*16'
p2548
I3
sS'600'
p2549
I2
sS'moved'
p2550
I6
sS'sales'
p2551
I32
sS'moves'
p2552
I4
sS'innings'
p2553
I2
sS'englishman'
p2554
I2
sS'foothills'
p2555
I2
sS'valid'
p2556
I2
sS'you'
p2557
I27
sS'forcing'
p2558
I2
sS'poor'
p2559
I3
sS'massachusetts'
p2560
I5
sS'coverage'
p2561
I3
sS'pool'
p2562
I2
sS'alcohol'
p2563
I2
sS'building'
p2564
I6
sS'repay'
p2565
I2
sS'requisition'
p2566
I2
sS'overseas'
p2567
I4
sS'bolton'
p2568
I2
sS'blue-chip'
p2569
I2
sS'monte'
p2570
I2
sS'48-year-old'
p2571
I2
sS'month'
p2572
I15
sS'heavy-water'
p2573
I2
sS'unrest'
p2574
I2
sS'deadline'
p2575
I2
sS'douglas'
p2576
I14
sS'renege'
p2577
I2
sS'religious'
p2578
I2
sS'carpet'
p2579
I8
sS'dreadful'
p2580
I2
sS'referring'
p2581
I2
sS'music-publishing'
p2582
I2
sS'sustain'
p2583
I3
sS'reneging'
p2584
I2
sS'confidential'
p2585
I2
sS'very'
p2586
I15
sS'mph'
p2587
I3
sS'109.85'
p2588
I2
sS'decide'
p2589
I3
sS'rehearing'
p2590
I2
sS'--'
p2591
I78
sS'louis'
p2592
I2
sS'circuit'
p2593
I2
sS'editing*slashhere*electronic'
p2594
I2
sS'well-meaning'
p2595
I2
sS'consumers'
p2596
I7
sS'raw-material'
p2597
I2
sS'boardrooms'
p2598
I2
sS'fractional'
p2599
I2
sS'certificates'
p2600
I8
sS'learned'
p2601
I2
sS'multinational'
p2602
I2
sS'turmoil'
p2603
I2
sS'answers'
p2604
I4
sS'tracks'
p2605
I4
sS'selective'
p2606
I2
sS'gramm-rudman'
p2607
I3
sS'11.80'
p2608
I2
sS'excess'
p2609
I2
sS'spielvogel'
p2610
I15
sS'iraq'
p2611
I2
sS'757-200s'
p2612
I3
sS'ahead'
p2613
I5
sS'inspired'
p2614
I2
sS'losses'
p2615
I9
sS'johnnie'
p2616
I2
sS'amount'
p2617
I8
sS'advertising'
p2618
I9
sS'cardinals'
p2619
I2
sS'wallingford'
p2620
I2
sS'toughness'
p2621
I2
sS'family'
p2622
I9
sS'requiring'
p2623
I2
sS'ask'
p2624
I4
sS'aimed'
p2625
I3
sS'trained'
p2626
I3
sS'lewdness'
p2627
I2
sS'334.5'
p2628
I2
sS'conventional'
p2629
I6
sS'khan'
p2630
I7
sS'takes'
p2631
I2
sS'one-day'
p2632
I2
sS'strauss'
p2633
I2
sS'praised'
p2634
I2
sS'taken'
p2635
I11
sS'injury'
p2636
I3
sS'bankamerica'
p2637
I3
sS'ejected'
p2638
I2
sS'jr.'
p2639
I3
sS'excuse'
p2640
I4
sS'cadwell'
p2641
I2
sS'broke'
p2642
I2
sS'underwriter'
p2643
I2
sS'factories'
p2644
I2
sS'producing'
p2645
I4
sS'nine'
p2646
I9
sS'budgets'
p2647
I2
sS'brain-wave'
p2648
I2
sS'history'
p2649
I4
sS'746'
p2650
I2
sS'pushed'
p2651
I3
sS'quartets'
p2652
I2
sS'exclude'
p2653
I2
sS'f.'
p2654
I6
sS'english-language'
p2655
I2
sS'stayed'
p2656
I2
sS'surpassed'
p2657
I2
sS'tried'
p2658
I6
sS'tries'
p2659
I2
sS'remediation'
p2660
I2
sS'hooliganism'
p2661
I2
sS'a'
I797
sS'criticize'
p2662
I2
sS'keio'
p2663
I2
sS'overnight'
p2664
I2
sS'anytime'
p2665
I2
sS'ego'
p2666
I2
sS'banks'
p2667
I30
sS'dream'
p2668
I2
sS'help'
p2669
I18
sS'soon'
p2670
I6
sS'show-piece'
p2671
I2
sS'held'
p2672
I12
sS'committee'
p2673
I9
sS'clarinet'
p2674
I4
sS'80-page'
p2675
I2
sS'taxpayer'
p2676
I3
sS'w.a.'
p2677
I2
sS'teeming'
p2678
I2
sS'actually'
p2679
I10
sS'systems'
p2680
I7
sS'peanuts'
p2681
I3
sS'lire'
p2682
I7
sS'fool'
p2683
I2
sS'evening'
p2684
I4
sS'food'
p2685
I3
sS'reigning'
p2686
I2
sS'permissible'
p2687
I2
sS'anticipates'
p2688
I3
sS'linking'
p2689
I2
sS'terrorism'
p2690
I2
sS'well-known'
p2691
I2
sS'stopper'
p2692
I3
sS'occasions'
p2693
I2
sS'intervene'
p2694
I2
sS'semiannual'
p2695
I3
sS'capability'
p2696
I2
sS'stopped'
p2697
I3
sS'ifi'
p2698
I7
sS'groundball'
p2699
I2
sS'savored'
p2700
I2
sS'healthvest'
p2701
I13
sS'positioned'
p2702
I2
sS'beyond'
p2703
I5
sS'event'
p2704
I2
sS'creamier'
p2705
I2
sS'steered'
p2706
I2
sS'itel'
p2707
I3
sS'pins'
p2708
I2
sS'robert'
p2709
I4
sS'since'
p2710
I21
sS'temporary'
p2711
I5
sS'testify'
p2712
I3
sS'publish'
p2713
I2
sS'equate'
p2714
I2
sS'safety'
p2715
I4
sS'7'
I7
sS'issue'
p2716
I32
sS'bass'
p2717
I2
sS'unificationist'
p2718
I3
sS'reason'
p2719
I5
sS'base'
p2720
I4
sS'put'
p2721
I14
sS'matthews'
p2722
I5
sS'broad-based'
p2723
I2
sS'persuading'
p2724
I2
sS'american'
p2725
I27
sS'businessmen'
p2726
I2
sS'imelda'
p2727
I2
sS'ever-growing'
p2728
I2
sS'reflected'
p2729
I2
sS'morita'
p2730
I2
sS'miss'
p2731
I3
sS'arbitration'
p2732
I2
sS'horse'
p2733
I2
sS'st.'
p2734
I2
sS'station'
p2735
I2
sS'identity'
p2736
I2
sS'hundred'
p2737
I2
sS'shifted'
p2738
I2
sS'selling'
p2739
I11
sS'financing'
p2740
I6
sS'scheme'
p2741
I3
sS'state-owned'
p2742
I3
sS'greg'
p2743
I2
sS'store'
p2744
I3
sS'toward'
p2745
I5
sS'ousted'
p2746
I3
sS'heaviest'
p2747
I2
sS'affirmative'
p2748
I2
sS'randomly'
p2749
I2
sS'substantial'
p2750
I5
sS'perestroika'
p2751
I2
sS'1.175'
p2752
I2
sS'lid'
p2753
I2
sS'lie'
p2754
I3
sS'u.s'
p2755
I6
sS'evasion'
p2756
I2
sS'patterns'
p2757
I2
sS'officers'
p2758
I2
sS'j&b'
p2759
I2
sS'lip'
p2760
I2
sS'elianti'
p2761
I2
sS'towards'
p2762
I2
sS'approves'
p2763
I2
sS'exempted'
p2764
I2
sS'freddie'
p2765
I5
sS'hired'
p2766
I2
sS'knotty'
p2767
I2
sS'approved'
p2768
I9
sS'ark.'
p2769
I3
sS'creators'
p2770
I2
sS'mobile'
p2771
I2
sS'performances'
p2772
I2
sS'clear'
p2773
I5
sS'rockefeller'
p2774
I3
sS'clean'
p2775
I2
sS'velocity'
p2776
I2
sS'physics'
p2777
I2
sS'stalked'
p2778
I2
sS'7,400'
p2779
I2
sS'hovered'
p2780
I2
sS'gas-tax'
p2781
I2
sS'heavens'
p2782
I2
sS'church-owned'
p2783
I2
sS'northern'
p2784
I3
sS'justice'
p2785
I6
sS'inaugurated'
p2786
I2
sS'flights'
p2787
I2
sS'surveyed'
p2788
I2
sS'pretty'
p2789
I2
sS'2142.6'
p2790
I2
sS'grocery'
p2791
I2
sS'famous'
p2792
I2
sS'during'
p2793
I13
sS'soft-drink'
p2794
I4
sS'alexander'
p2795
I3
sS'left-wing'
p2796
I2
sS'transgenic'
p2797
I4
sS'11-member'
p2798
I2
sS'interim'
p2799
I2
sS'switzerland'
p2800
I2
sS'66.50'
p2801
I2
sS'scanning'
p2802
I2
sS'maurice'
p2803
I2
sS'throwing'
p2804
I3
sS'culture'
p2805
I3
sS'close'
p2806
I12
sS'practice'
p2807
I5
sS'probable'
p2808
I2
sS'pictures'
p2809
I5
sS'won'
p2810
I5
sS'woe'
p2811
I2
sS'probably'
p2812
I8
sS'lowered'
p2813
I3
sS'conditions'
p2814
I3
sS'unconscious'
p2815
I2
sS'missing'
p2816
I2
sS'invisible'
p2817
I2
sS'both'
p2818
I25
sS'secrets'
p2819
I2
sS'wage-floor'
p2820
I2
sS'sensitive'
p2821
I2
sS'headed'
p2822
I2
sS'whatever'
p2823
I3
sS'vessel'
p2824
I2
sS'described'
p2825
I2
sS'off-budget'
p2826
I2
sS'damp'
p2827
I2
sS'association-college'
p2828
I2
sS'collected'
p2829
I2
sS'reduced-fat'
p2830
I2
sS'walter'
p2831
I4
sS'dialogue'
p2832
I3
sS'alongside'
p2833
I2
sS'partly'
p2834
I2
sS'regroup'
p2835
I2
sS'deter'
p2836
I3
sS'lives'
p2837
I5
sS'compromised'
p2838
I2
sS'bidding'
p2839
I3
sS'pact'
p2840
I4
sS'look'
p2841
I7
sS'governor'
p2842
I3
sS'pace'
p2843
I4
sS'while'
p2844
I19
sS'3.35'
p2845
I2
sS'fleet'
p2846
I2
sS'mitchell'
p2847
I3
sS'guide'
p2848
I2
sS'pack'
p2849
I2
sS'bailiffs'
p2850
I2
sS'voters'
p2851
I3
sS'ready'
p2852
I2
sS'industrial-product'
p2853
I2
sS'fannie'
p2854
I8
sS'fairer'
p2855
I2
sS'marble-columned'
p2856
I2
sS'shaw'
p2857
I6
sS'anymore'
p2858
I3
sS'grant'
p2859
I2
sS'grand'
p2860
I8
sS'well-hit'
p2861
I2
sS'composition'
p2862
I2
sS'conflict'
p2863
I5
sS'pleadings'
p2864
I2
sS'used'
p2865
I9
sS'70.3'
p2866
I2
sS'ratings'
p2867
I2
sS'blair'
p2868
I9
sS'uses'
p2869
I5
sS'143,800'
p2870
I2
sS'brussels'
p2871
I3
sS'older'
p2872
I3
sS'12-month'
p2873
I2
sS'poland'
p2874
I4
sS'cedar'
p2875
I2
sS'docket'
p2876
I2
sS'appalled'
p2877
I2
sS'yankees'
p2878
I2
sS'alvin'
p2879
I2
sS'settlements'
p2880
I3
sS'quarters'
p2881
I2
sS'taiwan'
p2882
I4
sS'11-week'
p2883
I2
sS'retirement'
p2884
I5
sS'$'
I179
sS'over-the-counter'
p2885
I3
sS'informal'
p2886
I11
sS'guaranteed'
p2887
I3
sS'nikko'
p2888
I2
sS'stock-market'
p2889
I2
sS'guarantees'
p2890
I2
sS'remaining'
p2891
I8
sS'...'
p2892
I14
sS'march'
p2893
I7
sS'evaluate'
p2894
I4
sS'showing'
p2895
I3
sS'game'
p2896
I6
sS'thousand-person'
p2897
I2
sS'defied'
p2898
I2
sS'stimulators'
p2899
I7
sS'outright'
p2900
I2
sS'toyota'
p2901
I2
sS'trade-in'
p2902
I2
sS'popular'
p2903
I2
sS'subverted'
p2904
I2
sS'parade'
p2905
I2
sS'creation'
p2906
I3
sS'some'
p2907
I66
sS'trends'
p2908
I2
sS'experienced'
p2909
I2
sS'fanfare'
p2910
I4
sS'67-year-old'
p2911
I2
sS'delivered'
p2912
I3
sS'exceeding'
p2913
I2
sS'eating'
p2914
I2
sS'stem'
p2915
I2
sS'jazzy'
p2916
I2
sS'step'
p2917
I5
sS'macy'
p2918
I2
sS'lasts'
p2919
I2
sS'become'
p2920
I14
sS'at&t'
p2921
I2
sS'pitchers'
p2922
I3
sS'abroad'
p2923
I4
sS'troops'
p2924
I2
sS'faith'
p2925
I2
sS'tracing'
p2926
I2
sS'in-depth'
p2927
I2
sS'classics'
p2928
I3
sS'block'
p2929
I7
sS'disclosure'
p2930
I2
sS'within'
p2931
I9
sS'guangdong'
p2932
I2
sS'pentagon'
p2933
I3
sS'statistics'
p2934
I5
sS'propel'
p2935
I2
sS'insider'
p2936
I3
sS'disallowed'
p2937
I2
sS'manufacture'
p2938
I3
sS'himself'
p2939
I6
sS'registered'
p2940
I4
sS'specialty'
p2941
I2
sS'properly'
p2942
I2
sS'authority'
p2943
I3
sS'russian'
p2944
I2
sS'dull'
p2945
I2
sS'ideals'
p2946
I2
sS'circuits'
p2947
I2
sS'vacancies'
p2948
I2
sS'cautiously'
p2949
I3
sS'similar'
p2950
I7
sS'ordered'
p2951
I4
sS'adults'
p2952
I3
sS'corrective'
p2953
I2
sS'three-to-five-year'
p2954
I2
sS'cotton'
p2955
I9
sS'liberalize'
p2956
I2
sS'amounts'
p2957
I4
sS'spokesmen'
p2958
I2
sS'politicians'
p2959
I3
sS'electrical'
p2960
I3
sS'department'
p2961
I12
sS'manhattan'
p2962
I3
sS'draw'
p2963
I4
sS'spectators'
p2964
I2
sS'reportedly'
p2965
I2
sS're-election'
p2966
I3
sS'kansas'
p2967
I2
sS'visits'
p2968
I2
sS'william'
p2969
I6
sS'drag'
p2970
I2
sS'structure'
p2971
I2
sS'hanover'
p2972
I2
sS'required'
p2973
I12
sS'turbines'
p2974
I2
sS'bribe'
p2975
I2
sS'berries'
p2976
I2
sS'requires'
p2977
I4
sS'avoid'
p2978
I5
sS'co-author'
p2979
I2
sS'fixed-rate'
p2980
I3
sS'oct.'
p2981
I11
sS'ga'
p2982
I2
sS'kato'
p2983
I3
sS'go'
p2984
I3
sS'compact'
p2985
I2
sS'excludes'
p2986
I2
sS'arrogance'
p2987
I2
sS'uninformative'
p2988
I2
sS'topic'
p2989
I3
sS'excluded'
p2990
I2
sS'cluttered'
p2991
I2
sS'murderous'
p2992
I2
sS'wave'
p2993
I2
sS'wash.'
p2994
I3
sS'cellular'
p2995
I2
sS'g.'
p2996
I2
sS'positions'
p2997
I4
sS'unusual'
p2998
I3
sS'michael'
p2999
I5
sS'watered'
p3000
I2
sS'8.95'
p3001
I3
sS'verdict'
p3002
I2
sS'guber'
p3003
I9
sS'2.25'
p3004
I2
sS'carter'
p3005
I2
sS'picket'
p3006
I2
sS'graying'
p3007
I2
sS'picked'
p3008
I4
sS'plays'
p3009
I5
sS'bluntly'
p3010
I2
sS'collins'
p3011
I5
sS';'
I77
sS'nicholas'
p3012
I4
sS'marketer'
p3013
I2
sS'brunei'
p3014
I2
sS'focuses'
p3015
I2
sS'filings'
p3016
I5
sS'stance'
p3017
I2
sS'commercial'
p3018
I13
sS'following'
p3019
I5
sS'focused'
p3020
I2
sS'affidavits'
p3021
I2
sS'webster'
p3022
I2
sS'convert'
p3023
I2
sS'morsels'
p3024
I2
sS'host'
p3025
I3
sS'products'
p3026
I17
sS'oversees'
p3027
I2
sS'gene'
p3028
I2
sS'deterrents'
p3029
I2
sS'examining'
p3030
I2
sS'felled'
p3031
I2
sS'danger'
p3032
I2
sS'win'
p3033
I3
sS'manage'
p3034
I2
sS'clout'
p3035
I2
sS'cloud'
p3036
I2
sS'metaphor'
p3037
I2
sS'remains'
p3038
I4
sS'adversary'
p3039
I2
sS'hudson'
p3040
I3
sS'camera'
p3041
I2
sS'hiding'
p3042
I2
sS'historically'
p3043
I2
sS'reflects'
p3044
I5
sS'bureaucracy'
p3045
I3
sS'started'
p3046
I7
sS'tennis'
p3047
I3
sS'benchmark'
p3048
I2
sS'visibility'
p3049
I2
sS'missile'
p3050
I2
sS'mitsubishi'
p3051
I3
sS'appointed'
p3052
I2
sS'announcing'
p3053
I2
sS'sanctions'
p3054
I2
sS'crossed'
p3055
I3
sS'servants'
p3056
I2
sS'meet'
p3057
I6
sS'drops'
p3058
I2
sS'stoll'
p3059
I12
sS'control'
p3060
I14
sS'beijing'
p3061
I2
sS'links'
p3062
I2
sS'rejoining'
p3063
I2
sS'evans-black'
p3064
I2
sS'dictation'
p3065
I2
sS'sought'
p3066
I5
sS'hit'
p3067
I4
sS'fearsome'
p3068
I2
sS'hesitate'
p3069
I2
sS'meanwhile'
p3070
I5
sS'arrangement'
p3071
I3
sS'ferdinand'
p3072
I2
sS'blackstone'
p3073
I3
sS'immoral'
p3074
I2
sS'ronald'
p3075
I2
sS'sardinia'
p3076
I2
sS'spelling'
p3077
I2
sS'eyes'
p3078
I2
sS'agenda'
p3079
I3
sS'healthcare'
p3080
I15
sS'executives'
p3081
I15
sS'136,800'
p3082
I2
sS'alliance'
p3083
I2
sS'including'
p3084
I20
sS'costume'
p3085
I3
sS'mentioned'
p3086
I2
sS'brood'
p3087
I2
sS'temporal'
p3088
I2
sS'melloan'
p3089
I2
sS'auto'
p3090
I7
sS'sweets'
p3091
I2
sS'hands'
p3092
I5
sS'front'
p3093
I4
sS'handy'
p3094
I2
sS'literacy'
p3095
I2
sS'101.225'
p3096
I2
sS'university'
p3097
I12
sS'boringly'
p3098
I2
sS'registrations'
p3099
I3
sS'slide'
p3100
I4
sS'commonwealth'
p3101
I2
sS'chunk'
p3102
I2
sS'700'
p3103
I4
sS'sands'
p3104
I2
sS'measure'
p3105
I3
sS'margins'
p3106
I3
sS'special'
p3107
I10
sS'gallant'
p3108
I2
sS'sandor'
p3109
I2
sS'entertainment'
p3110
I11
sS'strokes'
p3111
I3
sS'siena'
p3112
I2
sS'cause'
p3113
I5
sS'dissented'
p3114
I2
sS'delegates'
p3115
I2
sS'ill.'
p3116
I2
sS'completely'
p3117
I2
sS'intruder'
p3118
I2
sS'improvisational'
p3119
I2
sS'232.4'
p3120
I2
sS'20,000'
p3121
I2
sS'hostile'
p3122
I5
sS'determining'
p3123
I2
sS'diminished'
p3124
I3
sS'membership'
p3125
I5
sS'times'
p3126
I8
sS'counterpart'
p3127
I2
sS'timed'
p3128
I2
sS'austin'
p3129
I3
sS'prospective'
p3130
I2
sS'succeeds'
p3131
I3
sS'zero-sum'
p3132
I2
sS'powerful'
p3133
I3
sS'unsupported'
p3134
I3
sS'cardiac'
p3135
I2
sS'drinker'
p3136
I3
sS'precisely'
p3137
I3
sS'quality'
p3138
I3
sS'management'
p3139
I13
sS'relations'
p3140
I7
sS'attach'
p3141
I2
sS'attack'
p3142
I4
sS'final'
p3143
I8
sS'exactly'
p3144
I3
sS'picturesquely'
p3145
I2
sS'counterespionage'
p3146
I2
sS'bassist'
p3147
I2
sS'manipulation'
p3148
I2
sS'fuzzy'
p3149
I2
sS'overwhelming'
p3150
I2
sS'outline'
p3151
I2
sS'photograph'
p3152
I2
sS'venezuelan'
p3153
I2
sS'submitted'
p3154
I3
sS'claim'
p3155
I10
sS'soviets'
p3156
I17
sS'providing'
p3157
I2
sS'distinguished'
p3158
I2
sS'borden'
p3159
I4
sS'julian'
p3160
I2
sS'unchanged'
p3161
I4
sS'2.2'
p3162
I2
sS'need'
p3163
I6
sS'border'
p3164
I2
sS'instrumentation'
p3165
I3
sS'pursued'
p3166
I2
sS'able'
p3167
I15
sS'arm'
p3168
I5
sS'instance'
p3169
I3
sS'relatives'
p3170
I2
sS'issuing'
p3171
I2
sS'2.5'
p3172
I2
sS'ind.'
p3173
I2
sS'coke'
p3174
I14
sS'refocusing'
p3175
I2
sS'mileage'
p3176
I2
sS'duels'
p3177
I2
sS'fibreboard'
p3178
I2
sS'passionately'
p3179
I2
sS'expires'
p3180
I2
sS'learns'
p3181
I2
sS'demise'
p3182
I2
sS'nuisance'
p3183
I2
sS'intrinsic'
p3184
I2
sS'132.00'
p3185
I2
sS'delivery'
p3186
I4
sS'consequences'
p3187
I3
sS'8.25'
p3188
I2
sS'daiwa'
p3189
I2
sS'conventional-arms'
p3190
I3
sS'impression'
p3191
I3
sS'parker'
p3192
I2
sS'partners'
p3193
I4
sS'based'
p3194
I13
sS'earned'
p3195
I3
sS'('
I55
sS'winner'
p3196
I2
sS'employer'
p3197
I2
sS'bases'
p3198
I4
sS'employee'
p3199
I2
sS'employed'
p3200
I4
sS'michigan'
p3201
I3
sS'overall'
p3202
I6
sS'mgm'
p3203
I2
sS'sipping'
p3204
I2
sS'120'
p3205
I3
sS'joint'
p3206
I14
sS'122'
p3207
I2
sS'legitimate'
p3208
I2
sS'joins'
p3209
I3
sS'downturn'
p3210
I2
sS'buyer'
p3211
I3
sS'kong'
p3212
I8
sS'procedures'
p3213
I3
sS'gray'
p3214
I2
sS'processes'
p3215
I2
sS'tobacco'
p3216
I3
sS'hiring'
p3217
I3
sS'imperious'
p3218
I2
sS'evaders'
p3219
I2
sS'dpc'
p3220
I2
sS'overflowing'
p3221
I2
sS'grab'
p3222
I2
sS'official'
p3223
I13
sS'34.2'
p3224
I2
sS'inkling'
p3225
I2
sS'computer'
p3226
I8
sS'usefulness'
p3227
I3
sS'desperate'
p3228
I2
sS'operated'
p3229
I2
sS'written'
p3230
I2
sS'tens'
p3231
I2
sS'neither'
p3232
I4
sS'sabotage'
p3233
I2
sS'comparable'
p3234
I4
sS'attention'
p3235
I5
sS'spares'
p3236
I2
sS'importance'
p3237
I2
sS'interfere'
p3238
I2
sS'efficiency'
p3239
I3
sS'key'
p3240
I5
sS'approval'
p3241
I7
sS'precious'
p3242
I2
sS'hits'
p3243
I3
sS'2.45'
p3244
I2
sS'limits'
p3245
I6
sS'career'
p3246
I4
sS'minds'
p3247
I3
sS'revitalized'
p3248
I3
sS'jersey'
p3249
I5
sS'tuesday'
p3250
I10
sS'quit'
p3251
I2
sS'addition'
p3252
I5
sS'wills'
p3253
I2
sS'slowly'
p3254
I2
sS'industriale'
p3255
I2
sS'controlled'
p3256
I2
sS'league'
p3257
I8
sS'chivas'
p3258
I8
sS'bipartisan'
p3259
I2
sS'owns'
p3260
I7
sS'resident'
p3261
I2
sS'4.55'
p3262
I2
sS'recorded'
p3263
I5
sS'7.160'
p3264
I2
sS'began'
p3265
I3
sS'campus'
p3266
I2
sS'parts'
p3267
I4
sS'northwest'
p3268
I5
sS'party'
p3269
I7
sS'inc'
p3270
I12
sS'promoters'
p3271
I2
sS'appearances'
p3272
I2
sS'effect'
p3273
I5
sS'mediobanca'
p3274
I3
sS'frequently'
p3275
I3
sS'spree'
p3276
I2
sS'impeccable'
p3277
I2
sS'destruction'
p3278
I3
sS'transaction'
p3279
I13
sS'i'
I64
sS'modeled'
p3280
I2
sS'well'
p3281
I14
sS'standing-room-only'
p3282
I2
sS'spy-chaser'
p3283
I2
sS'evenhanded'
p3284
I2
sS'increasingly'
p3285
I4
sS'sources'
p3286
I3
sS'mistakes'
p3287
I2
sS'laurel'
p3288
I6
sS'hess'
p3289
I4
sS'high-grade'
p3290
I3
sS'stock-picking'
p3291
I2
sS'deposits'
p3292
I3
sS'nato'
p3293
I8
sS'mitre'
p3294
I2
sS'sventek'
p3295
I3
sS'warrant'
p3296
I3
sS'canter'
p3297
I3
sS'fate'
p3298
I2
sS'devised'
p3299
I2
sS'crushed'
p3300
I2
sS'breach-of-contract'
p3301
I2
sS'historic'
p3302
I2
sS'267'
p3303
I2
sS'burden'
p3304
I3
sS'turbulence'
p3305
I2
sS'prominent'
p3306
I2
sS'loss'
p3307
I3
sS'candu'
p3308
I2
sS'necessary'
p3309
I5
sS'lost'
p3310
I9
sS'teenagers'
p3311
I2
sS'stevenson'
p3312
I3
sS'clarinetist'
p3313
I4
sS'martin'
p3314
I4
sS'truckee'
p3315
I2
sS'eurobond'
p3316
I2
sS'repeat'
p3317
I2
sS'cleveland'
p3318
I2
sS'home'
p3319
I18
sS'peter'
p3320
I6
sS'leery'
p3321
I2
sS"o'kicki"
p3322
I14
sS'filers'
p3323
I4
sS'intersections'
p3324
I2
sS'?'
I21
sS'reaching'
p3325
I2
sS'journal'
p3326
I8
sS'monetary'
p3327
I2
sS'expansion'
p3328
I3
sS'ridley'
p3329
I2
sS'90,000'
p3330
I2
sS'unhinged'
p3331
I2
sS'freedom'
p3332
I4
sS'cleans'
p3333
I2
sS'recognized'
p3334
I3
sS'23.4'
p3335
I2
sS'stakes'
p3336
I2
sS'equally'
p3337
I2
sS'previously'
p3338
I7
sS'political'
p3339
I13
sS'washington'
p3340
I8
sS'h.'
p3341
I2
sS'managing'
p3342
I5
sS'utility'
p3343
I3
sS'accused'
p3344
I5
sS'additional'
p3345
I6
sS'museum'
p3346
I2
sS'imperial'
p3347
I4
sS'inner'
p3348
I3
sS'north'
p3349
I7
sS'99.75'
p3350
I2
sS'subjective'
p3351
I2
sS'goals'
p3352
I2
sS'courts'
p3353
I3
sS'highest'
p3354
I3
sS'25-year-old'
p3355
I2
sS'brick'
p3356
I2
sS's.p'
p3357
I4
sS'he'
p3358
I224
sS'signed'
p3359
I3
sS'converted'
p3360
I2
sS'limit'
p3361
I5
sS'piece'
p3362
I5
sS'display'
p3363
I2
sS'urging'
p3364
I4
sS'devise'
p3365
I3
sS'reservations'
p3366
I2
sS'tissues'
p3367
I2
sS'35549.44'
p3368
I2
sS'upsets'
p3369
I2
sS'education'
p3370
I3
sS'diego'
p3371
I2
sS'functions'
p3372
I2
sS'offensive'
p3373
I2
sS'policy-making'
p3374
I2
sS'trunkline'
p3375
I2
sS'disposing'
p3376
I2
sS'stay'
p3377
I4
sS'additionally'
p3378
I2
sS'else'
p3379
I4
sS'friends'
p3380
I3
sS'persistent'
p3381
I2
sS'portion'
p3382
I3
sS'diagnosis'
p3383
I2
sS'theory-teaching'
p3384
I2
sS'moshe'
p3385
I2
sS'frankfurt'
p3386
I3
sS'retirees'
p3387
I2
sS'uzbekistan'
p3388
I2
sS'obstruction'
p3389
I2
sS'protest'
p3390
I5
sS'asian'
p3391
I4
sS'aides'
p3392
I6
sS'consists'
p3393
I3
sS'undersecretary'
p3394
I2
sS'captain'
p3395
I2
sS'whose'
p3396
I11
sS'buddy'
p3397
I2
sS'marcos'
p3398
I19
sS'swan'
p3399
I2
sS'nominal'
p3400
I2
sS'swap'
p3401
I3
sS'flashpoint'
p3402
I2
sS'georgia'
p3403
I2
sS'reforms'
p3404
I4
sS'affect'
p3405
I5
sS'vast'
p3406
I2
sS'pilgrim'
p3407
I3
sS'moonies'
p3408
I3
sS'companies'
p3409
I17
sS'solution'
p3410
I3
sS'herbert'
p3411
I2
sS'convenience'
p3412
I2
sS'unrelated'
p3413
I3
sS'cholesterol'
p3414
I3
sS'heading'
p3415
I2
sS'force'
p3416
I10
sS'japanese'
p3417
I32
sS'likely'
p3418
I11
sS'tangential'
p3419
I2
sS'afl-cio'
p3420
I2
sS'even'
p3421
I35
sS'spouses'
p3422
I3
sS'bikini'
p3423
I2
sS'asia'
p3424
I8
sS'spokesman'
p3425
I10
sS'liberated'
p3426
I2
sS'dr.'
p3427
I9
sS'new'
p3428
I101
sS'net'
p3429
I8
sS'ever'
p3430
I7
sS'deemed'
p3431
I2
sS'never'
p3432
I10
sS'disposable'
p3433
I3
sS'drew'
p3434
I3
sS'met'
p3435
I2
sS'109'
p3436
I2
sS'102'
p3437
I2
sS'price-cutting'
p3438
I2
sS'100'
p3439
I11
sS'101'
p3440
I4
sS'contraction'
p3441
I2
sS'dry'
p3442
I2
sS'vulnerability'
p3443
I2
sS'credit'
p3444
I9
sS'harass'
p3445
I2
sS'suitable'
p3446
I2
sS'avena'
p3447
I2
sS'besides'
p3448
I3
sS'campaign'
p3449
I6
sS'revenue-raising'
p3450
I2
sS'reagan'
p3451
I6
sS'county'
p3452
I15
sS'ninety'
p3453
I2
sS'moral'
p3454
I2
sS'guests'
p3455
I2
sS'criminals'
p3456
I2
sS'army'
p3457
I2
sS'arms'
p3458
I5
sS'call'
p3459
I4
sS'calm'
p3460
I2
sS'survive'
p3461
I3
sS'type'
p3462
I2
sS'tell'
p3463
I3
sS'supporters'
p3464
I2
sS'wary'
p3465
I2
sS'composite'
p3466
I3
sS'wars'
p3467
I2
sS'berlin'
p3468
I2
sS'warm'
p3469
I3
sS'adult'
p3470
I2
sS'aligned'
p3471
I2
sS'2.68'
p3472
I2
sS'rights'
p3473
I24
sS'gasoline'
p3474
I2
sS'movies'
p3475
I6
sS'laid-back'
p3476
I2
sS'akio'
p3477
I2
sS'give'
p3478
I12
sS'laughs'
p3479
I2
sS'lafalce'
p3480
I3
sS'honey'
p3481
I2
sS'10,000'
p3482
I5
sS'foods'
p3483
I2
sS'degenerate'
p3484
I2
sS'szeto'
p3485
I2
sS'advancing'
p3486
I2
sS'aging'
p3487
I2
sS'sideline'
p3488
I2
sS'amazing'
p3489
I3
sS'answer'
p3490
I3
sS'faulty'
p3491
I2
sS'massive'
p3492
I2
sS'minority'
p3493
I4
sS'vicious'
p3494
I2
sS'president'
p3495
I61
sS'purchase'
p3496
I13
sS'attempt'
p3497
I4
sS'third'
p3498
I10
sS'baa-1'
p3499
I2
sS'maintain'
p3500
I5
sS'uninsured'
p3501
I2
sS'fraudulently'
p3502
I2
sS'operate'
p3503
I3
sS'operations'
p3504
I9
sS'before'
p3505
I17
sS'10.2'
p3506
I2
sS'personal'
p3507
I12
sS'soaking'
p3508
I2
sS','
I1947
sS'better'
p3509
I11
sS'encounter'
p3510
I2
sS'accusatory'
p3511
I2
sS'weeks'
p3512
I11
sS'overcome'
p3513
I2
sS'dec.'
p3514
I5
sS'unemployed'
p3515
I2
sS'academics'
p3516
I2
sS'therapy'
p3517
I3
sS'pollution-control'
p3518
I3
sS'arrested'
p3519
I2
sS'schieffelin'
p3520
I2
sS'fringes'
p3521
I2
sS'doubleday'
p3522
I2
sS'went'
p3523
I7
sS'side'
p3524
I7
sS'bond'
p3525
I9
sS'principles'
p3526
I3
sS'marital'
p3527
I6
sS'milan'
p3528
I3
sS'trading'
p3529
I12
sS'stealing'
p3530
I2
sS'lawyers'
p3531
I12
sS'contend'
p3532
I3
sS'velvet'
p3533
I2
sS'second-level'
p3534
I2
sS'content'
p3535
I3
sS'surprise'
p3536
I3
sS'sluggish'
p3537
I3
sS'tashi'
p3538
I3
sS'turning'
p3539
I4
sS'11.08'
p3540
I2
sS'u.s.'
p3541
I82
sS'ramos'
p3542
I2
sS'aisle'
p3543
I2
sS'starts'
p3544
I2
sS'signature'
p3545
I2
sS'stewart'
p3546
I3
sS'features'
p3547
I3
sS'economists'
p3548
I3
sS'reassure'
p3549
I2
sS'comforted'
p3550
I2
sS'executions'
p3551
I3
sS'featured'
p3552
I3
sS'plurality'
p3553
I2
sS'feb.'
p3554
I3
sS'38-year-old'
p3555
I2
sS'overstating'
p3556
I2
sS'woodwind'
p3557
I2
sS'burgess'
p3558
I2
sS'hollywood'
p3559
I2
sS'digs'
p3560
I2
sS'georgia-pacific'
p3561
I2
sS'somewhat'
p3562
I2
sS'begins'
p3563
I2
sS'distance'
p3564
I3
sS'anxiety'
p3565
I2
sS'matter'
p3566
I5
sS'street'
p3567
I8
sS'divisiveness'
p3568
I2
sS'enables'
p3569
I2
sS'bidder'
p3570
I4
sS'sees'
p3571
I3
sS'chickens'
p3572
I2
sS'mind'
p3573
I2
sS'mine'
p3574
I3
sS'seen'
p3575
I2
sS'seem'
p3576
I4
sS'seek'
p3577
I6
sS'tells'
p3578
I2
sS'jealously'
p3579
I2
sS'50.46'
p3580
I2
sS'transnational'
p3581
I2
sS'gabele'
p3582
I2
sS'regular'
p3583
I2
sS'holliger'
p3584
I2
sS'maria'
p3585
I2
sS'zealand'
p3586
I12
sS'don'
p3587
I2
sS'medical'
p3588
I5
sS'points'
p3589
I9
sS'principle'
p3590
I3
sS'consumer'
p3591
I9
sS'dow'
p3592
I4
sS'double-a'
p3593
I2
sS'retire'
p3594
I3
sS'liberty'
p3595
I5
sS'stepping'
p3596
I2
sS'judges'
p3597
I6
sS'trade-off'
p3598
I2
sS'explain'
p3599
I2
sS'debts'
p3600
I4
sS'integrate'
p3601
I2
sS'jailed'
p3602
I3
sS'wearing'
p3603
I2
sS'exports'
p3604
I2
sS'stop'
p3605
I3
sS'coast'
p3606
I3
sS'equity-purchase'
p3607
I3
sS'765'
p3608
I2
sS'u.n.'
p3609
I4
sS'tymnet'
p3610
I2
sS'earl'
p3611
I2
sS'earn'
p3612
I2
sS'bar'
p3613
I6
sS'sailing'
p3614
I2
sS'fields'
p3615
I2
sS'bay'
p3616
I4
sS'bad'
p3617
I2
sS'ban'
p3618
I2
sS'ethical'
p3619
I2
sS'fascinating'
p3620
I2
sS'testing'
p3621
I2
sS'allure'
p3622
I2
sS'subject'
p3623
I8
sS'brazil'
p3624
I3
sS'said'
p3625
I207
sS'fastballs'
p3626
I2
sS'continent'
p3627
I2
sS'2120.5'
p3628
I2
sS'tolerance'
p3629
I2
sS'glossy'
p3630
I3
sS'gems'
p3631
I2
sS'juxtapose'
p3632
I2
sS'vows'
p3633
I2
sS'vernon'
p3634
I2
sS'picking'
p3635
I2
sS'suggested'
p3636
I4
sS'disorderly'
p3637
I2
sS'resistant'
p3638
I2
sS'uncertainty'
p3639
I2
sS'against'
p3640
I42
sS'nekoosa'
p3641
I2
sS'appeared'
p3642
I2
sS'tiant'
p3643
I3
sS'offerings'
p3644
I2
sS'ballparks'
p3645
I2
sS'initiative'
p3646
I2
sS'39.125'
p3647
I2
sS'asks'
p3648
I3
sS'basis'
p3649
I5
sS'three'
p3650
I23
sS'particulars'
p3651
I2
sS'commission'
p3652
I10
sS'interest'
p3653
I31
sS'basic'
p3654
I3
sS'basin'
p3655
I4
sS'lovely'
p3656
I3
sS'threw'
p3657
I3
sS'deeper'
p3658
I2
sS'mci'
p3659
I2
sS'dismiss'
p3660
I2
sS'mca'
p3661
I5
sS'fireballs'
p3662
I2
sS'jewels'
p3663
I2
sS'personally'
p3664
I3
sS'aviation'
p3665
I2
sS'tank'
p3666
I2
sS'vendetta'
p3667
I2
sS'oboist'
p3668
I2
sS'economies'
p3669
I5
sS'auction'
p3670
I8
sS'near'
p3671
I8
sS'suppose'
p3672
I2
sS'balance'
p3673
I4
sS'study'
p3674
I2
sS'seven'
p3675
I5
sS'30-share'
p3676
I2
sS'metropolitan'
p3677
I3
sS'is'
p3678
I263
sS'it'
p3679
I206
sS'ii'
p3680
I3
sS'in'
p3681
I644
sS'80,000'
p3682
I2
sS'if'
p3683
I52
sS'grown'
p3684
I2
sS'bottles'
p3685
I3
sS':'
I68
sS'make'
p3686
I32
sS'stickier'
p3687
I2
sS'unfortunate'
p3688
I2
sS'sidelines'
p3689
I3
sS'meets'
p3690
I3
sS'condemnation'
p3691
I2
sS'human-rights'
p3692
I2
sS'delight'
p3693
I3
sS'kim'
p3694
I3
sS'opportunity'
p3695
I4
sS'kid'
p3696
I2
sS'butter'
p3697
I3
sS'waggishly'
p3698
I2
sS'practiced'
p3699
I3
sS'programs'
p3700
I9
sS'settled'
p3701
I3
sS'stimuli'
p3702
I2
sS'materials'
p3703
I2
sS'claims'
p3704
I7
sS'800'
p3705
I4
sS'investments'
p3706
I10
sS'left'
p3707
I7
sS'gov.'
p3708
I2
sS'protocol'
p3709
I2
sS'just'
p3710
I22
sS'sentence'
p3711
I2
sS'sporting'
p3712
I2
sS'human'
p3713
I4
sS'yet'
p3714
I11
sS'yew'
p3715
I2
sS'candidate'
p3716
I2
sS'legion'
p3717
I2
sS'save'
p3718
I2
sS'jahn'
p3719
I3
sS'braumeisters'
p3720
I2
sS'supervisors'
p3721
I2
sS'background'
p3722
I2
sS'wanting'
p3723
I2
sS'dignity'
p3724
I2
sS'profit-seeking'
p3725
I2
sS'unnecessary'
p3726
I3
sS'brunswick'
p3727
I2
sS'private-sector'
p3728
I2
sS'dean'
p3729
I2
sS'deal'
p3730
I8
sS'somehow'
p3731
I3
sS'short-term'
p3732
I7
sS'separately'
p3733
I5
sS'unfit'
p3734
I2
sS'theatre'
p3735
I2
sS'78.64'
p3736
I2
sS'outspoken'
p3737
I2
sS'motor-control'
p3738
I3
sS'bold'
p3739
I2
sS'bank-backed'
p3740
I2
sS'burn'
p3741
I2
sS'confrontation'
p3742
I3
sS'magazine'
p3743
I4
sS'afternoon'
p3744
I4
sS'resold'
p3745
I2
sS'automatically'
p3746
I4
sS'nerve'
p3747
I4
sS'motivate'
p3748
I2
sS'managers'
p3749
I5
sS'formerly'
p3750
I4
sS'amounted'
p3751
I2
sS'down'
p3752
I26
sS'pair'
p3753
I2
sS'thinned'
p3754
I2
sS'amsterdam'
p3755
I2
sS'initial'
p3756
I3
sS'lowering'
p3757
I2
sS'ifint'
p3758
I4
sS'editor'
p3759
I4
sS'zayadi'
p3760
I3
sS'at-bat'
p3761
I2
sS'bert'
p3762
I2
sS'chiappa'
p3763
I2
sS'offering'
p3764
I9
sS'immorality'
p3765
I2
sS'penney'
p3766
I5
sS'ford'
p3767
I2
sS'failure'
p3768
I4
sS'martex'
p3769
I2
sS'syndicate'
p3770
I2
sS'225'
p3771
I2
sS'analyst'
p3772
I4
sS'attached'
p3773
I2
sS'economic'
p3774
I20
sS'stages'
p3775
I3
sS'long-distance'
p3776
I2
sS'one-third'
p3777
I2
sS'covers'
p3778
I2
sS'sale'
p3779
I16
sS'marking'
p3780
I2
sS'million-dollar'
p3781
I2
sS'generally'
p3782
I5
sS'handed'
p3783
I2
sS'exporter'
p3784
I2
sS'dies'
p3785
I3
sS'felt'
p3786
I4
sS'utilities'
p3787
I2
sS'fell'
p3788
I6
sS'resurfaced'
p3789
I2
sS'authorities'
p3790
I3
sS'weekend'
p3791
I2
sS'died'
p3792
I7
sS'jones'
p3793
I4
sS'assume'
p3794
I5
sS'annuity'
p3795
I3
sS'daily'
p3796
I5
sS'parcels'
p3797
I2
sS'profits'
p3798
I5
sS'overdue'
p3799
I3
sS'managed'
p3800
I3
sS'stimulator'
p3801
I2
sS'invent'
p3802
I2
sS'manager'
p3803
I9
sS'mile'
p3804
I3
sS'leche'
p3805
I4
sS'mill'
p3806
I2
sS'milk'
p3807
I10
sS'anticipation'
p3808
I2
sS'flaherty'
p3809
I2
sS'disorders'
p3810
I2
sS'technique'
p3811
I3
sS'father'
p3812
I3
sS'editors'
p3813
I2
sS'finally'
p3814
I4
sS'unpleasant'
p3815
I2
sS'marks'
p3816
I4
sS'misstatements'
p3817
I2
sS'advises'
p3818
I2
sS'keck'
p3819
I2
sS'string'
p3820
I2
sS'1990'
p3821
I6
sS'lynch'
p3822
I4
sS'uneventful'
p3823
I2
sS'66-year-old'
p3824
I2
sS'governments'
p3825
I7
sS'1997'
p3826
I3
sS'did'
p3827
I25
sS'permits'
p3828
I2
sS'proposals'
p3829
I6
sS'magnet'
p3830
I4
sS'item'
p3831
I3
sS'59-dealer'
p3832
I2
sS'attracting'
p3833
I3
sS'unexpected'
p3834
I2
sS'dealing'
p3835
I2
sS'telerate'
p3836
I3
sS'stamford'
p3837
I2
sS'run'
p3838
I5
sS'targets'
p3839
I3
sS'21.44'
p3840
I2
sS'majors'
p3841
I5
sS'adds'
p3842
I3
sS'page-one'
p3843
I2
sS'norris'
p3844
I4
sS'10-point'
p3845
I2
sS'suspect'
p3846
I2
sS'international'
p3847
I21
sS'growls'
p3848
I2
sS'proclaiming'
p3849
I2
sS'transportation'
p3850
I3
sS'wain'
p3851
I2
sS'wail'
p3852
I2
sS'clerk'
p3853
I2
sS'involuntarily'
p3854
I2
sS'french'
p3855
I3
sS'corporation'
p3856
I9
sS'polyrhythms'
p3857
I2
sS'dewar'
p3858
I2
sS'earthquake'
p3859
I3
sS'box'
p3860
I2
sS'cuckoo'
p3861
I4
sS'canadian'
p3862
I11
sS'institute'
p3863
I3
sS'salvage'
p3864
I2
sS'suggestion'
p3865
I2
sS'priceless'
p3866
I2
sS'taipei'
p3867
I2
sS'adjustable'
p3868
I3
sS'useful'
p3869
I4
sS'merely'
p3870
I3
sS'elixir'
p3871
I2
sS'licensing'
p3872
I2
sS'spring-early'
p3873
I2
sS'panhandle'
p3874
I3
sS'sympathetic'
p3875
I2
sS'estate'
p3876
I13
sS'france'
p3877
I4
sS'creamy'
p3878
I2
sS'lorenzo'
p3879
I2
sS'johnstown'
p3880
I4
sS'sharing'
p3881
I2
sS'fine-tuned'
p3882
I2
sS'acceptable'
p3883
I2
sS'withdrawn'
p3884
I2
sS'realty'
p3885
I2
sS'effort'
p3886
I3
sS'fly'
p3887
I2
sS'tokyo'
p3888
I10
sS'soul'
p3889
I2
sS'wallet'
p3890
I2
sS'growing'
p3891
I9
sS'making'
p3892
I10
sS'dispute'
p3893
I13
sS'lords'
p3894
I2
sS'uruguay'
p3895
I2
sS'lobbying'
p3896
I2
sS'agent'
p3897
I2
sS'pointedly'
p3898
I2
sS'non-invasive'
p3899
I3
sS'council'
p3900
I3
sS'spanning'
p3901
I2
sS'pro-'
p3902
I2
sS'galbani'
p3903
I2
sS'chemical'
p3904
I2
sS'pure'
p3905
I2
sS'tile'
p3906
I2
sS'sworn'
p3907
I3
sS'inputs'
p3908
I2
sS'145'
p3909
I2
sS'140'
p3910
I2
sS'may'
p3911
I36
sS'149'
p3912
I2
sS'mac'
p3913
I5
sS'mae'
p3914
I8
sS'designed'
p3915
I4
sS'epileptics'
p3916
I2
sS'aisles'
p3917
I2
sS'grow'
p3918
I4
sS'pressuring'
p3919
I2
sS'man'
p3920
I8
sS'hannover'
p3921
I2
sS'neck'
p3922
I2
sS'johnson'
p3923
I4
sS'maybe'
p3924
I5
sS'borrowing'
p3925
I4
sS'tale'
p3926
I3
sS'switch'
p3927
I2
sS'deposit'
p3928
I5
sS'african'
p3929
I4
sS'talk'
p3930
I7
sS'nearly'
p3931
I9
sS'shoes'
p3932
I2
sS'canberra'
p3933
I2
sS'seeing'
p3934
I3
sS'wishing'
p3935
I2
sS'argues'
p3936
I2
sS'cuts'
p3937
I2
sS'argued'
p3938
I7
sS'police'
p3939
I5
sS'monitor'
p3940
I4
sS'interesting'
p3941
I2
sS'undermined'
p3942
I2
sS'pontiac-cadillac'
p3943
I2
sS'policy'
p3944
I8
sS'mail'
p3945
I5
sS'mcenaney'
p3946
I3
sS'main'
p3947
I3
sS'texas'
p3948
I16
sS'finance'
p3949
I8
sS'views'
p3950
I3
sS'impulses'
p3951
I3
sS'undisclosed'
p3952
I2
sS'sooner'
p3953
I2
sS'killed'
p3954
I2
sS'attorneys'
p3955
I3
sS'careless'
p3956
I2
sS'rock'
p3957
I2
sS'scolded'
p3958
I2
sS'zurich'
p3959
I2
sS's&p'
p3960
I7
sS's&l'
p3961
I4
sS'whirlwinds'
p3962
I2
sS'relive'
p3963
I2
sS'canada'
p3964
I11
sS'living'
p3965
I2
sS'deficit-reduction'
p3966
I2
sS'bailout'
p3967
I4
sS'correct'
p3968
I3
sS'earlier'
p3969
I17
sS'mercantile'
p3970
I2
sS'hefty'
p3971
I2
sS'wildbad'
p3972
I2
sS'california'
p3973
I7
sS'keith'
p3974
I2
sS'220,000'
p3975
I2
sS'advance'
p3976
I3
sS'underwear'
p3977
I2
sS'carnival'
p3978
I2
sS'suisse'
p3979
I3
sS'thing'
p3980
I4
sS'think'
p3981
I13
sS'frequent'
p3982
I5
sS'first'
p3983
I38
sS'exotic'
p3984
I2
sS'americans'
p3985
I7
sS'long'
p3986
I12
sS'suspended'
p3987
I3
sS'carry'
p3988
I6
sS'corporations'
p3989
I9
sS'sounds'
p3990
I2
sS'rome'
p3991
I2
sS'single-b-1'
p3992
I2
sS'little'
p3993
I10
sS'single-b-3'
p3994
I2
sS'slept'
p3995
I2
sS'anyone'
p3996
I5
sS'speaking'
p3997
I2
sS'mining'
p3998
I2
sS'allegedly'
p3999
I3
sS'moscow'
p4000
I7
sS'pompano'
p4001
I2
sS'sequels'
p4002
I2
sS'ricca'
p4003
I2
sS'once-cozy'
p4004
I2
sS'bio-analytical'
p4005
I2
sS'11'
p4006
I8
sS'10'
p4007
I30
sS'13'
p4008
I7
sS'12'
p4009
I8
sS'15'
p4010
I16
sS'14'
p4011
I4
sS'17'
p4012
I5
sS'16'
p4013
I6
sS'19'
p4014
I7
sS'18'
p4015
I5
sS'protected'
p4016
I2
sS'swearing-in'
p4017
I2
sS'venture'
p4018
I14
sS'were'
p4019
I73
sS'gathering'
p4020
I2
sS'briefs'
p4021
I2
sS'voices'
p4022
I3
sS'conspiracy'
p4023
I2
sS'pastry'
p4024
I4
sS'stigma'
p4025
I2
sS'warsaw'
p4026
I5
sS'potential'
p4027
I10
sS'performance'
p4028
I7
sS'1,250'
p4029
I2
sS'channel'
p4030
I2
sS'200'
p4031
I3
sS'norman'
p4032
I2
sS'trace'
p4033
I2
sS'normal'
p4034
I2
sS'208'
p4035
I2
sS'kuehn'
p4036
I4
sS'paid'
p4037
I12
sS'sheets'
p4038
I2
sS'complaints'
p4039
I2
sS'tracy'
p4040
I2
sS'proxies'
p4041
I2
sS'12,500'
p4042
I2
sS'especially'
p4043
I2
sS'172.5'
p4044
I2
sS'obligatto'
p4045
I2
sS'georgeson'
p4046
I2
sS'rating'
p4047
I6
sS'show'
p4048
I9
sS'contemporary'
p4049
I4
sS'rep.'
p4050
I7
sS'arrears'
p4051
I2
sS'forecast'
p4052
I2
sS'specifically'
p4053
I3
sS'dice'
p4054
I2
sS'behind'
p4055
I4
sS'black'
p4056
I10
sS'treasury'
p4057
I22
sS'awareness'
p4058
I2
sS'ranking'
p4059
I2
sS'savoring'
p4060
I2
sS'get'
p4061
I18
sS'contracts'
p4062
I4
sS'pricings'
p4063
I2
sS'employers'
p4064
I3
sS'hailed'
p4065
I2
sS'procreation'
p4066
I2
sS'conjunction'
p4067
I2
sS'secondary'
p4068
I3
sS'yield'
p4069
I17
sS'morning'
p4070
I3
sS'stupid'
p4071
I2
sS'audited'
p4072
I2
sS'declared'
p4073
I3
sS'seat'
p4074
I4
sS'j.'
p4075
I9
sS'japan'
p4076
I32
sS'unaltered'
p4077
I2
sS'wonder'
p4078
I3
sS'indicted'
p4079
I2
sS'label'
p4080
I3
sS'enough'
p4081
I4
sS'sihanouk'
p4082
I3
sS'metromedia-itt'
p4083
I2
sS'geometric'
p4084
I2
sS'reading'
p4085
I2
sS'across'
p4086
I4
sS'infrastructure'
p4087
I2
sS'august'
p4088
I8
sS'parent'
p4089
I3
sS'signaled'
p4090
I2
sS'oberstar'
p4091
I2
sS'dates'
p4092
I2
sS'trades'
p4093
I3
sS'according'
p4094
I20
sS'sketchy'
p4095
I2
sS'marietta'
p4096
I3
sS'patrons'
p4097
I2
sS'holders'
p4098
I4
sS'traded'
p4099
I3
sS'among'
p4100
I16
sS'maintained'
p4101
I3
sS'specializing'
p4102
I2
sS'mare'
p4103
I2
sS'arts'
p4104
I2
sS'capable'
p4105
I2
sS'mark'
p4106
I2
sS'cecelia'
p4107
I2
sS'shopping'
p4108
I2
sS'offered'
p4109
I18
sS'cattrall'
p4110
I2
sS'dramatic'
p4111
I2
sS'wake'
p4112
I3
sS'declaration'
p4113
I2
sS'prof.'
p4114
I2
sS'odyssey'
p4115
I2
sS'those'
p4116
I30
sS'sound'
p4117
I2
sS'predicament'
p4118
I2
sS'stacked'
p4119
I2
sS'6.056'
p4120
I2
sS"n't"
p4121
I127
sS'warning'
p4122
I2
sS'margin'
p4123
I3
sS'inadvertence'
p4124
I2
sS'conferences'
p4125
I5
sS'then'
p4126
I24
sS'sincere'
p4127
I2
sS'pressing'
p4128
I2
sS'tourist'
p4129
I3
sS'par'
p4130
I5
sS'harsh'
p4131
I2
sS'pay'
p4132
I28
sS'edwin'
p4133
I2
sS'same'
p4134
I7
sS'thinning'
p4135
I2
sS'speech'
p4136
I2
sS'arguments'
p4137
I4
sS'fireproofing'
p4138
I2
sS'1900s'
p4139
I2
sS'stepped'
p4140
I2
sS'buy-outs'
p4141
I2
sS'oil'
p4142
I4
sS'running'
p4143
I4
sS'totally'
p4144
I5
sS'drain'
p4145
I3
sS'largely'
p4146
I6
sS'markus'
p4147
I3
sS'wellington'
p4148
I6
sS'mortgages'
p4149
I13
sS'accountable'
p4150
I2
sS'bottle'
p4151
I2
sS'pa.'
p4152
I3
sS'bromley'
p4153
I3
sS'monet'
p4154
I2
sS'asset-backed'
p4155
I3
sS'flier'
p4156
I2
sS'money'
p4157
I27
sS'adjustments'
p4158
I3
sS'leeway'
p4159
I2
sS'multiples'
p4160
I2
sS'statesmen'
p4161
I2
sS'dipped'
p4162
I2
sS'trespasses'
p4163
I2
sS'4'
I7
sS'preflight'
p4164
I2
sS'pill'
p4165
I12
sS'safeguarded'
p4166
I2
sS'grip'
p4167
I2
sS'jake'
p4168
I2
sS'mow'
p4169
I2
sS'credentials'
p4170
I2
sS'railroad'
p4171
I2
sS'aiming'
p4172
I2
sS'disappointed'
p4173
I4
sS'christina'
p4174
I2
sS'acquainted'
p4175
I2
sS'serves'
p4176
I2
sS"'ve"
p4177
I6
sS'chamber'
p4178
I4
sS'audience'
p4179
I8
sS'either'
p4180
I8
sS'retailers'
p4181
I3
sS'served'
p4182
I3
sS'voluntarily'
p4183
I2
sS'tator'
p4184
I3
sS'pittsburg'
p4185
I2
sS'imprisonment'
p4186
I2
sS'specified'
p4187
I2
sS'images'
p4188
I3
sS'matching'
p4189
I2
sS'gross'
p4190
I2
sS'calculating'
p4191
I2
sS'illustrated'
p4192
I2
sS'staffs'
p4193
I2
sS'measuring'
p4194
I2
sS'considering'
p4195
I6
sS'underwriters'
p4196
I4
sS'notable'
p4197
I2
sS'broker'
p4198
I2
sS'conducting'
p4199
I4
sS'80%-owned'
p4200
I2
sS'40,800'
p4201
I2
sS'7.649'
p4202
I2
sS'airline'
p4203
I8
sS'mounting'
p4204
I2
sS'mixed'
p4205
I3
sS'road'
p4206
I3
sS'coupon'
p4207
I10
sS'spreading'
p4208
I2
sS'references'
p4209
I2
sS'gomez'
p4210
I4
sS'acquiesced'
p4211
I2
sS'spring-training'
p4212
I2
sS'tycoon'
p4213
I2
sS'arranged'
p4214
I2
sS'co-chief'
p4215
I3
sS'centerfielder'
p4216
I2
sS'1.76'
p4217
I2
sS'manuel'
p4218
I2
sS'citation'
p4219
I2
sS'deep'
p4220
I5
sS'fellow'
p4221
I2
sS'examine'
p4222
I3
sS'file'
p4223
I8
sS'girlfriend'
p4224
I2
sS'fill'
p4225
I2
sS'again'
p4226
I7
sS'retiring'
p4227
I2
sS'drivers'
p4228
I2
sS'narcotics'
p4229
I2
sS'field'
p4230
I9
sS'outfield'
p4231
I2
sS'4,000'
p4232
I2
sS'students'
p4233
I3
sS'forbidding-looking'
p4234
I2
sS'important'
p4235
I4
sS'brands'
p4236
I7
sS'prudent'
p4237
I2
sS'assets'
p4238
I17
sS'husky'
p4239
I2
sS'represent'
p4240
I2
sS'suny'
p4241
I3
sS'founder'
p4242
I4
sS'aids'
p4243
I2
sS'suns'
p4244
I4
sS'dollar'
p4245
I9
sS'founded'
p4246
I3
sS'cooperative'
p4247
I2
sS'talks'
p4248
I17
sS'reluctant'
p4249
I3
sS'modernization'
p4250
I2
sS'wako'
p4251
I2
sS'mandela'
p4252
I2
sS'premium'
p4253
I5
sS'fall'
p4254
I4
sS'difference'
p4255
I2
sS'grand-jury'
p4256
I4
sS'celebrity'
p4257
I2
sS'wsj'
p4258
I3
sS'worded'
p4259
I2
sS'donovan'
p4260
I3
sS'economically'
p4261
I3
sS'exemptions'
p4262
I2
sS'neighborhood'
p4263
I2
sS'portable'
p4264
I2
sS'solicitations'
p4265
I2
sS'anti-abortionists'
p4266
I2
sS'ritter'
p4267
I2
sS'7*slashhere*8'
p4268
I7
sS'perception'
p4269
I2
sS'perspective'
p4270
I2
sS'lawyer'
p4271
I7
sS'further'
p4272
I5
sS'10.48'
p4273
I3
sS'ziyang'
p4274
I2
sS'stood'
p4275
I3
sS'opted'
p4276
I2
sS'public'
p4277
I16
sS'movement'
p4278
I9
sS'ranged'
p4279
I3
sS'component'
p4280
I2
sS'ranges'
p4281
I2
sS'operating'
p4282
I8
sS'campaigns'
p4283
I2
sS'900'
p4284
I4
sS'prosecutors'
p4285
I8
sS'repaying'
p4286
I2
sS'airport'
p4287
I3
sS'published'
p4288
I3
sS'milks'
p4289
I2
sS'whimsical'
p4290
I2
sS'tiananmen'
p4291
I3
sS'cowardly'
p4292
I2
sS'africa'
p4293
I2
sS'establish'
p4294
I2
sS'legislator'
p4295
I2
sS'readily'
p4296
I2
sS'shareholders'
p4297
I14
sS'twa'
p4298
I2
sS'eye'
p4299
I3
sS'uniformity'
p4300
I2
sS'interest-bearing'
p4301
I2
sS'two'
p4302
I71
sS'libel'
p4303
I3
sS'restraints'
p4304
I2
sS'achieving'
p4305
I2
sS'pawing'
p4306
I2
sS'chortled'
p4307
I2
sS'leonard'
p4308
I2
sS'apprehensions'
p4309
I2
sS'controlling'
p4310
I2
sS'none'
p4311
I6
sS'hour'
p4312
I9
sS'recall'
p4313
I2
sS'phrasing'
p4314
I2
sS'dei'
p4315
I2
sS'remain'
p4316
I6
sS'del'
p4317
I3
sS'subterfuge'
p4318
I2
sS'abandon'
p4319
I2
sS'strategies'
p4320
I3
sS'eichof'
p4321
I2
sS'marble'
p4322
I2
sS'purchases'
p4323
I8
sS'share'
p4324
I37
sS'minimum'
p4325
I9
sS'purchased'
p4326
I3
sS'sharp'
p4327
I4
sS'narrowly'
p4328
I2
sS'needs'
p4329
I5
sS'13.5'
p4330
I2
sS'subminimum'
p4331
I4
sS'plans'
p4332
I9
sS'comfort'
p4333
I3
sS'morning-session'
p4334
I2
sS'advice'
p4335
I3
sS'different'
p4336
I8
sS'deprogrammings'
p4337
I2
sS'coming'
p4338
I5
sS'deukmejian'
p4339
I2
sS'crippling'
p4340
I2
sS'playing'
p4341
I5
sS'rifles'
p4342
I2
sS'rounded'
p4343
I2
sS'ashurst'
p4344
I5
sS'azerbaijan'
p4345
I2
sS'u.s.-soviet'
p4346
I2
sS'industrial'
p4347
I9
sS'through'
p4348
I23
sS'deterring'
p4349
I2
sS'arrogant'
p4350
I2
sS'24'
p4351
I5
sS'25'
p4352
I7
sS'26'
p4353
I4
sS'27'
p4354
I3
sS'20'
p4355
I9
sS'21'
p4356
I3
sS'22'
p4357
I2
sS'shortstop'
p4358
I2
sS'28'
p4359
I4
sS'29'
p4360
I4
sS'late'
p4361
I13
sS'detected'
p4362
I2
sS'penn'
p4363
I2
sS'hurting'
p4364
I2
sS'someone'
p4365
I4
sS'seeking'
p4366
I7
sS'males'
p4367
I2
sS'socially'
p4368
I2
sS'formulating'
p4369
I3
sS'embezzled'
p4370
I2
sS'association'
p4371
I15
sS'mystery'
p4372
I2
sS'easily'
p4373
I3
sS'65.7'
p4374
I2
sS'habits'
p4375
I3
sS'repeating'
p4376
I3
sS'14-judge'
p4377
I2
sS'harm'
p4378
I3
sS'everyone'
p4379
I4
sS'house'
p4380
I29
sS'energy'
p4381
I5
sS'hard'
p4382
I6
sS'idea'
p4383
I6
sS'connect'
p4384
I2
sS'seniority'
p4385
I2
sS'dignitaries'
p4386
I2
sS'insurance'
p4387
I7
sS'initiatives'
p4388
I2
sS'uninvited'
p4389
I2
sS'creditor'
p4390
I3
sS's.a.'
p4391
I3
sS'projected'
p4392
I3
sS'participants'
p4393
I5
sS'longtime'
p4394
I3
sS'1.78'
p4395
I2
sS'disobedience'
p4396
I15
sS'crouched'
p4397
I2
sS'lawrence'
p4398
I3
sS'paschi'
p4399
I2
sS'backer'
p4400
I7
sS'mikhail'
p4401
I4
sS'extraordinary'
p4402
I4
sS'members'
p4403
I12
sS'backed'
p4404
I8
sS'beginning'
p4405
I6
sS'benefits'
p4406
I3
sS'finland'
p4407
I3
sS'diversion'
p4408
I2
sS'conducted'
p4409
I2
sS'pilots'
p4410
I21
sS'dons'
p4411
I2
sS'mistakenly'
p4412
I3
sS'done'
p4413
I7
sS'embraced'
p4414
I2
sS'wages'
p4415
I2
sS'heights'
p4416
I2
sS'bullied'
p4417
I2
sS'joint-venture'
p4418
I2
sS'least'
p4419
I7
sS'obligatory'
p4420
I2
sS'paint'
p4421
I2
sS'regulation'
p4422
I2
sS'statement'
p4423
I6
sS'compromise'
p4424
I13
sS'shahal'
p4425
I2
sS'lease'
p4426
I3
sS'muscles'
p4427
I3
sS'favorably'
p4428
I2
sS'wildly'
p4429
I2
sS'sensation'
p4430
I2
sS'sizable'
p4431
I2
sS'part'
p4432
I24
sS'muscled'
p4433
I2
sS'favorable'
p4434
I3
sS'doctors'
p4435
I3
sS'believe'
p4436
I8
sS'stirs'
p4437
I2
sS'869'
p4438
I2
sS'mclaughlin'
p4439
I4
sS'b'
I6
sS'gotten'
p4440
I2
sS'businesslike'
p4441
I3
sS'youth'
p4442
I3
sS'supposed'
p4443
I2
sS'treated'
p4444
I2
sS'chanted'
p4445
I3
sS'lilting'
p4446
I2
sS'aug.'
p4447
I3
sS'orders'
p4448
I2
sS'collateralized'
p4449
I5
sS'built'
p4450
I5
sS'depending'
p4451
I2
sS'gorbachev'
p4452
I15
sS'majority'
p4453
I5
sS'appellate'
p4454
I4
sS'build'
p4455
I10
sS'province'
p4456
I2
sS'eggs'
p4457
I3
sS'most'
p4458
I35
sS'significant'
p4459
I7
sS'services'
p4460
I10
sS'extremely'
p4461
I3
sS'kiddies'
p4462
I3
sS'pocketing'
p4463
I2
sS'charitable'
p4464
I3
sS'joining'
p4465
I3
sS'gdp'
p4466
I3
sS'thomas'
p4467
I2
sS'directorate'
p4468
I3
sS'particularly'
p4469
I5
sS'disturbances'
p4470
I2
sS'obligations'
p4471
I3
sS'commissions'
p4472
I6
sS'businesses'
p4473
I11
sS'carefully'
p4474
I2
sS'find'
p4475
I7
sS'giant'
p4476
I2
sS'merger'
p4477
I4
sS'distributed'
p4478
I2
sS'unhappy'
p4479
I2
sS'generators'
p4480
I2
sS'override'
p4481
I3
sS'8'
I25
sS'distributes'
p4482
I2
sS'merged'
p4483
I2
sS'permission'
p4484
I3
sS'express'
p4485
I9
sS'theft'
p4486
I4
sS'merchandise'
p4487
I3
sS'guile'
p4488
I2
sS'resolve'
p4489
I5
sS'alisarda'
p4490
I2
sS'testifying'
p4491
I2
sS'six-month'
p4492
I7
sS'redefined'
p4493
I2
sS'common'
p4494
I7
sS'unfettered'
p4495
I2
sS'restaurants'
p4496
I3
sS'natural-resources'
p4497
I2
sS'opposing'
p4498
I3
sS'tended'
p4499
I2
sS'marston'
p4500
I3
sS'individual'
p4501
I5
sS'tender'
p4502
I2
sS'double-crossed'
p4503
I2
sS'chose'
p4504
I4
sS'repairs'
p4505
I2
sS'1,214'
p4506
I2
sS'please'
p4507
I2
sS'fans'
p4508
I6
sS'burned'
p4509
I2
sS'dividends'
p4510
I4
sS'environmentalists'
p4511
I2
sS'labella'
p4512
I2
sS'aircraft'
p4513
I7
sS'scuttle'
p4514
I2
sS'full-time'
p4515
I3
sS'restaurant'
p4516
I3
sS'solely'
p4517
I2
sS'annual'
p4518
I8
sS'foreign'
p4519
I24
sS'upgraded'
p4520
I2
sS'7.875'
p4521
I2
sS'point'
p4522
I5
sS'simple'
p4523
I2
sS'prosecuting'
p4524
I2
sS'ga.'
p4525
I2
sS'tennessee'
p4526
I2
sS'simply'
p4527
I5
sS'throughout'
p4528
I3
sS'expensive'
p4529
I3
sS'headaches'
p4530
I2
sS'raise'
p4531
I15
sS'create'
p4532
I4
sS'rivals'
p4533
I2
sS'secret'
p4534
I2
sS'ireland'
p4535
I2
sS'meeting'
p4536
I29
sS'assorted'
p4537
I2
sS'gas'
p4538
I6
sS'gap'
p4539
I2
sS'gao'
p4540
I2
sS'repertoire'
p4541
I3
sS'non-russian'
p4542
I2
sS'understand'
p4543
I4
sS'prices'
p4544
I17
sS'replaces'
p4545
I2
sS'classifications'
p4546
I2
sS'solid'
p4547
I2
sS'bill'
p4548
I24
sS'elections'
p4549
I5
sS'denominations'
p4550
I2
sS'fun'
p4551
I3
sS'advising'
p4552
I2
sS'adjusts'
p4553
I2
sS'century'
p4554
I4
sS'cents'
p4555
I22
sS'violently'
p4556
I2
sS'audience-friendly'
p4557
I2
sS'itself'
p4558
I4
sS'lomas'
p4559
I2
sS'okla.'
p4560
I2
sS'all-important'
p4561
I2
sS'italy'
p4562
I7
sS'sociologist'
p4563
I2
sS'benign'
p4564
I2
sS'discourse'
p4565
I2
sS'development'
p4566
I5
sS'forced'
p4567
I2
sS'yesterday'
p4568
I19
sS'moment'
p4569
I5
sS'purpose'
p4570
I4
sS'safe'
p4571
I3
sS'spent'
p4572
I6
sS'swiss'
p4573
I2
sS'organization'
p4574
I4
sS'spend'
p4575
I2
sS'preference'
p4576
I3
sS'one-year'
p4577
I5
sS'junk-bond'
p4578
I2
sS'ludicrous'
p4579
I2
sS'distracting'
p4580
I2
sS'openly'
p4581
I2
sS'unesco'
p4582
I9
sS'alternative'
p4583
I5
sS'predominantly'
p4584
I2
sS'timber'
p4585
I3
sS'letting'
p4586
I3
sS'fullscale'
p4587
I2
sS'cut'
p4588
I12
sS'cup'
p4589
I3
sS'deputy'
p4590
I2
sS'source'
p4591
I4
sS'snap'
p4592
I2
sS'administrative'
p4593
I3
sS'big'
p4594
I10
sS'bid'
p4595
I7
sS'jerked'
p4596
I2
sS'tribune-democrat'
p4597
I2
sS'foreigners'
p4598
I4
sS'bit'
p4599
I2
sS'knock'
p4600
I2
sS'follows'
p4601
I4
sS'alltel'
p4602
I4
sS'glove'
p4603
I2
sS'indication'
p4604
I2
sS'jolted'
p4605
I2
sS'54.5'
p4606
I2
sS'often'
p4607
I6
sS'absolutely'
p4608
I2
sS'obliged'
p4609
I2
sS'30s'
p4610
I2
sS'grass-roots'
p4611
I2
sS'bach'
p4612
I3
sS'2,750'
p4613
I2
sS'delegation'
p4614
I2
sS'pricing'
p4615
I3
sS'vietnamese-backed'
p4616
I2
sS'scale'
p4617
I2
sS'jewelry'
p4618
I9
sS'culprit'
p4619
I2
sS'contacts'
p4620
I2
sS'decision'
p4621
I10
sS'91-day'
p4622
I2
sS'per'
p4623
I2
sS'eliminate'
p4624
I3
sS'313.2'
p4625
I2
sS'full-scale'
p4626
I2
sS'patient'
p4627
I4
sS'300'
p4628
I5
sS'continuing'
p4629
I3
sS'use'
p4630
I20
sS'restrictive'
p4631
I2
sS'goods'
p4632
I2
sS'mrs.'
p4633
I13
sS'pollution'
p4634
I3
sS'8.04'
p4635
I3
sS'harassed'
p4636
I2
sS'nsa'
p4637
I2
sS'abusive'
p4638
I3
sS'retailer'
p4639
I2
sS'steven'
p4640
I2
sS'bankruptcy'
p4641
I10
sS'forth'
p4642
I2
sS'conduits'
p4643
I2
sS'1.50'
p4644
I2
sS'forward'
p4645
I2
sS'murphy'
p4646
I2
sS'hoped'
p4647
I2
sS'boys'
p4648
I2
sS'two-part'
p4649
I4
sS'hopes'
p4650
I6
sS'subsidiary'
p4651
I5
sS'active'
p4652
I4
sS'directed'
p4653
I2
sS'rejection'
p4654
I2
sS'generating'
p4655
I2
sS"'re"
p4656
I15
sS'planes'
p4657
I3
sS'jumbo'
p4658
I3
sS'curt'
p4659
I2
sS'constant'
p4660
I3
sS'stripped'
p4661
I3
sS'lackeys'
p4662
I2
sS'deprive'
p4663
I2
sS'single'
p4664
I3
sS'dragging'
p4665
I2
sS'%'
I209
sS'spanish-language'
p4666
I2
sS'testified'
p4667
I4
sS'prepared'
p4668
I2
sS'prepares'
p4669
I2
sS'vehicles'
p4670
I2
sS'bankers'
p4671
I3
sS'appalling'
p4672
I2
sS'2001'
p4673
I3
sS'2004'
p4674
I2
sS'2005'
p4675
I2
sS'magnetically'
p4676
I2
sS'debenture'
p4677
I2
sS'minors'
p4678
I2
sS'fitch'
p4679
I2
sS'j.c.'
p4680
I5
sS'intricate'
p4681
I2
sS'15,000'
p4682
I4
sS'boom-or-bust'
p4683
I2
sS'intensive'
p4684
I4
sS'chaps'
p4685
I2
sS'quarterly'
p4686
I8
sS'labels'
p4687
I4
sS'dessert'
p4688
I2
sS'nixed'
p4689
I2
sS'putting'
p4690
I2
sS'entire'
p4691
I3
sS'demonstrations'
p4692
I7
sS'carla'
p4693
I2
sS'nests'
p4694
I2
sS'staffers'
p4695
I2
sS'pittance'
p4696
I2
sS'chicago'
p4697
I6
sS'giving'
p4698
I5
sS'practices'
p4699
I3
sS'access'
p4700
I5
sS'condominium'
p4701
I2
sS'industrialized'
p4702
I2
sS'irreparable'
p4703
I2
sS'exercise'
p4704
I2
sS'body'
p4705
I2
sS'exchange'
p4706
I17
sS'jointly'
p4707
I2
sS'objects'
p4708
I2
sS'healing'
p4709
I2
sS'others'
p4710
I12
sS'luis'
p4711
I2
sS'safer'
p4712
I2
sS'extreme'
p4713
I3
sS'39'
p4714
I2
sS'32'
p4715
I4
sS'31'
p4716
I5
sS'30'
p4717
I22
sS'37'
p4718
I4
sS'alaska'
p4719
I2
sS'35'
p4720
I3
sS'proof'
p4721
I2
sS'honor'
p4722
I2
sS'named'
p4723
I14
sS'limp'
p4724
I2
sS'private'
p4725
I4
sS'gordon'
p4726
I2
sS'decrease'
p4727
I2
sS'privately'
p4728
I3
sS'composer'
p4729
I3
sS'limb'
p4730
I2
sS'scandal'
p4731
I3
sS'year-ago'
p4732
I2
sS'themselves'
p4733
I8
sS'defendant'
p4734
I2
sS'trail'
p4735
I2
sS'9.85'
p4736
I2
sS'tattered'
p4737
I2
sS'arranging'
p4738
I2
sS'iii'
p4739
I3
sS'non-communist'
p4740
I2
sS'account'
p4741
I9
sS'16.05'
p4742
I2
sS'erwin'
p4743
I2
sS'obvious'
p4744
I3
sS'closing'
p4745
I4
sS'rehabilitation'
p4746
I3
sS'reserved'
p4747
I2
sS'proportions'
p4748
I3
sS'effectively'
p4749
I2
sS'reserves'
p4750
I2
sS'exclaims'
p4751
I2
sS'employs'
p4752
I3
sS'10.05'
p4753
I2
sS'maturities'
p4754
I4
sS'dinners'
p4755
I2
sS'holds'
p4756
I4
sS'regions'
p4757
I2
sS'responsibilities'
p4758
I3
sS'winners'
p4759
I2
sS'forest'
p4760
I2
sS'stock'
p4761
I42
sS'204.3'
p4762
I2
sS'204.8'
p4763
I2
sS'waters'
p4764
I2
sS'collection'
p4765
I2
sS'bothered'
p4766
I2
sS'nullify'
p4767
I2
sS'leisure'
p4768
I2
sS'yielded'
p4769
I2
sS'fray'
p4770
I2
sS'rev.'
p4771
I2
sS'bind'
p4772
I3
sS'lines'
p4773
I4
sS'chief'
p4774
I23
sS'metaphors'
p4775
I2
sS'testament-style'
p4776
I2
sS'aiken'
p4777
I2
sS'institutional'
p4778
I7
sS'ever-changing'
p4779
I2
sS'agricultural'
p4780
I2
sS'industries'
p4781
I10
sS'negotiated'
p4782
I5
sS'la'
p4783
I4
sS'2-for-1'
p4784
I2
sS'acres'
p4785
I2
sS'willing'
p4786
I6
sS'yamaichi'
p4787
I2
sS'criminal'
p4788
I3
sS'greater'
p4789
I5
sS'cutting'
p4790
I4
sS'courtroom'
p4791
I4
sS'sonata'
p4792
I2
sS'insisting'
p4793
I3
sS'dax'
p4794
I2
sS'day'
p4795
I12
sS'capital-gains'
p4796
I2
sS'february'
p4797
I2
sS'l.'
p4798
I3
sS'warned'
p4799
I4
sS'identified'
p4800
I2
sS'morris'
p4801
I2
sS'warner'
p4802
I32
sS'activate'
p4803
I2
sS'dixie'
p4804
I2
sS'administrator'
p4805
I2
sS'salesman'
p4806
I3
sS'announcer'
p4807
I2
sS'aga'
p4808
I7
sS'defend'
p4809
I2
sS'istituto'
p4810
I2
sS'insolvent'
p4811
I2
sS'electronics'
p4812
I2
sS'announced'
p4813
I16
sS'harold'
p4814
I2
sS'582'
p4815
I2
sS'frank'
p4816
I6
sS'fourteen'
p4817
I2
sS'clarify'
p4818
I2
sS'afterward'
p4819
I2
sS'allies'
p4820
I6
sS'recipes'
p4821
I5
sS'abuse'
p4822
I2
sS'barriers'
p4823
I2
sS'retain'
p4824
I5
sS'retail'
p4825
I2
sS'south'
p4826
I17
sS'finest'
p4827
I2
sS'2,000'
p4828
I2
sS'strategic'
p4829
I5
sS'embarrassed'
p4830
I2
sS'puppet'
p4831
I2
sS'rusticated'
p4832
I2
sS'reached'
p4833
I7
sS'pershare'
p4834
I2
sS'single-a-3'
p4835
I6
sS'single-a-2'
p4836
I5
sS'recapitalization'
p4837
I2
sS'bosco'
p4838
I2
sS'smolder'
p4839
I2
sS'completed'
p4840
I7
sS'acquire'
p4841
I3
sS'7.45'
p4842
I2
sS'environmental'
p4843
I3
sS'completes'
p4844
I2
sS'glamorous'
p4845
I2
sS'shevardnadze'
p4846
I4
sS'bullhorns'
p4847
I2
sS'asean'
p4848
I2
sS'compensation'
p4849
I4
sS'circumspect'
p4850
I2
sS'visited'
p4851
I4
sS'pardoned'
p4852
I2
sS'imaginative'
p4853
I3
sS'comfortable'
p4854
I2
sS'tide'
p4855
I2
sS'38.2'
p4856
I2
sS'unlikely'
p4857
I5
sS'have'
p4858
I137
sS'apparently'
p4859
I5
sS'tomash'
p4860
I4
sS'dallas'
p4861
I2
sS'parks'
p4862
I2
sS'mix'
p4863
I2
sS'concerns'
p4864
I5
sS'326'
p4865
I2
sS'provoked'
p4866
I3
sS'1.31'
p4867
I2
sS'1.34'
p4868
I2
sS'1.35'
p4869
I2
sS'1.37'
p4870
I2
sS'unless'
p4871
I6
sS'preliminary'
p4872
I6
sS'sfe'
p4873
I4
sS'reveling'
p4874
I2
sS'payment'
p4875
I5
sS'gurus'
p4876
I2
sS'quotations'
p4877
I2
sS'enthusiastic'
p4878
I2
sS'request'
p4879
I4
sS'1,000'
p4880
I2
sS'1,001'
p4881
I2
sS'normally'
p4882
I2
sS'gnu-emacs'
p4883
I3
sS'selection'
p4884
I2
sS'galvanizing'
p4885
I2
sS'supported'
p4886
I3
sS'portfolio'
p4887
I2
sS'889,000'
p4888
I2
sS'thicket'
p4889
I2
sS'staff'
p4890
I5
sS'communism'
p4891
I2
sS'controls'
p4892
I4
sS'communist'
p4893
I4
sS'regularly'
p4894
I3
sS'beat'
p4895
I2
sS'timing'
p4896
I3
sS'areas'
p4897
I6
sS'unauthorized'
p4898
I2
sS'approach'
p4899
I5
sS'teams'
p4900
I3
sS'ballplayers'
p4901
I2
sS'fixed'
p4902
I3
sS'national'
p4903
I20
sS'grudging'
p4904
I2
sS'j.e.'
p4905
I2
sS'enhanced'
p4906
I3
sS'greece'
p4907
I2
sS'audits'
p4908
I6
sS'36.6'
p4909
I2
sS'exploited'
p4910
I2
sS'attempting'
p4911
I3
sS'clearing'
p4912
I2
sS'brunt'
p4913
I2
sS'discounts'
p4914
I2
sS'routine'
p4915
I3
sS'antics'
p4916
I2
sS'7.0808'
p4917
I2
sS'armenia'
p4918
I2
sS'health-conscious'
p4919
I2
sS'buster'
p4920
I2
sS'taking'
p4921
I3
sS'attributed'
p4922
I4
sS'pulp'
p4923
I2
sS'assure'
p4924
I2
sS'liquidating'
p4925
I3
sS'attributes'
p4926
I2
sS'comment'
p4927
I8
sS'fostering'
p4928
I2
sS'clues'
p4929
I2
sS'disarmament'
p4930
I2
sS'manhood'
p4931
I2
sS'copies'
p4932
I2
sS'tyler'
p4933
I2
sS'indicators'
p4934
I4
sS'proposal'
p4935
I7
sS'pravda'
p4936
I4
sS'finished'
p4937
I2
sS'clusters'
p4938
I2
sS'general'
p4939
I25
sS'locales'
p4940
I2
sS'divisions'
p4941
I2
sS'crowds'
p4942
I2
sS'appearance'
p4943
I5
sS'value'
p4944
I11
sS'augusta'
p4945
I2
sS'instigated'
p4946
I2
sS'fault'
p4947
I2
sS'almost'
p4948
I7
sS"m'bow"
p4949
I4
sS'helped'
p4950
I5
sS'landfills'
p4951
I2
sS'claimed'
p4952
I4
sS'partner'
p4953
I7
sS'inspector'
p4954
I2
sS')'
I51
sS'administration'
p4955
I8
sS'mahatma'
p4956
I2
sS'fifth-largest'
p4957
I2
sS'frivolous'
p4958
I2
sS'injured'
p4959
I2
sS'kidnapping'
p4960
I2
sS'cubic'
p4961
I2
sS'reporting'
p4962
I4
sS'257.8'
p4963
I2
sS'recourse'
p4964
I2
sS'center'
p4965
I8
sS'ious'
p4966
I2
sS'thought'
p4967
I5
sS'sets'
p4968
I2
sS'nondemocratic'
p4969
I2
sS'muscle'
p4970
I3
sS'soviet'
p4971
I30
sS'latest'
p4972
I5
sS'stores'
p4973
I5
sS'executive'
p4974
I21
sS'domestic'
p4975
I11
sS'clinic'
p4976
I3
sS'41-lawyer'
p4977
I2
sS'seats'
p4978
I2
sS'tone'
p4979
I2
sS'ads'
p4980
I6
sS'demographic'
p4981
I2
sS'bench'
p4982
I6
sS'288'
p4983
I2
sS'add'
p4984
I3
sS'ought'
p4985
I5
sS'resolved'
p4986
I3
sS'tests'
p4987
I7
sS'judiciary'
p4988
I3
sS'hees'
p4989
I7
sS'displaced'
p4990
I2
sS'like'
p4991
I23
sS'success'
p4992
I6
sS'admitted'
p4993
I3
sS'works'
p4994
I3
sS'soft'
p4995
I3
sS'kucharski'
p4996
I2
sS'italian'
p4997
I2
sS'accessible'
p4998
I2
sS'cellists'
p4999
I2
sS'classical'
p5000
I3
sS'alive'
p5001
I2
sS'hair'
p5002
I3
sS'novelist'
p5003
I2
sS'righthander'
p5004
I2
sS'garrett'
p5005
I2
sS'hurricane'
p5006
I2
sS'assuming'
p5007
I2
sS'neurosurgeon'
p5008
I3
sS'expire'
p5009
I2
sS'although'
p5010
I11
sS'hospitable'
p5011
I2
sS'panel'
p5012
I4
sS'retribution'
p5013
I2
sS'about'
p5014
I57
sS'actual'
p5015
I3
sS'boards'
p5016
I2
sS'discard'
p5017
I2
sS'introduced'
p5018
I5
sS'baseless'
p5019
I2
sS'seniors'
p5020
I2
sS'depart'
p5021
I2
sS'billions'
p5022
I3
sS'guard'
p5023
I2
sS'female'
p5024
I3
sS'luxembourg-based'
p5025
I2
sS'currier'
p5026
I2
sS'1986'
p5027
I5
sS'1987'
p5028
I9
sS'1984'
p5029
I4
sS'1985'
p5030
I5
sS'1982'
p5031
I2
sS'1983'
p5032
I4
sS'1981'
p5033
I3
sS'general-practice'
p5034
I2
sS'1988'
p5035
I9
sS'1989'
p5036
I19
sS'stimulative'
p5037
I2
sS'biggest'
p5038
I5
sS'buy'
p5039
I12
sS'bus'
p5040
I2
sS'brand'
p5041
I5
sS'sequel'
p5042
I3
sS'but'
p5043
I142
sS'insured'
p5044
I4
sS'repeated'
p5045
I2
sS'8.27'
p5046
I2
sS'wealthier'
p5047
I3
sS'money-fund'
p5048
I3
sS'strident'
p5049
I2
sS'wise'
p5050
I2
sS'dangerous'
p5051
I2
sS'non-japanese'
p5052
I2
sS'flip'
p5053
I2
sS'seib'
p5054
I2
sS'lecheria'
p5055
I3
sS'minutes'
p5056
I4
sS'tastes'
p5057
I3
sS'wage-discrimination'
p5058
I2
sS'supreme'
p5059
I4
sS'recounts'
p5060
I2
sS'crusade'
p5061
I2
sS'periods'
p5062
I2
sS'83'
p5063
I2
sS'nazionale'
p5064
I2
sS'proceeds'
p5065
I5
sS'49'
p5066
I3
sS'46'
p5067
I2
sS'47'
p5068
I2
sS'44'
p5069
I4
sS'45'
p5070
I4
sS'42'
p5071
I2
sS'detail'
p5072
I4
sS'40'
p5073
I5
sS'surreal'
p5074
I2
sS'oat'
p5075
I3
sS'out'
p5076
I35
sS'stirred'
p5077
I2
sS'baker'
p5078
I2
sS'original'
p5079
I6
sS'biotechnology'
p5080
I3
sS'cookbook'
p5081
I2
sS'limited'
p5082
I9
sS'7.15'
p5083
I2
sS'hats'
p5084
I2
sS'facilities'
p5085
I6
sS'nwa'
p5086
I2
sS'1.12'
p5087
I2
sS'violate'
p5088
I3
sS'paris'
p5089
I3
sS'1.18'
p5090
I2
sS'7.62'
p5091
I2
sS'under'
p5092
I33
sS'stationery'
p5093
I2
sS'pride'
p5094
I3
sS'merchant'
p5095
I2
sS'lure'
p5096
I2
sS'u.s.-japan'
p5097
I2
sS'legislators'
p5098
I3
sS'risk'
p5099
I5
sS'rise'
p5100
I6
sS'position-squaring'
p5101
I2
sS'every'
p5102
I3
sS'softened'
p5103
I2
sS'harms'
p5104
I2
sS'missionary'
p5105
I2
sS'get-togethers'
p5106
I2
sS'school'
p5107
I6
sS'pooled'
p5108
I2
sS'antisony'
p5109
I2
sS'enjoy'
p5110
I4
sS'u.s.-philippine'
p5111
I2
sS'leaders'
p5112
I16
sS'estimates'
p5113
I6
sS'direct'
p5114
I4
sS'fabulous'
p5115
I2
sS'borrowings'
p5116
I2
sS'estimated'
p5117
I11
sS'shining'
p5118
I2
sS'anti-apartheid'
p5119
I2
sS'hide'
p5120
I2
sS'selected'
p5121
I2
sS'profitability'
p5122
I2
sS'poison'
p5123
I22
sS'conduct'
p5124
I2
sS'seeks'
p5125
I4
sS'hundreds'
p5126
I5
sS'studio'
p5127
I7
sS'connoisseur'
p5128
I2
sS'ventures'
p5129
I4
sS'changed'
p5130
I3
sS'tv'
p5131
I7
sS'analysts'
p5132
I8
sS'chateau'
p5133
I2
sS'changes'
p5134
I12
sS'issuers'
p5135
I3
sS'swearing'
p5136
I2
sS'feelings'
p5137
I2
sS'visible'
p5138
I3
sS'2692.65'
p5139
I2
sS'philip'
p5140
I2
sS'swings'
p5141
I3
sS'would'
p5142
I110
sS'hospital'
p5143
I3
sS'm.'
p5144
I2
sS'wordplay'
p5145
I2
sS'asset'
p5146
I2
sS'assessment'
p5147
I2
sS'preserved'
p5148
I2
sS'single-handedly'
p5149
I2
sS'naive'
p5150
I2
sS'muse'
p5151
I2
sS'phone'
p5152
I3
sS'excellent'
p5153
I2
sS'must'
p5154
I12
sS'me'
p5155
I11
sS'join'
p5156
I3
sS'crescott'
p5157
I2
sS'deficiencies'
p5158
I2
sS'install'
p5159
I3
sS'my'
p5160
I18
sS'loosen'
p5161
I2
sS'receivables'
p5162
I5
sS'florida'
p5163
I4
sS'preserving'
p5164
I2
sS'jetliner'
p5165
I2
sS'keep'
p5166
I9
sS'attract'
p5167
I3
sS'guarantee'
p5168
I2
sS'ceremony'
p5169
I2
sS'end'
p5170
I15
sS'75.1'
p5171
I2
sS'bunt'
p5172
I2
sS'accusations'
p5173
I2
sS'widespread'
p5174
I2
sS'badly'
p5175
I3
sS'pre-approved'
p5176
I2
sS'claptrap'
p5177
I2
sS'kavanagh'
p5178
I2
sS'amid'
p5179
I2
sS'acknowledged'
p5180
I3
sS'enter'
p5181
I3
sS'civil-service'
p5182
I2
sS'over'
p5183
I47
sS'expects'
p5184
I6
sS'london'
p5185
I12
sS'expectations'
p5186
I2
sS'writing'
p5187
I2
sS'16.3'
p5188
I2
sS'400'
p5189
I4
sS'diseases'
p5190
I2
sS'payouts'
p5191
I2
sS'matagorda'
p5192
I2
sS'roost'
p5193
I2
sS'mosher'
p5194
I2
sS'26.125'
p5195
I2
sS'tourism'
p5196
I2
sS'30-year'
p5197
I3
sS'alex'
p5198
I2
sS'detroit'
p5199
I3
sS'filling'
p5200
I2
sS'dollar-denominated'
p5201
I2
sS'affiliate'
p5202
I2
sS'each'
p5203
I24
sS'lasting'
p5204
I2
sS'signing'
p5205
I3
sS'autry'
p5206
I2
sS'group'
p5207
I37
sS'magnets'
p5208
I2
sS'combining'
p5209
I3
sS'saturday'
p5210
I2
sS't.'
p5211
I2
sS'looseleaf'
p5212
I2
sS'god'
p5213
I2
sS'collaborated'
p5214
I2
sS'laid'
p5215
I2
sS'got'
p5216
I5
sS'newly'
p5217
I3
sS'gop'
p5218
I2
sS'independence'
p5219
I2
sS'sept.'
p5220
I5
sS'merchandising'
p5221
I2
sS'free'
p5222
I10
sS'fred'
p5223
I2
sS'masterpiece'
p5224
I2
sS'streamline'
p5225
I3
sS'time-limited'
p5226
I5
sS'boosting'
p5227
I2
sS'wanted'
p5228
I5
sS'inexpensive'
p5229
I2
sS'days'
p5230
I31
sS'pence'
p5231
I4
sS'20th'
p5232
I2
sS'soda'
p5233
I2
sS'already'
p5234
I9
sS'researcher'
p5235
I5
sS'researches'
p5236
I2
sS'primary'
p5237
I3
sS'hearing'
p5238
I6
sS'adopted'
p5239
I8
sS'insulation'
p5240
I2
sS'their'
p5241
I84
sS'0.02'
p5242
I2
sS'top'
p5243
I12
sS'0.05'
p5244
I2
sS'too'
p5245
I14
sS'tom'
p5246
I2
sS'percentage'
p5247
I9
sS'urban'
p5248
I2
sS'tool'
p5249
I4
sS'serve'
p5250
I3
sS'took'
p5251
I11
sS'negotiating'
p5252
I3
sS'western'
p5253
I8
sS'longer-term'
p5254
I2
sS'roles'
p5255
I2
sS'bloated'
p5256
I2
sS'tourists'
p5257
I2
sS'18.8'
p5258
I2
sS'precocious'
p5259
I2
sS'classes'
p5260
I3
sS'bridge'
p5261
I2
sS'fashion'
p5262
I4
sS'ran'
p5263
I3
sS'talking'
p5264
I2
sS'epp'
p5265
I2
sS'rap'
p5266
I2
sS'seminar'
p5267
I2
sS'relatively'
p5268
I4
sS'1969'
p5269
I3
sS'thoroughly'
p5270
I2
sS'1967'
p5271
I2
sS'-'
I5
sS'isolated'
p5272
I2
sS'thorough'
p5273
I3
sS'investment'
p5274
I21
sS'teito'
p5275
I2
sS'though'
p5276
I9
sS'8.03'
p5277
I2
sS'8.01'
p5278
I2
sS'plenty'
p5279
I2
sS'8.05'
p5280
I3
sS'8.09'
p5281
I2
sS'treats'
p5282
I2
sS'flow'
p5283
I5
sS'treaty'
p5284
I9
sS'reputation'
p5285
I2
sS'after-tax'
p5286
I2
sS'entertaining'
p5287
I2
sS'agnew'
p5288
I2
sS'sanctuary'
p5289
I2
sS'reductions'
p5290
I3
sS'random'
p5291
I2
sS'sage'
p5292
I2
sS'colors'
p5293
I2
sS'radio'
p5294
I3
sS'bail'
p5295
I2
sS'sunsets'
p5296
I2
sS'20-year'
p5297
I2
sS'safest'
p5298
I2
sS'delays'
p5299
I2
sS'minnesota'
p5300
I2
sS'542'
p5301
I2
sS'announce'
p5302
I3
sS'oct'
p5303
I2
sS'5*slashhere*16'
p5304
I2
sS'criticized'
p5305
I2
sS'despite'
p5306
I11
sS'report'
p5307
I15
sS'interrogated'
p5308
I2
sS'19-year-olds'
p5309
I2
sS'countries'
p5310
I10
sS'twice'
p5311
I2
sS'shots'
p5312
I2
sS'mergers'
p5313
I2
sS'thanks'
p5314
I4
sS'car-crash'
p5315
I2
sS'habit'
p5316
I2
sS'liquor'
p5317
I2
sS'1960s'
p5318
I2
sS'keenan'
p5319
I8
sS'corrupt'
p5320
I3
sS'capacity'
p5321
I2
sS'interviewing'
p5322
I2
sS'machinists'
p5323
I2
sS'brushbacks'
p5324
I2
sS'finger'
p5325
I2
sS'362'
p5326
I2
sS'7.80'
p5327
I2
sS'adding'
p5328
I2
sS'weak'
p5329
I2
sS'however'
p5330
I11
sS'boss'
p5331
I2
sS'southeast'
p5332
I2
sS'censorship'
p5333
I2
sS'news'
p5334
I7
sS'sipped'
p5335
I2
sS'predates'
p5336
I2
sS'improve'
p5337
I8
sS'faced'
p5338
I2
sS'protect'
p5339
I7
sS'citicorp'
p5340
I3
sS'credit-card'
p5341
I5
sS'participating'
p5342
I2
sS'players'
p5343
I9
sS'merging'
p5344
I2
sS'games'
p5345
I2
sS'creditors'
p5346
I7
sS'faces'
p5347
I3
sS'expense'
p5348
I2
sS'telepictures'
p5349
I2
sS'karen'
p5350
I2
sS'towels'
p5351
I2
sS'trust'
p5352
I20
sS'conference'
p5353
I4
sS'jobless'
p5354
I4
sS'rebounded'
p5355
I2
sS'been'
p5356
I71
sS'quickly'
p5357
I7
sS'confident'
p5358
I2
sS'beer'
p5359
I7
sS'expected'
p5360
I24
sS'republicans'
p5361
I2
sS'search'
p5362
I2
sS'enterprises'
p5363
I2
sS'lorded'
p5364
I2
sS'catch'
p5365
I2
sS'feminine-care'
p5366
I2
sS'kentucky'
p5367
I2
sS'gumbel'
p5368
I2
sS'teachers'
p5369
I3
sS'precede'
p5370
I2
sS's&ls'
p5371
I2
sS'accessories'
p5372
I2
sS'expenses'
p5373
I2
sS'brewed'
p5374
I2
sS'experts'
p5375
I5
sS'complex'
p5376
I3
sS'isikoff'
p5377
I2
sS'several'
p5378
I19
sS'peaks'
p5379
I2
sS'workings'
p5380
I2
sS'insisted'
p5381
I2
sS'shortly'
p5382
I3
sS'neurologists'
p5383
I2
sS'charlie'
p5384
I2
sS'savings'
p5385
I4
sS'greatest'
p5386
I3
sS'mother'
p5387
I2
sS'hearts'
p5388
I2
sS'alabama'
p5389
I3
sS'outnumbered'
p5390
I2
sS'arousing'
p5391
I2
sS'authorize'
p5392
I2
sS'departed'
p5393
I2
sS'proposed'
p5394
I14
sS'unemployment'
p5395
I7
sS'proposes'
p5396
I2
sS'vivaldi-at-brunch'
p5397
I2
sS'resigning'
p5398
I2
sS'orange-and-blue'
p5399
I2
sS'greenwich'
p5400
I2
sS'exempting'
p5401
I2
sS'non-u.s.'
p5402
I2
sS'interprets'
p5403
I2
sS'sherbet'
p5404
I2
sS'gave'
p5405
I7
sS'casting'
p5406
I2
sS'bands'
p5407
I2
sS'judge'
p5408
I76
sS'appearing'
p5409
I2
sS'advanced'
p5410
I2
sS'apart'
p5411
I3
sS'martha'
p5412
I2
sS'59'
p5413
I3
sS'gift'
p5414
I2
sS'55'
p5415
I3
sS'54'
p5416
I4
sS'hunt'
p5417
I14
sS'51'
p5418
I2
sS'50'
p5419
I14
sS'53'
p5420
I3
sS'unsuspecting'
p5421
I2
sS'renamed'
p5422
I2
sS'offices'
p5423
I2
sS'officer'
p5424
I19
sS'awarded'
p5425
I3
sS'successfully'
p5426
I3
sS'malaysia'
p5427
I2
sS'donald'
p5428
I2
sS'election'
p5429
I3
sS'indirect'
p5430
I2
sS'specific'
p5431
I7
sS'clash'
p5432
I3
sS'orwellian'
p5433
I2
sS'reinvest'
p5434
I3
sS'ice'
p5435
I2
sS'everything'
p5436
I7
sS'newsprint'
p5437
I7
sS'banxquote'
p5438
I6
sS'flaps'
p5439
I3
sS'core'
p5440
I4
sS'disposed'
p5441
I2
sS'corn'
p5442
I2
sS'discount'
p5443
I7
sS'corp'
p5444
I4
sS'chapter'
p5445
I3
sS'burbank'
p5446
I2
sS'misleading'
p5447
I2
sS'ensure'
p5448
I2
sS'steadily'
p5449
I2
sS'efforts'
p5450
I12
sS'twitch'
p5451
I2
sS'presence'
p5452
I6
sS'civil'
p5453
I18
sS'accomplishments'
p5454
I3
sS'tribune'
p5455
I2
sS'transform'
p5456
I2
sS'class'
p5457
I8
sS'fought'
p5458
I4
sS'purposely'
p5459
I2
sS'head'
p5460
I7
sS'amateur'
p5461
I3
sS'fragrance'
p5462
I2
sS'dataproducts'
p5463
I3
sS'attempted'
p5464
I2
sS'differences'
p5465
I2
sS'removes'
p5466
I2
sS'libor'
p5467
I2
sS'payable'
p5468
I5
sS'heat'
p5469
I2
sS'hear'
p5470
I2
sS'insider-trading'
p5471
I3
sS'counsel'
p5472
I4
sS'versions'
p5473
I4
sS'compositional'
p5474
I2
sS'bids'
p5475
I9
sS'kitschy'
p5476
I2
sS'trim'
p5477
I2
sS'obfuscation'
p5478
I2
sS'peruvian'
p5479
I2
sS'suspicions'
p5480
I2
sS'0.60'
p5481
I2
sS'check'
p5482
I2
sS'propagandists'
p5483
I2
sS'faithful'
p5484
I2
sS'no'
p5485
I44
sS'when'
p5486
I49
sS'setting'
p5487
I4
sS'papers'
p5488
I3
sS'picture'
p5489
I3
sS'reconsider'
p5490
I2
sS'loan-loss'
p5491
I2
sS'unifirst'
p5492
I4
sS'cambria'
p5493
I12
sS'longer'
p5494
I6
sS'uncovered'
p5495
I2
sS'vietnam'
p5496
I4
sS'oeufs'
p5497
I2
sS'serious'
p5498
I2
sS'intimacy'
p5499
I2
sS'remarkable'
p5500
I3
sS'alternatives'
p5501
I2
sS'focus'
p5502
I2
sS'leads'
p5503
I2
sS'roy'
p5504
I2
sS'savings-type'
p5505
I3
sS'row'
p5506
I2
sS'environment'
p5507
I4
sS'charge'
p5508
I7
sS'promoting'
p5509
I2
sS'discovering'
p5510
I2
sS"l'heureux"
p5511
I2
sS'federation'
p5512
I2
sS'sloppy'
p5513
I2
sS'tanks'
p5514
I8
sS'cook'
p5515
I2
sS'8.61'
p5516
I2
sS'8.62'
p5517
I2
sS'8.63'
p5518
I2
sS'clouds'
p5519
I2
sS'impressive'
p5520
I2
sS'level'
p5521
I8
sS'philippines'
p5522
I6
sS'camaraderie'
p5523
I2
sS'posts'
p5524
I3
sS'hawaii'
p5525
I2
sS'standards'
p5526
I8
sS'yale'
p5527
I3
sS'quick'
p5528
I5
sS'money-market'
p5529
I2
sS'8.337'
p5530
I2
sS'heinz'
p5531
I2
sS'says'
p5532
I70
sS'tougher'
p5533
I4
sS'trend'
p5534
I3
sS'injunction'
p5535
I2
sS'journalistic'
p5536
I2
sS'takeoff'
p5537
I3
sS'substitute'
p5538
I4
sS'drinks'
p5539
I3
sS'constitution'
p5540
I3
sS'minikes'
p5541
I2
sS'goes'
p5542
I3
sS'water'
p5543
I2
sS'pioneered'
p5544
I3
sS'baseball'
p5545
I8
sS'groups'
p5546
I6
sS'crippled'
p5547
I2
sS'healthy'
p5548
I2
sS'lancaster'
p5549
I2
sS'proud'
p5550
I2
sS'navigation'
p5551
I2
sS'emerge'
p5552
I2
sS'shelled'
p5553
I2
sS'bribery'
p5554
I2
sS'paralyzed'
p5555
I3
sS'prompt'
p5556
I2
sS'crisis'
p5557
I2
sS'handled'
p5558
I2
sS'third-quarter'
p5559
I5
sS'sports'
p5560
I3
sS'handles'
p5561
I3
sS'criteria'
p5562
I2
sS'australian'
p5563
I2
sS'today'
p5564
I13
sS'unwarranted'
p5565
I2
sS'dismay'
p5566
I2
sS'7.0826'
p5567
I2
sS'cases'
p5568
I8
sS'tribunal'
p5569
I2
sS'local'
p5570
I12
sS'butterfat'
p5571
I4
sS'modified'
p5572
I2
sS'flagship'
p5573
I2
sS'ms.'
p5574
I13
sS'judy'
p5575
I2
sS'laughter'
p5576
I2
sS'performer'
p5577
I2
sS'figure'
p5578
I5
sS'demagoguery'
p5579
I2
sS'critic'
p5580
I3
sS'dropped'
p5581
I6
sS'parliamentary'
p5582
I2
sS'requirements'
p5583
I3
sS'secured'
p5584
I2
sS'1'
I18
sS'ornette'
p5585
I2
sS'fourth'
p5586
I5
sS'subsidiaries'
p5587
I2
sS'levy'
p5588
I5
sS'ky.'
p5589
I2
sS'huge'
p5590
I4
sS'birthday'
p5591
I2
sS'receptivity'
p5592
I2
sS'branches'
p5593
I4
sS'rollie'
p5594
I2
sS'liquid'
p5595
I2
sS'refund'
p5596
I2
sS'stonemason'
p5597
I2
sS'acts'
p5598
I2
sS'furnished'
p5599
I2
sS'undervalued'
p5600
I2
sS'mainly'
p5601
I2
sS'swank'
p5602
I3
sS'courthouse'
p5603
I3
sS'offers'
p5604
I4
sS'prebon'
p5605
I2
sS'delighted'
p5606
I2
sS'78,600'
p5607
I2
sS'31.25'
p5608
I2
sS'term'
p5609
I3
sS'name'
p5610
I8
sS'vt.'
p5611
I2
sS'possibilities'
p5612
I2
sS'weighted'
p5613
I3
sS'asbestos-related'
p5614
I2
sS'begun'
p5615
I2
sS'distributor'
p5616
I2
sS'obsession'
p5617
I2
sS'intended'
p5618
I4
sS'hacker'
p5619
I8
sS'ultimately'
p5620
I6
sS'factors'
p5621
I4
sS'profit'
p5622
I4
sS'factory'
p5623
I3
sS'attracted'
p5624
I4
sS'she'
p5625
I10
sS'attended'
p5626
I2
sS'rolls-royce'
p5627
I2
sS'dirk'
p5628
I2
sS'motion'
p5629
I2
sS'turn'
p5630
I5
sS'best-known'
p5631
I2
sS'place'
p5632
I2
sS'retreating'
p5633
I2
sS'turf'
p5634
I2
sS'laboratorium'
p5635
I2
sS'merrill'
p5636
I4
sS'revenue'
p5637
I11
sS'soaring'
p5638
I2
sS'array'
p5639
I2
sS'george'
p5640
I6
sS'millions'
p5641
I2
sS'given'
p5642
I5
sS'necessarily'
p5643
I2
sS'district'
p5644
I7
sS'trillion'
p5645
I5
sS'stimulation'
p5646
I3
sS'returns'
p5647
I5
sS'clinical'
p5648
I2
sS'white'
p5649
I13
sS'anesthetized'
p5650
I2
sS'gives'
p5651
I2
sS'exploring'
p5652
I2
sS'way'
p5653
I19
sS'season'
p5654
I7
sS'hun'
p5655
I3
sS'alan'
p5656
I3
sS'released'
p5657
I4
sS'copy'
p5658
I3
sS'holder'
p5659
I2
sS'wide'
p5660
I2
sS'unfortunately'
p5661
I4
sS'require'
p5662
I6
sS'diplomatic'
p5663
I3
sS'spokeswoman'
p5664
I2
sS'legacy'
p5665
I2
sS'mcbride'
p5666
I2
sS'cards'
p5667
I4
sS'theocracy'
p5668
I2
sS'and'
p5669
I721
sS'armored'
p5670
I3
sS'pro'
p5671
I2
sS'worcester'
p5672
I2
sS'rent'
p5673
I6
sS'sells'
p5674
I4
sS'any'
p5675
I28
sS'prosperity'
p5676
I2
sS'conversion'
p5677
I2
sS'ideas'
p5678
I3
sS'sciences'
p5679
I2
sS'ideal'
p5680
I3
sS'then-current'
p5681
I2
sS'urge'
p5682
I2
sS'sure'
p5683
I3
sS'multiple'
p5684
I2
sS'visitors'
p5685
I2
sS'cleared'
p5686
I2
sS'probes'
p5687
I2
sS'considered'
p5688
I9
sS'broberg'
p5689
I4
sS'adopt'
p5690
I2
sS'pores'
p5691
I2
sS'senior'
p5692
I19
sS'drastically'
p5693
I2
sS'ginseng'
p5694
I2
sS'allegations'
p5695
I7
sS'trespass'
p5696
I2
sS'hustles'
p5697
I2
sS'genius'
p5698
I2
sS'watergate-beleaguered'
p5699
I2
sS'state'
p5700
I38
sS'crime'
p5701
I3
sS'wood'
p5702
I2
sS'brissette'
p5703
I3
sS'cautioned'
p5704
I2
sS'dreaded'
p5705
I2
sS'viewpoint'
p5706
I2
sS'jazz'
p5707
I5
sS'begging'
p5708
I2
sS'expectation'
p5709
I2
sS'2210'
p5710
I2
sS'lighter'
p5711
I2
sS'closure'
p5712
I2
sS'reveal'
p5713
I2
sS'regarding'
p5714
I2
sS'high-backed'
p5715
I2
sS'paper'
p5716
I11
sS'predicted'
p5717
I2
sS'discussing'
p5718
I7
sS'ignored'
p5719
I2
sS'encourages'
p5720
I3
sS'violated'
p5721
I2
sS'baseball-loving'
p5722
I2
sS'college'
p5723
I4
sS'slashing'
p5724
I2
sS'stanley'
p5725
I6
sS'violates'
p5726
I2
sS'encouraged'
p5727
I2
sS'fails'
p5728
I2
sS'mortgage'
p5729
I30
sS'farmers'
p5730
I2
sS'ways'
p5731
I6
sS'review'
p5732
I7
sS'commitments'
p5733
I5
sS'weapons'
p5734
I9
sS'outside'
p5735
I4
sS'moslems'
p5736
I2
sS'8.44'
p5737
I2
sS'8.45'
p5738
I2
sS'8.40'
p5739
I2
sS'8.49'
p5740
I2
sS'diners'
p5741
I2
sS'unusually'
p5742
I2
sS'cities'
p5743
I2
sS'come'
p5744
I13
sS'reaction'
p5745
I2
sS'bite-sized'
p5746
I2
sS'acquiring'
p5747
I4
sS'missions'
p5748
I2
sS'mob'
p5749
I2
sS'region'
p5750
I2
sS'23'
p5751
I5
sS'berra'
p5752
I2
sS'contract'
p5753
I10
sS'columnist'
p5754
I2
sS'senator'
p5755
I2
sS'railway'
p5756
I2
sS'ntsb'
p5757
I2
sS'cabal'
p5758
I2
sS'billion-yen'
p5759
I2
sS'color'
p5760
I4
sS'cablevision'
p5761
I2
sS'colony'
p5762
I2
sS'period'
p5763
I10
sS'pop'
p5764
I4
sS'okobank'
p5765
I2
sS'61'
p5766
I3
sS'62'
p5767
I2
sS'white-haired'
p5768
I2
sS'65'
p5769
I2
sS'66'
p5770
I3
sS'one-stop'
p5771
I2
sS'68'
p5772
I3
sS'bizarre'
p5773
I3
sS'two-year'
p5774
I2
sS'turkey'
p5775
I2
sS'squaring'
p5776
I2
sS'howard'
p5777
I2
sS'3.53'
p5778
I2
sS'declining'
p5779
I4
sS'peaceful'
p5780
I2
sS'hardly'
p5781
I4
sS'500'
p5782
I10
sS'engine'
p5783
I2
sS'direction'
p5784
I5
sS'blessing'
p5785
I4
sS'andrew'
p5786
I2
sS'minister'
p5787
I7
sS'pilot'
p5788
I2
sS'paying'
p5789
I3
sS'per-capita'
p5790
I3
sS'myself'
p5791
I4
sS'mount'
p5792
I3
sS'thigh'
p5793
I2
sS'cash'
p5794
I14
sS'premature'
p5795
I2
sS'prime-1'
p5796
I2
sS'prime-2'
p5797
I2
sS'mound'
p5798
I2
sS'coupled'
p5799
I2
sS'telephone'
p5800
I5
sS'discrepancy'
p5801
I2
sS'good'
p5802
I15
sS'converts'
p5803
I2
sS'kimberly-clark'
p5804
I4
sS'mcgregor'
p5805
I2
sS'79.18'
p5806
I2
sS'author'
p5807
I2
sS'granted'
p5808
I3
sS'admit'
p5809
I2
sS'trip'
p5810
I2
sS'manila'
p5811
I2
sS'buys'
p5812
I2
sS'events'
p5813
I4
sS'week'
p5814
I18
sS'sherblom'
p5815
I2
sS'refusal'
p5816
I3
sS'driven'
p5817
I2
sS'delicate'
p5818
I3
sS'changing'
p5819
I2
sS'perennial'
p5820
I2
sS'minimize'
p5821
I2
sS'without'
p5822
I17
sS'relief'
p5823
I3
sS'components'
p5824
I2
sS'reward'
p5825
I2
sS'researchers'
p5826
I8
sS'justify'
p5827
I3
sS'actions'
p5828
I2
sS'lavish'
p5829
I2
sS'violent'
p5830
I3
sS'mazzera'
p5831
I2
sS'polish'
p5832
I2
sS'blow'
p5833
I2
sS'announcement'
p5834
I4
sS'assemblages'
p5835
I2
sS'rose'
p5836
I19
sS'seems'
p5837
I6
sS'except'
p5838
I2
sS'complain'
p5839
I4
sS'bloc'
p5840
I3
sS'rost'
p5841
I2
sS'disrupt'
p5842
I2
sS'sea'
p5843
I5
sS'ross'
p5844
I8
sS'scheduled'
p5845
I6
sS'virginia'
p5846
I4
sS'loaned'
p5847
I2
sS'1472.76'
p5848
I2
sS'inflation'
p5849
I2
sS'accepted'
p5850
I6
sS'unwilling'
p5851
I2
sS'furniture'
p5852
I2
sS'walt'
p5853
I2
sS'standstill'
p5854
I3
sS'kennedy'
p5855
I3
sS'reduces'
p5856
I2
sS'reduced'
p5857
I5
sS'shunned'
p5858
I2
sS'deduct'
p5859
I2
sS'burdens'
p5860
I2
sS'nikkei'
p5861
I3
sS'pacific'
p5862
I6
sS'multimillion-dollar'
p5863
I2
sS'intact'
p5864
I3
sS'top-secret'
p5865
I2
sS'provided'
p5866
I4
sS'mood'
p5867
I3
sS'legal'
p5868
I8
sS'moon'
p5869
I18
sS'provides'
p5870
I3
sS'provider'
p5871
I3
sS'porter'
p5872
I2
sS'norberto'
p5873
I2
sS'beaches'
p5874
I2
sS'on'
p5875
I215
sS'of'
p5876
I915
sS'discussed'
p5877
I3
sS'mutually'
p5878
I2
sS'stand'
p5879
I5
sS'tariffs'
p5880
I2
sS'or'
p5881
I107
sS'cambridge'
p5882
I2
sS'instruments'
p5883
I6
sS'spinal'
p5884
I5
sS'rising'
p5885
I3
sS'determine'
p5886
I4
sS'burton'
p5887
I2
sS'there'
p5888
I37
sS'alleged'
p5889
I4
sS'christianity'
p5890
I2
sS'strict'
p5891
I3
sS'strong'
p5892
I6
sS'fastball'
p5893
I3
sS'11*slashhere*16'
p5894
I3
sS'fundamentals'
p5895
I2
sS'promote'
p5896
I4
sS'street-corner'
p5897
I3
sS'wholesale'
p5898
I3
sS'grasp'
p5899
I2
sS'life-insurance'
p5900
I2
sS'triple-a'
p5901
I6
sS'taste'
p5902
I2
sS'totaling'
p5903
I5
sS'cbs'
p5904
I5
sS'britain'
p5905
I7
sS'ingeniously'
p5906
I2
sS'99.1875'
p5907
I3
sS'politics'
p5908
I2
sS'belzbergs'
p5909
I2
sS'scotches'
p5910
I2
sS'onerous'
p5911
I2
sS'4.2'
p5912
I4
sS'4.9'
p5913
I2
sS'rubber'
p5914
I2
sS'roses'
p5915
I2
sS'5'
I7
sS'trash'
p5916
I2
sS'separate'
p5917
I9
sS'includes'
p5918
I3
sS'included'
p5919
I3
sS'funding'
p5920
I4
sS'spouse'
p5921
I2
sS'slowball'
p5922
I2
sS'arsenals'
p5923
I3
sS'calls'
p5924
I4
sS'refinanced'
p5925
I3
sS'invest'
p5926
I4
sS'odds'
p5927
I3
sS'directors'
p5928
I5
sS'all'
p5929
I40
sS'chinese'
p5930
I12
sS'720,000'
p5931
I2
sS'dish'
p5932
I2
sS'settlement'
p5933
I15
sS'decisions'
p5934
I3
sS'jerome'
p5935
I2
sS'apartment'
p5936
I2
sS'subjected'
p5937
I2
sS'agro-industry'
p5938
I2
sS'opportunities'
p5939
I2
sS'lavoro'
p5940
I2
sS'dairy'
p5941
I3
sS'lawmakers'
p5942
I3
sS'activities'
p5943
I7
sS'woman'
p5944
I3
sS'worse'
p5945
I3
sS'song'
p5946
I3
sS'far'
p5947
I14
sS'fat'
p5948
I3
sS'worst'
p5949
I3
sS'sony'
p5950
I17
sS'morley'
p5951
I2
sS'stimulus'
p5952
I2
sS'quipped'
p5953
I2
sS'employing'
p5954
I2
sS'tel'
p5955
I2
sS'tea'
p5956
I2
sS'90.5'
p5957
I2
sS'dalton'
p5958
I2
sS'rate'
p5959
I25
sS'haag'
p5960
I3
sS'distributorship'
p5961
I2
sS'what'
p5962
I25
sS'sun'
p5963
I3
sS'brief'
p5964
I2
sS'version'
p5965
I3
sS'disbursed'
p5966
I2
sS'guns'
p5967
I2
sS'toes'
p5968
I3
sS'christian'
p5969
I2
sS'teodorani'
p5970
I2
sS'supposedly'
p5971
I2
sS'retraining'
p5972
I2
sS'andrews'
p5973
I2
sS'berkeley'
p5974
I8
sS'tragedy'
p5975
I2
sS'naval'
p5976
I4
sS'd.c'
p5977
I2
sS'allows'
p5978
I3
sS'gleeful'
p5979
I2
sS'ana'
p5980
I2
sS'options'
p5981
I8
sS'1721.4'
p5982
I2
sS'arms-control'
p5983
I4
sS'fla.'
p5984
I2
sS'florence'
p5985
I4
sS'clifford'
p5986
I3
sS'markets'
p5987
I23
sS'minor'
p5988
I5
sS'horses'
p5989
I2
sS'flat'
p5990
I4
sS'israel'
p5991
I5
sS'knows'
p5992
I2
sS're-elected'
p5993
I2
sS'big-time'
p5994
I2
sS'mellow'
p5995
I3
sS'computers'
p5996
I11
sS'division'
p5997
I6
sS'protects'
p5998
I2
sS'pond'
p5999
I2
sS'chores'
p6000
I3
sS'5.4'
p6001
I2
sS'goal'
p6002
I2
sS'5.6'
p6003
I2
sS'acrimony'
p6004
I3
sS'5.9'
p6005
I2
sS'breaking'
p6006
I9
sS'occasionally'
p6007
I2
sS'stemming'
p6008
I2
sS'speeding'
p6009
I2
sS'explains'
p6010
I2
sS'prepayment'
p6011
I4
sS'lighting'
p6012
I6
sS'unsurprising'
p6013
I2
sS'concentrating'
p6014
I2
sS'dissolving'
p6015
I2
sS'short'
p6016
I6
sS'perhaps'
p6017
I6
sS'shore'
p6018
I2
sS'turnover'
p6019
I3
sS'september'
p6020
I11
sS'developed'
p6021
I5
sS'mission'
p6022
I3
sS'airing'
p6023
I3
sS'inquiries'
p6024
I2
sS'developer'
p6025
I2
sS'style'
p6026
I3
sS'agnelli'
p6027
I16
sS'environmentalist'
p6028
I2
sS'harmless'
p6029
I2
sS'strange'
p6030
I2
sS'disagrees'
p6031
I2
sS'stephen'
p6032
I2
sS'soccer'
p6033
I2
sS'might'
p6034
I24
sS'alter'
p6035
I2
sS'return'
p6036
I10
sS'hunter'
p6037
I2
sS'communities'
p6038
I3
sS'bancorp'
p6039
I3
sS'bigger'
p6040
I3
sS'marcus'
p6041
I2
sS'adjacent'
p6042
I2
sS'transportable'
p6043
I2
sS'characterized'
p6044
I2
sS'weighs'
p6045
I2
sS'weight'
p6046
I2
sS'generation'
p6047
I2
sS'fixture'
p6048
I2
sS'brother'
p6049
I2
sS'expect'
p6050
I11
sS'telltale'
p6051
I2
sS'imploring'
p6052
I2
sS'health'
p6053
I5
sS'congenial'
p6054
I2
sS'compounding'
p6055
I2
sS'fiber'
p6056
I2
sS'wisconsin'
p6057
I3
sS'friday'
p6058
I4
sS'abounds'
p6059
I2
sS'four-month'
p6060
I2
sS'generate'
p6061
I2
sS'lag'
p6062
I2
sS'fiat'
p6063
I6
sS'introduction'
p6064
I2
sS'deja'
p6065
I2
sS'ebensburg'
p6066
I6
sS'throws'
p6067
I2
sS'feed'
p6068
I2
sS'feel'
p6069
I8
sS'babelists'
p6070
I2
sS'fancy'
p6071
I3
sS'traveled'
p6072
I2
sS'feet'
p6073
I4
sS'resnick'
p6074
I2
sS'fees'
p6075
I4
sS'slower'
p6076
I3
sS'passes'
p6077
I3
sS'story'
p6078
I2
sS'leading'
p6079
I6
sS'interviews'
p6080
I2
sS'180'
p6081
I3
sS'passed'
p6082
I3
sS'finances'
p6083
I2
sS'recovered'
p6084
I2
sS'headache'
p6085
I2
sS'pipelines'
p6086
I2
sS'hotel'
p6087
I2
sS'60'
p6088
I7
sS'treasurer'
p6089
I2
sS'convinced'
p6090
I2
sS'five-course'
p6091
I2
sS'reliever'
p6092
I2
sS'king'
p6093
I3
sS'kind'
p6094
I3
sS'nagging'
p6095
I2
sS'double'
p6096
I2
sS'arcata'
p6097
I2
sS'risks'
p6098
I2
sS'midmorning'
p6099
I2
sS'risky'
p6100
I2
sS'outstanding'
p6101
I7
sS'strengthen'
p6102
I5
sS'imports'
p6103
I2
sS'berthold'
p6104
I4
sS'shrewd'
p6105
I2
sS'depleted'
p6106
I2
sS'oriole'
p6107
I2
sS'nights'
p6108
I2
sS'cropped'
p6109
I2
sS'conforming'
p6110
I2
sS'chairman'
p6111
I22
sS'finding'
p6112
I3
sS'sherry'
p6113
I2
sS'stennett'
p6114
I2
sS'fresca'
p6115
I4
sS'added'
p6116
I13
sS'critics'
p6117
I5
sS'electric'
p6118
I5
sS'42,455'
p6119
I2
sS'intervened'
p6120
I2
sS'goldman'
p6121
I2
sS'measures'
p6122
I4
sS'reach'
p6123
I3
sS'76'
p6124
I2
sS'75'
p6125
I3
sS'shareholder'
p6126
I6
sS'72'
p6127
I3
sS'70'
p6128
I4
sS'nothing'
p6129
I5
sS'seasons'
p6130
I2
sS'prestige'
p6131
I2
sS'soared'
p6132
I2
sS'stands'
p6133
I3
sS'patterned'
p6134
I2
sS'gas-tax-increasing'
p6135
I2
sS'dealers'
p6136
I3
sS'45-year-old'
p6137
I3
sS'institutions'
p6138
I11
sS'lying'
p6139
I2
sS'painewebber'
p6140
I2
sS'stones'
p6141
I2
sS'rtc'
p6142
I8
sS'lay'
p6143
I2
sS'restarters'
p6144
I2
sS'cds'
p6145
I6
sS'deserts'
p6146
I2
sS'penalty'
p6147
I5
sS'counterpoint'
p6148
I3
sS'his'
p6149
I139
sS'founding'
p6150
I3
sS'gains'
p6151
I6
sS'compiled'
p6152
I2
sS'mortgage-backed'
p6153
I3
sS'5,000'
p6154
I3
sS'industrywide'
p6155
I2
sS'him'
p6156
I29
sS'grievances'
p6157
I3
sS'statism'
p6158
I2
sS'investigate'
p6159
I2
sS'statist'
p6160
I2
sS'activity'
p6161
I4
sS'precaution'
p6162
I2
sS'wrote'
p6163
I11
sS'dump'
p6164
I2
sS'evangelist-industrialist'
p6165
I2
sS'defense'
p6166
I2
sS'are'
p6167
I163
sS'cleverly'
p6168
I2
sS'chambers'
p6169
I4
sS'2.7'
p6170
I2
sS'2.6'
p6171
I3
sS'declined'
p6172
I7
sS'2.4'
p6173
I4
sS'spirited'
p6174
I2
sS'invest*slashhere*net'
p6175
I2
sS'user'
p6176
I3
sS'various'
p6177
I9
sS'consecutive'
p6178
I3
sS'corruption'
p6179
I3
sS'solo'
p6180
I2
sS'korea'
p6181
I12
sS'recently'
p6182
I16
sS'creating'
p6183
I2
sS'initially'
p6184
I2
sS'sold'
p6185
I17
sS'sole'
p6186
I3
sS'outfit'
p6187
I2
sS'succeed'
p6188
I3
sS'opposition'
p6189
I2
sS'franchise'
p6190
I4
sS'franchisee'
p6191
I2
sS'license'
p6192
I2
sS'oversee'
p6193
I2
sS'rubendall'
p6194
I4
sS'became'
p6195
I8
sS'redemptions'
p6196
I2
sS'context'
p6197
I2
sS'nahas'
p6198
I4
sS'flies'
p6199
I2
sS'regulates'
p6200
I2
sS'duplicity'
p6201
I2
sS'reasons'
p6202
I5
sS'sweet'
p6203
I2
sS'slots'
p6204
I2
sS'bolster'
p6205
I3
sS'decline'
p6206
I3
sS'duo'
p6207
I3
sS'352-mile'
p6208
I2
sS'hashidate'
p6209
I2
sS'due'
p6210
I11
sS'strategy'
p6211
I4
sS'whom'
p6212
I2
sS'reduction'
p6213
I2
sS'3*slashhere*4'
p6214
I9
sS'orioles'
p6215
I2
sS'3*slashhere*8'
p6216
I2
sS'chandler'
p6217
I2
sS'woke'
p6218
I2
sS'flight'
p6219
I2
sS'precision'
p6220
I2
sS'vaguely'
p6221
I2
sS'brokers'
p6222
I3
sS'demand'
p6223
I4
sS'plants'
p6224
I3
sS'stolen'
p6225
I3
sS'anticult'
p6226
I2
sS'unprecedented'
p6227
I2
sS'tweaking'
p6228
I2
sS'p.'
p6229
I4
sS'miles'
p6230
I2
sS'19.7'
p6231
I3
sS'uninspired'
p6232
I2
sS'disappointing'
p6233
I2
sS'obstacle'
p6234
I2
sS'headway'
p6235
I2
sS'chauffeur'
p6236
I2
sS'lengthy'
p6237
I2
sS'ample'
p6238
I3
sS'widely'
p6239
I4
sS'peoples'
p6240
I3
sS'9'
I8
sS'advise'
p6241
I3
sS'daughters'
p6242
I2
sS'higher'
p6243
I14
sS'biochemist'
p6244
I2
sS'painless'
p6245
I2
sS'negotiate'
p6246
I3
sS'flown'
p6247
I2
sS'moving'
p6248
I5
sS'anti-japanese'
p6249
I2
sS'lower'
p6250
I12
sS'cheek'
p6251
I2
sS'bounces'
p6252
I2
sS'analysis'
p6253
I2
sS'cheer'
p6254
I2
sS'edge'
p6255
I3
sS'machinery'
p6256
I4
sS'mellowed'
p6257
I2
sS'grievance'
p6258
I3
sS'abilities'
p6259
I2
sS'52.4'
p6260
I2
sS'competitive'
p6261
I2
sS'questions'
p6262
I5
sS'immediately'
p6263
I4
sS'regardless'
p6264
I2
sS'prince'
p6265
I3
sS'profitable'
p6266
I4
sS'old-time'
p6267
I2
sS'advisers'
p6268
I2
sS'workers'
p6269
I8
sS'9.19'
p6270
I2
sS'exclusively'
p6271
I2
sS'contractor'
p6272
I2
sS"tong'il"
p6273
I2
sS'tamer'
p6274
I2
sS'complaint'
p6275
I3
sS'discriminatory'
p6276
I2
sS'moody'
p6277
I13
sS'shapes'
p6278
I2
sS'collect'
p6279
I2
sS'yorker'
p6280
I3
sS'hallmark'
p6281
I2
sS'3.6'
p6282
I3
sS'understood'
p6283
I2
sS'3.5'
p6284
I3
sS'3.2'
p6285
I2
sS'3.8'
p6286
I2
sS'3.9'
p6287
I2
sS'incendiary'
p6288
I2
sS'seller'
p6289
I2
sS'bankruptcy-law'
p6290
I3
sS'innovation'
p6291
I2
sS'anne'
p6292
I2
sS'payments'
p6293
I13
sS'mutts'
p6294
I2
sS'under-reported'
p6295
I2
sS'lose'
p6296
I8
sS'refused'
p6297
I5
sS'4.67'
p6298
I2
sS'hindemith'
p6299
I2
sS'refuses'
p6300
I2
sS'dormant'
p6301
I2
sS'guber-peters'
p6302
I6
sS'pipeline'
p6303
I4
sS'range'
p6304
I5
sS'hatred'
p6305
I2
sS'resiliency'
p6306
I2
sS'procter'
p6307
I2
sS'intraday'
p6308
I2
sS'introverted'
p6309
I2
sS'question'
p6310
I5
sS'fast'
p6311
I3
sS'back-pay'
p6312
I2
sS'vienna'
p6313
I3
sS'files'
p6314
I4
sS'mountains'
p6315
I2
sS'plunge'
p6316
I2
sS'memory'
p6317
I5
sS'goods-producing'
p6318
I2
sS'filed'
p6319
I16
sS'raising'
p6320
I5
sS'declarations'
p6321
I2
sS'called'
p6322
I12
sS'associated'
p6323
I3
sS'quantification'
p6324
I2
sS'associates'
p6325
I5
sS'rally'
p6326
I2
sS'dessert-menu'
p6327
I2
sS'119'
p6328
I2
sS'peace'
p6329
I5
sS'backs'
p6330
I2
sS'income'
p6331
I6
sS'mcdonnell'
p6332
I4
sS'muddled'
p6333
I2
sS'six-cent'
p6334
I2
sS'problems'
p6335
I8
sS'helping'
p6336
I2
sS'generated'
p6337
I3
sS'chugoku'
p6338
I2
sS'allowing'
p6339
I3
sS'pottery'
p6340
I2
sS'vice'
p6341
I21
sS'departments'
p6342
I2
sS'remic'
p6343
I2
sS'intentional'
p6344
I2
sS'once'
p6345
I14
sS'issued'
p6346
I6
sS'resistance'
p6347
I2
sS'steve'
p6348
I3
sS'windy'
p6349
I3
sS'timberland'
p6350
I2
sS'issues'
p6351
I18
sS'disposal'
p6352
I2
sS'stable'
p6353
I3
sS'breach'
p6354
I2
sS'include'
p6355
I7
sS'1988-return'
p6356
I2
sS'disquieting'
p6357
I2
sS'drinking'
p6358
I2
sS'posture'
p6359
I2
sS'notes'
p6360
I14
sS'deals'
p6361
I2
sS'three-judge'
p6362
I2
sS'noted'
p6363
I2
sS'concluded'
p6364
I2
sS'someday'
p6365
I2
sS'smaller'
p6366
I4
sS'gripping'
p6367
I2
sS'wrestling'
p6368
I2
sS'malice'
p6369
I2
sS'beanballs'
p6370
I2
sS'abominable'
p6371
I2
sS'growers'
p6372
I3
sS'makers'
p6373
I9
sS'concessions'
p6374
I2
sS'networks'
p6375
I2
sS'waiting'
p6376
I2
sS'gubernatorial'
p6377
I2
sS'capital'
p6378
I17
sS'realignments'
p6379
I2
sS'n.m'
p6380
I2
sS'n.j'
p6381
I2
sS'degree'
p6382
I2
sS'pushing'
p6383
I2
sS'n.y'
p6384
I2
sS'horse-breeding'
p6385
I2
sS'incriminating'
p6386
I2
sS'fulton'
p6387
I2
sS'spy'
p6388
I4
sS'apt'
p6389
I2
sS'scaled'
p6390
I2
sS'motor'
p6391
I8
sS'apply'
p6392
I6
sS'fed'
p6393
I4
sS'fee'
p6394
I2
sS'from'
p6395
I173
sS'hippie'
p6396
I2
sS'consumption'
p6397
I5
sS'&'
I35
sS'few'
p6398
I16
sS'weeping'
p6399
I2
sS'december'
p6400
I8
sS'timetable'
p6401
I2
sS'parliament'
p6402
I2
sS'journalists'
p6403
I3
sS'inclined'
p6404
I3
sS'posturing'
p6405
I2
sS'shostakovich'
p6406
I2
sS'women'
p6407
I2
sS'1980s'
p6408
I2
sS'us$'
p6409
I3
sS'stroke'
p6410
I3
sS'lumber'
p6411
I2
sS'performed'
p6412
I2
sS'payroll-tax'
p6413
I2
sS'tap'
p6414
I2
sS'120-day'
p6415
I3
sS'0.1'
p6416
I2
sS'0.3'
p6417
I2
sS'0.2'
p6418
I3
sS'tax'
p6419
I19
sS'0.4'
p6420
I2
sS'something'
p6421
I5
sS'summers'
p6422
I2
sS'united'
p6423
I7
sS'sit'
p6424
I3
sS'six'
p6425
I14
sS'slovenian'
p6426
I2
sS'traders'
p6427
I5
sS'brian'
p6428
I2
sS'3642.90'
p6429
I2
sS'instead'
p6430
I8
sS'tension'
p6431
I2
sS'restructured'
p6432
I2
sS'tack'
p6433
I2
sS'men'
p6434
I5
sS'ethnic'
p6435
I2
sS'improviser'
p6436
I2
sS'light'
p6437
I13
sS'chapman'
p6438
I2
sS'improvised'
p6439
I2
sS'tropics'
p6440
I4
sS'looks'
p6441
I2
sS'quake'
p6442
I2
sS'obeisance'
p6443
I2
sS'superior'
p6444
I2
sS'complicate'
p6445
I2
sS'ships'
p6446
I2
sS'anti-nuclear'
p6447
I2
sS'permanent'
p6448
I2
sS'restrain'
p6449
I2
sS'covered'
p6450
I3
sS'holiday'
p6451
I4
sS'defining'
p6452
I2
sS'pending'
p6453
I3
sS'8.3875'
p6454
I2
sS'crash'
p6455
I8
sS'contention'
p6456
I2
sS'orthodox'
p6457
I2
sS'material'
p6458
I3
sS'republican'
p6459
I3
sS'investor'
p6460
I5
sS'fled'
p6461
I3
sS'articles'
p6462
I2
sS'recorded-music'
p6463
I2
sS'nfl'
p6464
I2
sS'trimmed'
p6465
I2
sS'bickford'
p6466
I2
sS'bills'
p6467
I6
sS'studios'
p6468
I2
sS'registration'
p6469
I3
sS'3.45'
p6470
I2
sS'related'
p6471
I2
sS'89'
p6472
I2
sS'geiger'
p6473
I3
sS'our'
p6474
I13
sS'80'
p6475
I3
sS'85'
p6476
I2
sS'category'
p6477
I2
sS'honorably'
p6478
I2
sS'unencumbered'
p6479
I2
sS'thrifts'
p6480
I3
sS'disclose'
p6481
I2
sS'dictionary'
p6482
I2
sS'southern'
p6483
I4
sS'provident'
p6484
I2
sS'york'
p6485
I21
sS'broker-dealer'
p6486
I2
sS'segregated'
p6487
I2
sS'navies'
p6488
I2
sS'ltd'
p6489
I6
sS'biting'
p6490
I2
sS'lagged'
p6491
I2
sS'plainly'
p6492
I2
sS'baby-faced'
p6493
I2
sS'galvanized'
p6494
I2
sS'tacker'
p6495
I4
sS'proposing'
p6496
I2
sS'probation'
p6497
I2
sS'kingman'
p6498
I2
sS'publication'
p6499
I2
sS'priority'
p6500
I2
sS'wood-paneled'
p6501
I2
sS'tidbit'
p6502
I2
sS'shelf'
p6503
I3
sS'doomed'
p6504
I2
sS'debate'
p6505
I10
sS'slides'
p6506
I2
sS'reflecting'
p6507
I2
sS'july'
p6508
I9
sS'chisholm'
p6509
I2
sS'institution'
p6510
I2
sS'cash-flush'
p6511
I2
sS'kickback'
p6512
I2
sS'patients'
p6513
I3
sS'encore'
p6514
I2
sS'1.4'
p6515
I2
sS'1.6'
p6516
I2
sS'1.1'
p6517
I3
sS'1.2'
p6518
I2
sS'1.3'
p6519
I2
sS'1.8'
p6520
I2
sS'1.9'
p6521
I2
sS'westward'
p6522
I2
sS'sincerity'
p6523
I2
sS'faux'
p6524
I2
sS'8.50'
p6525
I3
sS'linked'
p6526
I2
sS'pallor'
p6527
I2
sS'agency'
p6528
I31
sS'which'
p6529
I94
sS'alienating'
p6530
I2
sS'feared'
p6531
I3
sS'first-quarter'
p6532
I2
sS'combat'
p6533
I3
sS'collaboration'
p6534
I2
sS'who'
p6535
I90
sS'accountants'
p6536
I4
sS'why'
p6537
I4
sS'administrators'
p6538
I2
sS'410,000'
p6539
I2
sS'looked'
p6540
I4
sS'movie'
p6541
I2
sS'gain'
p6542
I5
sS'bulging'
p6543
I2
sS'chances'
p6544
I2
sS'agreed'
p6545
I14
sS'planning'
p6546
I3
sS'democrats'
p6547
I6
sS'fear'
p6548
I3
sS'feat'
p6549
I2
sS'pleased'
p6550
I3
sS'litigation'
p6551
I3
sS'bottling'
p6552
I4
sS'piano'
p6553
I2
sS'thousands'
p6554
I3
sS'q.'
p6555
I2
sS'sued'
p6556
I2
sS'watching'
p6557
I2
sS'midnight'
p6558
I2
sS'massacre'
p6559
I2
sS'ones'
p6560
I4
sS'penetrate'
p6561
I2
sS'mulford'
p6562
I9
sS'brain'
p6563
I19
sS'married'
p6564
I2
sS'view'
p6565
I2
sS'available'
p6566
I5
sS'acquired'
p6567
I7
sS'unfairly'
p6568
I2
sS'acquirer'
p6569
I2
sS'acquires'
p6570
I2
sS'mid-november'
p6571
I2
sS'favor'
p6572
I3
sS'projecting'
p6573
I2
sS'closed'
p6574
I12
sS'pure-voiced'
p6575
I2
sS'frustrated'
p6576
I2
sS'bought'
p6577
I6
sS'weighing'
p6578
I2
sS'ability'
p6579
I3
sS'opening'
p6580
I7
sS'beverages'
p6581
I2
sS'agencies'
p6582
I9
sS'embarrassment'
p6583
I2
sS'job'
p6584
I7
sS'takeover'
p6585
I6
sS'joe'
p6586
I2
sS'probing'
p6587
I2
sS'jon'
p6588
I2
sS'april'
p6589
I4
sS'strengthens'
p6590
I2
sS'unclear'
p6591
I2
sS'wall'
p6592
I7
sS'grinevsky'
p6593
I2
sS'narrower'
p6594
I2
sS'ploys'
p6595
I2
sS'packaging'
p6596
I3
sS'table'
p6597
I2
sS'bottlers'
p6598
I2
sS'unhappiness'
p6599
I2
sS'flashes'
p6600
I3
sS'fishery'
p6601
I2
sS'trademark'
p6602
I2
sS'730'
p6603
I2
sS'arbitrator'
p6604
I8
sS'agreements'
p6605
I4
sS'remedies'
p6606
I2
sS'beatrice'
p6607
I2
sS'thrusting'
p6608
I2
sS'defunct'
p6609
I3
sS'scrutiny'
p6610
I4
sS'improved'
p6611
I2
sS'21.18'
p6612
I2
sS'present'
p6613
I3
sS'wily'
p6614
I2
sS'unlike'
p6615
I2
sS'overuse'
p6616
I2
sS'vanilla'
p6617
I2
sS'choices'
p6618
I2
sS'will'
p6619
I135
sS'non-proliferation'
p6620
I2
sS'thus'
p6621
I2
sS'audiences'
p6622
I4
sS'dual'
p6623
I2
sS'lightweight'
p6624
I2
sS'co-edited'
p6625
I2
sS'stadiums'
p6626
I3
sS'vintage'
p6627
I2
sS'privileges'
p6628
I3
sS'member'
p6629
I5
sS'largest'
p6630
I12
sS'units'
p6631
I5
sS'gets'
p6632
I2
sS'burnouts'
p6633
I2
sS'difficult'
p6634
I8
sS'premiere'
p6635
I2
sS'disagree'
p6636
I2
sS'correspondent'
p6637
I2
sS'approve'
p6638
I3
sS'fighting'
p6639
I2
sS'english'
p6640
I3
sS'decliners'
p6641
I2
sS'inc.'
p6642
I40
sS'routinely'
p6643
I3
sS'heavily'
p6644
I3
sS'gyrations'
p6645
I2
sS'obtain'
p6646
I2
sS'fishing'
p6647
I2
sS'7*slashhere*16'
p6648
I5
sS'rapid'
p6649
I2
sS'sublime'
p6650
I2
sS'supply'
p6651
I2
sS'sky'
p6652
I2
sS'clyde'
p6653
I2
sS'other'
p6654
I64
sS'adoption'
p6655
I3
sS'attractive'
p6656
I3
sS'pampers'
p6657
I2
sS'sick'
p6658
I3
sS'provisions'
p6659
I3
sS'protesters'
p6660
I5
sS'republics'
p6661
I2
sS'know'
p6662
I8
sS'catchers'
p6663
I2
sS'press'
p6664
I9
sS'miami'
p6665
I2
sS'perpetual'
p6666
I2
sS'loses'
p6667
I2
sS'taxpayers'
p6668
I11
sS'hosts'
p6669
I2
sS'construe'
p6670
I2
sS'james'
p6671
I6
sS'stain-resistant'
p6672
I2
sS'parity'
p6673
I6
sS'5,600'
p6674
I2
sS'because'
p6675
I35
sS'scottish'
p6676
I2
sS'searching'
p6677
I2
sS'115'
p6678
I2
sS'demeanor'
p6679
I2
sS'growth'
p6680
I9
sS'export'
p6681
I2
sS'empire'
p6682
I2
sS'employment'
p6683
I2
sS'wellesley'
p6684
I2
sS'lead'
p6685
I6
sS'severance'
p6686
I2
sS'lean'
p6687
I2
sS'york-based'
p6688
I2
sS'leader'
p6689
I15
sS'thoroughfare'
p6690
I2
sS'27.6'
p6691
I2
sS'27.4'
p6692
I2
sS'rare'
p6693
I4
sS'carried'
p6694
I2
sS'getting'
p6695
I7
sS'urged'
p6696
I3
sS'carries'
p6697
I4
sS'carrier'
p6698
I6
sS'sweat'
p6699
I2
sS'urges'
p6700
I2
sS'own'
p6701
I16
sS'polished'
p6702
I2
sS'owe'
p6703
I4
sS'warrants'
p6704
I4
sS'promise'
p6705
I3
sS'lawful'
p6706
I5
sS'yankee'
p6707
I2
sS'texaco'
p6708
I2
sS'transfer'
p6709
I3
sS'continental'
p6710
I3
sS'intention'
p6711
I2
sS'ed'
p6712
I2
sS'breeding'
p6713
I2
sS'triggered'
p6714
I4
sS'multistate'
p6715
I2
sS'funds'
p6716
I15
sS'volume'
p6717
I6
sS'automated'
p6718
I2
sS'squeeze'
p6719
I2
sS'made'
p6720
I24
sS'tactics'
p6721
I3
sS'whether'
p6722
I9
sS'record'
p6723
I13
sS'below'
p6724
I3
sS'ruling'
p6725
I11
sS'200,000'
p6726
I2
sS'8.395'
p6727
I2
sS'eagerness'
p6728
I2
sS'911,606'
p6729
I2
sS'mutual'
p6730
I2
sS"'ll"
p6731
I5
sS'percent'
p6732
I2
sS'illinois'
p6733
I2
sS'book'
p6734
I4
sS'branch'
p6735
I7
sS'hand-held'
p6736
I2
sS'kinds'
p6737
I4
sS'june'
p6738
I8
sS'contends'
p6739
I2
sS'frustrate'
p6740
I2
sS'shere'
p6741
I7
sS'income-tax'
p6742
I3
sS'priced'
p6743
I14
sS'4.25'
p6744
I6
sS'4.27'
p6745
I2
sS'extort'
p6746
I2
sS'intentionally'
p6747
I2
sS'ideological'
p6748
I2
sS'smoke-filled'
p6749
I2
s.